GAS LISTING d:/MTK/MTK2503/MTK2503/11CW1418SP4_03_CORETEK03AE_11C_V1_GPRS_MMI/plutommi/Customer/ResGenerator/gcctmp/cc63daaa.s 			page 1


   1              		.file	"mtk_resgenerator.cpp"
   4              		.text
   5              	Ltext0:
 838              	.lcomm __ZSt8__ioinit,16
 2898              	.globl _g_is_clean
 2899              		.bss
 2900              		.align 4
 2901              	_g_is_clean:
 2902 0000 00000000 		.space 4
 2903              		.text
 2904              		.align 32
 2905              	LC0:
 2906 0000 47656E65 		.ascii "GenerateENFBAssociatedIDFile(): File output: CustENFBImgMap.c\0"
 2906      72617465 
 2906      454E4642 
 2906      4173736F 
 2906      63696174 
 2907              	LC1:
 2908 003e 4D544B5F 		.ascii "MTK_RESGENERATOR\0"
 2908      52455347 
 2908      454E4552 
 2908      41544F52 
 2908      00
 2909              	LC2:
 2910 004f 7700     		.ascii "w\0"
 2911 0051 EB0D9090 		.align 32
 2911      90909090 
 2911      90909090 
 2911      909090
 2912              	LC3:
 2913 0060 2E2E5C2E 		.ascii "..\\..\\Customer\\CustResource\\CustENFBImgMap.c\0"
 2913      2E5C4375 
 2913      73746F6D 
 2913      65725C43 
 2913      75737452 
 2914 008d 90909090 		.align 32
 2914      90909090 
 2914      90909090 
 2914      90909090 
 2914      909090
 2915              	LC4:
 2916 00a0 2F2A2A0A 		.ascii "/**\12 *\11Copyright Notice\12 *\11?2002 - 2003, Pixtel Communications, Inc., 1489 43rd Av
 2916      202A0943 
 2916      6F707972 
 2916      69676874 
 2916      204E6F74 
 2917 0196 8D76008D 		.align 32
 2917      BC270000 
 2917      0000
 2918              	LC5:
 2919 01a0 0A2F2A2A 		.ascii "\12/************************************************************** \12 FILENAME\11: CustEN
 2919      2A2A2A2A 
 2919      2A2A2A2A 
 2919      2A2A2A2A 
 2919      2A2A2A2A 
 2920              	LC6:
 2921 02ab 23696E63 		.ascii "#include \"CustDataRes.h\"\12\12\0"
GAS LISTING d:/MTK/MTK2503/MTK2503/11CW1418SP4_03_CORETEK03AE_11C_V1_GPRS_MMI/plutommi/Customer/ResGenerator/gcctmp/cc63daaa.s 			page 2


 2921      6C756465 
 2921      20224375 
 2921      73744461 
 2921      74615265 
 2922 02c6 90909090 		.align 32
 2922      90909090 
 2922      90909090 
 2922      90909090 
 2922      90909090 
 2923              	LC7:
 2924 02e0 636F6E73 		.ascii "const U32 CurrMaxENFBAssociatedIDNum = %d;\12\12\0"
 2924      74205533 
 2924      32204375 
 2924      72724D61 
 2924      78454E46 
 2925 030d 90909090 		.align 32
 2925      90909090 
 2925      90909090 
 2925      90909090 
 2925      909090
 2926              	LC8:
 2927 0320 636F6E73 		.ascii "const U16 Associated_IDs_%d[] = {\0"
 2927      74205531 
 2927      36204173 
 2927      736F6369 
 2927      61746564 
 2928              	LC9:
 2929 0342 25642C20 		.ascii "%d, \0"
 2929      00
 2930              	LC10:
 2931 0347 25647D3B 		.ascii "%d};\12\0"
 2931      0A00
 2932              	LC11:
 2933 034d 0A00     		.ascii "\12\0"
 2934 034f 90909090 		.align 32
 2934      90909090 
 2934      90909090 
 2934      90909090 
 2934      90
 2935              	LC12:
 2936 0360 636F6E73 		.ascii "const CUSTOM_ENFB AssociatedID_map[] = \12{\12\0"
 2936      74204355 
 2936      53544F4D 
 2936      5F454E46 
 2936      42204173 
 2937              	LC13:
 2938 038b 097B302C 		.ascii "\11{0, 0},\12\0"
 2938      20307D2C 
 2938      0A00
 2939              	LC14:
 2940 0395 097B302C 		.ascii "\11{0, 0}\12\0"
 2940      20307D0A 
 2940      00
 2941 039e 89F6     		.align 32
 2942              	LC15:
 2943 03a0 097B2564 		.ascii "\11{%d, (U16 *)&Associated_IDs_%d},\12\0"
 2943      2C202855 
GAS LISTING d:/MTK/MTK2503/MTK2503/11CW1418SP4_03_CORETEK03AE_11C_V1_GPRS_MMI/plutommi/Customer/ResGenerator/gcctmp/cc63daaa.s 			page 3


 2943      3136202A 
 2943      29264173 
 2943      736F6369 
 2944 03c3 90909090 		.align 32
 2944      90909090 
 2944      90909090 
 2944      90909090 
 2944      90909090 
 2945              	LC16:
 2946 03e0 097B2564 		.ascii "\11{%d, (U16 *)&Associated_IDs_%d}\12\0"
 2946      2C202855 
 2946      3136202A 
 2946      29264173 
 2946      736F6369 
 2947              	LC17:
 2948 0402 7D3B0A00 		.ascii "};\12\0"
 2949 0406 90909090 		.align 32
 2949      90909090 
 2949      90909090 
 2949      90909090 
 2949      90909090 
 2950              	LC18:
 2951 0420 4F757470 		.ascii "Output CustENFBImgMap.c... done\12\0"
 2951      75742043 
 2951      75737445 
 2951      4E464249 
 2951      6D674D61 
 2952 0441 90       		.align 2
 2955              	__Z28GenerateENFBAssociatedIDFilev:
   1:mtk_resgenerator.cpp **** /*****************************************************************************
   2:mtk_resgenerator.cpp **** *  Copyright Statement:
   3:mtk_resgenerator.cpp **** *  --------------------
   4:mtk_resgenerator.cpp **** *  This software is protected by Copyright and the information contained
   5:mtk_resgenerator.cpp **** *  herein is confidential. The software may not be copied and the information
   6:mtk_resgenerator.cpp **** *  contained herein may not be used or disclosed except with the written
   7:mtk_resgenerator.cpp **** *  permission of MediaTek Inc. (C) 2005
   8:mtk_resgenerator.cpp **** *
   9:mtk_resgenerator.cpp **** *  BY OPENING THIS FILE, BUYER HEREBY UNEQUIVOCALLY ACKNOWLEDGES AND AGREES
  10:mtk_resgenerator.cpp **** *  THAT THE SOFTWARE/FIRMWARE AND ITS DOCUMENTATIONS ("MEDIATEK SOFTWARE")
  11:mtk_resgenerator.cpp **** *  RECEIVED FROM MEDIATEK AND/OR ITS REPRESENTATIVES ARE PROVIDED TO BUYER ON
  12:mtk_resgenerator.cpp **** *  AN "AS-IS" BASIS ONLY. MEDIATEK EXPRESSLY DISCLAIMS ANY AND ALL WARRANTIES,
  13:mtk_resgenerator.cpp **** *  EXPRESS OR IMPLIED, INCLUDING BUT NOT LIMITED TO THE IMPLIED WARRANTIES OF
  14:mtk_resgenerator.cpp **** *  MERCHANTABILITY, FITNESS FOR A PARTICULAR PURPOSE OR NONINFRINGEMENT.
  15:mtk_resgenerator.cpp **** *  NEITHER DOES MEDIATEK PROVIDE ANY WARRANTY WHATSOEVER WITH RESPECT TO THE
  16:mtk_resgenerator.cpp **** *  SOFTWARE OF ANY THIRD PARTY WHICH MAY BE USED BY, INCORPORATED IN, OR
  17:mtk_resgenerator.cpp **** *  SUPPLIED WITH THE MEDIATEK SOFTWARE, AND BUYER AGREES TO LOOK ONLY TO SUCH
  18:mtk_resgenerator.cpp **** *  THIRD PARTY FOR ANY WARRANTY CLAIM RELATING THERETO. MEDIATEK SHALL ALSO
  19:mtk_resgenerator.cpp **** *  NOT BE RESPONSIBLE FOR ANY MEDIATEK SOFTWARE RELEASES MADE TO BUYER'S
  20:mtk_resgenerator.cpp **** *  SPECIFICATION OR TO CONFORM TO A PARTICULAR STANDARD OR OPEN FORUM.
  21:mtk_resgenerator.cpp **** *
  22:mtk_resgenerator.cpp **** *  BUYER'S SOLE AND EXCLUSIVE REMEDY AND MEDIATEK'S ENTIRE AND CUMULATIVE
  23:mtk_resgenerator.cpp **** *  LIABILITY WITH RESPECT TO THE MEDIATEK SOFTWARE RELEASED HEREUNDER WILL BE,
  24:mtk_resgenerator.cpp **** *  AT MEDIATEK'S OPTION, TO REVISE OR REPLACE THE MEDIATEK SOFTWARE AT ISSUE,
  25:mtk_resgenerator.cpp **** *  OR REFUND ANY SOFTWARE LICENSE FEES OR SERVICE CHARGE PAID BY BUYER TO
  26:mtk_resgenerator.cpp **** *  MEDIATEK FOR SUCH MEDIATEK SOFTWARE AT ISSUE.
  27:mtk_resgenerator.cpp **** *
  28:mtk_resgenerator.cpp **** *  THE TRANSACTION CONTEMPLATED HEREUNDER SHALL BE CONSTRUED IN ACCORDANCE
GAS LISTING d:/MTK/MTK2503/MTK2503/11CW1418SP4_03_CORETEK03AE_11C_V1_GPRS_MMI/plutommi/Customer/ResGenerator/gcctmp/cc63daaa.s 			page 4


  29:mtk_resgenerator.cpp **** *  WITH THE LAWS OF THE STATE OF CALIFORNIA, USA, EXCLUDING ITS CONFLICT OF
  30:mtk_resgenerator.cpp **** *  LAWS PRINCIPLES.  ANY DISPUTES, CONTROVERSIES OR CLAIMS ARISING THEREOF AND
  31:mtk_resgenerator.cpp **** *  RELATED THERETO SHALL BE SETTLED BY ARBITRATION IN SAN FRANCISCO, CA, UNDER
  32:mtk_resgenerator.cpp **** *  THE RULES OF THE INTERNATIONAL CHAMBER OF COMMERCE (ICC).
  33:mtk_resgenerator.cpp **** *
  34:mtk_resgenerator.cpp **** *****************************************************************************/
  35:mtk_resgenerator.cpp **** 
  36:mtk_resgenerator.cpp **** /*******************************************************************************
  37:mtk_resgenerator.cpp ****  * Filename:
  38:mtk_resgenerator.cpp ****  * ---------
  39:mtk_resgenerator.cpp ****  *  mtk_resgenerator.cpp
  40:mtk_resgenerator.cpp ****  *
  41:mtk_resgenerator.cpp ****  * Project:
  42:mtk_resgenerator.cpp ****  * --------
  43:mtk_resgenerator.cpp ****  *   MAUI
  44:mtk_resgenerator.cpp ****  *
  45:mtk_resgenerator.cpp ****  * Description:
  46:mtk_resgenerator.cpp ****  * ------------
  47:mtk_resgenerator.cpp ****  *   To Generator Resource C files.
  48:mtk_resgenerator.cpp ****  *
  49:mtk_resgenerator.cpp ****  * Author:
  50:mtk_resgenerator.cpp ****  * -------
  51:mtk_resgenerator.cpp ****  * -------
  52:mtk_resgenerator.cpp ****  *
  53:mtk_resgenerator.cpp **** *==============================================================================
  54:mtk_resgenerator.cpp ****  *              HISTORY
  55:mtk_resgenerator.cpp ****  * Below this line, this part is controlled by PVCS VM. DO NOT MODIFY!!
  56:mtk_resgenerator.cpp ****  *------------------------------------------------------------------------------
  57:mtk_resgenerator.cpp ****  * removed!
  58:mtk_resgenerator.cpp ****  *
  59:mtk_resgenerator.cpp ****  * removed!
  60:mtk_resgenerator.cpp ****  * removed!
  61:mtk_resgenerator.cpp ****  * removed!
  62:mtk_resgenerator.cpp ****  *
  63:mtk_resgenerator.cpp ****  * removed!
  64:mtk_resgenerator.cpp ****  * removed!
  65:mtk_resgenerator.cpp ****  * removed!
  66:mtk_resgenerator.cpp ****  *
  67:mtk_resgenerator.cpp ****  * removed!
  68:mtk_resgenerator.cpp ****  * removed!
  69:mtk_resgenerator.cpp ****  * removed!
  70:mtk_resgenerator.cpp ****  *
  71:mtk_resgenerator.cpp ****  * removed!
  72:mtk_resgenerator.cpp ****  * removed!
  73:mtk_resgenerator.cpp ****  * removed!
  74:mtk_resgenerator.cpp ****  *
  75:mtk_resgenerator.cpp ****  * removed!
  76:mtk_resgenerator.cpp ****  * removed!
  77:mtk_resgenerator.cpp ****  * removed!
  78:mtk_resgenerator.cpp ****  *
  79:mtk_resgenerator.cpp ****  * removed!
  80:mtk_resgenerator.cpp ****  * removed!
  81:mtk_resgenerator.cpp ****  *
  82:mtk_resgenerator.cpp ****  * removed!
  83:mtk_resgenerator.cpp ****  * removed!
  84:mtk_resgenerator.cpp ****  * removed!
  85:mtk_resgenerator.cpp ****  * removed!
GAS LISTING d:/MTK/MTK2503/MTK2503/11CW1418SP4_03_CORETEK03AE_11C_V1_GPRS_MMI/plutommi/Customer/ResGenerator/gcctmp/cc63daaa.s 			page 5


  86:mtk_resgenerator.cpp ****  * removed!
  87:mtk_resgenerator.cpp ****  *
  88:mtk_resgenerator.cpp ****  * removed!
  89:mtk_resgenerator.cpp ****  * removed!
  90:mtk_resgenerator.cpp ****  * removed!
  91:mtk_resgenerator.cpp ****  *
  92:mtk_resgenerator.cpp ****  * removed!
  93:mtk_resgenerator.cpp ****  * removed!
  94:mtk_resgenerator.cpp ****  * removed!
  95:mtk_resgenerator.cpp ****  *
  96:mtk_resgenerator.cpp ****  * removed!
  97:mtk_resgenerator.cpp ****  * removed!
  98:mtk_resgenerator.cpp ****  * removed!
  99:mtk_resgenerator.cpp ****  *
 100:mtk_resgenerator.cpp ****  * removed!
 101:mtk_resgenerator.cpp ****  * removed!
 102:mtk_resgenerator.cpp ****  * removed!
 103:mtk_resgenerator.cpp ****  *
 104:mtk_resgenerator.cpp ****  * removed!
 105:mtk_resgenerator.cpp ****  * removed!
 106:mtk_resgenerator.cpp ****  * removed!
 107:mtk_resgenerator.cpp ****  *
 108:mtk_resgenerator.cpp ****  * removed!
 109:mtk_resgenerator.cpp ****  * removed!
 110:mtk_resgenerator.cpp ****  * removed!
 111:mtk_resgenerator.cpp ****  *
 112:mtk_resgenerator.cpp ****  * removed!
 113:mtk_resgenerator.cpp ****  * removed!
 114:mtk_resgenerator.cpp ****  * removed!
 115:mtk_resgenerator.cpp ****  *
 116:mtk_resgenerator.cpp ****  * removed!
 117:mtk_resgenerator.cpp ****  * removed!
 118:mtk_resgenerator.cpp ****  * removed!
 119:mtk_resgenerator.cpp ****  *
 120:mtk_resgenerator.cpp ****  * removed!
 121:mtk_resgenerator.cpp ****  * removed!
 122:mtk_resgenerator.cpp ****  * removed!
 123:mtk_resgenerator.cpp ****  *
 124:mtk_resgenerator.cpp ****  * removed!
 125:mtk_resgenerator.cpp ****  * removed!
 126:mtk_resgenerator.cpp ****  * removed!
 127:mtk_resgenerator.cpp ****  *
 128:mtk_resgenerator.cpp ****  * removed!
 129:mtk_resgenerator.cpp ****  * removed!
 130:mtk_resgenerator.cpp ****  * removed!
 131:mtk_resgenerator.cpp ****  *
 132:mtk_resgenerator.cpp ****  * removed!
 133:mtk_resgenerator.cpp ****  * removed!
 134:mtk_resgenerator.cpp ****  * removed!
 135:mtk_resgenerator.cpp ****  *
 136:mtk_resgenerator.cpp ****  * removed!
 137:mtk_resgenerator.cpp ****  * removed!
 138:mtk_resgenerator.cpp ****  * removed!
 139:mtk_resgenerator.cpp ****  *
 140:mtk_resgenerator.cpp ****  * removed!
 141:mtk_resgenerator.cpp ****  * removed!
 142:mtk_resgenerator.cpp ****  * removed!
GAS LISTING d:/MTK/MTK2503/MTK2503/11CW1418SP4_03_CORETEK03AE_11C_V1_GPRS_MMI/plutommi/Customer/ResGenerator/gcctmp/cc63daaa.s 			page 6


 143:mtk_resgenerator.cpp ****  *
 144:mtk_resgenerator.cpp ****  * removed!
 145:mtk_resgenerator.cpp ****  * removed!
 146:mtk_resgenerator.cpp ****  * removed!
 147:mtk_resgenerator.cpp ****  *
 148:mtk_resgenerator.cpp ****  * removed!
 149:mtk_resgenerator.cpp ****  * removed!
 150:mtk_resgenerator.cpp ****  * removed!
 151:mtk_resgenerator.cpp ****  *
 152:mtk_resgenerator.cpp ****  * removed!
 153:mtk_resgenerator.cpp ****  * removed!
 154:mtk_resgenerator.cpp ****  * removed!
 155:mtk_resgenerator.cpp ****  *
 156:mtk_resgenerator.cpp ****  * removed!
 157:mtk_resgenerator.cpp ****  * removed!
 158:mtk_resgenerator.cpp ****  * removed!
 159:mtk_resgenerator.cpp ****  *
 160:mtk_resgenerator.cpp ****  * removed!
 161:mtk_resgenerator.cpp ****  * removed!
 162:mtk_resgenerator.cpp ****  * removed!
 163:mtk_resgenerator.cpp ****  *
 164:mtk_resgenerator.cpp ****  * removed!
 165:mtk_resgenerator.cpp ****  * removed!
 166:mtk_resgenerator.cpp ****  * removed!
 167:mtk_resgenerator.cpp ****  *
 168:mtk_resgenerator.cpp ****  * removed!
 169:mtk_resgenerator.cpp ****  * removed!
 170:mtk_resgenerator.cpp ****  * removed!
 171:mtk_resgenerator.cpp ****  *
 172:mtk_resgenerator.cpp ****  * removed!
 173:mtk_resgenerator.cpp ****  * removed!
 174:mtk_resgenerator.cpp ****  * removed!
 175:mtk_resgenerator.cpp ****  *
 176:mtk_resgenerator.cpp ****  * removed!
 177:mtk_resgenerator.cpp ****  * removed!
 178:mtk_resgenerator.cpp ****  * removed!
 179:mtk_resgenerator.cpp ****  *
 180:mtk_resgenerator.cpp ****  * removed!
 181:mtk_resgenerator.cpp ****  * removed!
 182:mtk_resgenerator.cpp ****  * removed!
 183:mtk_resgenerator.cpp ****  *
 184:mtk_resgenerator.cpp ****  * removed!
 185:mtk_resgenerator.cpp ****  * removed!
 186:mtk_resgenerator.cpp ****  * removed!
 187:mtk_resgenerator.cpp ****  *
 188:mtk_resgenerator.cpp ****  * removed!
 189:mtk_resgenerator.cpp ****  * removed!
 190:mtk_resgenerator.cpp ****  * removed!
 191:mtk_resgenerator.cpp ****  *
 192:mtk_resgenerator.cpp ****  * removed!
 193:mtk_resgenerator.cpp ****  * removed!
 194:mtk_resgenerator.cpp ****  * removed!
 195:mtk_resgenerator.cpp ****  *
 196:mtk_resgenerator.cpp ****  * removed!
 197:mtk_resgenerator.cpp ****  * removed!
 198:mtk_resgenerator.cpp ****  * removed!
 199:mtk_resgenerator.cpp ****  *
GAS LISTING d:/MTK/MTK2503/MTK2503/11CW1418SP4_03_CORETEK03AE_11C_V1_GPRS_MMI/plutommi/Customer/ResGenerator/gcctmp/cc63daaa.s 			page 7


 200:mtk_resgenerator.cpp ****  * removed!
 201:mtk_resgenerator.cpp ****  * removed!
 202:mtk_resgenerator.cpp ****  * removed!
 203:mtk_resgenerator.cpp ****  *
 204:mtk_resgenerator.cpp ****  * removed!
 205:mtk_resgenerator.cpp ****  * removed!
 206:mtk_resgenerator.cpp ****  * removed!
 207:mtk_resgenerator.cpp ****  *
 208:mtk_resgenerator.cpp ****  * removed!
 209:mtk_resgenerator.cpp ****  * removed!
 210:mtk_resgenerator.cpp ****  * removed!
 211:mtk_resgenerator.cpp ****  *
 212:mtk_resgenerator.cpp ****  * removed!
 213:mtk_resgenerator.cpp ****  * removed!
 214:mtk_resgenerator.cpp ****  * removed!
 215:mtk_resgenerator.cpp ****  *
 216:mtk_resgenerator.cpp ****  * removed!
 217:mtk_resgenerator.cpp ****  * removed!
 218:mtk_resgenerator.cpp ****  * removed!
 219:mtk_resgenerator.cpp ****  *
 220:mtk_resgenerator.cpp ****  * removed!
 221:mtk_resgenerator.cpp ****  * removed!
 222:mtk_resgenerator.cpp ****  * removed!
 223:mtk_resgenerator.cpp ****  *
 224:mtk_resgenerator.cpp ****  * removed!
 225:mtk_resgenerator.cpp ****  * removed!
 226:mtk_resgenerator.cpp ****  * removed!
 227:mtk_resgenerator.cpp ****  *
 228:mtk_resgenerator.cpp ****  * removed!
 229:mtk_resgenerator.cpp ****  * removed!
 230:mtk_resgenerator.cpp ****  * removed!
 231:mtk_resgenerator.cpp ****  *
 232:mtk_resgenerator.cpp ****  * removed!
 233:mtk_resgenerator.cpp ****  * removed!
 234:mtk_resgenerator.cpp ****  * removed!
 235:mtk_resgenerator.cpp ****  *
 236:mtk_resgenerator.cpp ****  * removed!
 237:mtk_resgenerator.cpp ****  * removed!
 238:mtk_resgenerator.cpp ****  * removed!
 239:mtk_resgenerator.cpp ****  *
 240:mtk_resgenerator.cpp ****  * removed!
 241:mtk_resgenerator.cpp ****  * removed!
 242:mtk_resgenerator.cpp ****  * removed!
 243:mtk_resgenerator.cpp ****  *
 244:mtk_resgenerator.cpp ****  * removed!
 245:mtk_resgenerator.cpp ****  * removed!
 246:mtk_resgenerator.cpp ****  * removed!
 247:mtk_resgenerator.cpp ****  *
 248:mtk_resgenerator.cpp ****  * removed!
 249:mtk_resgenerator.cpp ****  * removed!
 250:mtk_resgenerator.cpp ****  * removed!
 251:mtk_resgenerator.cpp ****  *
 252:mtk_resgenerator.cpp ****  * removed!
 253:mtk_resgenerator.cpp ****  * removed!
 254:mtk_resgenerator.cpp ****  * removed!
 255:mtk_resgenerator.cpp ****  *
 256:mtk_resgenerator.cpp ****  * removed!
GAS LISTING d:/MTK/MTK2503/MTK2503/11CW1418SP4_03_CORETEK03AE_11C_V1_GPRS_MMI/plutommi/Customer/ResGenerator/gcctmp/cc63daaa.s 			page 8


 257:mtk_resgenerator.cpp ****  * removed!
 258:mtk_resgenerator.cpp ****  * removed!
 259:mtk_resgenerator.cpp ****  *
 260:mtk_resgenerator.cpp ****  * removed!
 261:mtk_resgenerator.cpp ****  * removed!
 262:mtk_resgenerator.cpp ****  * removed!
 263:mtk_resgenerator.cpp ****  *
 264:mtk_resgenerator.cpp ****  * removed!
 265:mtk_resgenerator.cpp ****  * removed!
 266:mtk_resgenerator.cpp ****  * removed!
 267:mtk_resgenerator.cpp ****  *
 268:mtk_resgenerator.cpp ****  * removed!
 269:mtk_resgenerator.cpp ****  * removed!
 270:mtk_resgenerator.cpp ****  * removed!
 271:mtk_resgenerator.cpp ****  *
 272:mtk_resgenerator.cpp ****  * removed!
 273:mtk_resgenerator.cpp ****  * removed!
 274:mtk_resgenerator.cpp ****  * removed!
 275:mtk_resgenerator.cpp ****  *
 276:mtk_resgenerator.cpp ****  * removed!
 277:mtk_resgenerator.cpp ****  * removed!
 278:mtk_resgenerator.cpp ****  *
 279:mtk_resgenerator.cpp ****  *
 280:mtk_resgenerator.cpp ****  * removed!
 281:mtk_resgenerator.cpp ****  * removed!
 282:mtk_resgenerator.cpp ****  * removed!
 283:mtk_resgenerator.cpp ****  *
 284:mtk_resgenerator.cpp ****  * removed!
 285:mtk_resgenerator.cpp ****  * removed!
 286:mtk_resgenerator.cpp ****  *
 287:mtk_resgenerator.cpp ****  *
 288:mtk_resgenerator.cpp ****  * removed!
 289:mtk_resgenerator.cpp ****  * removed!
 290:mtk_resgenerator.cpp ****  *
 291:mtk_resgenerator.cpp ****  *
 292:mtk_resgenerator.cpp ****  * removed!
 293:mtk_resgenerator.cpp ****  * removed!
 294:mtk_resgenerator.cpp ****  *
 295:mtk_resgenerator.cpp ****  *
 296:mtk_resgenerator.cpp ****  * removed!
 297:mtk_resgenerator.cpp ****  * removed!
 298:mtk_resgenerator.cpp ****  *
 299:mtk_resgenerator.cpp ****  *
 300:mtk_resgenerator.cpp ****  * removed!
 301:mtk_resgenerator.cpp ****  * removed!
 302:mtk_resgenerator.cpp ****  *
 303:mtk_resgenerator.cpp ****  *
 304:mtk_resgenerator.cpp ****  * removed!
 305:mtk_resgenerator.cpp ****  * removed!
 306:mtk_resgenerator.cpp ****  *
 307:mtk_resgenerator.cpp ****  *
 308:mtk_resgenerator.cpp ****  * removed!
 309:mtk_resgenerator.cpp ****  * removed!
 310:mtk_resgenerator.cpp ****  *
 311:mtk_resgenerator.cpp ****  *
 312:mtk_resgenerator.cpp ****  * removed!
 313:mtk_resgenerator.cpp ****  * removed!
GAS LISTING d:/MTK/MTK2503/MTK2503/11CW1418SP4_03_CORETEK03AE_11C_V1_GPRS_MMI/plutommi/Customer/ResGenerator/gcctmp/cc63daaa.s 			page 9


 314:mtk_resgenerator.cpp ****  *
 315:mtk_resgenerator.cpp ****  *
 316:mtk_resgenerator.cpp ****  * removed!
 317:mtk_resgenerator.cpp ****  * removed!
 318:mtk_resgenerator.cpp ****  *
 319:mtk_resgenerator.cpp ****  *
 320:mtk_resgenerator.cpp ****  * removed!
 321:mtk_resgenerator.cpp ****  * removed!
 322:mtk_resgenerator.cpp ****  *
 323:mtk_resgenerator.cpp ****  *
 324:mtk_resgenerator.cpp ****  * removed!
 325:mtk_resgenerator.cpp ****  * removed!
 326:mtk_resgenerator.cpp ****  * removed!
 327:mtk_resgenerator.cpp ****  *
 328:mtk_resgenerator.cpp ****  * removed!
 329:mtk_resgenerator.cpp ****  * removed!
 330:mtk_resgenerator.cpp ****  *
 331:mtk_resgenerator.cpp ****  *
 332:mtk_resgenerator.cpp ****  * removed!
 333:mtk_resgenerator.cpp ****  * removed!
 334:mtk_resgenerator.cpp ****  *
 335:mtk_resgenerator.cpp ****  *
 336:mtk_resgenerator.cpp ****  * removed!
 337:mtk_resgenerator.cpp ****  * removed!
 338:mtk_resgenerator.cpp ****  *
 339:mtk_resgenerator.cpp ****  *
 340:mtk_resgenerator.cpp ****  * removed!
 341:mtk_resgenerator.cpp ****  * removed!
 342:mtk_resgenerator.cpp ****  *
 343:mtk_resgenerator.cpp ****  *
 344:mtk_resgenerator.cpp ****  * removed!
 345:mtk_resgenerator.cpp ****  * removed!
 346:mtk_resgenerator.cpp ****  *
 347:mtk_resgenerator.cpp ****  *
 348:mtk_resgenerator.cpp ****  * removed!
 349:mtk_resgenerator.cpp ****  * removed!
 350:mtk_resgenerator.cpp ****  *
 351:mtk_resgenerator.cpp ****  *
 352:mtk_resgenerator.cpp ****  * removed!
 353:mtk_resgenerator.cpp ****  * removed!
 354:mtk_resgenerator.cpp ****  *
 355:mtk_resgenerator.cpp ****  *
 356:mtk_resgenerator.cpp ****  * removed!
 357:mtk_resgenerator.cpp ****  * removed!
 358:mtk_resgenerator.cpp ****  *
 359:mtk_resgenerator.cpp ****  *
 360:mtk_resgenerator.cpp ****  * removed!
 361:mtk_resgenerator.cpp ****  * removed!
 362:mtk_resgenerator.cpp ****  *
 363:mtk_resgenerator.cpp ****  *
 364:mtk_resgenerator.cpp ****  * removed!
 365:mtk_resgenerator.cpp ****  * removed!
 366:mtk_resgenerator.cpp ****  *
 367:mtk_resgenerator.cpp ****  *
 368:mtk_resgenerator.cpp ****  * removed!
 369:mtk_resgenerator.cpp ****  * removed!
 370:mtk_resgenerator.cpp ****  * removed!
GAS LISTING d:/MTK/MTK2503/MTK2503/11CW1418SP4_03_CORETEK03AE_11C_V1_GPRS_MMI/plutommi/Customer/ResGenerator/gcctmp/cc63daaa.s 			page 10


 371:mtk_resgenerator.cpp ****  *
 372:mtk_resgenerator.cpp ****  * removed!
 373:mtk_resgenerator.cpp ****  * removed!
 374:mtk_resgenerator.cpp ****  *
 375:mtk_resgenerator.cpp ****  *
 376:mtk_resgenerator.cpp ****  * removed!
 377:mtk_resgenerator.cpp ****  * removed!
 378:mtk_resgenerator.cpp ****  * removed!
 379:mtk_resgenerator.cpp ****  *
 380:mtk_resgenerator.cpp ****  * removed!
 381:mtk_resgenerator.cpp ****  * removed!
 382:mtk_resgenerator.cpp ****  *
 383:mtk_resgenerator.cpp ****  *
 384:mtk_resgenerator.cpp ****  * removed!
 385:mtk_resgenerator.cpp ****  * removed!
 386:mtk_resgenerator.cpp ****  *
 387:mtk_resgenerator.cpp ****  *
 388:mtk_resgenerator.cpp ****  * removed!
 389:mtk_resgenerator.cpp ****  * removed!
 390:mtk_resgenerator.cpp ****  *
 391:mtk_resgenerator.cpp ****  *
 392:mtk_resgenerator.cpp ****  * removed!
 393:mtk_resgenerator.cpp ****  * removed!
 394:mtk_resgenerator.cpp ****  *
 395:mtk_resgenerator.cpp ****  *
 396:mtk_resgenerator.cpp ****  * removed!
 397:mtk_resgenerator.cpp ****  * removed!
 398:mtk_resgenerator.cpp ****  *
 399:mtk_resgenerator.cpp ****  *
 400:mtk_resgenerator.cpp ****  * removed!
 401:mtk_resgenerator.cpp ****  * removed!
 402:mtk_resgenerator.cpp ****  *
 403:mtk_resgenerator.cpp ****  *
 404:mtk_resgenerator.cpp ****  * removed!
 405:mtk_resgenerator.cpp ****  * removed!
 406:mtk_resgenerator.cpp ****  *
 407:mtk_resgenerator.cpp ****  *
 408:mtk_resgenerator.cpp ****  * removed!
 409:mtk_resgenerator.cpp ****  * removed!
 410:mtk_resgenerator.cpp ****  *
 411:mtk_resgenerator.cpp ****  *
 412:mtk_resgenerator.cpp ****  * removed!
 413:mtk_resgenerator.cpp ****  * removed!
 414:mtk_resgenerator.cpp ****  *
 415:mtk_resgenerator.cpp ****  *
 416:mtk_resgenerator.cpp ****  * removed!
 417:mtk_resgenerator.cpp ****  * removed!
 418:mtk_resgenerator.cpp ****  *
 419:mtk_resgenerator.cpp ****  *
 420:mtk_resgenerator.cpp ****  * removed!
 421:mtk_resgenerator.cpp ****  * removed!
 422:mtk_resgenerator.cpp ****  * removed!
 423:mtk_resgenerator.cpp ****  *
 424:mtk_resgenerator.cpp ****  * removed!
 425:mtk_resgenerator.cpp ****  * removed!
 426:mtk_resgenerator.cpp ****  *
 427:mtk_resgenerator.cpp ****  *
GAS LISTING d:/MTK/MTK2503/MTK2503/11CW1418SP4_03_CORETEK03AE_11C_V1_GPRS_MMI/plutommi/Customer/ResGenerator/gcctmp/cc63daaa.s 			page 11


 428:mtk_resgenerator.cpp ****  * removed!
 429:mtk_resgenerator.cpp ****  * removed!
 430:mtk_resgenerator.cpp ****  *
 431:mtk_resgenerator.cpp ****  *
 432:mtk_resgenerator.cpp ****  *------------------------------------------------------------------------------
 433:mtk_resgenerator.cpp ****  * Upper this line, this part is controlled by PVCS VM. DO NOT MODIFY!!
 434:mtk_resgenerator.cpp ****  *==============================================================================
 435:mtk_resgenerator.cpp ****  *******************************************************************************/
 436:mtk_resgenerator.cpp **** 
 437:mtk_resgenerator.cpp **** 
 438:mtk_resgenerator.cpp **** #include <stdio.h>
 439:mtk_resgenerator.cpp **** #include <stdlib.h>
 440:mtk_resgenerator.cpp **** 
 441:mtk_resgenerator.cpp **** #include "MMIDataType.h"
 442:mtk_resgenerator.cpp **** 
 443:mtk_resgenerator.cpp **** extern "C" {
 444:mtk_resgenerator.cpp **** #include "CustDataRes.h"
 445:mtk_resgenerator.cpp **** #include "CustMenuRes.h"
 446:mtk_resgenerator.cpp **** #include "CustResDef.h"
 447:mtk_resgenerator.cpp **** #include "mmi_features.h"
 448:mtk_resgenerator.cpp **** #include "WriteResUtil.h"
 449:mtk_resgenerator.cpp **** #include "LegacyResPopService.h"
 450:mtk_resgenerator.cpp **** #include "str_merge_public.h"
 451:mtk_resgenerator.cpp **** #include "ExternalCMDManagerCAPI.h"
 452:mtk_resgenerator.cpp **** #include "ResgenLogCAPI.h"
 453:mtk_resgenerator.cpp **** }
 454:mtk_resgenerator.cpp **** ////////////////////////////////////////////
 455:mtk_resgenerator.cpp **** // Offilne Generator Headers
 456:mtk_resgenerator.cpp **** ////////////////////////////////////////////
 457:mtk_resgenerator.cpp **** #ifdef __RESGEN_INTERNAL_OFFLINE__
 458:mtk_resgenerator.cpp **** #include "stdafx.h"
 459:mtk_resgenerator.cpp **** #include <vector>
 460:mtk_resgenerator.cpp **** #include <string>
 461:mtk_resgenerator.cpp **** 
 462:mtk_resgenerator.cpp **** #include "OfflineResParam.h"
 463:mtk_resgenerator.cpp **** #include "OfflineResDAO.h"
 464:mtk_resgenerator.cpp **** #include "OfflineResParamModel.h"
 465:mtk_resgenerator.cpp **** #include "OfflineResHelper.h"
 466:mtk_resgenerator.cpp **** #include "OfflineResPopAdaptor.h"
 467:mtk_resgenerator.cpp **** #include "CatResGenerator.h"
 468:mtk_resgenerator.cpp **** #endif // __RESGEN_INTERNAL_OFFLINE__
 469:mtk_resgenerator.cpp **** ////////////////////////////////////////////
 470:mtk_resgenerator.cpp **** 
 471:mtk_resgenerator.cpp **** #include "ResCompressConfig.h"
 472:mtk_resgenerator.cpp **** #include "ResgenCatConfig.h"
 473:mtk_resgenerator.cpp **** #include "ResgenCrashHandlingServ.h"
 474:mtk_resgenerator.cpp **** #include "ResgenConfigurator.h"
 475:mtk_resgenerator.cpp **** #include "ImageGroupCreator.h"
 476:mtk_resgenerator.cpp **** 
 477:mtk_resgenerator.cpp **** #ifdef __REGEN_INTERNAL_BATCHED__
 478:mtk_resgenerator.cpp **** #include "BinaryModeResGen.h"
 479:mtk_resgenerator.cpp **** #endif
 480:mtk_resgenerator.cpp **** 
 481:mtk_resgenerator.cpp **** #define WIN32_LEAN_AND_MEAN
 482:mtk_resgenerator.cpp **** #include "windows.h"
 483:mtk_resgenerator.cpp **** 
 484:mtk_resgenerator.cpp **** #include <time.h>
GAS LISTING d:/MTK/MTK2503/MTK2503/11CW1418SP4_03_CORETEK03AE_11C_V1_GPRS_MMI/plutommi/Customer/ResGenerator/gcctmp/cc63daaa.s 			page 12


 485:mtk_resgenerator.cpp **** 
 486:mtk_resgenerator.cpp **** /* Enable roud-robin image split method */
 487:mtk_resgenerator.cpp **** #define RESGEN_IMG_SPLIT_OUTPUT_ROUND_ROBIN
 488:mtk_resgenerator.cpp **** 
 489:mtk_resgenerator.cpp **** /* buffer size for shell command */
 490:mtk_resgenerator.cpp **** #define SHELL_CMD_BUFLEN    (MAX_FILENAME_LEN + 100)
 491:mtk_resgenerator.cpp **** /* buffer size for unzip command */
 492:mtk_resgenerator.cpp **** #define UNZIP_CMD_BUFLEN    256
 493:mtk_resgenerator.cpp **** 
 494:mtk_resgenerator.cpp **** #define RESGEN_TAG        "MTK_RESGENERATOR"
 495:mtk_resgenerator.cpp **** 
 496:mtk_resgenerator.cpp **** #define RESGEN_LOG_D(format, args...) RES_LOG_D((RESGEN_TAG), (format) , ##args)
 497:mtk_resgenerator.cpp **** #define RESGEN_LOG_V(format, args...) RES_LOG_V((RESGEN_TAG), (format) , ##args)
 498:mtk_resgenerator.cpp **** #define RESGEN_LOG_W(format, args...) RES_LOG_W((RESGEN_TAG), (format) , ##args)
 499:mtk_resgenerator.cpp **** #define RESGEN_LOG_E(format, args...) RES_LOG_E((RESGEN_TAG), (format) , ##args)
 500:mtk_resgenerator.cpp **** 
 501:mtk_resgenerator.cpp **** #define RESGEN_WLOG_D(format, args...) RES_WLOG_D((RESGEN_TAG), (format) , ##args)
 502:mtk_resgenerator.cpp **** #define RESGEN_WLOG_V(format, args...) RES_WLOG_V((RESGEN_TAG), (format) , ##args)
 503:mtk_resgenerator.cpp **** #define RESGEN_WLOG_W(format, args...) RES_WLOG_W((RESGEN_TAG), (format) , ##args)
 504:mtk_resgenerator.cpp **** #define RESGEN_WLOG_E(format, args...) RES_WLOG_E((RESGEN_TAG), (format) , ##args)
 505:mtk_resgenerator.cpp **** 
 506:mtk_resgenerator.cpp **** 
 507:mtk_resgenerator.cpp **** 
 508:mtk_resgenerator.cpp **** 
 509:mtk_resgenerator.cpp **** /* buffer size of cust pack error log */
 510:mtk_resgenerator.cpp **** #define CUSTPACK_LOG_BUFLEN 256
 511:mtk_resgenerator.cpp **** #define CUSTPACL_LOG_FILE_NAME "resgen_custpack.log"
 512:mtk_resgenerator.cpp **** 
 513:mtk_resgenerator.cpp **** #ifdef __CAT_SUPPORT__
 514:mtk_resgenerator.cpp ****     #define STR_COMPRESS_CMD_OPTION_STR_PADDING MMIRESOURCE_CAT_STR_COMPRESS_RESERVED_MARGIN_SIZE_B
 515:mtk_resgenerator.cpp **** #else
 516:mtk_resgenerator.cpp ****     #define STR_COMPRESS_CMD_OPTION_STR_PADDING 0
 517:mtk_resgenerator.cpp **** #endif //__CAT_SUPPORT__
 518:mtk_resgenerator.cpp **** 
 519:mtk_resgenerator.cpp **** 
 520:mtk_resgenerator.cpp **** /* type definition */
 521:mtk_resgenerator.cpp **** typedef struct
 522:mtk_resgenerator.cpp **** {
 523:mtk_resgenerator.cpp ****     U16 Num;
 524:mtk_resgenerator.cpp **** } CUSTOM_ID_MAP;
 525:mtk_resgenerator.cpp **** 
 526:mtk_resgenerator.cpp **** typedef struct
 527:mtk_resgenerator.cpp **** {
 528:mtk_resgenerator.cpp ****     U16 minId;
 529:mtk_resgenerator.cpp ****     U16 maxId;
 530:mtk_resgenerator.cpp ****     U16 index;
 531:mtk_resgenerator.cpp **** } CUSTOM_ID_SEARCH_MAP;
 532:mtk_resgenerator.cpp **** 
 533:mtk_resgenerator.cpp **** typedef struct
 534:mtk_resgenerator.cpp **** {
 535:mtk_resgenerator.cpp ****     S8 filename[MAX_FILENAME_LEN];
 536:mtk_resgenerator.cpp **** } CUSTOM_NAME_LIST;
 537:mtk_resgenerator.cpp **** 
 538:mtk_resgenerator.cpp **** 
 539:mtk_resgenerator.cpp **** /* Extern variable */
 540:mtk_resgenerator.cpp **** extern "C" CUSTOM_IMAGE_MAP            ImageIdMap[];
 541:mtk_resgenerator.cpp **** extern "C" CUSTOM_IMAGE_SEARCH_MAP     ImageIdSearchMap[];
GAS LISTING d:/MTK/MTK2503/MTK2503/11CW1418SP4_03_CORETEK03AE_11C_V1_GPRS_MMI/plutommi/Customer/ResGenerator/gcctmp/cc63daaa.s 			page 13


 542:mtk_resgenerator.cpp **** extern "C" IMAGENAME_LIST              ImageNameList[];
 543:mtk_resgenerator.cpp **** 
 544:mtk_resgenerator.cpp **** extern "C" CUSTOM_IMAGE_MAP            ImageIdMapEXT[];
 545:mtk_resgenerator.cpp **** extern "C" CUSTOM_IMAGE_SEARCH_MAP     ImageIdSearchMapEXT[];
 546:mtk_resgenerator.cpp **** extern "C" IMAGENAME_LIST              ImageNameListEXT[];
 547:mtk_resgenerator.cpp **** 
 548:mtk_resgenerator.cpp **** extern "C" CUSTOM_FONT_MAP            FontIdMapEXT[];
 549:mtk_resgenerator.cpp **** extern "C" CUSTOM_FONT_SEARCH_MAP     FontIdSearchMapEXT[];
 550:mtk_resgenerator.cpp **** extern "C" FONTNAME_LIST              FontNameListEXT[];
 551:mtk_resgenerator.cpp **** 
 552:mtk_resgenerator.cpp **** 
 553:mtk_resgenerator.cpp **** 
 554:mtk_resgenerator.cpp **** extern "C" CUSTOM_AUDIO_MAP         AudioIdMap[];
 555:mtk_resgenerator.cpp **** extern "C" CUSTOM_AUDIO_SEARCH_MAP  AudioIdSearchMap[];
 556:mtk_resgenerator.cpp **** extern "C" AUDIONAME_LIST           AudioNameList[];
 557:mtk_resgenerator.cpp **** 
 558:mtk_resgenerator.cpp **** extern "C" CUSTOM_AUDIO_MAP         AudioIdMapEXT[];
 559:mtk_resgenerator.cpp **** extern "C" CUSTOM_AUDIO_SEARCH_MAP  AudioIdSearchMapEXT[];
 560:mtk_resgenerator.cpp **** extern "C" AUDIONAME_LIST           AudioNameListEXT[];
 561:mtk_resgenerator.cpp **** 
 562:mtk_resgenerator.cpp **** extern "C" CUSTOM_MENU              nCustMenus[];
 563:mtk_resgenerator.cpp **** extern "C" unsigned short           CurrMaxMenuItemIndex;   //Max menu Ids
 564:mtk_resgenerator.cpp **** 
 565:mtk_resgenerator.cpp **** extern "C" unsigned short           CurrMaxImageId;         //Max String Ids
 566:mtk_resgenerator.cpp **** extern "C" unsigned short           CurrMaxSearchImageId;   //Max String Ids
 567:mtk_resgenerator.cpp **** extern "C" unsigned short           CurrMaxImageNum;        //Max Number Ids
 568:mtk_resgenerator.cpp **** 
 569:mtk_resgenerator.cpp **** extern "C" unsigned short           CurrMaxImageIdEXT;
 570:mtk_resgenerator.cpp **** extern "C" unsigned short           CurrMaxSearchImageIdEXT;
 571:mtk_resgenerator.cpp **** extern "C" unsigned short           CurrMaxImageNumEXT;
 572:mtk_resgenerator.cpp **** 
 573:mtk_resgenerator.cpp **** extern "C" unsigned short           CurrMaxFontIdEXT;
 574:mtk_resgenerator.cpp **** extern "C" unsigned short           CurrMaxSearchFontIdEXT;
 575:mtk_resgenerator.cpp **** extern "C" unsigned short           CurrMaxFontNumEXT;
 576:mtk_resgenerator.cpp **** 
 577:mtk_resgenerator.cpp **** 
 578:mtk_resgenerator.cpp **** extern "C" unsigned short           CurrMaxAudioId;         //Max String Ids
 579:mtk_resgenerator.cpp **** extern "C" unsigned short           CurrMaxSearchAudioId;   //Max String Ids
 580:mtk_resgenerator.cpp **** extern "C" unsigned short           CurrMaxAudioNum;        //Max Number Ids
 581:mtk_resgenerator.cpp **** 
 582:mtk_resgenerator.cpp **** extern "C" unsigned short           CurrMaxAudioIdEXT;
 583:mtk_resgenerator.cpp **** extern "C" unsigned short           CurrMaxSearchAudioIdEXT;
 584:mtk_resgenerator.cpp **** extern "C" unsigned short           CurrMaxAudioNumEXT;
 585:mtk_resgenerator.cpp **** 
 586:mtk_resgenerator.cpp **** 
 587:mtk_resgenerator.cpp **** extern "C" FILE*                    dest_file;
 588:mtk_resgenerator.cpp **** extern "C" int                      toolFlag;
 589:mtk_resgenerator.cpp **** extern "C" int                      resultFailFlag;
 590:mtk_resgenerator.cpp **** extern "C" MMI_BOOL                 g_is_log;
 591:mtk_resgenerator.cpp **** MMI_BOOL                            g_is_clean = MMI_FALSE;
 592:mtk_resgenerator.cpp **** 
 593:mtk_resgenerator.cpp **** 
 594:mtk_resgenerator.cpp **** extern "C" unsigned short           CurrMaxENFBAssociatedIDNum;
 595:mtk_resgenerator.cpp **** extern "C" CUSTOM_ENFB_STR          ENFBAssociatedIDList[];
 596:mtk_resgenerator.cpp **** 
 597:mtk_resgenerator.cpp **** extern "C" ENFB_Font_Res_Info       ENFBFontResInfo[];
 598:mtk_resgenerator.cpp **** 
GAS LISTING d:/MTK/MTK2503/MTK2503/11CW1418SP4_03_CORETEK03AE_11C_V1_GPRS_MMI/plutommi/Customer/ResGenerator/gcctmp/cc63daaa.s 			page 14


 599:mtk_resgenerator.cpp **** 
 600:mtk_resgenerator.cpp **** /* Menuitem reduce memory, move registe hilite handlers to resgen */
 601:mtk_resgenerator.cpp **** extern "C" S32 HiliteHdlrCount;
 602:mtk_resgenerator.cpp **** extern "C" S32 HintHdlrCount;
 603:mtk_resgenerator.cpp **** extern "C" RESGEN_MENU_HILITE_HANDLER   nMenuHiliteHandlers[];
 604:mtk_resgenerator.cpp **** extern "C" RESGEN_MENU_HINT_HANDLER     nMenuHintHandlers[];
 605:mtk_resgenerator.cpp **** 
 606:mtk_resgenerator.cpp **** /* Extern functions */
 607:mtk_resgenerator.cpp **** extern "C" void InitStrPopulate();
 608:mtk_resgenerator.cpp **** extern "C" MMI_BOOL Fload(S8 *string, PU16 pType);
 609:mtk_resgenerator.cpp **** 
 610:mtk_resgenerator.cpp **** /*****************************************************************************
 611:mtk_resgenerator.cpp **** * FUNCTION
 612:mtk_resgenerator.cpp **** *  GenerateENFBAssociatedIDFile
 613:mtk_resgenerator.cpp **** * DESCRIPTION
 614:mtk_resgenerator.cpp **** *  generate ENFB associated ID map file
 615:mtk_resgenerator.cpp **** * PARAMETERS
 616:mtk_resgenerator.cpp **** *  void
 617:mtk_resgenerator.cpp **** * RETURNS
 618:mtk_resgenerator.cpp **** *  MMI_BOOL
 619:mtk_resgenerator.cpp **** *****************************************************************************/
 620:mtk_resgenerator.cpp **** static MMI_BOOL GenerateENFBAssociatedIDFile(void)
 621:mtk_resgenerator.cpp **** {
 2957              	LM1:
 2958 0442 55       		pushl	%ebp
 2959 0443 89E5     		movl	%esp, %ebp
 2960 0445 83EC28   		subl	$40, %esp
 622:mtk_resgenerator.cpp ****     /*----------------------------------------------------------------*/
 623:mtk_resgenerator.cpp ****     /* Local Variables                                                */
 624:mtk_resgenerator.cpp ****     /*----------------------------------------------------------------*/
 625:mtk_resgenerator.cpp ****     FILE *fp;
 626:mtk_resgenerator.cpp ****     CUSTOM_ENFB_STR *enfb;
 627:mtk_resgenerator.cpp ****     int i, j;
 628:mtk_resgenerator.cpp **** 
 629:mtk_resgenerator.cpp ****     /*----------------------------------------------------------------*/
 630:mtk_resgenerator.cpp ****     /* Code Body                                                      */
 631:mtk_resgenerator.cpp ****     /*----------------------------------------------------------------*/
 632:mtk_resgenerator.cpp ****     RESGEN_LOG_V("GenerateENFBAssociatedIDFile(): File output: CustENFBImgMap.c");
 2962              	LM2:
 2963              	LBB2:
 2964 0448 C7442408 		movl	$LC0, 8(%esp)
 2964      00000000 
 2965 0450 C7442404 		movl	$LC1, 4(%esp)
 2965      3E000000 
 2966 0458 C7042401 		movl	$1, (%esp)
 2966      000000
 2967 045f E8000000 		call	_reslog_adaptor_log
 2967      00
 633:mtk_resgenerator.cpp ****     /* open file */
 634:mtk_resgenerator.cpp ****     fp = fopen(ENFB_DATA_FILENAME, "w");
 2969              	LM3:
 2970 0464 C7442404 		movl	$LC2, 4(%esp)
 2970      4F000000 
 2971 046c C7042460 		movl	$LC3, (%esp)
 2971      000000
 2972 0473 E8000000 		call	_fopen
 2972      00
GAS LISTING d:/MTK/MTK2503/MTK2503/11CW1418SP4_03_CORETEK03AE_11C_V1_GPRS_MMI/plutommi/Customer/ResGenerator/gcctmp/cc63daaa.s 			page 15


 2973 0478 8945FC   		movl	%eax, -4(%ebp)
 635:mtk_resgenerator.cpp ****     if(fp == NULL)
 2975              	LM4:
 2976 047b 837DFC00 		cmpl	$0, -4(%ebp)
 2977 047f 750C     		jne	L2
 636:mtk_resgenerator.cpp ****     {
 637:mtk_resgenerator.cpp ****         return MMI_FALSE;
 2979              	LM5:
 2980 0481 C745EC00 		movl	$0, -20(%ebp)
 2980      000000
 2981 0488 E9DD0200 		jmp	L1
 2981      00
 2982              	L2:
 638:mtk_resgenerator.cpp ****     }
 639:mtk_resgenerator.cpp **** 
 640:mtk_resgenerator.cpp ****     /* print copyright */
 641:mtk_resgenerator.cpp ****     fprintf(fp, "/**\n *	Copyright Notice\n *	?2002 - 2003, Pixtel Communications, Inc., 1489 43rd 
 2984              	LM6:
 2985 048d C7442404 		movl	$LC4, 4(%esp)
 2985      A0000000 
 2986 0495 8B45FC   		movl	-4(%ebp), %eax
 2987 0498 890424   		movl	%eax, (%esp)
 2988 049b E8000000 		call	_fprintf
 2988      00
 642:mtk_resgenerator.cpp ****     fprintf(fp, "\n/************************************************************** \n FILENAME\t: C
 2990              	LM7:
 2991 04a0 C7442404 		movl	$LC5, 4(%esp)
 2991      A0010000 
 2992 04a8 8B45FC   		movl	-4(%ebp), %eax
 2993 04ab 890424   		movl	%eax, (%esp)
 2994 04ae E8000000 		call	_fprintf
 2994      00
 643:mtk_resgenerator.cpp **** 
 644:mtk_resgenerator.cpp ****     /* print include file */
 645:mtk_resgenerator.cpp ****     fprintf(fp, "#include \"CustDataRes.h\"\n\n");
 2996              	LM8:
 2997 04b3 C7442404 		movl	$LC6, 4(%esp)
 2997      AB020000 
 2998 04bb 8B45FC   		movl	-4(%ebp), %eax
 2999 04be 890424   		movl	%eax, (%esp)
 3000 04c1 E8000000 		call	_fprintf
 3000      00
 646:mtk_resgenerator.cpp **** 
 647:mtk_resgenerator.cpp **** #if 0
 648:mtk_resgenerator.cpp **** /* under construction !*/
 649:mtk_resgenerator.cpp **** /* under construction !*/
 650:mtk_resgenerator.cpp **** /* under construction !*/
 651:mtk_resgenerator.cpp **** /* under construction !*/
 652:mtk_resgenerator.cpp **** /* under construction !*/
 653:mtk_resgenerator.cpp **** /* under construction !*/
 654:mtk_resgenerator.cpp **** /* under construction !*/
 655:mtk_resgenerator.cpp **** /* under construction !*/
 656:mtk_resgenerator.cpp **** /* under construction !*/
 657:mtk_resgenerator.cpp **** /* under construction !*/
 658:mtk_resgenerator.cpp **** #endif /* 0 */
 659:mtk_resgenerator.cpp **** 
 660:mtk_resgenerator.cpp ****     /* print list count */
GAS LISTING d:/MTK/MTK2503/MTK2503/11CW1418SP4_03_CORETEK03AE_11C_V1_GPRS_MMI/plutommi/Customer/ResGenerator/gcctmp/cc63daaa.s 			page 16


 661:mtk_resgenerator.cpp ****     fprintf(fp, "const U32 CurrMaxENFBAssociatedIDNum = %d;\n\n", CurrMaxENFBAssociatedIDNum + 1);
 3002              	LM9:
 3003 04c6 0FB70500 		movzwl	_CurrMaxENFBAssociatedIDNum, %eax
 3003      000000
 3004 04cd 40       		incl	%eax
 3005 04ce 89442408 		movl	%eax, 8(%esp)
 3006 04d2 C7442404 		movl	$LC7, 4(%esp)
 3006      E0020000 
 3007 04da 8B45FC   		movl	-4(%ebp), %eax
 3008 04dd 890424   		movl	%eax, (%esp)
 3009 04e0 E8000000 		call	_fprintf
 3009      00
 662:mtk_resgenerator.cpp **** 
 663:mtk_resgenerator.cpp ****     /* dump ID list */
 664:mtk_resgenerator.cpp ****     for (i = 1; i <= (int)CurrMaxENFBAssociatedIDNum; i++)
 3011              	LM10:
 3012 04e5 C745F401 		movl	$1, -12(%ebp)
 3012      000000
 3013              	L3:
 3014 04ec 0FB70500 		movzwl	_CurrMaxENFBAssociatedIDNum, %eax
 3014      000000
 3015 04f3 3945F4   		cmpl	%eax, -12(%ebp)
 3016 04f6 7E05     		jle	L6
 3017 04f8 E9AC0000 		jmp	L4
 3017      00
 3018              	L6:
 665:mtk_resgenerator.cpp ****     {
 666:mtk_resgenerator.cpp ****         enfb = (CUSTOM_ENFB_STR *)&ENFBAssociatedIDList[i];
 3020              	LM11:
 3021 04fd 8B55F4   		movl	-12(%ebp), %edx
 3022 0500 89D0     		movl	%edx, %eax
 3023 0502 01C0     		addl	%eax, %eax
 3024 0504 01D0     		addl	%edx, %eax
 3025 0506 8D148500 		leal	0(,%eax,4), %edx
 3025      000000
 3026 050d B8000000 		movl	$_ENFBAssociatedIDList, %eax
 3026      00
 3027 0512 01D0     		addl	%edx, %eax
 3028 0514 8945F8   		movl	%eax, -8(%ebp)
 667:mtk_resgenerator.cpp ****         fprintf(fp, "const U16 Associated_IDs_%d[] = {", i);
 3030              	LM12:
 3031 0517 8B45F4   		movl	-12(%ebp), %eax
 3032 051a 89442408 		movl	%eax, 8(%esp)
 3033 051e C7442404 		movl	$LC8, 4(%esp)
 3033      20030000 
 3034 0526 8B45FC   		movl	-4(%ebp), %eax
 3035 0529 890424   		movl	%eax, (%esp)
 3036 052c E8000000 		call	_fprintf
 3036      00
 668:mtk_resgenerator.cpp ****         for (j = 0; j < (int)enfb->count - 1; j++)
 3038              	LM13:
 3039 0531 C745F000 		movl	$0, -16(%ebp)
 3039      000000
 3040              	L7:
 3041 0538 8B45F8   		movl	-8(%ebp), %eax
 3042 053b 0FB700   		movzwl	(%eax), %eax
 3043 053e 48       		decl	%eax
GAS LISTING d:/MTK/MTK2503/MTK2503/11CW1418SP4_03_CORETEK03AE_11C_V1_GPRS_MMI/plutommi/Customer/ResGenerator/gcctmp/cc63daaa.s 			page 17


 3044 053f 3945F0   		cmpl	%eax, -16(%ebp)
 3045 0542 7C02     		jl	L10
 3046 0544 EB2E     		jmp	L8
 3047              	L10:
 669:mtk_resgenerator.cpp ****         {
 670:mtk_resgenerator.cpp ****             fprintf(fp, "%d, ", enfb->IDs[j]);
 3049              	LM14:
 3050 0546 8B4DF8   		movl	-8(%ebp), %ecx
 3051 0549 8B45F0   		movl	-16(%ebp), %eax
 3052 054c 8D1400   		leal	(%eax,%eax), %edx
 3053 054f 8B4104   		movl	4(%ecx), %eax
 3054 0552 0FB70410 		movzwl	(%eax,%edx), %eax
 3055 0556 89442408 		movl	%eax, 8(%esp)
 3056 055a C7442404 		movl	$LC9, 4(%esp)
 3056      42030000 
 3057 0562 8B45FC   		movl	-4(%ebp), %eax
 3058 0565 890424   		movl	%eax, (%esp)
 3059 0568 E8000000 		call	_fprintf
 3059      00
 3061              	LM15:
 3062 056d 8D45F0   		leal	-16(%ebp), %eax
 3063 0570 FF00     		incl	(%eax)
 3064 0572 EBC4     		jmp	L7
 3065              	L8:
 671:mtk_resgenerator.cpp ****         }
 672:mtk_resgenerator.cpp ****         fprintf(fp, "%d};\n", enfb->IDs[enfb->count - 1]);
 3067              	LM16:
 3068 0574 8B55F8   		movl	-8(%ebp), %edx
 3069 0577 8B45F8   		movl	-8(%ebp), %eax
 3070 057a 0FB700   		movzwl	(%eax), %eax
 3071 057d 01C0     		addl	%eax, %eax
 3072 057f 034204   		addl	4(%edx), %eax
 3073 0582 83E802   		subl	$2, %eax
 3074 0585 0FB700   		movzwl	(%eax), %eax
 3075 0588 89442408 		movl	%eax, 8(%esp)
 3076 058c C7442404 		movl	$LC10, 4(%esp)
 3076      47030000 
 3077 0594 8B45FC   		movl	-4(%ebp), %eax
 3078 0597 890424   		movl	%eax, (%esp)
 3079 059a E8000000 		call	_fprintf
 3079      00
 3081              	LM17:
 3082 059f 8D45F4   		leal	-12(%ebp), %eax
 3083 05a2 FF00     		incl	(%eax)
 3084 05a4 E943FFFF 		jmp	L3
 3084      FF
 3085              	L4:
 673:mtk_resgenerator.cpp ****     }
 674:mtk_resgenerator.cpp ****     fprintf(fp, "\n");
 3087              	LM18:
 3088 05a9 C7442404 		movl	$LC11, 4(%esp)
 3088      4D030000 
 3089 05b1 8B45FC   		movl	-4(%ebp), %eax
 3090 05b4 890424   		movl	%eax, (%esp)
 3091 05b7 E8000000 		call	_fprintf
 3091      00
 675:mtk_resgenerator.cpp **** 
GAS LISTING d:/MTK/MTK2503/MTK2503/11CW1418SP4_03_CORETEK03AE_11C_V1_GPRS_MMI/plutommi/Customer/ResGenerator/gcctmp/cc63daaa.s 			page 18


 676:mtk_resgenerator.cpp **** #if 0
 677:mtk_resgenerator.cpp **** /* under construction !*/
 678:mtk_resgenerator.cpp **** /* under construction !*/
 679:mtk_resgenerator.cpp **** /* under construction !*/
 680:mtk_resgenerator.cpp **** /* under construction !*/
 681:mtk_resgenerator.cpp **** /* under construction !*/
 682:mtk_resgenerator.cpp **** /* under construction !*/
 683:mtk_resgenerator.cpp **** /* under construction !*/
 684:mtk_resgenerator.cpp **** /* under construction !*/
 685:mtk_resgenerator.cpp **** /* under construction !*/
 686:mtk_resgenerator.cpp **** /* under construction !*/
 687:mtk_resgenerator.cpp **** /* under construction !*/
 688:mtk_resgenerator.cpp **** /* under construction !*/
 689:mtk_resgenerator.cpp **** #endif /* 0 */
 690:mtk_resgenerator.cpp **** 
 691:mtk_resgenerator.cpp ****     /* dump CUSTOM_ENFB list */
 692:mtk_resgenerator.cpp ****     fprintf(fp, "const CUSTOM_ENFB AssociatedID_map[] = \n{\n");
 3093              	LM19:
 3094 05bc C7442404 		movl	$LC12, 4(%esp)
 3094      60030000 
 3095 05c4 8B45FC   		movl	-4(%ebp), %eax
 3096 05c7 890424   		movl	%eax, (%esp)
 3097 05ca E8000000 		call	_fprintf
 3097      00
 693:mtk_resgenerator.cpp ****     if (CurrMaxENFBAssociatedIDNum > 0)
 3099              	LM20:
 3100 05cf 66833D00 		cmpw	$0, _CurrMaxENFBAssociatedIDNum
 3100      00000000 
 3101 05d7 7415     		je	L11
 694:mtk_resgenerator.cpp ****     {
 695:mtk_resgenerator.cpp **** #if 0
 696:mtk_resgenerator.cpp **** /* under construction !*/
 697:mtk_resgenerator.cpp **** #endif /* 0 */
 698:mtk_resgenerator.cpp ****         fprintf(fp, "\t{0, 0},\n");
 3103              	LM21:
 3104 05d9 C7442404 		movl	$LC13, 4(%esp)
 3104      8B030000 
 3105 05e1 8B45FC   		movl	-4(%ebp), %eax
 3106 05e4 890424   		movl	%eax, (%esp)
 3107 05e7 E8000000 		call	_fprintf
 3107      00
 3108 05ec EB13     		jmp	L12
 3109              	L11:
 699:mtk_resgenerator.cpp ****     }
 700:mtk_resgenerator.cpp ****     else
 701:mtk_resgenerator.cpp ****     {
 702:mtk_resgenerator.cpp **** #if 0
 703:mtk_resgenerator.cpp **** /* under construction !*/
 704:mtk_resgenerator.cpp **** #endif /* 0 */
 705:mtk_resgenerator.cpp ****         fprintf(fp, "\t{0, 0}\n");
 3111              	LM22:
 3112 05ee C7442404 		movl	$LC14, 4(%esp)
 3112      95030000 
 3113 05f6 8B45FC   		movl	-4(%ebp), %eax
 3114 05f9 890424   		movl	%eax, (%esp)
 3115 05fc E8000000 		call	_fprintf
 3115      00
GAS LISTING d:/MTK/MTK2503/MTK2503/11CW1418SP4_03_CORETEK03AE_11C_V1_GPRS_MMI/plutommi/Customer/ResGenerator/gcctmp/cc63daaa.s 			page 19


 3116              	L12:
 706:mtk_resgenerator.cpp ****     }
 707:mtk_resgenerator.cpp ****     if (CurrMaxENFBAssociatedIDNum > 0)
 3118              	LM23:
 3119 0601 66833D00 		cmpw	$0, _CurrMaxENFBAssociatedIDNum
 3119      00000000 
 3120 0609 0F849300 		je	L13
 3120      0000
 708:mtk_resgenerator.cpp ****     {
 709:mtk_resgenerator.cpp **** #if 0
 710:mtk_resgenerator.cpp **** /* under construction !*/
 711:mtk_resgenerator.cpp **** /* under construction !*/
 712:mtk_resgenerator.cpp **** /* under construction !*/
 713:mtk_resgenerator.cpp **** /* under construction !*/
 714:mtk_resgenerator.cpp **** /* under construction !*/
 715:mtk_resgenerator.cpp **** /* under construction !*/
 716:mtk_resgenerator.cpp **** /* under construction !*/
 717:mtk_resgenerator.cpp **** /* under construction !*/
 718:mtk_resgenerator.cpp **** #endif /* 0 */
 719:mtk_resgenerator.cpp ****         for (i = 1; i < (int)CurrMaxENFBAssociatedIDNum; i++)
 3122              	LM24:
 3123 060f C745F401 		movl	$1, -12(%ebp)
 3123      000000
 3124              	L14:
 3125 0616 0FB70500 		movzwl	_CurrMaxENFBAssociatedIDNum, %eax
 3125      000000
 3126 061d 3945F4   		cmpl	%eax, -12(%ebp)
 3127 0620 7C02     		jl	L17
 3128 0622 EB45     		jmp	L15
 3129              	L17:
 720:mtk_resgenerator.cpp ****         {
 721:mtk_resgenerator.cpp ****             enfb = (CUSTOM_ENFB_STR *)&ENFBAssociatedIDList[i];
 3131              	LM25:
 3132 0624 8B55F4   		movl	-12(%ebp), %edx
 3133 0627 89D0     		movl	%edx, %eax
 3134 0629 01C0     		addl	%eax, %eax
 3135 062b 01D0     		addl	%edx, %eax
 3136 062d 8D148500 		leal	0(,%eax,4), %edx
 3136      000000
 3137 0634 B8000000 		movl	$_ENFBAssociatedIDList, %eax
 3137      00
 3138 0639 01D0     		addl	%edx, %eax
 3139 063b 8945F8   		movl	%eax, -8(%ebp)
 722:mtk_resgenerator.cpp ****             fprintf(fp, "\t{%d, (U16 *)&Associated_IDs_%d},\n", enfb->count, i);
 3141              	LM26:
 3142 063e 8B45F4   		movl	-12(%ebp), %eax
 3143 0641 8944240C 		movl	%eax, 12(%esp)
 3144 0645 8B45F8   		movl	-8(%ebp), %eax
 3145 0648 0FB700   		movzwl	(%eax), %eax
 3146 064b 89442408 		movl	%eax, 8(%esp)
 3147 064f C7442404 		movl	$LC15, 4(%esp)
 3147      A0030000 
 3148 0657 8B45FC   		movl	-4(%ebp), %eax
 3149 065a 890424   		movl	%eax, (%esp)
 3150 065d E8000000 		call	_fprintf
 3150      00
 3152              	LM27:
GAS LISTING d:/MTK/MTK2503/MTK2503/11CW1418SP4_03_CORETEK03AE_11C_V1_GPRS_MMI/plutommi/Customer/ResGenerator/gcctmp/cc63daaa.s 			page 20


 3153 0662 8D45F4   		leal	-12(%ebp), %eax
 3154 0665 FF00     		incl	(%eax)
 3155 0667 EBAD     		jmp	L14
 3156              	L15:
 723:mtk_resgenerator.cpp ****         }
 724:mtk_resgenerator.cpp ****         fprintf(fp, "\t{%d, (U16 *)&Associated_IDs_%d}\n",
 3158              	LM28:
 3159 0669 0FB70500 		movzwl	_CurrMaxENFBAssociatedIDNum, %eax
 3159      000000
 3160 0670 8944240C 		movl	%eax, 12(%esp)
 3161 0674 0FB71500 		movzwl	_CurrMaxENFBAssociatedIDNum, %edx
 3161      000000
 3162 067b 89D0     		movl	%edx, %eax
 3163 067d 01C0     		addl	%eax, %eax
 3164 067f 01D0     		addl	%edx, %eax
 3165 0681 C1E002   		sall	$2, %eax
 3166 0684 0FB78000 		movzwl	_ENFBAssociatedIDList(%eax), %eax
 3166      000000
 3167 068b 89442408 		movl	%eax, 8(%esp)
 3168 068f C7442404 		movl	$LC16, 4(%esp)
 3168      E0030000 
 3169 0697 8B45FC   		movl	-4(%ebp), %eax
 3170 069a 890424   		movl	%eax, (%esp)
 3171 069d E8000000 		call	_fprintf
 3171      00
 3172              	L13:
 725:mtk_resgenerator.cpp ****             ENFBAssociatedIDList[CurrMaxENFBAssociatedIDNum].count,
 726:mtk_resgenerator.cpp ****             CurrMaxENFBAssociatedIDNum);
 727:mtk_resgenerator.cpp ****     }
 728:mtk_resgenerator.cpp ****     fprintf(fp, "};\n");
 3174              	LM29:
 3175 06a2 C7442404 		movl	$LC17, 4(%esp)
 3175      02040000 
 3176 06aa 8B45FC   		movl	-4(%ebp), %eax
 3177 06ad 890424   		movl	%eax, (%esp)
 3178 06b0 E8000000 		call	_fprintf
 3178      00
 729:mtk_resgenerator.cpp **** 
 730:mtk_resgenerator.cpp ****     /* free memory */
 731:mtk_resgenerator.cpp ****     for (i = 1; i <= (int)CurrMaxENFBAssociatedIDNum; i++)
 3180              	LM30:
 3181 06b5 C745F401 		movl	$1, -12(%ebp)
 3181      000000
 3182              	L18:
 3183 06bc 0FB70500 		movzwl	_CurrMaxENFBAssociatedIDNum, %eax
 3183      000000
 3184 06c3 3945F4   		cmpl	%eax, -12(%ebp)
 3185 06c6 7E02     		jle	L21
 3186 06c8 EB76     		jmp	L19
 3187              	L21:
 732:mtk_resgenerator.cpp ****     {
 733:mtk_resgenerator.cpp ****         enfb = (CUSTOM_ENFB_STR *)&ENFBAssociatedIDList[i];
 3189              	LM31:
 3190 06ca 8B55F4   		movl	-12(%ebp), %edx
 3191 06cd 89D0     		movl	%edx, %eax
 3192 06cf 01C0     		addl	%eax, %eax
 3193 06d1 01D0     		addl	%edx, %eax
GAS LISTING d:/MTK/MTK2503/MTK2503/11CW1418SP4_03_CORETEK03AE_11C_V1_GPRS_MMI/plutommi/Customer/ResGenerator/gcctmp/cc63daaa.s 			page 21


 3194 06d3 8D148500 		leal	0(,%eax,4), %edx
 3194      000000
 3195 06da B8000000 		movl	$_ENFBAssociatedIDList, %eax
 3195      00
 3196 06df 01D0     		addl	%edx, %eax
 3197 06e1 8945F8   		movl	%eax, -8(%ebp)
 734:mtk_resgenerator.cpp ****         free(enfb->IDs);
 3199              	LM32:
 3200 06e4 8B45F8   		movl	-8(%ebp), %eax
 3201 06e7 8B4004   		movl	4(%eax), %eax
 3202 06ea 890424   		movl	%eax, (%esp)
 3203 06ed E8000000 		call	_free
 3203      00
 735:mtk_resgenerator.cpp ****         for (j = 0; j < (int)enfb->count; j++)
 3205              	LM33:
 3206 06f2 C745F000 		movl	$0, -16(%ebp)
 3206      000000
 3207              	L22:
 3208 06f9 8B45F8   		movl	-8(%ebp), %eax
 3209 06fc 0FB700   		movzwl	(%eax), %eax
 3210 06ff 3945F0   		cmpl	%eax, -16(%ebp)
 3211 0702 7C02     		jl	L25
 3212 0704 EB22     		jmp	L23
 3213              	L25:
 736:mtk_resgenerator.cpp ****         {
 737:mtk_resgenerator.cpp ****             free(enfb->Ptr[j]);
 3215              	LM34:
 3216 0706 8B4DF8   		movl	-8(%ebp), %ecx
 3217 0709 8B45F0   		movl	-16(%ebp), %eax
 3218 070c 8D148500 		leal	0(,%eax,4), %edx
 3218      000000
 3219 0713 8B4108   		movl	8(%ecx), %eax
 3220 0716 8B0410   		movl	(%eax,%edx), %eax
 3221 0719 890424   		movl	%eax, (%esp)
 3222 071c E8000000 		call	_free
 3222      00
 3224              	LM35:
 3225 0721 8D45F0   		leal	-16(%ebp), %eax
 3226 0724 FF00     		incl	(%eax)
 3227 0726 EBD1     		jmp	L22
 3228              	L23:
 738:mtk_resgenerator.cpp ****         }
 739:mtk_resgenerator.cpp ****         free(enfb->Ptr);
 3230              	LM36:
 3231 0728 8B45F8   		movl	-8(%ebp), %eax
 3232 072b 8B4008   		movl	8(%eax), %eax
 3233 072e 890424   		movl	%eax, (%esp)
 3234 0731 E8000000 		call	_free
 3234      00
 3236              	LM37:
 3237 0736 8D45F4   		leal	-12(%ebp), %eax
 3238 0739 FF00     		incl	(%eax)
 3239 073b E97CFFFF 		jmp	L18
 3239      FF
 3240              	L19:
 740:mtk_resgenerator.cpp ****     }
 741:mtk_resgenerator.cpp **** 
GAS LISTING d:/MTK/MTK2503/MTK2503/11CW1418SP4_03_CORETEK03AE_11C_V1_GPRS_MMI/plutommi/Customer/ResGenerator/gcctmp/cc63daaa.s 			page 22


 742:mtk_resgenerator.cpp ****     fprintf(stderr, "Output CustENFBImgMap.c... done\n");
 3242              	LM38:
 3243 0740 C7442404 		movl	$LC18, 4(%esp)
 3243      20040000 
 3244 0748 A1000000 		movl	__imp___iob, %eax
 3244      00
 3245 074d 83C040   		addl	$64, %eax
 3246 0750 890424   		movl	%eax, (%esp)
 3247 0753 E8000000 		call	_fprintf
 3247      00
 743:mtk_resgenerator.cpp **** 
 744:mtk_resgenerator.cpp ****     fclose(fp);
 3249              	LM39:
 3250 0758 8B45FC   		movl	-4(%ebp), %eax
 3251 075b 890424   		movl	%eax, (%esp)
 3252 075e E8000000 		call	_fclose
 3252      00
 745:mtk_resgenerator.cpp ****     return MMI_TRUE;
 3254              	LM40:
 3255 0763 C745EC01 		movl	$1, -20(%ebp)
 3255      000000
 746:mtk_resgenerator.cpp **** }
 3257              	LM41:
 3258              	L1:
 3259              	LBE2:
 3260 076a 8B45EC   		movl	-20(%ebp), %eax
 3261 076d C9       		leave
 3262 076e C3       		ret
 3269              	Lscope0:
 3271 076f 90       		.align 2
 3274              	__Z10UnzipImagev:
 747:mtk_resgenerator.cpp **** 
 748:mtk_resgenerator.cpp **** 
 749:mtk_resgenerator.cpp **** /*****************************************************************************
 750:mtk_resgenerator.cpp **** * FUNCTION
 751:mtk_resgenerator.cpp **** *  UnzipImage
 752:mtk_resgenerator.cpp **** * DESCRIPTION
 753:mtk_resgenerator.cpp **** *  unzip image to the destination folder
 754:mtk_resgenerator.cpp **** * PARAMETERS
 755:mtk_resgenerator.cpp **** *  void
 756:mtk_resgenerator.cpp **** * RETURNS
 757:mtk_resgenerator.cpp **** *  void
 758:mtk_resgenerator.cpp **** *****************************************************************************/
 759:mtk_resgenerator.cpp **** static void UnzipImage(void)
 760:mtk_resgenerator.cpp **** {
 3276              	LM42:
 3277 0770 55       		pushl	%ebp
 3278 0771 89E5     		movl	%esp, %ebp
 3279 0773 81ECA803 		subl	$936, %esp
 3279      0000
 761:mtk_resgenerator.cpp ****     /*----------------------------------------------------------------*/
 762:mtk_resgenerator.cpp ****     /* Local Variables                                                */
 763:mtk_resgenerator.cpp ****     /*----------------------------------------------------------------*/
 764:mtk_resgenerator.cpp ****     char tempCommand[UNZIP_CMD_BUFLEN];
 765:mtk_resgenerator.cpp **** 
 766:mtk_resgenerator.cpp ****     WIN32_FIND_DATA file_data;
 767:mtk_resgenerator.cpp ****     WIN32_FIND_DATA folder_data;
GAS LISTING d:/MTK/MTK2503/MTK2503/11CW1418SP4_03_CORETEK03AE_11C_V1_GPRS_MMI/plutommi/Customer/ResGenerator/gcctmp/cc63daaa.s 			page 23


 768:mtk_resgenerator.cpp ****     HANDLE search = NULL;
 3281              	LM43:
 3282              	LBB3:
 3283 0779 C78574FC 		movl	$0, -908(%ebp)
 3283      FFFF0000 
 3283      0000
 769:mtk_resgenerator.cpp ****     BOOL is_need_unzip = TRUE;
 3285              	LM44:
 3286 0783 C78570FC 		movl	$1, -912(%ebp)
 3286      FFFF0100 
 3286      0000
 770:mtk_resgenerator.cpp **** 
 771:mtk_resgenerator.cpp ****     FILE *zip_time_file = NULL;
 3288              	LM45:
 3289 078d C7856CFC 		movl	$0, -916(%ebp)
 3289      FFFF0000 
 3289      0000
 772:mtk_resgenerator.cpp ****     S32 wsize;
 773:mtk_resgenerator.cpp ****     FILETIME zip_time_prev;
 774:mtk_resgenerator.cpp **** 
 775:mtk_resgenerator.cpp ****     /*----------------------------------------------------------------*/
 776:mtk_resgenerator.cpp ****     /* Code Body                                                      */
 777:mtk_resgenerator.cpp ****     /*----------------------------------------------------------------*/
 778:mtk_resgenerator.cpp **** #ifndef __IOT_LOCK__
 779:mtk_resgenerator.cpp ****     RESGEN_LOG_V("[UnzipImage] start");
 780:mtk_resgenerator.cpp **** 
 781:mtk_resgenerator.cpp ****     sprintf(tempCommand, "%s\\image.zip", CUST_IMG_PATH_ROOT);
 782:mtk_resgenerator.cpp ****     RESGEN_LOG_V("[Dependency] plutommi\\Customer\\ResGenerator\\%s\n", tempCommand);
 783:mtk_resgenerator.cpp ****     search = FindFirstFile(tempCommand, &file_data);
 784:mtk_resgenerator.cpp ****     if (search == INVALID_HANDLE_VALUE)
 785:mtk_resgenerator.cpp ****     {
 786:mtk_resgenerator.cpp ****         RESGEN_LOG_E("Didn't find MAINLCD's image.zip please check. ret=[%d] path=[%s]", GetLastErr
 787:mtk_resgenerator.cpp ****         exit(2);
 788:mtk_resgenerator.cpp ****     }
 789:mtk_resgenerator.cpp ****     FindClose(search);
 790:mtk_resgenerator.cpp **** 
 791:mtk_resgenerator.cpp ****     sprintf(tempCommand, "%s\\\\image_zip_time_log", CUST_IMG_PATH_ROOT);
 792:mtk_resgenerator.cpp ****     zip_time_file = fopen(tempCommand, "rb");
 793:mtk_resgenerator.cpp ****     if (zip_time_file != NULL)
 794:mtk_resgenerator.cpp ****     {
 795:mtk_resgenerator.cpp ****         wsize = fread(&(zip_time_prev), sizeof(zip_time_prev), 1, zip_time_file);
 796:mtk_resgenerator.cpp ****         fclose(zip_time_file);
 797:mtk_resgenerator.cpp ****         if (wsize != 1)
 798:mtk_resgenerator.cpp ****         {
 799:mtk_resgenerator.cpp ****             RESGEN_LOG_E("Can't read [%s][%d][%d]", tempCommand, wsize, sizeof(file_data.ftLastWrit
 800:mtk_resgenerator.cpp ****             exit(2);
 801:mtk_resgenerator.cpp ****         }
 802:mtk_resgenerator.cpp **** 
 803:mtk_resgenerator.cpp ****         if (CompareFileTime(&(file_data.ftLastWriteTime), &(zip_time_prev)) == 0)
 804:mtk_resgenerator.cpp ****         {
 805:mtk_resgenerator.cpp ****             is_need_unzip = FALSE;
 806:mtk_resgenerator.cpp ****             RESGEN_LOG_V("MAINLCD's image.zip is not changed, skip Unzip process...");
 807:mtk_resgenerator.cpp ****             fprintf(stderr, "MAINLCD's image.zip is not changed, skip Unzip process...\n");
 808:mtk_resgenerator.cpp ****         }
 809:mtk_resgenerator.cpp ****     }
 810:mtk_resgenerator.cpp **** 
 811:mtk_resgenerator.cpp ****     zip_time_file = fopen(tempCommand, "wb");
GAS LISTING d:/MTK/MTK2503/MTK2503/11CW1418SP4_03_CORETEK03AE_11C_V1_GPRS_MMI/plutommi/Customer/ResGenerator/gcctmp/cc63daaa.s 			page 24


 812:mtk_resgenerator.cpp ****     if (zip_time_file == NULL)
 813:mtk_resgenerator.cpp ****     {
 814:mtk_resgenerator.cpp ****         RESGEN_LOG_E("[%s] could not open!", tempCommand);
 815:mtk_resgenerator.cpp ****         exit(2);
 816:mtk_resgenerator.cpp ****     }
 817:mtk_resgenerator.cpp **** 
 818:mtk_resgenerator.cpp ****     wsize = fwrite(&(file_data.ftLastWriteTime), sizeof(file_data.ftLastWriteTime), 1, zip_time_fil
 819:mtk_resgenerator.cpp ****     fclose(zip_time_file);
 820:mtk_resgenerator.cpp ****     if (wsize != 1)
 821:mtk_resgenerator.cpp ****     {
 822:mtk_resgenerator.cpp ****         RESGEN_LOG_E("Can't write [%s][%d][%d]", tempCommand, wsize, sizeof(file_data.ftLastWriteTi
 823:mtk_resgenerator.cpp ****         exit(2);
 824:mtk_resgenerator.cpp ****     }
 825:mtk_resgenerator.cpp **** 
 826:mtk_resgenerator.cpp **** 
 827:mtk_resgenerator.cpp ****     if (is_need_unzip || g_is_clean)
 828:mtk_resgenerator.cpp ****     {
 829:mtk_resgenerator.cpp ****         fprintf(stderr, "Start Unzip images ...output 3rd_tool.log\n");
 830:mtk_resgenerator.cpp **** 
 831:mtk_resgenerator.cpp ****         sprintf(tempCommand,"rd /S/Q %s\\mainlcd\\ 2>> .\\debug\\3rd_tool.log", CUST_IMG_PATH_ROOT)
 832:mtk_resgenerator.cpp ****         execute_ext_command(tempCommand);
 833:mtk_resgenerator.cpp **** 
 834:mtk_resgenerator.cpp ****         sprintf(tempCommand,"rd /S/Q .\\AutoAnalysis 2>> .\\debug\\3rd_tool.log");
 835:mtk_resgenerator.cpp ****         execute_ext_command(tempCommand);
 836:mtk_resgenerator.cpp **** 
 837:mtk_resgenerator.cpp ****         sprintf(tempCommand, "7za.exe x -y %s\\image.zip -o%s\\ 2>> .\\debug\\3rd_tool.log", CUST_I
 838:mtk_resgenerator.cpp ****         execute_ext_command(tempCommand);
 839:mtk_resgenerator.cpp ****     }
 840:mtk_resgenerator.cpp **** 
 841:mtk_resgenerator.cpp **** #ifndef __OPTR_NONE__
 842:mtk_resgenerator.cpp ****     sprintf(tempCommand, "7za.exe x -y %s\\operator_image.zip -o%s\\ 2>> .\\debug\\3rd_tool.log", C
 843:mtk_resgenerator.cpp ****     RESGEN_LOG_V("[Dependency] plutommi\\Customer\\ResGenerator\\%s\\operator_image.zip\n", CUST_OP
 844:mtk_resgenerator.cpp ****     execute_ext_command(tempCommand);
 845:mtk_resgenerator.cpp **** #endif /* __OPTR_NONE__ */
 846:mtk_resgenerator.cpp **** 
 847:mtk_resgenerator.cpp **** 
 848:mtk_resgenerator.cpp **** 
 849:mtk_resgenerator.cpp **** #if defined(CUST_SUBLCD_PATH)
 850:mtk_resgenerator.cpp **** 
 851:mtk_resgenerator.cpp ****     sprintf(tempCommand, "%s\\image.zip", CUST_SUBLCD_PATH);
 852:mtk_resgenerator.cpp ****     RESGEN_LOG_V("[Dependency] plutommi\\Customer\\ResGenerator\\%s\n", tempCommand);
 853:mtk_resgenerator.cpp ****     search = FindFirstFile(tempCommand, &file_data);
 854:mtk_resgenerator.cpp ****     if (search == INVALID_HANDLE_VALUE)
 855:mtk_resgenerator.cpp ****     {
 856:mtk_resgenerator.cpp ****         RESGEN_LOG_E("Didn't find SUBLCD's image.zip please check. ret=[%d]", GetLastError());
 857:mtk_resgenerator.cpp ****         exit(2);
 858:mtk_resgenerator.cpp ****     }
 859:mtk_resgenerator.cpp ****     FindClose(search);
 860:mtk_resgenerator.cpp **** 
 861:mtk_resgenerator.cpp ****     sprintf(tempCommand, "%s\\\\image_sub_zip_time_log", CUST_IMG_PATH_ROOT);
 862:mtk_resgenerator.cpp ****     zip_time_file = fopen(tempCommand, "rb");
 863:mtk_resgenerator.cpp ****     if (zip_time_file != NULL)
 864:mtk_resgenerator.cpp ****     {
 865:mtk_resgenerator.cpp ****         wsize = fread(&(zip_time_prev), sizeof(zip_time_prev), 1, zip_time_file);
 866:mtk_resgenerator.cpp ****         fclose(zip_time_file);
 867:mtk_resgenerator.cpp ****         if (wsize != 1)
 868:mtk_resgenerator.cpp ****         {
GAS LISTING d:/MTK/MTK2503/MTK2503/11CW1418SP4_03_CORETEK03AE_11C_V1_GPRS_MMI/plutommi/Customer/ResGenerator/gcctmp/cc63daaa.s 			page 25


 869:mtk_resgenerator.cpp ****             RESGEN_LOG_E("Can't read [%s][%d][%d]", tempCommand, wsize, sizeof(file_data.ftLastWrit
 870:mtk_resgenerator.cpp ****             exit(2);
 871:mtk_resgenerator.cpp ****         }
 872:mtk_resgenerator.cpp **** 
 873:mtk_resgenerator.cpp ****         if (CompareFileTime(&(file_data.ftLastWriteTime), &(zip_time_prev)) == 0)
 874:mtk_resgenerator.cpp ****         {
 875:mtk_resgenerator.cpp ****             is_need_unzip = FALSE;
 876:mtk_resgenerator.cpp ****             fprintf(stderr, "SUBLCD's image.zip is not changed, skip Unzip process...\n");
 877:mtk_resgenerator.cpp ****         }
 878:mtk_resgenerator.cpp ****     }
 879:mtk_resgenerator.cpp **** 
 880:mtk_resgenerator.cpp ****     zip_time_file = fopen(tempCommand, "wb");
 881:mtk_resgenerator.cpp ****     if (zip_time_file == NULL)
 882:mtk_resgenerator.cpp ****     {
 883:mtk_resgenerator.cpp ****         RESGEN_LOG_E("[%s] could not open!", tempCommand);
 884:mtk_resgenerator.cpp ****         exit(2);
 885:mtk_resgenerator.cpp ****     }
 886:mtk_resgenerator.cpp **** 
 887:mtk_resgenerator.cpp ****     wsize = fwrite(&(file_data.ftLastWriteTime), sizeof(file_data.ftLastWriteTime), 1, zip_time_fil
 888:mtk_resgenerator.cpp ****     fclose(zip_time_file);
 889:mtk_resgenerator.cpp ****     if (wsize != 1)
 890:mtk_resgenerator.cpp ****     {
 891:mtk_resgenerator.cpp ****         RESGEN_LOG_E("Can't write [%s][%d][%d]", tempCommand, wsize, sizeof(file_data.ftLastWriteTi
 892:mtk_resgenerator.cpp ****         exit(2);
 893:mtk_resgenerator.cpp ****     }
 894:mtk_resgenerator.cpp **** 
 895:mtk_resgenerator.cpp **** 
 896:mtk_resgenerator.cpp ****     if (is_need_unzip || g_is_clean)
 897:mtk_resgenerator.cpp ****     {
 898:mtk_resgenerator.cpp ****         fprintf(stderr, "Start Unzip SUBLCD images ...output 3rd_tool.log\n");
 899:mtk_resgenerator.cpp **** 
 900:mtk_resgenerator.cpp ****         sprintf(tempCommand,"rd /S/Q %s\\sublcd\\ 2>> .\\debug\\3rd_tool.log", CUST_IMG_PATH_ROOT);
 901:mtk_resgenerator.cpp ****         execute_ext_command(tempCommand);
 902:mtk_resgenerator.cpp **** 
 903:mtk_resgenerator.cpp ****         sprintf(tempCommand, "7za.exe x -y %s\\image.zip -o%s\\ 2>> .\\debug\\3rd_tool.log", CUST_S
 904:mtk_resgenerator.cpp ****         execute_ext_command(tempCommand);
 905:mtk_resgenerator.cpp ****     }
 906:mtk_resgenerator.cpp **** 
 907:mtk_resgenerator.cpp **** #ifndef __OPTR_NONE__
 908:mtk_resgenerator.cpp ****     sprintf(tempCommand, "7za.exe x -y %s\\operator_image.zip -o%s\\ 2>> .\\debug\\3rd_tool.log", C
 909:mtk_resgenerator.cpp ****     RESGEN_LOG_V("[Dependency] plutommi\\Customer\\ResGenerator\\%s\\operator_image.zip\n", CUST_OP
 910:mtk_resgenerator.cpp ****     execute_ext_command(tempCommand);
 911:mtk_resgenerator.cpp **** #endif /* __OPTR_NONE__ */
 912:mtk_resgenerator.cpp **** 
 913:mtk_resgenerator.cpp **** #endif /* defined (CUST_SUBLCD_PATH) */
 914:mtk_resgenerator.cpp **** 
 915:mtk_resgenerator.cpp ****     RESGEN_LOG_V("[UnzipImage] end");
 916:mtk_resgenerator.cpp **** #endif /* __OPTR_NONE__ */
 917:mtk_resgenerator.cpp **** }
 3291              	LM46:
 3292 0797 C9       		leave
 3293 0798 C3       		ret
 3294              	LBE3:
 3305              	Lscope1:
 3307              	LC19:
 3308 0799 5B556E7A 		.ascii "[UnzipAudio] start\0"
 3308      69704175 
GAS LISTING d:/MTK/MTK2503/MTK2503/11CW1418SP4_03_CORETEK03AE_11C_V1_GPRS_MMI/plutommi/Customer/ResGenerator/gcctmp/cc63daaa.s 			page 26


 3308      64696F5D 
 3308      20737461 
 3308      727400
 3309 07ac 90909090 		.align 32
 3309      90909090 
 3309      90909090 
 3309      90909090 
 3309      90909090 
 3310              	LC20:
 3311 07c0 2E2E5C5C 		.ascii "..\\\\..\\\\Customer\\\\AUDIO\\\\PLUTO\0"
 3311      2E2E5C5C 
 3311      43757374 
 3311      6F6D6572 
 3311      5C5C4155 
 3312              	LC21:
 3313 07df 25735C61 		.ascii "%s\\audio.zip\0"
 3313      7564696F 
 3313      2E7A6970 
 3313      00
 3314 07ec 90909090 		.align 32
 3314      90909090 
 3314      90909090 
 3314      90909090 
 3314      90909090 
 3315              	LC22:
 3316 0800 5B446570 		.ascii "[Dependency] plutommi\\Customer\\ResGenerator\\%s\12\0"
 3316      656E6465 
 3316      6E63795D 
 3316      20706C75 
 3316      746F6D6D 
 3317 0830 90909090 		.align 32
 3317      90909090 
 3317      90909090 
 3317      90909090 
 3318              	LC23:
 3319 0840 4469646E 		.ascii "Didn't find audio.zip please check. ret=[%d] path=[%s]\0"
 3319      27742066 
 3319      696E6420 
 3319      61756469 
 3319      6F2E7A69 
 3320              	LC24:
 3321 0877 25735C5C 		.ascii "%s\\\\audio_time_log\0"
 3321      61756469 
 3321      6F5F7469 
 3321      6D655F6C 
 3321      6F6700
 3322              	LC25:
 3323 088a 726200   		.ascii "rb\0"
 3324              	LC26:
 3325 088d 43616E27 		.ascii "Can't read [%s][%d][%d]\0"
 3325      74207265 
 3325      6164205B 
 3325      25735D5B 
 3325      25645D5B 
 3326 08a5 90909090 		.align 32
 3326      90909090 
 3326      90909090 
GAS LISTING d:/MTK/MTK2503/MTK2503/11CW1418SP4_03_CORETEK03AE_11C_V1_GPRS_MMI/plutommi/Customer/ResGenerator/gcctmp/cc63daaa.s 			page 27


 3326      90909090 
 3326      90909090 
 3327              	LC27:
 3328 08c0 41554449 		.ascii "AUDIO's audio.zip is not changed, skip Unzip process...\0"
 3328      4F277320 
 3328      61756469 
 3328      6F2E7A69 
 3328      70206973 
 3329 08f8 908DB426 		.align 32
 3329      00000000 
 3330              	LC28:
 3331 0900 41554449 		.ascii "AUDIO's audio.zip is not changed, skip Unzip process...\12\0"
 3331      4F277320 
 3331      61756469 
 3331      6F2E7A69 
 3331      70206973 
 3332              	LC29:
 3333 0939 776200   		.ascii "wb\0"
 3334              	LC30:
 3335 093c 5B25735D 		.ascii "[%s] could not open!\0"
 3335      20636F75 
 3335      6C64206E 
 3335      6F74206F 
 3335      70656E21 
 3336              	LC31:
 3337 0951 43616E27 		.ascii "Can't write [%s][%d][%d]\0"
 3337      74207772 
 3337      69746520 
 3337      5B25735D 
 3337      5B25645D 
 3338 096a 90909090 		.align 32
 3338      90909090 
 3338      90909090 
 3338      90909090 
 3338      90909090 
 3339              	LC32:
 3340 0980 53746172 		.ascii "Start Unzip audios ...output 3rd_tool.log\12\0"
 3340      7420556E 
 3340      7A697020 
 3340      61756469 
 3340      6F73202E 
 3341 09ab 90909090 		.align 32
 3341      90909090 
 3341      90909090 
 3341      90909090 
 3341      90909090 
 3342              	LC33:
 3343 09c0 377A612E 		.ascii "7za.exe x -y %s\\audio.zip -o%s\\ 2>> .\\debug\\3rd_tool.log\0"
 3343      65786520 
 3343      78202D79 
 3343      2025735C 
 3343      61756469 
 3344              	LC34:
 3345 09f9 5B556E7A 		.ascii "[UnzipAudio] end\0"
 3345      69704175 
 3345      64696F5D 
 3345      20656E64 
GAS LISTING d:/MTK/MTK2503/MTK2503/11CW1418SP4_03_CORETEK03AE_11C_V1_GPRS_MMI/plutommi/Customer/ResGenerator/gcctmp/cc63daaa.s 			page 28


 3345      00
 3346              		.align 2
 3349              	__Z10UnzipAudiov:
 918:mtk_resgenerator.cpp **** 
 919:mtk_resgenerator.cpp **** 
 920:mtk_resgenerator.cpp **** /*****************************************************************************
 921:mtk_resgenerator.cpp **** * FUNCTION
 922:mtk_resgenerator.cpp **** *  UnzipAudio
 923:mtk_resgenerator.cpp **** * DESCRIPTION
 924:mtk_resgenerator.cpp **** *  unzip audio to the destination folder
 925:mtk_resgenerator.cpp **** * PARAMETERS
 926:mtk_resgenerator.cpp **** *  void
 927:mtk_resgenerator.cpp **** * RETURNS
 928:mtk_resgenerator.cpp **** *  void
 929:mtk_resgenerator.cpp **** *****************************************************************************/
 930:mtk_resgenerator.cpp **** static void UnzipAudio(void)
 931:mtk_resgenerator.cpp **** {
 3351              	LM47:
 3352 0a0a 55       		pushl	%ebp
 3353 0a0b 89E5     		movl	%esp, %ebp
 3354 0a0d 81ECC803 		subl	$968, %esp
 3354      0000
 932:mtk_resgenerator.cpp ****     /*----------------------------------------------------------------*/
 933:mtk_resgenerator.cpp ****     /* Local Variables                                                */
 934:mtk_resgenerator.cpp ****     /*----------------------------------------------------------------*/
 935:mtk_resgenerator.cpp ****     char tempCommand[UNZIP_CMD_BUFLEN];
 936:mtk_resgenerator.cpp **** 
 937:mtk_resgenerator.cpp ****     WIN32_FIND_DATA file_data;
 938:mtk_resgenerator.cpp ****     WIN32_FIND_DATA folder_data;
 939:mtk_resgenerator.cpp ****     HANDLE search = NULL;
 3356              	LM48:
 3357              	LBB4:
 3358 0a13 C78574FC 		movl	$0, -908(%ebp)
 3358      FFFF0000 
 3358      0000
 940:mtk_resgenerator.cpp ****     BOOL is_need_unzip = TRUE;
 3360              	LM49:
 3361 0a1d C78570FC 		movl	$1, -912(%ebp)
 3361      FFFF0100 
 3361      0000
 941:mtk_resgenerator.cpp **** 
 942:mtk_resgenerator.cpp ****     FILE *zip_time_file = NULL;
 3363              	LM50:
 3364 0a27 C7856CFC 		movl	$0, -916(%ebp)
 3364      FFFF0000 
 3364      0000
 943:mtk_resgenerator.cpp ****     S32 wsize;
 944:mtk_resgenerator.cpp ****     FILETIME zip_time_prev;
 945:mtk_resgenerator.cpp ****     /*----------------------------------------------------------------*/
 946:mtk_resgenerator.cpp ****     /* Code Body                                                      */
 947:mtk_resgenerator.cpp ****     /*----------------------------------------------------------------*/
 948:mtk_resgenerator.cpp ****     RESGEN_LOG_V("[UnzipAudio] start");
 3366              	LM51:
 3367 0a31 C7442408 		movl	$LC19, 8(%esp)
 3367      99070000 
 3368 0a39 C7442404 		movl	$LC1, 4(%esp)
 3368      3E000000 
GAS LISTING d:/MTK/MTK2503/MTK2503/11CW1418SP4_03_CORETEK03AE_11C_V1_GPRS_MMI/plutommi/Customer/ResGenerator/gcctmp/cc63daaa.s 			page 29


 3369 0a41 C7042401 		movl	$1, (%esp)
 3369      000000
 3370 0a48 E8000000 		call	_reslog_adaptor_log
 3370      00
 949:mtk_resgenerator.cpp ****     sprintf(tempCommand, "%s\\audio.zip", CUST_ADO_PATH);
 3372              	LM52:
 3373 0a4d C7442408 		movl	$LC20, 8(%esp)
 3373      C0070000 
 3374 0a55 C7442404 		movl	$LC21, 4(%esp)
 3374      DF070000 
 3375 0a5d 8D85F8FE 		leal	-264(%ebp), %eax
 3375      FFFF
 3376 0a63 890424   		movl	%eax, (%esp)
 3377 0a66 E8000000 		call	_sprintf
 3377      00
 950:mtk_resgenerator.cpp ****     RESGEN_LOG_V("[Dependency] plutommi\\Customer\\ResGenerator\\%s\n", tempCommand);
 3379              	LM53:
 3380 0a6b 8D85F8FE 		leal	-264(%ebp), %eax
 3380      FFFF
 3381 0a71 8944240C 		movl	%eax, 12(%esp)
 3382 0a75 C7442408 		movl	$LC22, 8(%esp)
 3382      00080000 
 3383 0a7d C7442404 		movl	$LC1, 4(%esp)
 3383      3E000000 
 3384 0a85 C7042401 		movl	$1, (%esp)
 3384      000000
 3385 0a8c E8000000 		call	_reslog_adaptor_log
 3385      00
 951:mtk_resgenerator.cpp ****     search = FindFirstFile(tempCommand, &file_data);
 3387              	LM54:
 3388 0a91 8D85B8FD 		leal	-584(%ebp), %eax
 3388      FFFF
 3389 0a97 89442404 		movl	%eax, 4(%esp)
 3390 0a9b 8D85F8FE 		leal	-264(%ebp), %eax
 3390      FFFF
 3391 0aa1 890424   		movl	%eax, (%esp)
 3392 0aa4 E8000000 		call	_FindFirstFileA@8
 3392      00
 3393 0aa9 83EC08   		subl	$8, %esp
 3394 0aac 898574FC 		movl	%eax, -908(%ebp)
 3394      FFFF
 952:mtk_resgenerator.cpp ****     if (search == INVALID_HANDLE_VALUE)
 3396              	LM55:
 3397 0ab2 83BD74FC 		cmpl	$-1, -908(%ebp)
 3397      FFFFFF
 3398 0ab9 753D     		jne	L28
 953:mtk_resgenerator.cpp ****     {
 954:mtk_resgenerator.cpp ****         RESGEN_LOG_E("Didn't find audio.zip please check. ret=[%d] path=[%s]", GetLastError(), temp
 3400              	LM56:
 3401 0abb E8000000 		call	_GetLastError@0
 3401      00
 3402 0ac0 89C2     		movl	%eax, %edx
 3403 0ac2 8D85F8FE 		leal	-264(%ebp), %eax
 3403      FFFF
 3404 0ac8 89442410 		movl	%eax, 16(%esp)
 3405 0acc 8954240C 		movl	%edx, 12(%esp)
 3406 0ad0 C7442408 		movl	$LC23, 8(%esp)
GAS LISTING d:/MTK/MTK2503/MTK2503/11CW1418SP4_03_CORETEK03AE_11C_V1_GPRS_MMI/plutommi/Customer/ResGenerator/gcctmp/cc63daaa.s 			page 30


 3406      40080000 
 3407 0ad8 C7442404 		movl	$LC1, 4(%esp)
 3407      3E000000 
 3408 0ae0 C7042403 		movl	$3, (%esp)
 3408      000000
 3409 0ae7 E8000000 		call	_reslog_adaptor_log
 3409      00
 955:mtk_resgenerator.cpp ****         exit(2);
 3411              	LM57:
 3412 0aec C7042402 		movl	$2, (%esp)
 3412      000000
 3413 0af3 E8000000 		call	_exit
 3413      00
 3414              	L28:
 956:mtk_resgenerator.cpp ****     }
 957:mtk_resgenerator.cpp ****     FindClose(search);
 3416              	LM58:
 3417 0af8 8B8574FC 		movl	-908(%ebp), %eax
 3417      FFFF
 3418 0afe 890424   		movl	%eax, (%esp)
 3419 0b01 E8000000 		call	_FindClose@4
 3419      00
 3420 0b06 83EC04   		subl	$4, %esp
 958:mtk_resgenerator.cpp **** 
 959:mtk_resgenerator.cpp ****     sprintf(tempCommand, "%s\\\\audio_time_log", CUST_ADO_PATH);
 3422              	LM59:
 3423 0b09 C7442408 		movl	$LC20, 8(%esp)
 3423      C0070000 
 3424 0b11 C7442404 		movl	$LC24, 4(%esp)
 3424      77080000 
 3425 0b19 8D85F8FE 		leal	-264(%ebp), %eax
 3425      FFFF
 3426 0b1f 890424   		movl	%eax, (%esp)
 3427 0b22 E8000000 		call	_sprintf
 3427      00
 960:mtk_resgenerator.cpp ****     zip_time_file = fopen(tempCommand, "rb");
 3429              	LM60:
 3430 0b27 C7442404 		movl	$LC25, 4(%esp)
 3430      8A080000 
 3431 0b2f 8D85F8FE 		leal	-264(%ebp), %eax
 3431      FFFF
 3432 0b35 890424   		movl	%eax, (%esp)
 3433 0b38 E8000000 		call	_fopen
 3433      00
 3434 0b3d 89856CFC 		movl	%eax, -916(%ebp)
 3434      FFFF
 961:mtk_resgenerator.cpp ****     if (zip_time_file != NULL)
 3436              	LM61:
 3437 0b43 83BD6CFC 		cmpl	$0, -916(%ebp)
 3437      FFFF00
 3438 0b4a 0F84E900 		je	L29
 3438      0000
 962:mtk_resgenerator.cpp ****     {
 963:mtk_resgenerator.cpp ****         wsize = fread(&(zip_time_prev), sizeof(zip_time_prev), 1, zip_time_file);
 3440              	LM62:
 3441 0b50 8B856CFC 		movl	-916(%ebp), %eax
 3441      FFFF
GAS LISTING d:/MTK/MTK2503/MTK2503/11CW1418SP4_03_CORETEK03AE_11C_V1_GPRS_MMI/plutommi/Customer/ResGenerator/gcctmp/cc63daaa.s 			page 31


 3442 0b56 8944240C 		movl	%eax, 12(%esp)
 3443 0b5a C7442408 		movl	$1, 8(%esp)
 3443      01000000 
 3444 0b62 C7442404 		movl	$8, 4(%esp)
 3444      08000000 
 3445 0b6a 8D8560FC 		leal	-928(%ebp), %eax
 3445      FFFF
 3446 0b70 890424   		movl	%eax, (%esp)
 3447 0b73 E8000000 		call	_fread
 3447      00
 3448 0b78 898568FC 		movl	%eax, -920(%ebp)
 3448      FFFF
 964:mtk_resgenerator.cpp ****         fclose(zip_time_file);
 3450              	LM63:
 3451 0b7e 8B856CFC 		movl	-916(%ebp), %eax
 3451      FFFF
 3452 0b84 890424   		movl	%eax, (%esp)
 3453 0b87 E8000000 		call	_fclose
 3453      00
 965:mtk_resgenerator.cpp ****         if (wsize != 1)
 3455              	LM64:
 3456 0b8c 83BD68FC 		cmpl	$1, -920(%ebp)
 3456      FFFF01
 3457 0b93 7444     		je	L30
 966:mtk_resgenerator.cpp ****         {
 967:mtk_resgenerator.cpp ****             RESGEN_LOG_E("Can't read [%s][%d][%d]", tempCommand, wsize, sizeof(file_data.ftLastWrit
 3459              	LM65:
 3460 0b95 C7442414 		movl	$8, 20(%esp)
 3460      08000000 
 3461 0b9d 8B8568FC 		movl	-920(%ebp), %eax
 3461      FFFF
 3462 0ba3 89442410 		movl	%eax, 16(%esp)
 3463 0ba7 8D85F8FE 		leal	-264(%ebp), %eax
 3463      FFFF
 3464 0bad 8944240C 		movl	%eax, 12(%esp)
 3465 0bb1 C7442408 		movl	$LC26, 8(%esp)
 3465      8D080000 
 3466 0bb9 C7442404 		movl	$LC1, 4(%esp)
 3466      3E000000 
 3467 0bc1 C7042403 		movl	$3, (%esp)
 3467      000000
 3468 0bc8 E8000000 		call	_reslog_adaptor_log
 3468      00
 968:mtk_resgenerator.cpp ****             exit(2);
 3470              	LM66:
 3471 0bcd C7042402 		movl	$2, (%esp)
 3471      000000
 3472 0bd4 E8000000 		call	_exit
 3472      00
 3473              	L30:
 969:mtk_resgenerator.cpp ****         }
 970:mtk_resgenerator.cpp **** 
 971:mtk_resgenerator.cpp ****         if (CompareFileTime(&(file_data.ftLastWriteTime), &(zip_time_prev)) == 0)
 3475              	LM67:
 3476 0bd9 8D8560FC 		leal	-928(%ebp), %eax
 3476      FFFF
 3477 0bdf 89442404 		movl	%eax, 4(%esp)
GAS LISTING d:/MTK/MTK2503/MTK2503/11CW1418SP4_03_CORETEK03AE_11C_V1_GPRS_MMI/plutommi/Customer/ResGenerator/gcctmp/cc63daaa.s 			page 32


 3478 0be3 8D85B8FD 		leal	-584(%ebp), %eax
 3478      FFFF
 3479 0be9 83C014   		addl	$20, %eax
 3480 0bec 890424   		movl	%eax, (%esp)
 3481 0bef E8000000 		call	_CompareFileTime@8
 3481      00
 3482 0bf4 83EC08   		subl	$8, %esp
 3483 0bf7 85C0     		testl	%eax, %eax
 3484 0bf9 753E     		jne	L29
 972:mtk_resgenerator.cpp ****         {
 973:mtk_resgenerator.cpp ****             is_need_unzip = FALSE;
 3486              	LM68:
 3487 0bfb C78570FC 		movl	$0, -912(%ebp)
 3487      FFFF0000 
 3487      0000
 974:mtk_resgenerator.cpp ****             RESGEN_LOG_V("AUDIO's audio.zip is not changed, skip Unzip process...");
 3489              	LM69:
 3490 0c05 C7442408 		movl	$LC27, 8(%esp)
 3490      C0080000 
 3491 0c0d C7442404 		movl	$LC1, 4(%esp)
 3491      3E000000 
 3492 0c15 C7042401 		movl	$1, (%esp)
 3492      000000
 3493 0c1c E8000000 		call	_reslog_adaptor_log
 3493      00
 975:mtk_resgenerator.cpp ****             fprintf(stderr, "AUDIO's audio.zip is not changed, skip Unzip process...\n");
 3495              	LM70:
 3496 0c21 C7442404 		movl	$LC28, 4(%esp)
 3496      00090000 
 3497 0c29 A1000000 		movl	__imp___iob, %eax
 3497      00
 3498 0c2e 83C040   		addl	$64, %eax
 3499 0c31 890424   		movl	%eax, (%esp)
 3500 0c34 E8000000 		call	_fprintf
 3500      00
 3501              	L29:
 976:mtk_resgenerator.cpp ****         }
 977:mtk_resgenerator.cpp ****     }
 978:mtk_resgenerator.cpp **** 
 979:mtk_resgenerator.cpp ****     zip_time_file = fopen(tempCommand, "wb");
 3503              	LM71:
 3504 0c39 C7442404 		movl	$LC29, 4(%esp)
 3504      39090000 
 3505 0c41 8D85F8FE 		leal	-264(%ebp), %eax
 3505      FFFF
 3506 0c47 890424   		movl	%eax, (%esp)
 3507 0c4a E8000000 		call	_fopen
 3507      00
 3508 0c4f 89856CFC 		movl	%eax, -916(%ebp)
 3508      FFFF
 980:mtk_resgenerator.cpp ****     if (zip_time_file == NULL)
 3510              	LM72:
 3511 0c55 83BD6CFC 		cmpl	$0, -916(%ebp)
 3511      FFFF00
 3512 0c5c 7532     		jne	L32
 981:mtk_resgenerator.cpp ****     {
 982:mtk_resgenerator.cpp ****         RESGEN_LOG_E("[%s] could not open!", tempCommand);
GAS LISTING d:/MTK/MTK2503/MTK2503/11CW1418SP4_03_CORETEK03AE_11C_V1_GPRS_MMI/plutommi/Customer/ResGenerator/gcctmp/cc63daaa.s 			page 33


 3514              	LM73:
 3515 0c5e 8D85F8FE 		leal	-264(%ebp), %eax
 3515      FFFF
 3516 0c64 8944240C 		movl	%eax, 12(%esp)
 3517 0c68 C7442408 		movl	$LC30, 8(%esp)
 3517      3C090000 
 3518 0c70 C7442404 		movl	$LC1, 4(%esp)
 3518      3E000000 
 3519 0c78 C7042403 		movl	$3, (%esp)
 3519      000000
 3520 0c7f E8000000 		call	_reslog_adaptor_log
 3520      00
 983:mtk_resgenerator.cpp ****         exit(2);
 3522              	LM74:
 3523 0c84 C7042402 		movl	$2, (%esp)
 3523      000000
 3524 0c8b E8000000 		call	_exit
 3524      00
 3525              	L32:
 984:mtk_resgenerator.cpp ****     }
 985:mtk_resgenerator.cpp **** 
 986:mtk_resgenerator.cpp ****     wsize = fwrite(&(file_data.ftLastWriteTime), sizeof(file_data.ftLastWriteTime), 1, zip_time_fil
 3527              	LM75:
 3528 0c90 8B856CFC 		movl	-916(%ebp), %eax
 3528      FFFF
 3529 0c96 8944240C 		movl	%eax, 12(%esp)
 3530 0c9a C7442408 		movl	$1, 8(%esp)
 3530      01000000 
 3531 0ca2 C7442404 		movl	$8, 4(%esp)
 3531      08000000 
 3532 0caa 8D85B8FD 		leal	-584(%ebp), %eax
 3532      FFFF
 3533 0cb0 83C014   		addl	$20, %eax
 3534 0cb3 890424   		movl	%eax, (%esp)
 3535 0cb6 E8000000 		call	_fwrite
 3535      00
 3536 0cbb 898568FC 		movl	%eax, -920(%ebp)
 3536      FFFF
 987:mtk_resgenerator.cpp ****     fclose(zip_time_file);
 3538              	LM76:
 3539 0cc1 8B856CFC 		movl	-916(%ebp), %eax
 3539      FFFF
 3540 0cc7 890424   		movl	%eax, (%esp)
 3541 0cca E8000000 		call	_fclose
 3541      00
 988:mtk_resgenerator.cpp ****     if (wsize != 1)
 3543              	LM77:
 3544 0ccf 83BD68FC 		cmpl	$1, -920(%ebp)
 3544      FFFF01
 3545 0cd6 7444     		je	L33
 989:mtk_resgenerator.cpp ****     {
 990:mtk_resgenerator.cpp ****         RESGEN_LOG_E("Can't write [%s][%d][%d]", tempCommand, wsize, sizeof(file_data.ftLastWriteTi
 3547              	LM78:
 3548 0cd8 C7442414 		movl	$8, 20(%esp)
 3548      08000000 
 3549 0ce0 8B8568FC 		movl	-920(%ebp), %eax
 3549      FFFF
GAS LISTING d:/MTK/MTK2503/MTK2503/11CW1418SP4_03_CORETEK03AE_11C_V1_GPRS_MMI/plutommi/Customer/ResGenerator/gcctmp/cc63daaa.s 			page 34


 3550 0ce6 89442410 		movl	%eax, 16(%esp)
 3551 0cea 8D85F8FE 		leal	-264(%ebp), %eax
 3551      FFFF
 3552 0cf0 8944240C 		movl	%eax, 12(%esp)
 3553 0cf4 C7442408 		movl	$LC31, 8(%esp)
 3553      51090000 
 3554 0cfc C7442404 		movl	$LC1, 4(%esp)
 3554      3E000000 
 3555 0d04 C7042403 		movl	$3, (%esp)
 3555      000000
 3556 0d0b E8000000 		call	_reslog_adaptor_log
 3556      00
 991:mtk_resgenerator.cpp ****         exit(2);
 3558              	LM79:
 3559 0d10 C7042402 		movl	$2, (%esp)
 3559      000000
 3560 0d17 E8000000 		call	_exit
 3560      00
 3561              	L33:
 992:mtk_resgenerator.cpp ****     }
 993:mtk_resgenerator.cpp **** 
 994:mtk_resgenerator.cpp **** 
 995:mtk_resgenerator.cpp ****     if (is_need_unzip || g_is_clean)
 3563              	LM80:
 3564 0d1c 83BD70FC 		cmpl	$0, -912(%ebp)
 3564      FFFF00
 3565 0d23 750B     		jne	L35
 3566 0d25 833D0000 		cmpl	$0, _g_is_clean
 3566      000000
 3567 0d2c 7502     		jne	L35
 3568 0d2e EB4C     		jmp	L34
 3569              	L35:
 996:mtk_resgenerator.cpp ****     {
 997:mtk_resgenerator.cpp ****         fprintf(stderr, "Start Unzip audios ...output 3rd_tool.log\n");
 3571              	LM81:
 3572 0d30 C7442404 		movl	$LC32, 4(%esp)
 3572      80090000 
 3573 0d38 A1000000 		movl	__imp___iob, %eax
 3573      00
 3574 0d3d 83C040   		addl	$64, %eax
 3575 0d40 890424   		movl	%eax, (%esp)
 3576 0d43 E8000000 		call	_fprintf
 3576      00
 998:mtk_resgenerator.cpp **** 
 999:mtk_resgenerator.cpp ****         sprintf(tempCommand, "7za.exe x -y %s\\audio.zip -o%s\\ 2>> .\\debug\\3rd_tool.log", CUST_A
 3578              	LM82:
 3579 0d48 C744240C 		movl	$LC20, 12(%esp)
 3579      C0070000 
 3580 0d50 C7442408 		movl	$LC20, 8(%esp)
 3580      C0070000 
 3581 0d58 C7442404 		movl	$LC33, 4(%esp)
 3581      C0090000 
 3582 0d60 8D85F8FE 		leal	-264(%ebp), %eax
 3582      FFFF
 3583 0d66 890424   		movl	%eax, (%esp)
 3584 0d69 E8000000 		call	_sprintf
 3584      00
GAS LISTING d:/MTK/MTK2503/MTK2503/11CW1418SP4_03_CORETEK03AE_11C_V1_GPRS_MMI/plutommi/Customer/ResGenerator/gcctmp/cc63daaa.s 			page 35


1000:mtk_resgenerator.cpp ****         execute_ext_command(tempCommand);
 3586              	LM83:
 3587 0d6e 8D85F8FE 		leal	-264(%ebp), %eax
 3587      FFFF
 3588 0d74 890424   		movl	%eax, (%esp)
 3589 0d77 E8000000 		call	_execute_ext_command
 3589      00
 3590              	L34:
1001:mtk_resgenerator.cpp ****     }
1002:mtk_resgenerator.cpp **** #ifndef __OPTR_NONE__
1003:mtk_resgenerator.cpp ****     sprintf(tempCommand, "7za.exe x -y %s\\operator_audio.zip -o%s\\ 2>> .\\debug\\3rd_tool.log", C
1004:mtk_resgenerator.cpp ****     RESGEN_LOG_V("[Dependency] plutommi\\Customer\\ResGenerator\\%s\\operator_audio.zip\n", CUST_OP
1005:mtk_resgenerator.cpp ****     execute_ext_command(tempCommand);
1006:mtk_resgenerator.cpp **** #endif /* __OPTR_NONE__ */
1007:mtk_resgenerator.cpp **** 
1008:mtk_resgenerator.cpp ****     RESGEN_LOG_V("[UnzipAudio] end");
 3592              	LM84:
 3593 0d7c C7442408 		movl	$LC34, 8(%esp)
 3593      F9090000 
 3594 0d84 C7442404 		movl	$LC1, 4(%esp)
 3594      3E000000 
 3595 0d8c C7042401 		movl	$1, (%esp)
 3595      000000
 3596 0d93 E8000000 		call	_reslog_adaptor_log
 3596      00
1009:mtk_resgenerator.cpp **** }
 3598              	LM85:
 3599 0d98 C9       		leave
 3600 0d99 C3       		ret
 3601              	LBE4:
 3612              	Lscope2:
 3614              		.align 2
 3617              	.globl _MtkResgenTrace
 3619              	_MtkResgenTrace:
1010:mtk_resgenerator.cpp **** 
1011:mtk_resgenerator.cpp **** 
1012:mtk_resgenerator.cpp **** /*****************************************************************************
1013:mtk_resgenerator.cpp **** * FUNCTION
1014:mtk_resgenerator.cpp **** *  Trace
1015:mtk_resgenerator.cpp **** * DESCRIPTION
1016:mtk_resgenerator.cpp **** *
1017:mtk_resgenerator.cpp **** * PARAMETERS
1018:mtk_resgenerator.cpp **** *  fmt     [IN]
1019:mtk_resgenerator.cpp **** * RETURNS
1020:mtk_resgenerator.cpp **** *  void
1021:mtk_resgenerator.cpp **** *****************************************************************************/
1022:mtk_resgenerator.cpp **** extern "C" void MtkResgenTrace(char *fmt,...)
1023:mtk_resgenerator.cpp **** {
 3621              	LM86:
 3622 0d9a 55       		pushl	%ebp
 3623 0d9b 89E5     		movl	%esp, %ebp
1024:mtk_resgenerator.cpp ****     return;
1025:mtk_resgenerator.cpp **** #if 0    
1026:mtk_resgenerator.cpp **** /* under construction !*/
1027:mtk_resgenerator.cpp **** /* under construction !*/
1028:mtk_resgenerator.cpp **** /* under construction !*/
1029:mtk_resgenerator.cpp **** /* under construction !*/
GAS LISTING d:/MTK/MTK2503/MTK2503/11CW1418SP4_03_CORETEK03AE_11C_V1_GPRS_MMI/plutommi/Customer/ResGenerator/gcctmp/cc63daaa.s 			page 36


1030:mtk_resgenerator.cpp **** /* under construction !*/
1031:mtk_resgenerator.cpp **** /* under construction !*/
1032:mtk_resgenerator.cpp **** /* under construction !*/
1033:mtk_resgenerator.cpp **** /* under construction !*/
1034:mtk_resgenerator.cpp **** /* under construction !*/
1035:mtk_resgenerator.cpp **** /* under construction !*/
1036:mtk_resgenerator.cpp **** /* under construction !*/
1037:mtk_resgenerator.cpp **** /* under construction !*/
1038:mtk_resgenerator.cpp **** /* under construction !*/
1039:mtk_resgenerator.cpp **** /* under construction !*/
1040:mtk_resgenerator.cpp **** #endif    
1041:mtk_resgenerator.cpp **** }
 3625              	LM87:
 3626 0d9d 5D       		popl	%ebp
 3627 0d9e C3       		ret
 3628              	Lscope3:
 3630 0d9f 90       		.align 2
 3638              	__Z21PopulateSearchMap_ExtP13CUSTOM_ID_MAPP20CUSTOM_ID_SEARCH_MAPPtS3_t:
1042:mtk_resgenerator.cpp **** 
1043:mtk_resgenerator.cpp **** 
1044:mtk_resgenerator.cpp **** /*****************************************************************************
1045:mtk_resgenerator.cpp **** * FUNCTION
1046:mtk_resgenerator.cpp **** *  PopulateSearchMap_Ext
1047:mtk_resgenerator.cpp **** * DESCRIPTION
1048:mtk_resgenerator.cpp **** *  populate search map
1049:mtk_resgenerator.cpp **** * PARAMETERS
1050:mtk_resgenerator.cpp **** *  pIdMap              [IN]    ID map
1051:mtk_resgenerator.cpp **** *  pIdSearchMap        [OUT]   ID search map
1052:mtk_resgenerator.cpp **** *  pCurrMaxId          [OUT]   current max ID
1053:mtk_resgenerator.cpp **** *  pCurrMaxSearchId    [OUT]   current max search ID
1054:mtk_resgenerator.cpp **** *  MaxIdSize           [IN]    max ID
1055:mtk_resgenerator.cpp **** * RETURNS
1056:mtk_resgenerator.cpp **** *  void
1057:mtk_resgenerator.cpp **** *****************************************************************************/
1058:mtk_resgenerator.cpp **** static void PopulateSearchMap_Ext(
1059:mtk_resgenerator.cpp ****                                   CUSTOM_ID_MAP *pIdMap,
1060:mtk_resgenerator.cpp ****                                   CUSTOM_ID_SEARCH_MAP *pIdSearchMap,
1061:mtk_resgenerator.cpp ****                                   unsigned short *pCurrMaxId,
1062:mtk_resgenerator.cpp ****                                   unsigned short *pCurrMaxSearchId,
1063:mtk_resgenerator.cpp ****                                   U16 MaxIdSize)
1064:mtk_resgenerator.cpp **** {
 3640              	LM88:
 3641 0da0 55       		pushl	%ebp
 3642 0da1 89E5     		movl	%esp, %ebp
 3643 0da3 56       		pushl	%esi
 3644 0da4 53       		pushl	%ebx
 3645 0da5 83EC0C   		subl	$12, %esp
 3646 0da8 8B4518   		movl	24(%ebp), %eax
 3647 0dab 668945F6 		movw	%ax, -10(%ebp)
1065:mtk_resgenerator.cpp **** 
1066:mtk_resgenerator.cpp ****     /*----------------------------------------------------------------*/
1067:mtk_resgenerator.cpp ****     /* Local Variables                                                */
1068:mtk_resgenerator.cpp ****     /*----------------------------------------------------------------*/
1069:mtk_resgenerator.cpp ****     U16 i = 0, j = 0;
 3649              	LM89:
 3650              	LBB5:
 3651 0daf 66C745F4 		movw	$0, -12(%ebp)
GAS LISTING d:/MTK/MTK2503/MTK2503/11CW1418SP4_03_CORETEK03AE_11C_V1_GPRS_MMI/plutommi/Customer/ResGenerator/gcctmp/cc63daaa.s 			page 37


 3651      0000
 3652 0db5 66C745F2 		movw	$0, -14(%ebp)
 3652      0000
1070:mtk_resgenerator.cpp ****     U16 index = 0, start = 0;
 3654              	LM90:
 3655 0dbb 66C745F0 		movw	$0, -16(%ebp)
 3655      0000
 3656 0dc1 66C745EE 		movw	$0, -18(%ebp)
 3656      0000
1071:mtk_resgenerator.cpp **** 
1072:mtk_resgenerator.cpp ****     /*----------------------------------------------------------------*/
1073:mtk_resgenerator.cpp ****     /* Code Body                                                      */
1074:mtk_resgenerator.cpp ****     /*----------------------------------------------------------------*/
1075:mtk_resgenerator.cpp ****     /* Filed the min ID and max Id for search map structure */
1076:mtk_resgenerator.cpp ****     for (i = 0; i < MaxIdSize; i++)
 3658              	LM91:
 3659 0dc7 66C745F4 		movw	$0, -12(%ebp)
 3659      0000
 3660              	L38:
 3661 0dcd 8B45F4   		movl	-12(%ebp), %eax
 3662 0dd0 663B45F6 		cmpw	-10(%ebp), %ax
 3663 0dd4 7205     		jb	L41
 3664 0dd6 E9B10000 		jmp	L39
 3664      00
 3665              	L41:
1077:mtk_resgenerator.cpp ****     {
1078:mtk_resgenerator.cpp ****         if (pIdMap[i].Num != ((U16) - 1))
 3667              	LM92:
 3668 0ddb 0FB745F4 		movzwl	-12(%ebp), %eax
 3669 0ddf 8D1400   		leal	(%eax,%eax), %edx
 3670 0de2 8B4508   		movl	8(%ebp), %eax
 3671 0de5 66833C10 		cmpw	$-1, (%eax,%edx)
 3671      FF
 3672 0dea 747D     		je	L42
1079:mtk_resgenerator.cpp ****         {
1080:mtk_resgenerator.cpp ****             if (!start)
 3674              	LM93:
 3675 0dec 66837DEE 		cmpw	$0, -18(%ebp)
 3675      00
 3676 0df1 7554     		jne	L43
1081:mtk_resgenerator.cpp ****             {
1082:mtk_resgenerator.cpp ****                 pIdSearchMap[j].minId = pIdSearchMap[j].maxId = i;
 3678              	LM94:
 3679 0df3 0FB755F2 		movzwl	-14(%ebp), %edx
 3680 0df7 89D0     		movl	%edx, %eax
 3681 0df9 01C0     		addl	%eax, %eax
 3682 0dfb 01D0     		addl	%edx, %eax
 3683 0dfd 8D1C00   		leal	(%eax,%eax), %ebx
 3684 0e00 8B750C   		movl	12(%ebp), %esi
 3685 0e03 0FB755F2 		movzwl	-14(%ebp), %edx
 3686 0e07 89D0     		movl	%edx, %eax
 3687 0e09 01C0     		addl	%eax, %eax
 3688 0e0b 01D0     		addl	%edx, %eax
 3689 0e0d 8D0C00   		leal	(%eax,%eax), %ecx
 3690 0e10 8B550C   		movl	12(%ebp), %edx
 3691 0e13 8B45F4   		movl	-12(%ebp), %eax
 3692 0e16 6689440A 		movw	%ax, 2(%edx,%ecx)
GAS LISTING d:/MTK/MTK2503/MTK2503/11CW1418SP4_03_CORETEK03AE_11C_V1_GPRS_MMI/plutommi/Customer/ResGenerator/gcctmp/cc63daaa.s 			page 38


 3692      02
 3693 0e1b 6689041E 		movw	%ax, (%esi,%ebx)
1083:mtk_resgenerator.cpp ****                 pIdSearchMap[j].index = index;
 3695              	LM95:
 3696 0e1f 0FB755F2 		movzwl	-14(%ebp), %edx
 3697 0e23 89D0     		movl	%edx, %eax
 3698 0e25 01C0     		addl	%eax, %eax
 3699 0e27 01D0     		addl	%edx, %eax
 3700 0e29 8D0C00   		leal	(%eax,%eax), %ecx
 3701 0e2c 8B550C   		movl	12(%ebp), %edx
 3702 0e2f 8B45F0   		movl	-16(%ebp), %eax
 3703 0e32 6689440A 		movw	%ax, 4(%edx,%ecx)
 3703      04
1084:mtk_resgenerator.cpp ****                 index++;
 3705              	LM96:
 3706 0e37 8B45F0   		movl	-16(%ebp), %eax
 3707 0e3a 40       		incl	%eax
 3708 0e3b 668945F0 		movw	%ax, -16(%ebp)
1085:mtk_resgenerator.cpp ****                 start = 1;
 3710              	LM97:
 3711 0e3f 66C745EE 		movw	$1, -18(%ebp)
 3711      0100
 3712 0e45 EB38     		jmp	L40
 3713              	L43:
1086:mtk_resgenerator.cpp ****             }
1087:mtk_resgenerator.cpp ****             else
1088:mtk_resgenerator.cpp ****             {
1089:mtk_resgenerator.cpp ****                 pIdSearchMap[j].maxId = i;
 3715              	LM98:
 3716 0e47 0FB755F2 		movzwl	-14(%ebp), %edx
 3717 0e4b 89D0     		movl	%edx, %eax
 3718 0e4d 01C0     		addl	%eax, %eax
 3719 0e4f 01D0     		addl	%edx, %eax
 3720 0e51 8D0C00   		leal	(%eax,%eax), %ecx
 3721 0e54 8B550C   		movl	12(%ebp), %edx
 3722 0e57 8B45F4   		movl	-12(%ebp), %eax
 3723 0e5a 6689440A 		movw	%ax, 2(%edx,%ecx)
 3723      02
1090:mtk_resgenerator.cpp ****                 index++;
 3725              	LM99:
 3726 0e5f 8B45F0   		movl	-16(%ebp), %eax
 3727 0e62 40       		incl	%eax
 3728 0e63 668945F0 		movw	%ax, -16(%ebp)
 3729 0e67 EB16     		jmp	L40
 3730              	L42:
1091:mtk_resgenerator.cpp ****             }
1092:mtk_resgenerator.cpp ****         }
1093:mtk_resgenerator.cpp ****         else
1094:mtk_resgenerator.cpp ****         {
1095:mtk_resgenerator.cpp ****             if (start)
 3732              	LM100:
 3733 0e69 66837DEE 		cmpw	$0, -18(%ebp)
 3733      00
 3734 0e6e 740F     		je	L40
1096:mtk_resgenerator.cpp ****             {
1097:mtk_resgenerator.cpp ****                 j++;
 3736              	LM101:
GAS LISTING d:/MTK/MTK2503/MTK2503/11CW1418SP4_03_CORETEK03AE_11C_V1_GPRS_MMI/plutommi/Customer/ResGenerator/gcctmp/cc63daaa.s 			page 39


 3737 0e70 0FB745F2 		movzwl	-14(%ebp), %eax
 3738 0e74 40       		incl	%eax
 3739 0e75 668945F2 		movw	%ax, -14(%ebp)
1098:mtk_resgenerator.cpp ****                 start = 0;
 3741              	LM102:
 3742 0e79 66C745EE 		movw	$0, -18(%ebp)
 3742      0000
 3744              	LM103:
 3745              	L40:
 3746 0e7f 8B45F4   		movl	-12(%ebp), %eax
 3747 0e82 40       		incl	%eax
 3748 0e83 668945F4 		movw	%ax, -12(%ebp)
 3749 0e87 E941FFFF 		jmp	L38
 3749      FF
 3750              	L39:
1099:mtk_resgenerator.cpp ****             }
1100:mtk_resgenerator.cpp ****         }
1101:mtk_resgenerator.cpp ****     }
1102:mtk_resgenerator.cpp **** 
1103:mtk_resgenerator.cpp ****     /* Find current max id */
1104:mtk_resgenerator.cpp ****     *pCurrMaxSearchId = j;
 3752              	LM104:
 3753 0e8c 8B5514   		movl	20(%ebp), %edx
 3754 0e8f 0FB745F2 		movzwl	-14(%ebp), %eax
 3755 0e93 668902   		movw	%ax, (%edx)
1105:mtk_resgenerator.cpp ****     j = 0;
 3757              	LM105:
 3758 0e96 66C745F2 		movw	$0, -14(%ebp)
 3758      0000
1106:mtk_resgenerator.cpp ****     /* Move the pIdMap[n] so that the ID MAP items are continous  */
1107:mtk_resgenerator.cpp ****     for (i = 0; i < MaxIdSize; i++)
 3760              	LM106:
 3761 0e9c 66C745F4 		movw	$0, -12(%ebp)
 3761      0000
 3762              	L47:
 3763 0ea2 8B45F4   		movl	-12(%ebp), %eax
 3764 0ea5 663B45F6 		cmpw	-10(%ebp), %ax
 3765 0ea9 7202     		jb	L50
 3766 0eab EB59     		jmp	L48
 3767              	L50:
1108:mtk_resgenerator.cpp ****     {
1109:mtk_resgenerator.cpp ****         if (pIdMap[i].Num != (U16)-1)
 3769              	LM107:
 3770 0ead 0FB745F4 		movzwl	-12(%ebp), %eax
 3771 0eb1 8D1400   		leal	(%eax,%eax), %edx
 3772 0eb4 8B4508   		movl	8(%ebp), %eax
 3773 0eb7 66833C10 		cmpw	$-1, (%eax,%edx)
 3773      FF
 3774 0ebc 743E     		je	L49
1110:mtk_resgenerator.cpp ****         {
1111:mtk_resgenerator.cpp ****             if (i != j)
 3776              	LM108:
 3777 0ebe 8B45F4   		movl	-12(%ebp), %eax
 3778 0ec1 663B45F2 		cmpw	-14(%ebp), %ax
 3779 0ec5 742C     		je	L52
1112:mtk_resgenerator.cpp ****             {
1113:mtk_resgenerator.cpp **** 
GAS LISTING d:/MTK/MTK2503/MTK2503/11CW1418SP4_03_CORETEK03AE_11C_V1_GPRS_MMI/plutommi/Customer/ResGenerator/gcctmp/cc63daaa.s 			page 40


1114:mtk_resgenerator.cpp ****                 pIdMap[j].Num = pIdMap[i].Num;
 3781              	LM109:
 3782 0ec7 0FB745F2 		movzwl	-14(%ebp), %eax
 3783 0ecb 8D1C00   		leal	(%eax,%eax), %ebx
 3784 0ece 8B4D08   		movl	8(%ebp), %ecx
 3785 0ed1 0FB745F4 		movzwl	-12(%ebp), %eax
 3786 0ed5 8D1400   		leal	(%eax,%eax), %edx
 3787 0ed8 8B4508   		movl	8(%ebp), %eax
 3788 0edb 0FB70410 		movzwl	(%eax,%edx), %eax
 3789 0edf 66890419 		movw	%ax, (%ecx,%ebx)
1115:mtk_resgenerator.cpp ****                 pIdMap[i].Num = -1;
 3791              	LM110:
 3792 0ee3 0FB745F4 		movzwl	-12(%ebp), %eax
 3793 0ee7 8D1400   		leal	(%eax,%eax), %edx
 3794 0eea 8B4508   		movl	8(%ebp), %eax
 3795 0eed 66C70410 		movw	$-1, (%eax,%edx)
 3795      FFFF
 3796              	L52:
1116:mtk_resgenerator.cpp ****             }
1117:mtk_resgenerator.cpp ****             j++;
 3798              	LM111:
 3799 0ef3 0FB745F2 		movzwl	-14(%ebp), %eax
 3800 0ef7 40       		incl	%eax
 3801 0ef8 668945F2 		movw	%ax, -14(%ebp)
 3803              	LM112:
 3804              	L49:
 3805 0efc 8B45F4   		movl	-12(%ebp), %eax
 3806 0eff 40       		incl	%eax
 3807 0f00 668945F4 		movw	%ax, -12(%ebp)
 3808 0f04 EB9C     		jmp	L47
 3809              	L48:
1118:mtk_resgenerator.cpp ****         }
1119:mtk_resgenerator.cpp ****     }
1120:mtk_resgenerator.cpp **** 
1121:mtk_resgenerator.cpp ****     *pCurrMaxId = j;
 3811              	LM113:
 3812 0f06 8B5510   		movl	16(%ebp), %edx
 3813 0f09 0FB745F2 		movzwl	-14(%ebp), %eax
 3814 0f0d 668902   		movw	%ax, (%edx)
1122:mtk_resgenerator.cpp **** }
 3816              	LM114:
 3817 0f10 83C40C   		addl	$12, %esp
 3818 0f13 5B       		popl	%ebx
 3819 0f14 5E       		popl	%esi
 3820 0f15 5D       		popl	%ebp
 3821 0f16 C3       		ret
 3822              	LBE5:
 3830              	Lscope4:
 3832 0f17 89F68DBC 		.align 32
 3832      27000000 
 3832      00
 3833              	LC35:
 3834 0f20 506F7075 		.ascii "PopulateImageSearch(): Filled ID map and search map tables\0"
 3834      6C617465 
 3834      496D6167 
 3834      65536561 
 3834      72636828 
GAS LISTING d:/MTK/MTK2503/MTK2503/11CW1418SP4_03_CORETEK03AE_11C_V1_GPRS_MMI/plutommi/Customer/ResGenerator/gcctmp/cc63daaa.s 			page 41


 3835 0f5b 90       		.align 2
 3838              	__Z19PopulateImageSearchv:
1123:mtk_resgenerator.cpp **** 
1124:mtk_resgenerator.cpp **** 
1125:mtk_resgenerator.cpp **** /*****************************************************************************
1126:mtk_resgenerator.cpp **** * FUNCTION
1127:mtk_resgenerator.cpp **** *  PopulateImageSearch
1128:mtk_resgenerator.cpp **** * DESCRIPTION
1129:mtk_resgenerator.cpp **** *  populate image search map
1130:mtk_resgenerator.cpp **** * PARAMETERS
1131:mtk_resgenerator.cpp **** *  void
1132:mtk_resgenerator.cpp **** * RETURNS
1133:mtk_resgenerator.cpp **** *  void
1134:mtk_resgenerator.cpp **** *****************************************************************************/
1135:mtk_resgenerator.cpp **** static void PopulateImageSearch(void)
1136:mtk_resgenerator.cpp **** {
 3840              	LM115:
 3841 0f5c 55       		pushl	%ebp
 3842 0f5d 89E5     		movl	%esp, %ebp
 3843 0f5f 83EC18   		subl	$24, %esp
1137:mtk_resgenerator.cpp ****     /*----------------------------------------------------------------*/
1138:mtk_resgenerator.cpp ****     /* Local Variables                                                */
1139:mtk_resgenerator.cpp ****     /*----------------------------------------------------------------*/
1140:mtk_resgenerator.cpp **** 
1141:mtk_resgenerator.cpp ****     /*----------------------------------------------------------------*/
1142:mtk_resgenerator.cpp ****     /* Code Body                                                      */
1143:mtk_resgenerator.cpp ****     /*----------------------------------------------------------------*/
1144:mtk_resgenerator.cpp ****     RESGEN_LOG_V("PopulateImageSearch(): Filled ID map and search map tables");
 3845              	LM116:
 3846              	LBB6:
 3847 0f62 C7442408 		movl	$LC35, 8(%esp)
 3847      200F0000 
 3848 0f6a C7442404 		movl	$LC1, 4(%esp)
 3848      3E000000 
 3849 0f72 C7042401 		movl	$1, (%esp)
 3849      000000
 3850 0f79 E8000000 		call	_reslog_adaptor_log
 3850      00
1145:mtk_resgenerator.cpp ****     PopulateSearchMap_Ext(
 3852              	LM117:
 3853 0f7e C7442410 		movl	$65535, 16(%esp)
 3853      FFFF0000 
 3854 0f86 C744240C 		movl	$_CurrMaxSearchImageId, 12(%esp)
 3854      00000000 
 3855 0f8e C7442408 		movl	$_CurrMaxImageId, 8(%esp)
 3855      00000000 
 3856 0f96 C7442404 		movl	$_ImageIdSearchMap, 4(%esp)
 3856      00000000 
 3857 0f9e C7042400 		movl	$_ImageIdMap, (%esp)
 3857      000000
 3858 0fa5 E8F6FDFF 		call	__Z21PopulateSearchMap_ExtP13CUSTOM_ID_MAPP20CUSTOM_ID_SEARCH_MAPPtS3_t
 3858      FF
1146:mtk_resgenerator.cpp ****         (CUSTOM_ID_MAP *)ImageIdMap,
1147:mtk_resgenerator.cpp ****         (CUSTOM_ID_SEARCH_MAP *)ImageIdSearchMap,
1148:mtk_resgenerator.cpp ****         (unsigned short *)&CurrMaxImageId,
1149:mtk_resgenerator.cpp ****         (unsigned short *)&CurrMaxSearchImageId,
1150:mtk_resgenerator.cpp ****         MAX_IMAGE_IDS_SIZE);
GAS LISTING d:/MTK/MTK2503/MTK2503/11CW1418SP4_03_CORETEK03AE_11C_V1_GPRS_MMI/plutommi/Customer/ResGenerator/gcctmp/cc63daaa.s 			page 42


1151:mtk_resgenerator.cpp ****     PopulateSearchMap_Ext(
 3860              	LM118:
 3861 0faa C7442410 		movl	$65535, 16(%esp)
 3861      FFFF0000 
 3862 0fb2 C744240C 		movl	$_CurrMaxSearchImageIdEXT, 12(%esp)
 3862      00000000 
 3863 0fba C7442408 		movl	$_CurrMaxImageIdEXT, 8(%esp)
 3863      00000000 
 3864 0fc2 C7442404 		movl	$_ImageIdSearchMapEXT, 4(%esp)
 3864      00000000 
 3865 0fca C7042400 		movl	$_ImageIdMapEXT, (%esp)
 3865      000000
 3866 0fd1 E8CAFDFF 		call	__Z21PopulateSearchMap_ExtP13CUSTOM_ID_MAPP20CUSTOM_ID_SEARCH_MAPPtS3_t
 3866      FF
1152:mtk_resgenerator.cpp ****         (CUSTOM_ID_MAP *)ImageIdMapEXT,
1153:mtk_resgenerator.cpp ****         (CUSTOM_ID_SEARCH_MAP *)ImageIdSearchMapEXT,
1154:mtk_resgenerator.cpp ****         (unsigned short *)&CurrMaxImageIdEXT,
1155:mtk_resgenerator.cpp ****         (unsigned short *)&CurrMaxSearchImageIdEXT,
1156:mtk_resgenerator.cpp ****         MAX_IMAGE_IDS_SIZE);
1157:mtk_resgenerator.cpp **** }
 3868              	LM119:
 3869 0fd6 C9       		leave
 3870 0fd7 C3       		ret
 3871              	LBE6:
 3872              	Lscope5:
 3874 0fd8 908DB426 		.align 32
 3874      00000000 
 3875              	LC36:
 3876 0fe0 506F7075 		.ascii "PopulateAudioSearch(): Filled ID map and search map tables\0"
 3876      6C617465 
 3876      41756469 
 3876      6F536561 
 3876      72636828 
 3877 101b 90       		.align 2
 3880              	__Z19PopulateAudioSearchv:
1158:mtk_resgenerator.cpp **** 
1159:mtk_resgenerator.cpp **** 
1160:mtk_resgenerator.cpp **** /*****************************************************************************
1161:mtk_resgenerator.cpp **** * FUNCTION
1162:mtk_resgenerator.cpp **** *  PopulateAudioSearch
1163:mtk_resgenerator.cpp **** * DESCRIPTION
1164:mtk_resgenerator.cpp **** *  populate audio search map
1165:mtk_resgenerator.cpp **** * PARAMETERS
1166:mtk_resgenerator.cpp **** *  void
1167:mtk_resgenerator.cpp **** * RETURNS
1168:mtk_resgenerator.cpp **** *  void
1169:mtk_resgenerator.cpp **** *****************************************************************************/
1170:mtk_resgenerator.cpp **** static void PopulateAudioSearch(void)
1171:mtk_resgenerator.cpp **** {
 3882              	LM120:
 3883 101c 55       		pushl	%ebp
 3884 101d 89E5     		movl	%esp, %ebp
 3885 101f 83EC18   		subl	$24, %esp
1172:mtk_resgenerator.cpp ****     /*----------------------------------------------------------------*/
1173:mtk_resgenerator.cpp ****     /* Local Variables                                                */
1174:mtk_resgenerator.cpp ****     /*----------------------------------------------------------------*/
1175:mtk_resgenerator.cpp **** 
GAS LISTING d:/MTK/MTK2503/MTK2503/11CW1418SP4_03_CORETEK03AE_11C_V1_GPRS_MMI/plutommi/Customer/ResGenerator/gcctmp/cc63daaa.s 			page 43


1176:mtk_resgenerator.cpp ****     /*----------------------------------------------------------------*/
1177:mtk_resgenerator.cpp ****     /* Code Body                                                      */
1178:mtk_resgenerator.cpp ****     /*----------------------------------------------------------------*/
1179:mtk_resgenerator.cpp ****     RESGEN_LOG_V("PopulateAudioSearch(): Filled ID map and search map tables");
 3887              	LM121:
 3888              	LBB7:
 3889 1022 C7442408 		movl	$LC36, 8(%esp)
 3889      E00F0000 
 3890 102a C7442404 		movl	$LC1, 4(%esp)
 3890      3E000000 
 3891 1032 C7042401 		movl	$1, (%esp)
 3891      000000
 3892 1039 E8000000 		call	_reslog_adaptor_log
 3892      00
1180:mtk_resgenerator.cpp **** 
1181:mtk_resgenerator.cpp ****     PopulateSearchMap_Ext(
 3894              	LM122:
 3895 103e C7442410 		movl	$65535, 16(%esp)
 3895      FFFF0000 
 3896 1046 C744240C 		movl	$_CurrMaxSearchAudioId, 12(%esp)
 3896      00000000 
 3897 104e C7442408 		movl	$_CurrMaxAudioId, 8(%esp)
 3897      00000000 
 3898 1056 C7442404 		movl	$_AudioIdSearchMap, 4(%esp)
 3898      00000000 
 3899 105e C7042400 		movl	$_AudioIdMap, (%esp)
 3899      000000
 3900 1065 E836FDFF 		call	__Z21PopulateSearchMap_ExtP13CUSTOM_ID_MAPP20CUSTOM_ID_SEARCH_MAPPtS3_t
 3900      FF
1182:mtk_resgenerator.cpp ****         (CUSTOM_ID_MAP *)AudioIdMap,
1183:mtk_resgenerator.cpp ****         (CUSTOM_ID_SEARCH_MAP *)AudioIdSearchMap,
1184:mtk_resgenerator.cpp ****         (unsigned short *)&CurrMaxAudioId,
1185:mtk_resgenerator.cpp ****         (unsigned short *)&CurrMaxSearchAudioId,
1186:mtk_resgenerator.cpp ****         MAX_AUDIO_IDS_SIZE);
1187:mtk_resgenerator.cpp ****     PopulateSearchMap_Ext(
 3902              	LM123:
 3903 106a C7442410 		movl	$65535, 16(%esp)
 3903      FFFF0000 
 3904 1072 C744240C 		movl	$_CurrMaxSearchAudioIdEXT, 12(%esp)
 3904      00000000 
 3905 107a C7442408 		movl	$_CurrMaxAudioIdEXT, 8(%esp)
 3905      00000000 
 3906 1082 C7442404 		movl	$_AudioIdSearchMapEXT, 4(%esp)
 3906      00000000 
 3907 108a C7042400 		movl	$_AudioIdMapEXT, (%esp)
 3907      000000
 3908 1091 E80AFDFF 		call	__Z21PopulateSearchMap_ExtP13CUSTOM_ID_MAPP20CUSTOM_ID_SEARCH_MAPPtS3_t
 3908      FF
1188:mtk_resgenerator.cpp ****         (CUSTOM_ID_MAP *)AudioIdMapEXT,
1189:mtk_resgenerator.cpp ****         (CUSTOM_ID_SEARCH_MAP *)AudioIdSearchMapEXT,
1190:mtk_resgenerator.cpp ****         (unsigned short *)&CurrMaxAudioIdEXT,
1191:mtk_resgenerator.cpp ****         (unsigned short *)&CurrMaxSearchAudioIdEXT,
1192:mtk_resgenerator.cpp ****         MAX_AUDIO_IDS_SIZE);
1193:mtk_resgenerator.cpp **** }
 3910              	LM124:
 3911 1096 C9       		leave
 3912 1097 C3       		ret
GAS LISTING d:/MTK/MTK2503/MTK2503/11CW1418SP4_03_CORETEK03AE_11C_V1_GPRS_MMI/plutommi/Customer/ResGenerator/gcctmp/cc63daaa.s 			page 44


 3913              	LBE7:
 3914              	Lscope6:
 3916 1098 908DB426 		.align 32
 3916      00000000 
 3917              	LC37:
 3918 10a0 506F7075 		.ascii "PopulateFontSearch(): Filled ID map and search map tabls\0"
 3918      6C617465 
 3918      466F6E74 
 3918      53656172 
 3918      63682829 
 3919 10d9 90       		.align 2
 3922              	__Z18PopulateFontSearchv:
1194:mtk_resgenerator.cpp **** 
1195:mtk_resgenerator.cpp **** 
1196:mtk_resgenerator.cpp **** /*****************************************************************************
1197:mtk_resgenerator.cpp **** * FUNCTION
1198:mtk_resgenerator.cpp **** *  PopulateFontSearch
1199:mtk_resgenerator.cpp **** * DESCRIPTION
1200:mtk_resgenerator.cpp **** *  populate Font search map
1201:mtk_resgenerator.cpp **** * PARAMETERS
1202:mtk_resgenerator.cpp **** *  void
1203:mtk_resgenerator.cpp **** * RETURNS
1204:mtk_resgenerator.cpp **** *  void
1205:mtk_resgenerator.cpp **** *****************************************************************************/
1206:mtk_resgenerator.cpp **** static void PopulateFontSearch(void)
1207:mtk_resgenerator.cpp **** {
 3924              	LM125:
 3925 10da 55       		pushl	%ebp
 3926 10db 89E5     		movl	%esp, %ebp
 3927 10dd 83EC18   		subl	$24, %esp
1208:mtk_resgenerator.cpp ****     /*----------------------------------------------------------------*/
1209:mtk_resgenerator.cpp ****     /* Local Variables                                                */
1210:mtk_resgenerator.cpp ****     /*----------------------------------------------------------------*/
1211:mtk_resgenerator.cpp **** 
1212:mtk_resgenerator.cpp ****     /*----------------------------------------------------------------*/
1213:mtk_resgenerator.cpp ****     /* Code Body                                                      */
1214:mtk_resgenerator.cpp ****     /*----------------------------------------------------------------*/
1215:mtk_resgenerator.cpp ****     RESGEN_LOG_V("PopulateFontSearch(): Filled ID map and search map tabls");
 3929              	LM126:
 3930              	LBB8:
 3931 10e0 C7442408 		movl	$LC37, 8(%esp)
 3931      A0100000 
 3932 10e8 C7442404 		movl	$LC1, 4(%esp)
 3932      3E000000 
 3933 10f0 C7042401 		movl	$1, (%esp)
 3933      000000
 3934 10f7 E8000000 		call	_reslog_adaptor_log
 3934      00
1216:mtk_resgenerator.cpp **** 
1217:mtk_resgenerator.cpp ****     PopulateSearchMap_Ext(
 3936              	LM127:
 3937 10fc C7442410 		movl	$65535, 16(%esp)
 3937      FFFF0000 
 3938 1104 C744240C 		movl	$_CurrMaxSearchFontIdEXT, 12(%esp)
 3938      00000000 
 3939 110c C7442408 		movl	$_CurrMaxFontIdEXT, 8(%esp)
 3939      00000000 
GAS LISTING d:/MTK/MTK2503/MTK2503/11CW1418SP4_03_CORETEK03AE_11C_V1_GPRS_MMI/plutommi/Customer/ResGenerator/gcctmp/cc63daaa.s 			page 45


 3940 1114 C7442404 		movl	$_FontIdSearchMapEXT, 4(%esp)
 3940      00000000 
 3941 111c C7042400 		movl	$_FontIdMapEXT, (%esp)
 3941      000000
 3942 1123 E878FCFF 		call	__Z21PopulateSearchMap_ExtP13CUSTOM_ID_MAPP20CUSTOM_ID_SEARCH_MAPPtS3_t
 3942      FF
1218:mtk_resgenerator.cpp ****         (CUSTOM_ID_MAP *)FontIdMapEXT,
1219:mtk_resgenerator.cpp ****         (CUSTOM_ID_SEARCH_MAP *)FontIdSearchMapEXT,
1220:mtk_resgenerator.cpp ****         (unsigned short *)&CurrMaxFontIdEXT,
1221:mtk_resgenerator.cpp ****         (unsigned short *)&CurrMaxSearchFontIdEXT,
1222:mtk_resgenerator.cpp ****         MAX_FONT_IDS_SIZE);
1223:mtk_resgenerator.cpp **** }
 3944              	LM128:
 3945 1128 C9       		leave
 3946 1129 C3       		ret
 3947              	LBE8:
 3948              	Lscope7:
 3950 112a 90909090 		.align 32
 3950      90909090 
 3950      90909090 
 3950      90909090 
 3950      90909090 
 3951              	LC38:
 3952 1140 0A2F2A2A 		.ascii "\12/************************************************************** \12 FILENAME\11:  \12 P
 3952      2A2A2A2A 
 3952      2A2A2A2A 
 3952      2A2A2A2A 
 3952      2A2A2A2A 
 3953              	LC39:
 3954 122a 23696E63 		.ascii "#include \"CustDataRes.h\"\12\0"
 3954      6C756465 
 3954      20224375 
 3954      73744461 
 3954      74615265 
 3955              	LC40:
 3956 1244 23696E63 		.ascii "#include \"CustResDef.h\"\12\12\0"
 3956      6C756465 
 3956      20224375 
 3956      73745265 
 3956      73446566 
 3957 125e 89F6     		.align 32
 3958              	LC41:
 3959 1260 65787465 		.ascii "extern CUSTOM_FONT_MAP mtk_CustFontMapEXT[];\12\0"
 3959      726E2043 
 3959      5553544F 
 3959      4D5F464F 
 3959      4E545F4D 
 3960 128e 90909090 		.align 32
 3960      90909090 
 3960      90909090 
 3960      90909090 
 3960      9090
 3961              	LC42:
 3962 12a0 65787465 		.ascii "extern CUSTOM_FONT_SEARCH_MAP mtk_CustFontSearchMapEXT[];\12\0"
 3962      726E2043 
 3962      5553544F 
 3962      4D5F464F 
GAS LISTING d:/MTK/MTK2503/MTK2503/11CW1418SP4_03_CORETEK03AE_11C_V1_GPRS_MMI/plutommi/Customer/ResGenerator/gcctmp/cc63daaa.s 			page 46


 3962      4E545F53 
 3963 12db 908D7426 		.align 32
 3963      00
 3964              	LC43:
 3965 12e0 636F6E73 		.ascii "const S8 CustImgPath[]=CUST_IMG_PATH;\12\0"
 3965      74205338 
 3965      20437573 
 3965      74496D67 
 3965      50617468 
 3966 1307 90909090 		.align 32
 3966      90909090 
 3966      90909090 
 3966      90909090 
 3966      90909090 
 3967              	LC44:
 3968 1320 2F2F636F 		.ascii "//const S8 CustImgPath[]=CUST_IMG_PATH;\12\0"
 3968      6E737420 
 3968      53382043 
 3968      75737449 
 3968      6D675061 
 3969 1349 90909090 		.align 32
 3969      90909090 
 3969      90909090 
 3969      90909090 
 3969      90909090 
 3970              	LC45:
 3971 1360 636F6E73 		.ascii "const S8 CustAdoPath[]=CUST_ADO_PATH;\12\0"
 3971      74205338 
 3971      20437573 
 3971      7441646F 
 3971      50617468 
 3972 1387 90909090 		.align 32
 3972      90909090 
 3972      90909090 
 3972      90909090 
 3972      90909090 
 3973              	LC46:
 3974 13a0 2F2F636F 		.ascii "//const S8 CustAdoPath[]=CUST_ADO_PATH;\12\0"
 3974      6E737420 
 3974      53382043 
 3974      75737441 
 3974      646F5061 
 3975 13c9 90909090 		.align 32
 3975      90909090 
 3975      90909090 
 3975      90909090 
 3975      90909090 
 3976              	LC47:
 3977 13e0 636F6E73 		.ascii "const S8 CustBinaryPath[]=CUST_BINARY_PATH;\12\0"
 3977      74205338 
 3977      20437573 
 3977      7442696E 
 3977      61727950 
 3978              	LC48:
 3979 140d 636F6E73 		.ascii "const unsigned short  %s=%d;\12\0"
 3979      7420756E 
 3979      7369676E 
GAS LISTING d:/MTK/MTK2503/MTK2503/11CW1418SP4_03_CORETEK03AE_11C_V1_GPRS_MMI/plutommi/Customer/ResGenerator/gcctmp/cc63daaa.s 			page 47


 3979      65642073 
 3979      686F7274 
 3980 142b 90909090 		.align 32
 3980      90909090 
 3980      90909090 
 3980      90909090 
 3980      90909090 
 3981              	LC49:
 3982 1440 0A23696E 		.ascii "\12#include \"ResCompressConfig.h\"\12\12\0"
 3982      636C7564 
 3982      65202252 
 3982      6573436F 
 3982      6D707265 
 3983              	LC50:
 3984 1462 23696E63 		.ascii "#include \"CustGameDataHW.h\"\12\0"
 3984      6C756465 
 3984      20224375 
 3984      73744761 
 3984      6D654461 
 3985 147f 90       		.align 32
 3986              	LC51:
 3987 1480 23696620 		.ascii "#if !defined(__MMI_RESOURCE_IMAGE_GROUP_COMPRESS__) || defined(__MMI_RESOURCE_UT_UNCOMPRES
 3987      21646566 
 3987      696E6564 
 3987      285F5F4D 
 3987      4D495F52 
 3988              	LC52:
 3989 14f1 23696E63 		.ascii "#include \"%s\"\12\0"
 3989      6C756465 
 3989      20222573 
 3989      220A00
 3990              	LC53:
 3991 1500 636F6E73 		.ascii "const %s\11%s[]={\12\0"
 3991      74202573 
 3991      0925735B 
 3991      5D3D7B0A 
 3991      00
 3992              	LC54:
 3993 1511 2855382A 		.ascii "(U8*)&%s,\12\0"
 3993      29262573 
 3993      2C0A00
 3994              	LC55:
 3995 151c 7D3B0A0A 		.ascii "};\12\12\12\12\0"
 3995      0A0A00
 3996              	LC56:
 3997 1523 636F6E73 		.ascii "const %s\11%s[1] = {NULL};\12\0"
 3997      74202573 
 3997      0925735B 
 3997      315D203D 
 3997      207B4E55 
 3998 153d 8D7600   		.align 32
 3999              	LC57:
 4000 1540 636F6E73 		.ascii "const CUSTPACK_IMAGE_HEADER mtk_image_header={%d, (%s *)%s};\0"
 4000      74204355 
 4000      53545041 
 4000      434B5F49 
 4000      4D414745 
GAS LISTING d:/MTK/MTK2503/MTK2503/11CW1418SP4_03_CORETEK03AE_11C_V1_GPRS_MMI/plutommi/Customer/ResGenerator/gcctmp/cc63daaa.s 			page 48


 4001 157d 8D7600   		.align 32
 4002              	LC58:
 4003 1580 636F6E73 		.ascii "const CUSTPACK_AUDIO_HEADER mtk_audio_header={%d, (%s *)%s};\0"
 4003      74204355 
 4003      53545041 
 4003      434B5F41 
 4003      5544494F 
 4004 15bd 8D7600   		.align 32
 4005              	LC59:
 4006 15c0 636F6E73 		.ascii "const CUSTPACK_BINARY_HEADER mtk_binary_header={%d, (%s *)%s};\0"
 4006      74204355 
 4006      53545041 
 4006      434B5F42 
 4006      494E4152 
 4007 15ff 90       		.align 32
 4008              	LC60:
 4009 1600 636F6E73 		.ascii "const CUSTPACK_FONT_HEADER mtk_font_header={%d, %d, (%s *)%s, mtk_CustFontMapEXT, mtk_Cust
 4009      74204355 
 4009      53545041 
 4009      434B5F46 
 4009      4F4E545F 
 4010 166d 90909090 		.align 32
 4010      90909090 
 4010      90909090 
 4010      90909090 
 4010      909090
 4011              	LC61:
 4012 1680 23656E64 		.ascii "#endif//!__MMI_RESOURCE_IMAGE_GROUP_COMPRESS__ || __MMI_RESOURCE_UT_UNCOMPRESSED_IMAGE_SUP
 4012      69662F2F 
 4012      215F5F4D 
 4012      4D495F52 
 4012      45534F55 
 4013              		.align 2
 4029              	__Z19GenerateResFile_Exti18RESOURCE_TYPE_LISTP16CUSTOM_NAME_LISTtPcS2_S2_S2_S2_S2_S2_S2_j:
1224:mtk_resgenerator.cpp **** 
1225:mtk_resgenerator.cpp **** /*****************************************************************************
1226:mtk_resgenerator.cpp **** * FUNCTION
1227:mtk_resgenerator.cpp **** *  GenerateResFile_Ext
1228:mtk_resgenerator.cpp **** * DESCRIPTION
1229:mtk_resgenerator.cpp **** *  generate resource file
1230:mtk_resgenerator.cpp **** * PARAMETERS
1231:mtk_resgenerator.cpp **** *  flag                [IN]    CustPack or not
1232:mtk_resgenerator.cpp **** *  type                [IN]    image or audio
1233:mtk_resgenerator.cpp **** *  pName               [IN]    resource name list
1234:mtk_resgenerator.cpp **** *  nSize               [IN]    size
1235:mtk_resgenerator.cpp **** *  str_CustDataHW      [IN]    output header name
1236:mtk_resgenerator.cpp **** *  str_mtk_CurrMaxNum  [IN]    output variable name
1237:mtk_resgenerator.cpp **** *  str_CurrMaxNum      [IN]    output variable name
1238:mtk_resgenerator.cpp **** *  str_mtk_nCustNames  [IN]    output variable name
1239:mtk_resgenerator.cpp **** *  str_nCustNames      [IN]    output variable name
1240:mtk_resgenerator.cpp **** *  str_NameList        [IN]    output variable name
1241:mtk_resgenerator.cpp **** *  str_CustType        [IN]    output type name
1242:mtk_resgenerator.cpp **** *  curr_data_filename  [IN]    output file name
1243:mtk_resgenerator.cpp **** * RETURNS
1244:mtk_resgenerator.cpp **** *  void
1245:mtk_resgenerator.cpp **** *****************************************************************************/
1246:mtk_resgenerator.cpp **** static void GenerateResFile_Ext(
GAS LISTING d:/MTK/MTK2503/MTK2503/11CW1418SP4_03_CORETEK03AE_11C_V1_GPRS_MMI/plutommi/Customer/ResGenerator/gcctmp/cc63daaa.s 			page 49


1247:mtk_resgenerator.cpp ****                                 BOOL flag,
1248:mtk_resgenerator.cpp ****                                 RESOURCE_TYPE_LIST type,
1249:mtk_resgenerator.cpp ****                                 CUSTOM_NAME_LIST *pName,
1250:mtk_resgenerator.cpp ****                                 U16 nSize,
1251:mtk_resgenerator.cpp ****                                 char *str_CustDataHW,
1252:mtk_resgenerator.cpp ****                                 char *str_mtk_CurrMaxNum,
1253:mtk_resgenerator.cpp ****                                 char *str_CurrMaxNum,
1254:mtk_resgenerator.cpp ****                                 char *str_mtk_nCustNames,
1255:mtk_resgenerator.cpp ****                                 char *str_nCustNames,
1256:mtk_resgenerator.cpp ****                                 char *str_NameList,
1257:mtk_resgenerator.cpp ****                                 char *str_CustType,
1258:mtk_resgenerator.cpp ****                                 char *curr_data_filename,
1259:mtk_resgenerator.cpp ****                                 U32 extFlag)
1260:mtk_resgenerator.cpp **** {
 4031              	LM129:
 4032 16e2 55       		pushl	%ebp
 4033 16e3 89E5     		movl	%esp, %ebp
 4034 16e5 81EC3802 		subl	$568, %esp
 4034      0000
 4035 16eb 8B4514   		movl	20(%ebp), %eax
 4036 16ee 668945F6 		movw	%ax, -10(%ebp)
1261:mtk_resgenerator.cpp ****     /*----------------------------------------------------------------*/
1262:mtk_resgenerator.cpp ****     /* Local Variables                                                */
1263:mtk_resgenerator.cpp ****     /*----------------------------------------------------------------*/
1264:mtk_resgenerator.cpp ****     FILE *pFile;
1265:mtk_resgenerator.cpp **** 
1266:mtk_resgenerator.cpp ****     /*----------------------------------------------------------------*/
1267:mtk_resgenerator.cpp ****     /* Code Body                                                      */
1268:mtk_resgenerator.cpp ****     /*----------------------------------------------------------------*/
1269:mtk_resgenerator.cpp ****     if(pFile = fopen(curr_data_filename, "w"))
 4038              	LM130:
 4039              	LBB9:
 4040              	LBB10:
 4041 16f2 C7442404 		movl	$LC2, 4(%esp)
 4041      4F000000 
 4042 16fa 8B4534   		movl	52(%ebp), %eax
 4043 16fd 890424   		movl	%eax, (%esp)
 4044 1700 E8000000 		call	_fopen
 4044      00
 4045 1705 8945F0   		movl	%eax, -16(%ebp)
 4046 1708 837DF000 		cmpl	$0, -16(%ebp)
 4047 170c 0F845E03 		je	L56
 4047      0000
1270:mtk_resgenerator.cpp ****     {
1271:mtk_resgenerator.cpp ****         fprintf(pFile, "/**\n *	Copyright Notice\n *	?2002 - 2003, Pixtel Communications, Inc., 148
 4049              	LM131:
 4050              	LBB11:
 4051 1712 C7442404 		movl	$LC4, 4(%esp)
 4051      A0000000 
 4052 171a 8B45F0   		movl	-16(%ebp), %eax
 4053 171d 890424   		movl	%eax, (%esp)
 4054 1720 E8000000 		call	_fprintf
 4054      00
1272:mtk_resgenerator.cpp ****         fprintf(pFile, "\n/************************************************************** \n FILENA
 4056              	LM132:
 4057 1725 C7442404 		movl	$LC38, 4(%esp)
 4057      40110000 
GAS LISTING d:/MTK/MTK2503/MTK2503/11CW1418SP4_03_CORETEK03AE_11C_V1_GPRS_MMI/plutommi/Customer/ResGenerator/gcctmp/cc63daaa.s 			page 50


 4058 172d 8B45F0   		movl	-16(%ebp), %eax
 4059 1730 890424   		movl	%eax, (%esp)
 4060 1733 E8000000 		call	_fprintf
 4060      00
1273:mtk_resgenerator.cpp ****         fprintf(pFile, "#include \"CustDataRes.h\"\n");
 4062              	LM133:
 4063 1738 C7442404 		movl	$LC39, 4(%esp)
 4063      2A120000 
 4064 1740 8B45F0   		movl	-16(%ebp), %eax
 4065 1743 890424   		movl	%eax, (%esp)
 4066 1746 E8000000 		call	_fprintf
 4066      00
1274:mtk_resgenerator.cpp ****         fprintf(pFile, "#include \"CustResDef.h\"\n\n");
 4068              	LM134:
 4069 174b C7442404 		movl	$LC40, 4(%esp)
 4069      44120000 
 4070 1753 8B45F0   		movl	-16(%ebp), %eax
 4071 1756 890424   		movl	%eax, (%esp)
 4072 1759 E8000000 		call	_fprintf
 4072      00
1275:mtk_resgenerator.cpp **** 
1276:mtk_resgenerator.cpp **** #ifdef __MMI_FONT_THIRD_ROM_SUPPORT__
1277:mtk_resgenerator.cpp ****         if(type == RES_FONT)
1278:mtk_resgenerator.cpp ****         {
1279:mtk_resgenerator.cpp ****             fprintf(pFile, "#ifdef __MMI_FONT_THIRD_ROM_SUPPORT__\n");
1280:mtk_resgenerator.cpp ****             fprintf(pFile, "#include \"GlobalResDef.h\"\n");
1281:mtk_resgenerator.cpp ****             fprintf(pFile, "#endif\n");
1282:mtk_resgenerator.cpp ****         }
1283:mtk_resgenerator.cpp **** #endif
1284:mtk_resgenerator.cpp ****         if(type == RES_FONT)
 4074              	LM135:
 4075 175e 837D0C04 		cmpl	$4, 12(%ebp)
 4076 1762 752B     		jne	L58
1285:mtk_resgenerator.cpp ****         {
1286:mtk_resgenerator.cpp ****             fprintf(pFile, "extern CUSTOM_FONT_MAP mtk_CustFontMapEXT[];\n");
 4078              	LM136:
 4079 1764 C7442404 		movl	$LC41, 4(%esp)
 4079      60120000 
 4080 176c 8B45F0   		movl	-16(%ebp), %eax
 4081 176f 890424   		movl	%eax, (%esp)
 4082 1772 E8000000 		call	_fprintf
 4082      00
1287:mtk_resgenerator.cpp ****             fprintf(pFile, "extern CUSTOM_FONT_SEARCH_MAP mtk_CustFontSearchMapEXT[];\n");
 4084              	LM137:
 4085 1777 C7442404 		movl	$LC42, 4(%esp)
 4085      A0120000 
 4086 177f 8B45F0   		movl	-16(%ebp), %eax
 4087 1782 890424   		movl	%eax, (%esp)
 4088 1785 E8000000 		call	_fprintf
 4088      00
 4089 178a E9850000 		jmp	L59
 4089      00
 4090              	L58:
1288:mtk_resgenerator.cpp ****         }
1289:mtk_resgenerator.cpp ****         else if(type == RES_IMAGE)
 4092              	LM138:
 4093 178f 837D0C00 		cmpl	$0, 12(%ebp)
GAS LISTING d:/MTK/MTK2503/MTK2503/11CW1418SP4_03_CORETEK03AE_11C_V1_GPRS_MMI/plutommi/Customer/ResGenerator/gcctmp/cc63daaa.s 			page 51


 4094 1793 7530     		jne	L60
1290:mtk_resgenerator.cpp ****         {
1291:mtk_resgenerator.cpp ****             if(flag == FALSE)
 4096              	LM139:
 4097 1795 837D0800 		cmpl	$0, 8(%ebp)
 4098 1799 7515     		jne	L61
1292:mtk_resgenerator.cpp ****             {
1293:mtk_resgenerator.cpp ****                 fprintf(pFile, "const S8 CustImgPath[]=CUST_IMG_PATH;\n");
 4100              	LM140:
 4101 179b C7442404 		movl	$LC43, 4(%esp)
 4101      E0120000 
 4102 17a3 8B45F0   		movl	-16(%ebp), %eax
 4103 17a6 890424   		movl	%eax, (%esp)
 4104 17a9 E8000000 		call	_fprintf
 4104      00
 4105 17ae EB64     		jmp	L59
 4106              	L61:
1294:mtk_resgenerator.cpp ****             }
1295:mtk_resgenerator.cpp ****             else
1296:mtk_resgenerator.cpp ****             {
1297:mtk_resgenerator.cpp ****                 fprintf(pFile, "\/\/const S8 CustImgPath[]=CUST_IMG_PATH;\n");
 4108              	LM141:
 4109 17b0 C7442404 		movl	$LC44, 4(%esp)
 4109      20130000 
 4110 17b8 8B45F0   		movl	-16(%ebp), %eax
 4111 17bb 890424   		movl	%eax, (%esp)
 4112 17be E8000000 		call	_fprintf
 4112      00
 4113 17c3 EB4F     		jmp	L59
 4114              	L60:
1298:mtk_resgenerator.cpp **** // Append a dummy image for CAT reserved space only when __CAT_SUPPORT__ is defined
1299:mtk_resgenerator.cpp **** #if defined(__CAT_SUPPORT__) && defined(MMIRESOURCE_CAT_IMG_RESERVED_SIZE_BYTE) && (MMIRESOURCE_CAT
1300:mtk_resgenerator.cpp ****                 fprintf(pFile, "extern const U8 cat_reserved_space[];\n");
1301:mtk_resgenerator.cpp **** #endif
1302:mtk_resgenerator.cpp ****             }
1303:mtk_resgenerator.cpp ****         }
1304:mtk_resgenerator.cpp ****         else if(type == RES_AUDIO)
 4116              	LM142:
 4117 17c5 837D0C02 		cmpl	$2, 12(%ebp)
 4118 17c9 7530     		jne	L64
1305:mtk_resgenerator.cpp ****         {
1306:mtk_resgenerator.cpp ****             if(flag == FALSE)
 4120              	LM143:
 4121 17cb 837D0800 		cmpl	$0, 8(%ebp)
 4122 17cf 7515     		jne	L65
1307:mtk_resgenerator.cpp ****             {
1308:mtk_resgenerator.cpp ****                 fprintf(pFile, "const S8 CustAdoPath[]=CUST_ADO_PATH;\n");
 4124              	LM144:
 4125 17d1 C7442404 		movl	$LC45, 4(%esp)
 4125      60130000 
 4126 17d9 8B45F0   		movl	-16(%ebp), %eax
 4127 17dc 890424   		movl	%eax, (%esp)
 4128 17df E8000000 		call	_fprintf
 4128      00
 4129 17e4 EB2E     		jmp	L59
 4130              	L65:
1309:mtk_resgenerator.cpp ****             }
GAS LISTING d:/MTK/MTK2503/MTK2503/11CW1418SP4_03_CORETEK03AE_11C_V1_GPRS_MMI/plutommi/Customer/ResGenerator/gcctmp/cc63daaa.s 			page 52


1310:mtk_resgenerator.cpp ****             else
1311:mtk_resgenerator.cpp ****             {
1312:mtk_resgenerator.cpp ****                 fprintf(pFile, "\/\/const S8 CustAdoPath[]=CUST_ADO_PATH;\n");
 4132              	LM145:
 4133 17e6 C7442404 		movl	$LC46, 4(%esp)
 4133      A0130000 
 4134 17ee 8B45F0   		movl	-16(%ebp), %eax
 4135 17f1 890424   		movl	%eax, (%esp)
 4136 17f4 E8000000 		call	_fprintf
 4136      00
 4137 17f9 EB19     		jmp	L59
 4138              	L64:
1313:mtk_resgenerator.cpp ****             }
1314:mtk_resgenerator.cpp ****         }
1315:mtk_resgenerator.cpp ****         else if(type == RES_BINARY)
 4140              	LM146:
 4141 17fb 837D0C05 		cmpl	$5, 12(%ebp)
 4142 17ff 7513     		jne	L59
1316:mtk_resgenerator.cpp ****         {
1317:mtk_resgenerator.cpp ****             fprintf(pFile, "const S8 CustBinaryPath[]=CUST_BINARY_PATH;\n");
 4144              	LM147:
 4145 1801 C7442404 		movl	$LC47, 4(%esp)
 4145      E0130000 
 4146 1809 8B45F0   		movl	-16(%ebp), %eax
 4147 180c 890424   		movl	%eax, (%esp)
 4148 180f E8000000 		call	_fprintf
 4148      00
 4149              	L59:
1318:mtk_resgenerator.cpp ****         }
1319:mtk_resgenerator.cpp **** 
1320:mtk_resgenerator.cpp **** #ifdef __MULTI_BIN_LOAD__
1321:mtk_resgenerator.cpp ****         fprintf(pFile, "const unsigned short  %s=%d;\n", str_mtk_CurrMaxNum, nSize);
 4151              	LM148:
 4152 1814 0FB745F6 		movzwl	-10(%ebp), %eax
 4153 1818 8944240C 		movl	%eax, 12(%esp)
 4154 181c 8B451C   		movl	28(%ebp), %eax
 4155 181f 89442408 		movl	%eax, 8(%esp)
 4156 1823 C7442404 		movl	$LC48, 4(%esp)
 4156      0D140000 
 4157 182b 8B45F0   		movl	-16(%ebp), %eax
 4158 182e 890424   		movl	%eax, (%esp)
 4159 1831 E8000000 		call	_fprintf
 4159      00
1322:mtk_resgenerator.cpp **** #else
1323:mtk_resgenerator.cpp ****         fprintf(pFile, "unsigned short  %s=%d;\n", str_CurrMaxNum, nSize);
1324:mtk_resgenerator.cpp **** #endif
1325:mtk_resgenerator.cpp **** 
1326:mtk_resgenerator.cpp ****         if((type == RES_IMAGE) && (flag == FALSE))
 4161              	LM149:
 4162 1836 837D0C00 		cmpl	$0, 12(%ebp)
 4163 183a 755B     		jne	L69
 4164 183c 837D0800 		cmpl	$0, 8(%ebp)
 4165 1840 7555     		jne	L69
1327:mtk_resgenerator.cpp ****         {
1328:mtk_resgenerator.cpp ****         
1329:mtk_resgenerator.cpp ****             fputs("\n#include \"ResCompressConfig.h\"\n\n", pFile);
 4167              	LM150:
GAS LISTING d:/MTK/MTK2503/MTK2503/11CW1418SP4_03_CORETEK03AE_11C_V1_GPRS_MMI/plutommi/Customer/ResGenerator/gcctmp/cc63daaa.s 			page 53


 4168 1842 8B45F0   		movl	-16(%ebp), %eax
 4169 1845 89442404 		movl	%eax, 4(%esp)
 4170 1849 C7042440 		movl	$LC49, (%esp)
 4170      140000
 4171 1850 E8000000 		call	_fputs
 4171      00
1330:mtk_resgenerator.cpp ****             fprintf( pFile, "#include \"CustGameDataHW.h\"\n");
 4173              	LM151:
 4174 1855 C7442404 		movl	$LC50, 4(%esp)
 4174      62140000 
 4175 185d 8B45F0   		movl	-16(%ebp), %eax
 4176 1860 890424   		movl	%eax, (%esp)
 4177 1863 E8000000 		call	_fprintf
 4177      00
1331:mtk_resgenerator.cpp ****             fprintf( pFile, "#if !defined(__MMI_RESOURCE_IMAGE_GROUP_COMPRESS__) || defined(__MMI_R
 4179              	LM152:
 4180 1868 C7442404 		movl	$LC51, 4(%esp)
 4180      80140000 
 4181 1870 8B45F0   		movl	-16(%ebp), %eax
 4182 1873 890424   		movl	%eax, (%esp)
 4183 1876 E8000000 		call	_fprintf
 4183      00
1332:mtk_resgenerator.cpp ****             fprintf( pFile, "#include \"%s\"\n", str_CustDataHW);
 4185              	LM153:
 4186 187b 8B4518   		movl	24(%ebp), %eax
 4187 187e 89442408 		movl	%eax, 8(%esp)
 4188 1882 C7442404 		movl	$LC52, 4(%esp)
 4188      F1140000 
 4189 188a 8B45F0   		movl	-16(%ebp), %eax
 4190 188d 890424   		movl	%eax, (%esp)
 4191 1890 E8000000 		call	_fprintf
 4191      00
 4192 1895 EB1A     		jmp	L70
 4193              	L69:
1333:mtk_resgenerator.cpp ****         }else{
1334:mtk_resgenerator.cpp ****             fprintf(pFile, "#include \"%s\"\n", str_CustDataHW);	        
 4195              	LM154:
 4196 1897 8B4518   		movl	24(%ebp), %eax
 4197 189a 89442408 		movl	%eax, 8(%esp)
 4198 189e C7442404 		movl	$LC52, 4(%esp)
 4198      F1140000 
 4199 18a6 8B45F0   		movl	-16(%ebp), %eax
 4200 18a9 890424   		movl	%eax, (%esp)
 4201 18ac E8000000 		call	_fprintf
 4201      00
 4202              	L70:
1335:mtk_resgenerator.cpp ****         }
1336:mtk_resgenerator.cpp **** 
1337:mtk_resgenerator.cpp **** 
1338:mtk_resgenerator.cpp ****         /* writing the image filename inside the file. */
1339:mtk_resgenerator.cpp ****         if(nSize)
 4204              	LM155:
 4205              	LBB12:
 4206 18b1 66837DF6 		cmpw	$0, -10(%ebp)
 4206      00
 4207 18b6 0F849500 		je	L71
 4207      0000
GAS LISTING d:/MTK/MTK2503/MTK2503/11CW1418SP4_03_CORETEK03AE_11C_V1_GPRS_MMI/plutommi/Customer/ResGenerator/gcctmp/cc63daaa.s 			page 54


1340:mtk_resgenerator.cpp ****         {
1341:mtk_resgenerator.cpp ****             int i = 0;
 4209              	LM156:
 4210              	LBB13:
 4211 18bc C745EC00 		movl	$0, -20(%ebp)
 4211      000000
1342:mtk_resgenerator.cpp **** 
1343:mtk_resgenerator.cpp **** #ifdef __MULTI_BIN_LOAD__
1344:mtk_resgenerator.cpp ****             fprintf(pFile, "const %s	%s[]={\n", str_CustType, str_mtk_nCustNames);
 4213              	LM157:
 4214 18c3 8B4524   		movl	36(%ebp), %eax
 4215 18c6 8944240C 		movl	%eax, 12(%esp)
 4216 18ca 8B4530   		movl	48(%ebp), %eax
 4217 18cd 89442408 		movl	%eax, 8(%esp)
 4218 18d1 C7442404 		movl	$LC53, 4(%esp)
 4218      00150000 
 4219 18d9 8B45F0   		movl	-16(%ebp), %eax
 4220 18dc 890424   		movl	%eax, (%esp)
 4221 18df E8000000 		call	_fprintf
 4221      00
1345:mtk_resgenerator.cpp **** #else
1346:mtk_resgenerator.cpp ****             fprintf(pFile, "const %s	%s[]={\n", str_CustType, str_nCustNames);
1347:mtk_resgenerator.cpp **** #endif
1348:mtk_resgenerator.cpp **** 
1349:mtk_resgenerator.cpp ****             for(i = 0; i < nSize; i++)
 4223              	LM158:
 4224              	LBB14:
 4225 18e4 C745EC00 		movl	$0, -20(%ebp)
 4225      000000
 4226              	L72:
 4227 18eb 0FB745F6 		movzwl	-10(%ebp), %eax
 4228 18ef 3945EC   		cmpl	%eax, -20(%ebp)
 4229 18f2 7C02     		jl	L75
 4230 18f4 EB46     		jmp	L73
 4231              	L75:
1350:mtk_resgenerator.cpp ****             {
1351:mtk_resgenerator.cpp ****                 S8 pBuffName[512];
1352:mtk_resgenerator.cpp **** 
1353:mtk_resgenerator.cpp ****                 Extract_Name(pBuffName, pName[i].filename, extFlag);
 4233              	LM159:
 4234              	LBB15:
 4235              	LBB16:
 4236 18f6 8B4538   		movl	56(%ebp), %eax
 4237 18f9 89442408 		movl	%eax, 8(%esp)
 4238 18fd 8B45EC   		movl	-20(%ebp), %eax
 4239 1900 C1E009   		sall	$9, %eax
 4240 1903 034510   		addl	16(%ebp), %eax
 4241 1906 89442404 		movl	%eax, 4(%esp)
 4242 190a 8D85E8FD 		leal	-536(%ebp), %eax
 4242      FFFF
 4243 1910 890424   		movl	%eax, (%esp)
 4244 1913 E8000000 		call	_Extract_Name
 4244      00
1354:mtk_resgenerator.cpp ****                 #ifdef __MMI_FONT_THIRD_ROM_SUPPORT__
1355:mtk_resgenerator.cpp ****                 if(type == RES_FONT)
1356:mtk_resgenerator.cpp ****                     fprintf(pFile, "(U8*)NULL,\n");
1357:mtk_resgenerator.cpp ****                 else
GAS LISTING d:/MTK/MTK2503/MTK2503/11CW1418SP4_03_CORETEK03AE_11C_V1_GPRS_MMI/plutommi/Customer/ResGenerator/gcctmp/cc63daaa.s 			page 55


1358:mtk_resgenerator.cpp ****                 #endif
1359:mtk_resgenerator.cpp ****                 fprintf(pFile, "(U8*)&%s,\n", pBuffName);
 4246              	LM160:
 4247 1918 8D85E8FD 		leal	-536(%ebp), %eax
 4247      FFFF
 4248 191e 89442408 		movl	%eax, 8(%esp)
 4249 1922 C7442404 		movl	$LC54, 4(%esp)
 4249      11150000 
 4250 192a 8B45F0   		movl	-16(%ebp), %eax
 4251 192d 890424   		movl	%eax, (%esp)
 4252 1930 E8000000 		call	_fprintf
 4252      00
 4254              	LM161:
 4255 1935 8D45EC   		leal	-20(%ebp), %eax
 4256              	LBE16:
 4257              	LBE15:
 4258 1938 FF00     		incl	(%eax)
 4259 193a EBAF     		jmp	L72
 4260              	L73:
1360:mtk_resgenerator.cpp ****             }
1361:mtk_resgenerator.cpp **** 
1362:mtk_resgenerator.cpp **** #if defined(__CAT_SUPPORT__) && defined(MMIRESOURCE_CAT_IMG_RESERVED_SIZE_BYTE) && (MMIRESOURCE_CAT
1363:mtk_resgenerator.cpp ****             /* Add reserved space for CAT tool to image RES regions*/
1364:mtk_resgenerator.cpp ****             if(type == RES_IMAGE && flag != FALSE){
1365:mtk_resgenerator.cpp ****                 fprintf(pFile, "(U8*)&cat_reserved_space,\n");
1366:mtk_resgenerator.cpp ****             }
1367:mtk_resgenerator.cpp **** #endif
1368:mtk_resgenerator.cpp ****             fprintf(pFile, "};\n\n\n\n");
 4262              	LM162:
 4263              	LBE14:
 4264 193c C7442404 		movl	$LC55, 4(%esp)
 4264      1C150000 
 4265 1944 8B45F0   		movl	-16(%ebp), %eax
 4266 1947 890424   		movl	%eax, (%esp)
 4267 194a E8000000 		call	_fprintf
 4267      00
 4268              	LBE13:
 4269 194f EB21     		jmp	L76
 4270              	L71:
1369:mtk_resgenerator.cpp ****         }
1370:mtk_resgenerator.cpp ****         else
1371:mtk_resgenerator.cpp ****         {
1372:mtk_resgenerator.cpp **** #ifdef __MULTI_BIN_LOAD__
1373:mtk_resgenerator.cpp ****             fprintf(pFile, "const %s	%s[1] = {NULL};\n", str_CustType, str_mtk_nCustNames);
 4272              	LM163:
 4273 1951 8B4524   		movl	36(%ebp), %eax
 4274 1954 8944240C 		movl	%eax, 12(%esp)
 4275 1958 8B4530   		movl	48(%ebp), %eax
 4276 195b 89442408 		movl	%eax, 8(%esp)
 4277 195f C7442404 		movl	$LC56, 4(%esp)
 4277      23150000 
 4278 1967 8B45F0   		movl	-16(%ebp), %eax
 4279 196a 890424   		movl	%eax, (%esp)
 4280 196d E8000000 		call	_fprintf
 4280      00
 4281              	L76:
1374:mtk_resgenerator.cpp **** #else
GAS LISTING d:/MTK/MTK2503/MTK2503/11CW1418SP4_03_CORETEK03AE_11C_V1_GPRS_MMI/plutommi/Customer/ResGenerator/gcctmp/cc63daaa.s 			page 56


1375:mtk_resgenerator.cpp ****             fprintf(pFile, "const %s	%s[1] = {NULL};\n", str_CustType, str_nCustNames);
1376:mtk_resgenerator.cpp **** #endif
1377:mtk_resgenerator.cpp ****         }
1378:mtk_resgenerator.cpp **** 
1379:mtk_resgenerator.cpp ****         if(flag == TRUE)
 4283              	LM164:
 4284              	LBE12:
 4285              	LBB17:
 4286 1972 837D0801 		cmpl	$1, 8(%ebp)
 4287 1976 0F85D000 		jne	L77
 4287      0000
1380:mtk_resgenerator.cpp ****         {
1381:mtk_resgenerator.cpp ****             if(type == RES_IMAGE)
 4289              	LM165:
 4290              	LBB18:
 4291 197c 837D0C00 		cmpl	$0, 12(%ebp)
 4292 1980 7529     		jne	L78
1382:mtk_resgenerator.cpp ****             {
1383:mtk_resgenerator.cpp **** #ifdef __MULTI_BIN_LOAD__
1384:mtk_resgenerator.cpp ****                 fprintf(pFile, "const CUSTPACK_IMAGE_HEADER mtk_image_header={%d, (%s *)%s};", nSiz
 4294              	LM166:
 4295 1982 8B4524   		movl	36(%ebp), %eax
 4296 1985 89442410 		movl	%eax, 16(%esp)
 4297 1989 8B4530   		movl	48(%ebp), %eax
 4298 198c 8944240C 		movl	%eax, 12(%esp)
 4299 1990 0FB745F6 		movzwl	-10(%ebp), %eax
 4300 1994 89442408 		movl	%eax, 8(%esp)
 4301 1998 C7442404 		movl	$LC57, 4(%esp)
 4301      40150000 
 4302 19a0 8B45F0   		movl	-16(%ebp), %eax
 4303 19a3 890424   		movl	%eax, (%esp)
 4304 19a6 E8000000 		call	_fprintf
 4304      00
 4305              	L78:
1385:mtk_resgenerator.cpp **** #else
1386:mtk_resgenerator.cpp ****                 fprintf(pFile, "const CUSTPACK_IMAGE_HEADER mtk_image_header={%d, (%s *)%s};", nSiz
1387:mtk_resgenerator.cpp **** #endif
1388:mtk_resgenerator.cpp ****             }
1389:mtk_resgenerator.cpp **** 
1390:mtk_resgenerator.cpp ****             if(type == RES_AUDIO)
 4307              	LM167:
 4308 19ab 837D0C02 		cmpl	$2, 12(%ebp)
 4309 19af 7529     		jne	L79
1391:mtk_resgenerator.cpp ****             {
1392:mtk_resgenerator.cpp **** #ifdef __MULTI_BIN_LOAD__
1393:mtk_resgenerator.cpp ****                 fprintf(pFile, "const CUSTPACK_AUDIO_HEADER mtk_audio_header={%d, (%s *)%s};", nSiz
 4311              	LM168:
 4312 19b1 8B4524   		movl	36(%ebp), %eax
 4313 19b4 89442410 		movl	%eax, 16(%esp)
 4314 19b8 8B4530   		movl	48(%ebp), %eax
 4315 19bb 8944240C 		movl	%eax, 12(%esp)
 4316 19bf 0FB745F6 		movzwl	-10(%ebp), %eax
 4317 19c3 89442408 		movl	%eax, 8(%esp)
 4318 19c7 C7442404 		movl	$LC58, 4(%esp)
 4318      80150000 
 4319 19cf 8B45F0   		movl	-16(%ebp), %eax
 4320 19d2 890424   		movl	%eax, (%esp)
GAS LISTING d:/MTK/MTK2503/MTK2503/11CW1418SP4_03_CORETEK03AE_11C_V1_GPRS_MMI/plutommi/Customer/ResGenerator/gcctmp/cc63daaa.s 			page 57


 4321 19d5 E8000000 		call	_fprintf
 4321      00
 4322              	L79:
1394:mtk_resgenerator.cpp **** #else
1395:mtk_resgenerator.cpp ****                 fprintf(pFile, "const CUSTPACK_AUDIO_HEADER mtk_audio_header={%d, (%s *)%s};", nSiz
1396:mtk_resgenerator.cpp **** #endif
1397:mtk_resgenerator.cpp ****             }
1398:mtk_resgenerator.cpp **** 
1399:mtk_resgenerator.cpp ****             if(type == RES_BINARY)
 4324              	LM169:
 4325 19da 837D0C05 		cmpl	$5, 12(%ebp)
 4326 19de 7529     		jne	L80
1400:mtk_resgenerator.cpp ****             {
1401:mtk_resgenerator.cpp ****                 fprintf(pFile, "const CUSTPACK_BINARY_HEADER mtk_binary_header={%d, (%s *)%s};", nS
 4328              	LM170:
 4329 19e0 8B4528   		movl	40(%ebp), %eax
 4330 19e3 89442410 		movl	%eax, 16(%esp)
 4331 19e7 8B4530   		movl	48(%ebp), %eax
 4332 19ea 8944240C 		movl	%eax, 12(%esp)
 4333 19ee 0FB745F6 		movzwl	-10(%ebp), %eax
 4334 19f2 89442408 		movl	%eax, 8(%esp)
 4335 19f6 C7442404 		movl	$LC59, 4(%esp)
 4335      C0150000 
 4336 19fe 8B45F0   		movl	-16(%ebp), %eax
 4337 1a01 890424   		movl	%eax, (%esp)
 4338 1a04 E8000000 		call	_fprintf
 4338      00
 4339              	L80:
1402:mtk_resgenerator.cpp ****             }
1403:mtk_resgenerator.cpp **** 
1404:mtk_resgenerator.cpp ****             if(type == RES_FONT)
 4341              	LM171:
 4342              	LBB19:
 4343 1a09 837D0C04 		cmpl	$4, 12(%ebp)
 4344 1a0d 7556     		jne	L82
1405:mtk_resgenerator.cpp ****             {
1406:mtk_resgenerator.cpp ****                 int i = 0;
 4346              	LM172:
 4347              	LBB20:
 4348 1a0f C745EC00 		movl	$0, -20(%ebp)
 4348      000000
1407:mtk_resgenerator.cpp **** 				
1408:mtk_resgenerator.cpp **** #ifdef __MULTI_BIN_LOAD__
1409:mtk_resgenerator.cpp ****                 fprintf(pFile, "const CUSTPACK_FONT_HEADER mtk_font_header={%d, %d, (%s *)%s, mtk_C
 4350              	LM173:
 4351 1a16 8B4524   		movl	36(%ebp), %eax
 4352 1a19 89442414 		movl	%eax, 20(%esp)
 4353 1a1d 8B4530   		movl	48(%ebp), %eax
 4354 1a20 89442410 		movl	%eax, 16(%esp)
 4355 1a24 0FB70500 		movzwl	_CurrMaxSearchFontIdEXT, %eax
 4355      000000
 4356 1a2b 8944240C 		movl	%eax, 12(%esp)
 4357 1a2f 0FB745F6 		movzwl	-10(%ebp), %eax
 4358 1a33 89442408 		movl	%eax, 8(%esp)
 4359 1a37 C7442404 		movl	$LC60, 4(%esp)
 4359      00160000 
 4360 1a3f 8B45F0   		movl	-16(%ebp), %eax
GAS LISTING d:/MTK/MTK2503/MTK2503/11CW1418SP4_03_CORETEK03AE_11C_V1_GPRS_MMI/plutommi/Customer/ResGenerator/gcctmp/cc63daaa.s 			page 58


 4361 1a42 890424   		movl	%eax, (%esp)
 4362 1a45 E8000000 		call	_fprintf
 4362      00
 4363              	LBE20:
 4364              	LBE19:
 4365              	LBE18:
 4366 1a4a EB19     		jmp	L82
 4367              	L77:
1410:mtk_resgenerator.cpp **** #else
1411:mtk_resgenerator.cpp ****                 fprintf(pFile, "const CUSTPACK_FONT_HEADER mtk_font_header={%d, %d, (%s *)%s, mtk_C
1412:mtk_resgenerator.cpp **** #endif
1413:mtk_resgenerator.cpp ****                 #ifdef __MMI_FONT_THIRD_ROM_SUPPORT__
1414:mtk_resgenerator.cpp ****                 fprintf(pFile, "\n\n#ifdef __MMI_FONT_THIRD_ROM_SUPPORT__\n");
1415:mtk_resgenerator.cpp ****                 fprintf(pFile, "ENFB_Font_Res_Info ENFBFontResInfo[] = {\n");
1416:mtk_resgenerator.cpp ****                 for(i = 0; i < nSize; i++)
1417:mtk_resgenerator.cpp ****                 {
1418:mtk_resgenerator.cpp ****                     fprintf(pFile, "{%s%d, 0x%x, 0x%x},\n", "IMG_GLOBAL_FONT_", ENFBFontResInfo[i].
1419:mtk_resgenerator.cpp ****                 }
1420:mtk_resgenerator.cpp ****                 fprintf(pFile, "};\n");
1421:mtk_resgenerator.cpp ****                 fprintf(pFile, "#endif\n");
1422:mtk_resgenerator.cpp ****                 #endif
1423:mtk_resgenerator.cpp ****             }
1424:mtk_resgenerator.cpp **** 
1425:mtk_resgenerator.cpp ****         }else{
1426:mtk_resgenerator.cpp ****             if((type == RES_IMAGE))
 4369              	LM174:
 4370 1a4c 837D0C00 		cmpl	$0, 12(%ebp)
 4371 1a50 7513     		jne	L82
1427:mtk_resgenerator.cpp **** 	    {
1428:mtk_resgenerator.cpp **** 	        fprintf( pFile, "#endif//!__MMI_RESOURCE_IMAGE_GROUP_COMPRESS__ || __MMI_RESOURCE_UT_UNCOM
 4373              	LM175:
 4374 1a52 C7442404 		movl	$LC61, 4(%esp)
 4374      80160000 
 4375 1a5a 8B45F0   		movl	-16(%ebp), %eax
 4376 1a5d 890424   		movl	%eax, (%esp)
 4377 1a60 E8000000 		call	_fprintf
 4377      00
 4378              	L82:
1429:mtk_resgenerator.cpp ****             }
1430:mtk_resgenerator.cpp ****         }
1431:mtk_resgenerator.cpp ****         fclose(pFile);
 4380              	LM176:
 4381              	LBE17:
 4382 1a65 8B45F0   		movl	-16(%ebp), %eax
 4383 1a68 890424   		movl	%eax, (%esp)
 4384 1a6b E8000000 		call	_fclose
 4384      00
1432:mtk_resgenerator.cpp ****     }
1433:mtk_resgenerator.cpp **** }
 4386              	LM177:
 4387              	L56:
 4388 1a70 C9       		leave
 4389 1a71 C3       		ret
 4390              	LBE11:
 4391              	LBE10:
 4392              	LBE9:
 4406              	Lscope8:
GAS LISTING d:/MTK/MTK2503/MTK2503/11CW1418SP4_03_CORETEK03AE_11C_V1_GPRS_MMI/plutommi/Customer/ResGenerator/gcctmp/cc63daaa.s 			page 59


 4412 1a72 8DB42600 		.align 32
 4412      0000008D 
 4412      BC270000 
 4412      0000
 4413              	LC62:
 4414 1a80 47656E65 		.ascii "GenerateImageResFile(): File output: CustImgDataHW.h CustImgDataHWExt.h\0"
 4414      72617465 
 4414      496D6167 
 4414      65526573 
 4414      46696C65 
 4415 1ac8 90909090 		.align 32
 4415      90909090 
 4415      90909090 
 4415      90909090 
 4415      90909090 
 4416              	LC63:
 4417 1ae0 2E2E5C2E 		.ascii "..\\..\\Customer\\CustResource\\CustImgMapMeta.txt\0"
 4417      2E5C4375 
 4417      73746F6D 
 4417      65725C43 
 4417      75737452 
 4418 1b0f 90909090 		.align 32
 4418      90909090 
 4418      90909090 
 4418      90909090 
 4418      90
 4419              	LC64:
 4420 1b20 2E2E5C2E 		.ascii "..\\..\\Customer\\CustResource\\CustImgRes.c\0"
 4420      2E5C4375 
 4420      73746F6D 
 4420      65725C43 
 4420      75737452 
 4421              	LC65:
 4422 1b49 43555354 		.ascii "CUSTOM_IMAGE\0"
 4422      4F4D5F49 
 4422      4D414745 
 4422      00
 4423              	LC66:
 4424 1b56 496D6167 		.ascii "ImageNameList\0"
 4424      654E616D 
 4424      654C6973 
 4424      7400
 4425              	LC67:
 4426 1b64 6E437573 		.ascii "nCustImageNames\0"
 4426      74496D61 
 4426      67654E61 
 4426      6D657300 
 4427              	LC68:
 4428 1b74 6D746B5F 		.ascii "mtk_nCustImageNames\0"
 4428      6E437573 
 4428      74496D61 
 4428      67654E61 
 4428      6D657300 
 4429              	LC69:
 4430 1b88 43757272 		.ascii "CurrMaxImageNum\0"
 4430      4D617849 
 4430      6D616765 
GAS LISTING d:/MTK/MTK2503/MTK2503/11CW1418SP4_03_CORETEK03AE_11C_V1_GPRS_MMI/plutommi/Customer/ResGenerator/gcctmp/cc63daaa.s 			page 60


 4430      4E756D00 
 4431              	LC70:
 4432 1b98 6D746B5F 		.ascii "mtk_CurrMaxImageNum\0"
 4432      43757272 
 4432      4D617849 
 4432      6D616765 
 4432      4E756D00 
 4433              	LC71:
 4434 1bac 43757374 		.ascii "CustImgDataHW.h\0"
 4434      496D6744 
 4434      61746148 
 4434      572E6800 
 4435 1bbc 8D742600 		.align 32
 4436              	LC72:
 4437 1bc0 2E2E5C2E 		.ascii "..\\..\\Customer\\CustResource\\CustImgResExt.c\0"
 4437      2E5C4375 
 4437      73746F6D 
 4437      65725C43 
 4437      75737452 
 4438              	LC73:
 4439 1bec 496D6167 		.ascii "ImageNameListEXT\0"
 4439      654E616D 
 4439      654C6973 
 4439      74455854 
 4439      00
 4440              	LC74:
 4441 1bfd 6E437573 		.ascii "nCustImageNamesEXT\0"
 4441      74496D61 
 4441      67654E61 
 4441      6D657345 
 4441      585400
 4442              	LC75:
 4443 1c10 6D746B5F 		.ascii "mtk_nCustImageNamesEXT\0"
 4443      6E437573 
 4443      74496D61 
 4443      67654E61 
 4443      6D657345 
 4444              	LC76:
 4445 1c27 43757272 		.ascii "CurrMaxImageNumEXT\0"
 4445      4D617849 
 4445      6D616765 
 4445      4E756D45 
 4445      585400
 4446              	LC77:
 4447 1c3a 6D746B5F 		.ascii "mtk_CurrMaxImageNumEXT\0"
 4447      43757272 
 4447      4D617849 
 4447      6D616765 
 4447      4E756D45 
 4448              	LC78:
 4449 1c51 43757374 		.ascii "CustImgDataHWExt.h\0"
 4449      496D6744 
 4449      61746148 
 4449      57457874 
 4449      2E6800
 4450              		.align 2
 4453              	__Z20GenerateImageResFilev:
GAS LISTING d:/MTK/MTK2503/MTK2503/11CW1418SP4_03_CORETEK03AE_11C_V1_GPRS_MMI/plutommi/Customer/ResGenerator/gcctmp/cc63daaa.s 			page 61


1434:mtk_resgenerator.cpp **** 
1435:mtk_resgenerator.cpp **** 
1436:mtk_resgenerator.cpp **** 
1437:mtk_resgenerator.cpp **** /*****************************************************************************
1438:mtk_resgenerator.cpp **** * FUNCTION
1439:mtk_resgenerator.cpp **** *  GenerateImageResFile
1440:mtk_resgenerator.cpp **** * DESCRIPTION
1441:mtk_resgenerator.cpp **** *  generate image resource file
1442:mtk_resgenerator.cpp **** * PARAMETERS
1443:mtk_resgenerator.cpp **** *  void
1444:mtk_resgenerator.cpp **** * RETURNS
1445:mtk_resgenerator.cpp **** *  void
1446:mtk_resgenerator.cpp **** *****************************************************************************/
1447:mtk_resgenerator.cpp **** static void GenerateImageResFile(void)
1448:mtk_resgenerator.cpp **** {
 4455              	LM178:
 4456 1c64 55       		pushl	%ebp
 4457 1c65 89E5     		movl	%esp, %ebp
 4458 1c67 57       		pushl	%edi
 4459 1c68 56       		pushl	%esi
 4460 1c69 53       		pushl	%ebx
 4461 1c6a 81EC9C02 		subl	$668, %esp
 4461      0000
 4462 1c70 C785C4FD 		movl	$___gxx_personality_sj0, -572(%ebp)
 4462      FFFF0000 
 4462      0000
 4463 1c7a C785C8FD 		movl	$LLSDA2030, -568(%ebp)
 4463      FFFF0000 
 4463      0000
 4464 1c84 8D85CCFD 		leal	-564(%ebp), %eax
 4464      FFFF
 4465 1c8a 8D55E8   		leal	-24(%ebp), %edx
 4466 1c8d 8910     		movl	%edx, (%eax)
 4467 1c8f BA0A1D00 		movl	$L97, %edx
 4467      00
 4468 1c94 895004   		movl	%edx, 4(%eax)
 4469 1c97 896008   		movl	%esp, 8(%eax)
 4470 1c9a 8D85ACFD 		leal	-596(%ebp), %eax
 4470      FFFF
 4471 1ca0 890424   		movl	%eax, (%esp)
 4472 1ca3 E8000000 		call	__Unwind_SjLj_Register
 4472      00
1449:mtk_resgenerator.cpp ****     /*----------------------------------------------------------------*/
1450:mtk_resgenerator.cpp ****     /* Local Variables                                                */
1451:mtk_resgenerator.cpp ****     /*----------------------------------------------------------------*/
1452:mtk_resgenerator.cpp **** 
1453:mtk_resgenerator.cpp ****     /*----------------------------------------------------------------*/
1454:mtk_resgenerator.cpp ****     /* Code Body                                                      */
1455:mtk_resgenerator.cpp ****     /*----------------------------------------------------------------*/
1456:mtk_resgenerator.cpp ****     RESGEN_LOG_V("GenerateImageResFile(): File output: CustImgDataHW.h CustImgDataHWExt.h");
 4474              	LM179:
 4475              	LBB21:
 4476 1ca8 C7442408 		movl	$LC62, 8(%esp)
 4476      801A0000 
 4477 1cb0 C7442404 		movl	$LC1, 4(%esp)
 4477      3E000000 
 4478 1cb8 C7042401 		movl	$1, (%esp)
GAS LISTING d:/MTK/MTK2503/MTK2503/11CW1418SP4_03_CORETEK03AE_11C_V1_GPRS_MMI/plutommi/Customer/ResGenerator/gcctmp/cc63daaa.s 			page 62


 4478      000000
 4479 1cbf C785B0FD 		movl	$-1, -592(%ebp)
 4479      FFFFFFFF 
 4479      FFFF
 4480 1cc9 E8000000 		call	_reslog_adaptor_log
 4480      00
1457:mtk_resgenerator.cpp ****     // create group image meta file
1458:mtk_resgenerator.cpp ****     ImageGroupMappingMetaCreator * metaCreator = new ImageGroupMappingMetaCreator();
 4482              	LM180:
 4483 1cce C704240C 		movl	$12, (%esp)
 4483      000000
 4484 1cd5 E8000000 		call	__Znwj
 4484      00
 4485 1cda 8985A8FD 		movl	%eax, -600(%ebp)
 4485      FFFF
 4486 1ce0 C685A7FD 		movb	$1, -601(%ebp)
 4486      FFFF01
 4487 1ce7 8B85A8FD 		movl	-600(%ebp), %eax
 4487      FFFF
 4488 1ced 890424   		movl	%eax, (%esp)
 4489 1cf0 C785B0FD 		movl	$1, -592(%ebp)
 4489      FFFF0100 
 4489      0000
 4490 1cfa E8000000 		call	__ZN28ImageGroupMappingMetaCreatorC1Ev
 4490      00
 4491 1cff 8B95A8FD 		movl	-600(%ebp), %edx
 4491      FFFF
 4492 1d05 8955E4   		movl	%edx, -28(%ebp)
 4493 1d08 EB56     		jmp	L86
 4494              	L97:
 4495 1d0a 8D6D18   		leal	24(%ebp), %ebp
 4496 1d0d 8B85B4FD 		movl	-588(%ebp), %eax
 4496      FFFF
 4497 1d13 89859CFD 		movl	%eax, -612(%ebp)
 4497      FFFF
 4498              	L85:
 4499 1d19 8B959CFD 		movl	-612(%ebp), %edx
 4499      FFFF
 4500 1d1f 8995A0FD 		movl	%edx, -608(%ebp)
 4500      FFFF
 4501 1d25 80BDA7FD 		cmpb	$0, -601(%ebp)
 4501      FFFF00
 4502 1d2c 740E     		je	L88
 4503 1d2e 8B85A8FD 		movl	-600(%ebp), %eax
 4503      FFFF
 4504 1d34 890424   		movl	%eax, (%esp)
 4505 1d37 E8000000 		call	__ZdlPv
 4505      00
 4506              	L88:
 4507 1d3c 8B95A0FD 		movl	-608(%ebp), %edx
 4507      FFFF
 4508 1d42 89959CFD 		movl	%edx, -612(%ebp)
 4508      FFFF
 4509              	L89:
 4510 1d48 8B859CFD 		movl	-612(%ebp), %eax
 4510      FFFF
 4511 1d4e 890424   		movl	%eax, (%esp)
GAS LISTING d:/MTK/MTK2503/MTK2503/11CW1418SP4_03_CORETEK03AE_11C_V1_GPRS_MMI/plutommi/Customer/ResGenerator/gcctmp/cc63daaa.s 			page 63


 4512 1d51 C785B0FD 		movl	$-1, -592(%ebp)
 4512      FFFFFFFF 
 4512      FFFF
 4513 1d5b E8000000 		call	__Unwind_SjLj_Resume
 4513      00
 4514              	L86:
1459:mtk_resgenerator.cpp ****     for(int i =0; i< CurrMaxImageNum; i++ ){
 4516              	LM181:
 4517              	LBB22:
 4518 1d60 C745E000 		movl	$0, -32(%ebp)
 4518      000000
 4519              	L91:
 4520 1d67 0FB70500 		movzwl	_CurrMaxImageNum, %eax
 4520      000000
 4521 1d6e 3945E0   		cmpl	%eax, -32(%ebp)
 4522 1d71 7C02     		jl	L94
 4523 1d73 EB4B     		jmp	L92
 4524              	L94:
1460:mtk_resgenerator.cpp ****         S8 pBuffName[512];
1461:mtk_resgenerator.cpp ****         Extract_Name(pBuffName, ImageNameList[i].filename, SYSTEM_IMAGE);
 4526              	LM182:
 4527              	LBB23:
 4528              	LBB24:
 4529 1d75 C7442408 		movl	$0, 8(%esp)
 4529      00000000 
 4530 1d7d 8B45E0   		movl	-32(%ebp), %eax
 4531 1d80 C1E009   		sall	$9, %eax
 4532 1d83 05000000 		addl	$_ImageNameList, %eax
 4532      00
 4533 1d88 89442404 		movl	%eax, 4(%esp)
 4534 1d8c 8D85D8FD 		leal	-552(%ebp), %eax
 4534      FFFF
 4535 1d92 890424   		movl	%eax, (%esp)
 4536 1d95 C785B0FD 		movl	$-1, -592(%ebp)
 4536      FFFFFFFF 
 4536      FFFF
 4537 1d9f E8000000 		call	_Extract_Name
 4537      00
1462:mtk_resgenerator.cpp ****         metaCreator->addImage(pBuffName);
 4539              	LM183:
 4540 1da4 8D85D8FD 		leal	-552(%ebp), %eax
 4540      FFFF
 4541 1daa 89442404 		movl	%eax, 4(%esp)
 4542 1dae 8B45E4   		movl	-28(%ebp), %eax
 4543 1db1 890424   		movl	%eax, (%esp)
 4544 1db4 E8000000 		call	__ZN28ImageGroupMappingMetaCreator8addImageEPKc
 4544      00
 4546              	LM184:
 4547 1db9 8D45E0   		leal	-32(%ebp), %eax
 4548              	LBE24:
 4549              	LBE23:
 4550 1dbc FF00     		incl	(%eax)
 4551 1dbe EBA7     		jmp	L91
 4552              	L92:
1463:mtk_resgenerator.cpp ****     }
1464:mtk_resgenerator.cpp ****     metaCreator->generateMetaFile("..\\..\\Customer\\CustResource\\CustImgMapMeta.txt");
 4554              	LM185:
GAS LISTING d:/MTK/MTK2503/MTK2503/11CW1418SP4_03_CORETEK03AE_11C_V1_GPRS_MMI/plutommi/Customer/ResGenerator/gcctmp/cc63daaa.s 			page 64


 4555              	LBE22:
 4556 1dc0 C7442404 		movl	$LC63, 4(%esp)
 4556      E01A0000 
 4557 1dc8 8B45E4   		movl	-28(%ebp), %eax
 4558 1dcb 890424   		movl	%eax, (%esp)
 4559 1dce C785B0FD 		movl	$-1, -592(%ebp)
 4559      FFFFFFFF 
 4559      FFFF
 4560 1dd8 E8000000 		call	__ZN28ImageGroupMappingMetaCreator16generateMetaFileEPKc
 4560      00
1465:mtk_resgenerator.cpp ****     delete metaCreator;
 4562              	LM186:
 4563 1ddd 8B55E4   		movl	-28(%ebp), %edx
 4564 1de0 899598FD 		movl	%edx, -616(%ebp)
 4564      FFFF
 4565 1de6 83BD98FD 		cmpl	$0, -616(%ebp)
 4565      FFFF00
 4566 1ded 741C     		je	L96
 4567 1def 8B8598FD 		movl	-616(%ebp), %eax
 4567      FFFF
 4568 1df5 890424   		movl	%eax, (%esp)
 4569 1df8 E8000000 		call	__ZN28ImageGroupMappingMetaCreatorD1Ev
 4569      00
 4570 1dfd 8B9598FD 		movl	-616(%ebp), %edx
 4570      FFFF
 4571 1e03 891424   		movl	%edx, (%esp)
 4572 1e06 E8000000 		call	__ZdlPv
 4572      00
 4573              	L96:
1466:mtk_resgenerator.cpp **** 	
1467:mtk_resgenerator.cpp ****     GenerateResFile_Ext(
 4575              	LM187:
 4576 1e0b C7442430 		movl	$0, 48(%esp)
 4576      00000000 
 4577 1e13 C744242C 		movl	$LC64, 44(%esp)
 4577      201B0000 
 4578 1e1b C7442428 		movl	$LC65, 40(%esp)
 4578      491B0000 
 4579 1e23 C7442424 		movl	$LC66, 36(%esp)
 4579      561B0000 
 4580 1e2b C7442420 		movl	$LC67, 32(%esp)
 4580      641B0000 
 4581 1e33 C744241C 		movl	$LC68, 28(%esp)
 4581      741B0000 
 4582 1e3b C7442418 		movl	$LC69, 24(%esp)
 4582      881B0000 
 4583 1e43 C7442414 		movl	$LC70, 20(%esp)
 4583      981B0000 
 4584 1e4b C7442410 		movl	$LC71, 16(%esp)
 4584      AC1B0000 
 4585 1e53 0FB70500 		movzwl	_CurrMaxImageNum, %eax
 4585      000000
 4586 1e5a 8944240C 		movl	%eax, 12(%esp)
 4587 1e5e C7442408 		movl	$_ImageNameList, 8(%esp)
 4587      00000000 
 4588 1e66 C7442404 		movl	$0, 4(%esp)
 4588      00000000 
GAS LISTING d:/MTK/MTK2503/MTK2503/11CW1418SP4_03_CORETEK03AE_11C_V1_GPRS_MMI/plutommi/Customer/ResGenerator/gcctmp/cc63daaa.s 			page 65


 4589 1e6e C7042400 		movl	$0, (%esp)
 4589      000000
 4590 1e75 C785B0FD 		movl	$-1, -592(%ebp)
 4590      FFFFFFFF 
 4590      FFFF
 4591 1e7f E85EF8FF 		call	__Z19GenerateResFile_Exti18RESOURCE_TYPE_LISTP16CUSTOM_NAME_LISTtPcS2_S2_S2_S2_S2_S2_S2_j
 4591      FF
1468:mtk_resgenerator.cpp ****         FALSE,
1469:mtk_resgenerator.cpp ****         RES_IMAGE,
1470:mtk_resgenerator.cpp ****         (CUSTOM_NAME_LIST *)ImageNameList,
1471:mtk_resgenerator.cpp ****         CurrMaxImageNum,
1472:mtk_resgenerator.cpp ****         "CustImgDataHW.h",
1473:mtk_resgenerator.cpp ****         "mtk_CurrMaxImageNum",
1474:mtk_resgenerator.cpp ****         "CurrMaxImageNum",
1475:mtk_resgenerator.cpp ****         "mtk_nCustImageNames",
1476:mtk_resgenerator.cpp ****         "nCustImageNames",
1477:mtk_resgenerator.cpp ****         "ImageNameList",
1478:mtk_resgenerator.cpp ****         "CUSTOM_IMAGE",
1479:mtk_resgenerator.cpp ****         IMG_DATA_FILENAME,
1480:mtk_resgenerator.cpp ****         SYSTEM_IMAGE);
1481:mtk_resgenerator.cpp ****     GenerateResFile_Ext(
 4593              	LM188:
 4594 1e84 C7442430 		movl	$1, 48(%esp)
 4594      01000000 
 4595 1e8c C744242C 		movl	$LC72, 44(%esp)
 4595      C01B0000 
 4596 1e94 C7442428 		movl	$LC65, 40(%esp)
 4596      491B0000 
 4597 1e9c C7442424 		movl	$LC73, 36(%esp)
 4597      EC1B0000 
 4598 1ea4 C7442420 		movl	$LC74, 32(%esp)
 4598      FD1B0000 
 4599 1eac C744241C 		movl	$LC75, 28(%esp)
 4599      101C0000 
 4600 1eb4 C7442418 		movl	$LC76, 24(%esp)
 4600      271C0000 
 4601 1ebc C7442414 		movl	$LC77, 20(%esp)
 4601      3A1C0000 
 4602 1ec4 C7442410 		movl	$LC78, 16(%esp)
 4602      511C0000 
 4603 1ecc 0FB70500 		movzwl	_CurrMaxImageNumEXT, %eax
 4603      000000
 4604 1ed3 8944240C 		movl	%eax, 12(%esp)
 4605 1ed7 C7442408 		movl	$_ImageNameListEXT, 8(%esp)
 4605      00000000 
 4606 1edf C7442404 		movl	$0, 4(%esp)
 4606      00000000 
 4607 1ee7 C7042401 		movl	$1, (%esp)
 4607      000000
 4608 1eee E8EFF7FF 		call	__Z19GenerateResFile_Exti18RESOURCE_TYPE_LISTP16CUSTOM_NAME_LISTtPcS2_S2_S2_S2_S2_S2_S2_j
 4608      FF
1482:mtk_resgenerator.cpp ****         TRUE,
1483:mtk_resgenerator.cpp ****         RES_IMAGE,
1484:mtk_resgenerator.cpp ****         (CUSTOM_NAME_LIST *)ImageNameListEXT,
1485:mtk_resgenerator.cpp ****         CurrMaxImageNumEXT,
1486:mtk_resgenerator.cpp ****         "CustImgDataHWExt.h",
1487:mtk_resgenerator.cpp ****         "mtk_CurrMaxImageNumEXT",
GAS LISTING d:/MTK/MTK2503/MTK2503/11CW1418SP4_03_CORETEK03AE_11C_V1_GPRS_MMI/plutommi/Customer/ResGenerator/gcctmp/cc63daaa.s 			page 66


1488:mtk_resgenerator.cpp ****         "CurrMaxImageNumEXT",
1489:mtk_resgenerator.cpp ****         "mtk_nCustImageNamesEXT",
1490:mtk_resgenerator.cpp ****         "nCustImageNamesEXT",
1491:mtk_resgenerator.cpp ****         "ImageNameListEXT",
1492:mtk_resgenerator.cpp ****         "CUSTOM_IMAGE",
1493:mtk_resgenerator.cpp ****         IMG_DATA_FILENAME_EXT,
1494:mtk_resgenerator.cpp ****         EXT_IMAGE);
1495:mtk_resgenerator.cpp **** }
 4610              	LM189:
 4611              	L84:
 4612 1ef3 8D85ACFD 		leal	-596(%ebp), %eax
 4612      FFFF
 4613 1ef9 890424   		movl	%eax, (%esp)
 4614 1efc E8000000 		call	__Unwind_SjLj_Unregister
 4614      00
 4615 1f01 81C49C02 		addl	$668, %esp
 4615      0000
 4616 1f07 5B       		popl	%ebx
 4617 1f08 5E       		popl	%esi
 4618 1f09 5F       		popl	%edi
 4619 1f0a 5D       		popl	%ebp
 4620 1f0b C3       		ret
 4621              	LBE21:
 4622              		.section	.gcc_except_table,""
 4623              	LLSDA2030:
 4624 0000 FF       		.byte	0xff
 4625 0001 FF       		.byte	0xff
 4626 0002 01       		.byte	0x1
 4627 0003 02       		.uleb128 LLSDACSE2030-LLSDACSB2030
 4628              	LLSDACSB2030:
 4629 0004 00       		.uleb128 0x0
 4630 0005 00       		.uleb128 0x0
 4631              	LLSDACSE2030:
 4632              		.text
 4642              	Lscope9:
 4644 1f0c 90909090 		.align 32
 4644      90909090 
 4644      90909090 
 4644      90909090 
 4644      90909090 
 4645              	LC79:
 4646 1f20 47656E65 		.ascii "GenerateAudioResFile(): File output: CustAdoDataHW.h CustAdoDataHWExt.h\0"
 4646      72617465 
 4646      41756469 
 4646      6F526573 
 4646      46696C65 
 4647 1f68 90909090 		.align 32
 4647      90909090 
 4647      90909090 
 4647      90909090 
 4647      90909090 
 4648              	LC80:
 4649 1f80 2E2E5C2E 		.ascii "..\\..\\Customer\\CustResource\\CustAdoRes.c\0"
 4649      2E5C4375 
 4649      73746F6D 
 4649      65725C43 
 4649      75737452 
GAS LISTING d:/MTK/MTK2503/MTK2503/11CW1418SP4_03_CORETEK03AE_11C_V1_GPRS_MMI/plutommi/Customer/ResGenerator/gcctmp/cc63daaa.s 			page 67


 4650              	LC81:
 4651 1fa9 43555354 		.ascii "CUSTOM_AUDIO\0"
 4651      4F4D5F41 
 4651      5544494F 
 4651      00
 4652              	LC82:
 4653 1fb6 41756469 		.ascii "AudioNameList\0"
 4653      6F4E616D 
 4653      654C6973 
 4653      7400
 4654              	LC83:
 4655 1fc4 6E437573 		.ascii "nCustAudioNames\0"
 4655      74417564 
 4655      696F4E61 
 4655      6D657300 
 4656              	LC84:
 4657 1fd4 6D746B5F 		.ascii "mtk_nCustAudioNames\0"
 4657      6E437573 
 4657      74417564 
 4657      696F4E61 
 4657      6D657300 
 4658              	LC85:
 4659 1fe8 43757272 		.ascii "CurrMaxAudioNum\0"
 4659      4D617841 
 4659      7564696F 
 4659      4E756D00 
 4660              	LC86:
 4661 1ff8 6D746B5F 		.ascii "mtk_CurrMaxAudioNum\0"
 4661      43757272 
 4661      4D617841 
 4661      7564696F 
 4661      4E756D00 
 4662              	LC87:
 4663 200c 43757374 		.ascii "CustAdoDataHW.h\0"
 4663      41646F44 
 4663      61746148 
 4663      572E6800 
 4664 201c 8D742600 		.align 32
 4665              	LC88:
 4666 2020 2E2E5C2E 		.ascii "..\\..\\Customer\\CustResource\\CustAdoResExt.c\0"
 4666      2E5C4375 
 4666      73746F6D 
 4666      65725C43 
 4666      75737452 
 4667              	LC89:
 4668 204c 41756469 		.ascii "AudioNameListEXT\0"
 4668      6F4E616D 
 4668      654C6973 
 4668      74455854 
 4668      00
 4669              	LC90:
 4670 205d 6E437573 		.ascii "nCustAudioNamesEXT\0"
 4670      74417564 
 4670      696F4E61 
 4670      6D657345 
 4670      585400
 4671              	LC91:
GAS LISTING d:/MTK/MTK2503/MTK2503/11CW1418SP4_03_CORETEK03AE_11C_V1_GPRS_MMI/plutommi/Customer/ResGenerator/gcctmp/cc63daaa.s 			page 68


 4672 2070 6D746B5F 		.ascii "mtk_nCustAudioNamesEXT\0"
 4672      6E437573 
 4672      74417564 
 4672      696F4E61 
 4672      6D657345 
 4673              	LC92:
 4674 2087 43757272 		.ascii "CurrMaxAudioNumEXT\0"
 4674      4D617841 
 4674      7564696F 
 4674      4E756D45 
 4674      585400
 4675              	LC93:
 4676 209a 6D746B5F 		.ascii "mtk_CurrMaxAudioNumEXT\0"
 4676      43757272 
 4676      4D617841 
 4676      7564696F 
 4676      4E756D45 
 4677              	LC94:
 4678 20b1 43757374 		.ascii "CustAdoDataHWExt.h\0"
 4678      41646F44 
 4678      61746148 
 4678      57457874 
 4678      2E6800
 4679              		.align 2
 4682              	__Z20GenerateAudioResFilev:
1496:mtk_resgenerator.cpp **** 
1497:mtk_resgenerator.cpp **** 
1498:mtk_resgenerator.cpp **** /*****************************************************************************
1499:mtk_resgenerator.cpp **** * FUNCTION
1500:mtk_resgenerator.cpp **** *  GenerateAudioResFile
1501:mtk_resgenerator.cpp **** * DESCRIPTION
1502:mtk_resgenerator.cpp **** *  generate aurio resource file
1503:mtk_resgenerator.cpp **** * PARAMETERS
1504:mtk_resgenerator.cpp **** *  void
1505:mtk_resgenerator.cpp **** * RETURNS
1506:mtk_resgenerator.cpp **** *  void
1507:mtk_resgenerator.cpp **** *****************************************************************************/
1508:mtk_resgenerator.cpp **** static void GenerateAudioResFile(void)
1509:mtk_resgenerator.cpp **** {
 4684              	LM190:
 4685 20c4 55       		pushl	%ebp
 4686 20c5 89E5     		movl	%esp, %ebp
 4687 20c7 83EC38   		subl	$56, %esp
1510:mtk_resgenerator.cpp ****     /*----------------------------------------------------------------*/
1511:mtk_resgenerator.cpp ****     /* Local Variables                                                */
1512:mtk_resgenerator.cpp ****     /*----------------------------------------------------------------*/
1513:mtk_resgenerator.cpp **** 
1514:mtk_resgenerator.cpp ****     /*----------------------------------------------------------------*/
1515:mtk_resgenerator.cpp ****     /* Code Body                                                      */
1516:mtk_resgenerator.cpp ****     /*----------------------------------------------------------------*/
1517:mtk_resgenerator.cpp ****     RESGEN_LOG_V("GenerateAudioResFile(): File output: CustAdoDataHW.h CustAdoDataHWExt.h");
 4689              	LM191:
 4690              	LBB25:
 4691 20ca C7442408 		movl	$LC79, 8(%esp)
 4691      201F0000 
 4692 20d2 C7442404 		movl	$LC1, 4(%esp)
 4692      3E000000 
GAS LISTING d:/MTK/MTK2503/MTK2503/11CW1418SP4_03_CORETEK03AE_11C_V1_GPRS_MMI/plutommi/Customer/ResGenerator/gcctmp/cc63daaa.s 			page 69


 4693 20da C7042401 		movl	$1, (%esp)
 4693      000000
 4694 20e1 E8000000 		call	_reslog_adaptor_log
 4694      00
1518:mtk_resgenerator.cpp ****     GenerateResFile_Ext(
 4696              	LM192:
 4697 20e6 C7442430 		movl	$0, 48(%esp)
 4697      00000000 
 4698 20ee C744242C 		movl	$LC80, 44(%esp)
 4698      801F0000 
 4699 20f6 C7442428 		movl	$LC81, 40(%esp)
 4699      A91F0000 
 4700 20fe C7442424 		movl	$LC82, 36(%esp)
 4700      B61F0000 
 4701 2106 C7442420 		movl	$LC83, 32(%esp)
 4701      C41F0000 
 4702 210e C744241C 		movl	$LC84, 28(%esp)
 4702      D41F0000 
 4703 2116 C7442418 		movl	$LC85, 24(%esp)
 4703      E81F0000 
 4704 211e C7442414 		movl	$LC86, 20(%esp)
 4704      F81F0000 
 4705 2126 C7442410 		movl	$LC87, 16(%esp)
 4705      0C200000 
 4706 212e 0FB70500 		movzwl	_CurrMaxAudioNum, %eax
 4706      000000
 4707 2135 8944240C 		movl	%eax, 12(%esp)
 4708 2139 C7442408 		movl	$_AudioNameList, 8(%esp)
 4708      00000000 
 4709 2141 C7442404 		movl	$2, 4(%esp)
 4709      02000000 
 4710 2149 C7042400 		movl	$0, (%esp)
 4710      000000
 4711 2150 E88DF5FF 		call	__Z19GenerateResFile_Exti18RESOURCE_TYPE_LISTP16CUSTOM_NAME_LISTtPcS2_S2_S2_S2_S2_S2_S2_j
 4711      FF
1519:mtk_resgenerator.cpp ****         FALSE,
1520:mtk_resgenerator.cpp ****         RES_AUDIO,
1521:mtk_resgenerator.cpp ****         (CUSTOM_NAME_LIST *)AudioNameList,
1522:mtk_resgenerator.cpp ****         CurrMaxAudioNum,
1523:mtk_resgenerator.cpp ****         "CustAdoDataHW.h",
1524:mtk_resgenerator.cpp ****         "mtk_CurrMaxAudioNum",
1525:mtk_resgenerator.cpp ****         "CurrMaxAudioNum",
1526:mtk_resgenerator.cpp ****         "mtk_nCustAudioNames",
1527:mtk_resgenerator.cpp ****         "nCustAudioNames",
1528:mtk_resgenerator.cpp ****         "AudioNameList",
1529:mtk_resgenerator.cpp ****         "CUSTOM_AUDIO",
1530:mtk_resgenerator.cpp ****         ADO_DATA_FILENAME,
1531:mtk_resgenerator.cpp ****         FALSE);
1532:mtk_resgenerator.cpp ****     GenerateResFile_Ext(
 4713              	LM193:
 4714 2155 C7442430 		movl	$1, 48(%esp)
 4714      01000000 
 4715 215d C744242C 		movl	$LC88, 44(%esp)
 4715      20200000 
 4716 2165 C7442428 		movl	$LC81, 40(%esp)
 4716      A91F0000 
 4717 216d C7442424 		movl	$LC89, 36(%esp)
GAS LISTING d:/MTK/MTK2503/MTK2503/11CW1418SP4_03_CORETEK03AE_11C_V1_GPRS_MMI/plutommi/Customer/ResGenerator/gcctmp/cc63daaa.s 			page 70


 4717      4C200000 
 4718 2175 C7442420 		movl	$LC90, 32(%esp)
 4718      5D200000 
 4719 217d C744241C 		movl	$LC91, 28(%esp)
 4719      70200000 
 4720 2185 C7442418 		movl	$LC92, 24(%esp)
 4720      87200000 
 4721 218d C7442414 		movl	$LC93, 20(%esp)
 4721      9A200000 
 4722 2195 C7442410 		movl	$LC94, 16(%esp)
 4722      B1200000 
 4723 219d 0FB70500 		movzwl	_CurrMaxAudioNumEXT, %eax
 4723      000000
 4724 21a4 8944240C 		movl	%eax, 12(%esp)
 4725 21a8 C7442408 		movl	$_AudioNameListEXT, 8(%esp)
 4725      00000000 
 4726 21b0 C7442404 		movl	$2, 4(%esp)
 4726      02000000 
 4727 21b8 C7042401 		movl	$1, (%esp)
 4727      000000
 4728 21bf E81EF5FF 		call	__Z19GenerateResFile_Exti18RESOURCE_TYPE_LISTP16CUSTOM_NAME_LISTtPcS2_S2_S2_S2_S2_S2_S2_j
 4728      FF
1533:mtk_resgenerator.cpp ****         TRUE,
1534:mtk_resgenerator.cpp ****         RES_AUDIO,
1535:mtk_resgenerator.cpp ****         (CUSTOM_NAME_LIST *)AudioNameListEXT,
1536:mtk_resgenerator.cpp ****         CurrMaxAudioNumEXT,
1537:mtk_resgenerator.cpp ****         "CustAdoDataHWExt.h",
1538:mtk_resgenerator.cpp ****         "mtk_CurrMaxAudioNumEXT",
1539:mtk_resgenerator.cpp ****         "CurrMaxAudioNumEXT",
1540:mtk_resgenerator.cpp ****         "mtk_nCustAudioNamesEXT",
1541:mtk_resgenerator.cpp ****         "nCustAudioNamesEXT",
1542:mtk_resgenerator.cpp ****         "AudioNameListEXT",
1543:mtk_resgenerator.cpp ****         "CUSTOM_AUDIO",
1544:mtk_resgenerator.cpp ****         ADO_DATA_FILENAME_EXT,
1545:mtk_resgenerator.cpp ****         TRUE);
1546:mtk_resgenerator.cpp **** }
 4730              	LM194:
 4731 21c4 C9       		leave
 4732 21c5 C3       		ret
 4733              	LBE25:
 4734              	Lscope10:
 4736 21c6 90909090 		.align 32
 4736      90909090 
 4736      90909090 
 4736      90909090 
 4736      90909090 
 4737              	LC95:
 4738 21e0 47656E65 		.ascii "GenerateFontResFile(): File output: CustFontRes.c CustFontResExt.c\0"
 4738      72617465 
 4738      466F6E74 
 4738      52657346 
 4738      696C6528 
 4739 2223 90909090 		.align 32
 4739      90909090 
 4739      90909090 
 4739      90909090 
 4739      90909090 
GAS LISTING d:/MTK/MTK2503/MTK2503/11CW1418SP4_03_CORETEK03AE_11C_V1_GPRS_MMI/plutommi/Customer/ResGenerator/gcctmp/cc63daaa.s 			page 71


 4740              	LC96:
 4741 2240 2E2E5C2E 		.ascii "..\\..\\Customer\\CustResource\\CustFontResExt.c\0"
 4741      2E5C4375 
 4741      73746F6D 
 4741      65725C43 
 4741      75737452 
 4742              	LC97:
 4743 226d 43555354 		.ascii "CUSTOM_FONT\0"
 4743      4F4D5F46 
 4743      4F4E5400 
 4744              	LC98:
 4745 2279 466F6E74 		.ascii "FontNameListEXT\0"
 4745      4E616D65 
 4745      4C697374 
 4745      45585400 
 4746              	LC99:
 4747 2289 6E437573 		.ascii "nCustFontNamesEXT\0"
 4747      74466F6E 
 4747      744E616D 
 4747      65734558 
 4747      5400
 4748              	LC100:
 4749 229b 6D746B5F 		.ascii "mtk_nCustFontNamesEXT\0"
 4749      6E437573 
 4749      74466F6E 
 4749      744E616D 
 4749      65734558 
 4750              	LC101:
 4751 22b1 43757272 		.ascii "CurrMaxFontNumEXT\0"
 4751      4D617846 
 4751      6F6E744E 
 4751      756D4558 
 4751      5400
 4752              	LC102:
 4753 22c3 6D746B5F 		.ascii "mtk_CurrMaxFontNumEXT\0"
 4753      43757272 
 4753      4D617846 
 4753      6F6E744E 
 4753      756D4558 
 4754              	LC103:
 4755 22d9 43757374 		.ascii "CustFontDataHW.h\0"
 4755      466F6E74 
 4755      44617461 
 4755      48572E68 
 4755      00
 4756              		.align 2
 4759              	__Z19GenerateFontResFilev:
1547:mtk_resgenerator.cpp **** 
1548:mtk_resgenerator.cpp **** 
1549:mtk_resgenerator.cpp **** 
1550:mtk_resgenerator.cpp **** /*****************************************************************************
1551:mtk_resgenerator.cpp **** * FUNCTION
1552:mtk_resgenerator.cpp **** *  GenerateFontResFile
1553:mtk_resgenerator.cpp **** * DESCRIPTION
1554:mtk_resgenerator.cpp **** *  generate Font resource file
1555:mtk_resgenerator.cpp **** * PARAMETERS
1556:mtk_resgenerator.cpp **** *  void
GAS LISTING d:/MTK/MTK2503/MTK2503/11CW1418SP4_03_CORETEK03AE_11C_V1_GPRS_MMI/plutommi/Customer/ResGenerator/gcctmp/cc63daaa.s 			page 72


1557:mtk_resgenerator.cpp **** * RETURNS
1558:mtk_resgenerator.cpp **** *  void
1559:mtk_resgenerator.cpp **** *****************************************************************************/
1560:mtk_resgenerator.cpp **** static void GenerateFontResFile(void)
1561:mtk_resgenerator.cpp **** {
 4761              	LM195:
 4762 22ea 55       		pushl	%ebp
 4763 22eb 89E5     		movl	%esp, %ebp
 4764 22ed 83EC38   		subl	$56, %esp
1562:mtk_resgenerator.cpp ****     /*----------------------------------------------------------------*/
1563:mtk_resgenerator.cpp ****     /* Local Variables                                                */
1564:mtk_resgenerator.cpp ****     /*----------------------------------------------------------------*/
1565:mtk_resgenerator.cpp **** 
1566:mtk_resgenerator.cpp ****     /*----------------------------------------------------------------*/
1567:mtk_resgenerator.cpp ****     /* Code Body                                                      */
1568:mtk_resgenerator.cpp ****     /*----------------------------------------------------------------*/
1569:mtk_resgenerator.cpp ****     RESGEN_LOG_V("GenerateFontResFile(): File output: CustFontRes.c CustFontResExt.c");
 4766              	LM196:
 4767              	LBB26:
 4768 22f0 C7442408 		movl	$LC95, 8(%esp)
 4768      E0210000 
 4769 22f8 C7442404 		movl	$LC1, 4(%esp)
 4769      3E000000 
 4770 2300 C7042401 		movl	$1, (%esp)
 4770      000000
 4771 2307 E8000000 		call	_reslog_adaptor_log
 4771      00
1570:mtk_resgenerator.cpp **** 
1571:mtk_resgenerator.cpp ****     GenerateResFile_Ext(
 4773              	LM197:
 4774 230c C7442430 		movl	$3, 48(%esp)
 4774      03000000 
 4775 2314 C744242C 		movl	$LC96, 44(%esp)
 4775      40220000 
 4776 231c C7442428 		movl	$LC97, 40(%esp)
 4776      6D220000 
 4777 2324 C7442424 		movl	$LC98, 36(%esp)
 4777      79220000 
 4778 232c C7442420 		movl	$LC99, 32(%esp)
 4778      89220000 
 4779 2334 C744241C 		movl	$LC100, 28(%esp)
 4779      9B220000 
 4780 233c C7442418 		movl	$LC101, 24(%esp)
 4780      B1220000 
 4781 2344 C7442414 		movl	$LC102, 20(%esp)
 4781      C3220000 
 4782 234c C7442410 		movl	$LC103, 16(%esp)
 4782      D9220000 
 4783 2354 0FB70500 		movzwl	_CurrMaxFontNumEXT, %eax
 4783      000000
 4784 235b 8944240C 		movl	%eax, 12(%esp)
 4785 235f C7442408 		movl	$_FontNameListEXT, 8(%esp)
 4785      00000000 
 4786 2367 C7442404 		movl	$4, 4(%esp)
 4786      04000000 
 4787 236f C7042401 		movl	$1, (%esp)
 4787      000000
GAS LISTING d:/MTK/MTK2503/MTK2503/11CW1418SP4_03_CORETEK03AE_11C_V1_GPRS_MMI/plutommi/Customer/ResGenerator/gcctmp/cc63daaa.s 			page 73


 4788 2376 E867F3FF 		call	__Z19GenerateResFile_Exti18RESOURCE_TYPE_LISTP16CUSTOM_NAME_LISTtPcS2_S2_S2_S2_S2_S2_S2_j
 4788      FF
1572:mtk_resgenerator.cpp ****         TRUE,
1573:mtk_resgenerator.cpp ****         RES_FONT,
1574:mtk_resgenerator.cpp ****         (CUSTOM_NAME_LIST *)FontNameListEXT,
1575:mtk_resgenerator.cpp ****         CurrMaxFontNumEXT,
1576:mtk_resgenerator.cpp ****         "CustFontDataHW.h",
1577:mtk_resgenerator.cpp ****         "mtk_CurrMaxFontNumEXT",
1578:mtk_resgenerator.cpp ****         "CurrMaxFontNumEXT",
1579:mtk_resgenerator.cpp ****         "mtk_nCustFontNamesEXT",
1580:mtk_resgenerator.cpp ****         "nCustFontNamesEXT",
1581:mtk_resgenerator.cpp ****         "FontNameListEXT",
1582:mtk_resgenerator.cpp ****         "CUSTOM_FONT",
1583:mtk_resgenerator.cpp ****         FONT_DATA_FILENAME_EXT,
1584:mtk_resgenerator.cpp ****         EXT_FONT);
1585:mtk_resgenerator.cpp **** }
 4790              	LM198:
 4791 237b C9       		leave
 4792 237c C3       		ret
 4793              	LBE26:
 4794              	Lscope11:
 4796 237d 8D7600   		.align 32
 4797              	LC104:
 4798 2380 0A2F2A2A 		.ascii "\12/************************************************************** \12 FILENAME\11: %s \12
 4798      2A2A2A2A 
 4798      2A2A2A2A 
 4798      2A2A2A2A 
 4798      2A2A2A2A 
 4799              	LC105:
 4800 2470 23696E63 		.ascii "#include \"CustDataRes.h\"\12\12\12\0"
 4800      6C756465 
 4800      20224375 
 4800      73744461 
 4800      74615265 
 4801              	LC106:
 4802 248c 756E7369 		.ascii "unsigned short %s=%d;\12\0"
 4802      676E6564 
 4802      2073686F 
 4802      72742025 
 4802      733D2564 
 4803              	LC107:
 4804 24a3 636F6E73 		.ascii "const %s %s[]={\12\0"
 4804      74202573 
 4804      2025735B 
 4804      5D3D7B0A 
 4804      00
 4805              	LC108:
 4806 24b4 097B2564 		.ascii "\11{%d},\12\0"
 4806      7D2C0A00 
 4807              	LC109:
 4808 24bc 636F6E73 		.ascii "const %s %s[1];\12\0"
 4808      74202573 
 4808      2025735B 
 4808      315D3B0A 
 4808      00
 4809 24cd 90       		.align 2
 4819              	__Z19GenerateMapFile_ExtP13CUSTOM_ID_MAPtPcS1_S1_S1_S1_:
GAS LISTING d:/MTK/MTK2503/MTK2503/11CW1418SP4_03_CORETEK03AE_11C_V1_GPRS_MMI/plutommi/Customer/ResGenerator/gcctmp/cc63daaa.s 			page 74


1586:mtk_resgenerator.cpp **** 
1587:mtk_resgenerator.cpp **** 
1588:mtk_resgenerator.cpp **** /*****************************************************************************
1589:mtk_resgenerator.cpp **** * FUNCTION
1590:mtk_resgenerator.cpp **** *  GenerateMapFile_Ext
1591:mtk_resgenerator.cpp **** * DESCRIPTION
1592:mtk_resgenerator.cpp **** *  generate ID map file
1593:mtk_resgenerator.cpp **** * PARAMETERS
1594:mtk_resgenerator.cpp **** *  pMap                [IN]    ID map
1595:mtk_resgenerator.cpp **** *  nSize               [IN]    size
1596:mtk_resgenerator.cpp **** *  str_IdMap           [IN]    output variable name
1597:mtk_resgenerator.cpp **** *  str_CustMap         [IN]    output variable name
1598:mtk_resgenerator.cpp **** *  str_CurrMaxId       [IN]    output variable name
1599:mtk_resgenerator.cpp **** *  str_CustType        [IN]    output variable name
1600:mtk_resgenerator.cpp **** *  curr_map_filename   [IN]    output file name
1601:mtk_resgenerator.cpp **** * RETURNS
1602:mtk_resgenerator.cpp **** *  void
1603:mtk_resgenerator.cpp **** *****************************************************************************/
1604:mtk_resgenerator.cpp **** static void GenerateMapFile_Ext(
1605:mtk_resgenerator.cpp ****                                 CUSTOM_ID_MAP *pMap,
1606:mtk_resgenerator.cpp ****                                 U16 nSize,
1607:mtk_resgenerator.cpp ****                                 char *str_IdMap,
1608:mtk_resgenerator.cpp ****                                 char *str_CustMap,
1609:mtk_resgenerator.cpp ****                                 char *str_CurrMaxId,
1610:mtk_resgenerator.cpp ****                                 char *str_CustType,
1611:mtk_resgenerator.cpp ****                                 char *curr_map_filename)
1612:mtk_resgenerator.cpp **** {
 4821              	LM199:
 4822 24ce 55       		pushl	%ebp
 4823 24cf 89E5     		movl	%esp, %ebp
 4824 24d1 83EC28   		subl	$40, %esp
 4825 24d4 8B450C   		movl	12(%ebp), %eax
 4826 24d7 668945FE 		movw	%ax, -2(%ebp)
1613:mtk_resgenerator.cpp ****     /*----------------------------------------------------------------*/
1614:mtk_resgenerator.cpp ****     /* Local Variables                                                */
1615:mtk_resgenerator.cpp ****     /*----------------------------------------------------------------*/
1616:mtk_resgenerator.cpp ****     FILE *pFile;
1617:mtk_resgenerator.cpp **** 
1618:mtk_resgenerator.cpp ****     /*----------------------------------------------------------------*/
1619:mtk_resgenerator.cpp ****     /* Code Body                                                      */
1620:mtk_resgenerator.cpp ****     /*----------------------------------------------------------------*/
1621:mtk_resgenerator.cpp ****     if(pFile = fopen(curr_map_filename, "w"))
 4828              	LM200:
 4829              	LBB27:
 4830              	LBB28:
 4831 24db C7442404 		movl	$LC2, 4(%esp)
 4831      4F000000 
 4832 24e3 8B4520   		movl	32(%ebp), %eax
 4833 24e6 890424   		movl	%eax, (%esp)
 4834 24e9 E8000000 		call	_fopen
 4834      00
 4835 24ee 8945F8   		movl	%eax, -8(%ebp)
 4836 24f1 837DF800 		cmpl	$0, -8(%ebp)
 4837 24f5 0F840801 		je	L100
 4837      0000
1622:mtk_resgenerator.cpp ****     {
1623:mtk_resgenerator.cpp ****         fprintf(pFile, "/**\n *	Copyright Notice\n *	?2002 - 2003, Pixtel Communications, Inc., 148
GAS LISTING d:/MTK/MTK2503/MTK2503/11CW1418SP4_03_CORETEK03AE_11C_V1_GPRS_MMI/plutommi/Customer/ResGenerator/gcctmp/cc63daaa.s 			page 75


 4839              	LM201:
 4840              	LBB29:
 4841 24fb C7442404 		movl	$LC4, 4(%esp)
 4841      A0000000 
 4842 2503 8B45F8   		movl	-8(%ebp), %eax
 4843 2506 890424   		movl	%eax, (%esp)
 4844 2509 E8000000 		call	_fprintf
 4844      00
1624:mtk_resgenerator.cpp ****         fprintf(pFile, "\n/************************************************************** \n FILENA
 4846              	LM202:
 4847 250e 8B4514   		movl	20(%ebp), %eax
 4848 2511 89442408 		movl	%eax, 8(%esp)
 4849 2515 C7442404 		movl	$LC104, 4(%esp)
 4849      80230000 
 4850 251d 8B45F8   		movl	-8(%ebp), %eax
 4851 2520 890424   		movl	%eax, (%esp)
 4852 2523 E8000000 		call	_fprintf
 4852      00
1625:mtk_resgenerator.cpp ****         fprintf(pFile, "#include \"CustDataRes.h\"\n\n\n");
 4854              	LM203:
 4855 2528 C7442404 		movl	$LC105, 4(%esp)
 4855      70240000 
 4856 2530 8B45F8   		movl	-8(%ebp), %eax
 4857 2533 890424   		movl	%eax, (%esp)
 4858 2536 E8000000 		call	_fprintf
 4858      00
1626:mtk_resgenerator.cpp ****         fprintf(pFile, "unsigned short %s=%d;\n", str_CurrMaxId, nSize);
 4860              	LM204:
 4861 253b 0FB745FE 		movzwl	-2(%ebp), %eax
 4862 253f 8944240C 		movl	%eax, 12(%esp)
 4863 2543 8B4518   		movl	24(%ebp), %eax
 4864 2546 89442408 		movl	%eax, 8(%esp)
 4865 254a C7442404 		movl	$LC106, 4(%esp)
 4865      8C240000 
 4866 2552 8B45F8   		movl	-8(%ebp), %eax
 4867 2555 890424   		movl	%eax, (%esp)
 4868 2558 E8000000 		call	_fprintf
 4868      00
1627:mtk_resgenerator.cpp **** 
1628:mtk_resgenerator.cpp ****         /* writing the map array inside the file. */
1629:mtk_resgenerator.cpp ****         if(nSize)
 4870              	LM205:
 4871              	LBB30:
 4872 255d 66837DFE 		cmpw	$0, -2(%ebp)
 4872      00
 4873 2562 7473     		je	L102
1630:mtk_resgenerator.cpp ****         {
1631:mtk_resgenerator.cpp ****             int i;
1632:mtk_resgenerator.cpp **** 
1633:mtk_resgenerator.cpp ****             fprintf(pFile, "const %s %s[]={\n", str_CustType, str_IdMap);
 4875              	LM206:
 4876              	LBB31:
 4877 2564 8B4510   		movl	16(%ebp), %eax
 4878 2567 8944240C 		movl	%eax, 12(%esp)
 4879 256b 8B451C   		movl	28(%ebp), %eax
 4880 256e 89442408 		movl	%eax, 8(%esp)
 4881 2572 C7442404 		movl	$LC107, 4(%esp)
GAS LISTING d:/MTK/MTK2503/MTK2503/11CW1418SP4_03_CORETEK03AE_11C_V1_GPRS_MMI/plutommi/Customer/ResGenerator/gcctmp/cc63daaa.s 			page 76


 4881      A3240000 
 4882 257a 8B45F8   		movl	-8(%ebp), %eax
 4883 257d 890424   		movl	%eax, (%esp)
 4884 2580 E8000000 		call	_fprintf
 4884      00
1634:mtk_resgenerator.cpp ****             for(i = 0; i < nSize; i++)
 4886              	LM207:
 4887 2585 C745F400 		movl	$0, -12(%ebp)
 4887      000000
 4888              	L103:
 4889 258c 0FB745FE 		movzwl	-2(%ebp), %eax
 4890 2590 3945F4   		cmpl	%eax, -12(%ebp)
 4891 2593 7C02     		jl	L106
 4892 2595 EB2B     		jmp	L104
 4893              	L106:
1635:mtk_resgenerator.cpp ****             {
1636:mtk_resgenerator.cpp ****                 fprintf(pFile,"\t{%d},\n", pMap[i].Num);
 4895              	LM208:
 4896 2597 8B45F4   		movl	-12(%ebp), %eax
 4897 259a 8D1400   		leal	(%eax,%eax), %edx
 4898 259d 8B4508   		movl	8(%ebp), %eax
 4899 25a0 0FB70410 		movzwl	(%eax,%edx), %eax
 4900 25a4 89442408 		movl	%eax, 8(%esp)
 4901 25a8 C7442404 		movl	$LC108, 4(%esp)
 4901      B4240000 
 4902 25b0 8B45F8   		movl	-8(%ebp), %eax
 4903 25b3 890424   		movl	%eax, (%esp)
 4904 25b6 E8000000 		call	_fprintf
 4904      00
 4906              	LM209:
 4907 25bb 8D45F4   		leal	-12(%ebp), %eax
 4908 25be FF00     		incl	(%eax)
 4909 25c0 EBCA     		jmp	L103
 4910              	L104:
1637:mtk_resgenerator.cpp ****             }
1638:mtk_resgenerator.cpp ****             fprintf(pFile, "};\n\n\n\n");
 4912              	LM210:
 4913 25c2 C7442404 		movl	$LC55, 4(%esp)
 4913      1C150000 
 4914 25ca 8B45F8   		movl	-8(%ebp), %eax
 4915 25cd 890424   		movl	%eax, (%esp)
 4916 25d0 E8000000 		call	_fprintf
 4916      00
 4917              	LBE31:
 4918 25d5 EB21     		jmp	L107
 4919              	L102:
1639:mtk_resgenerator.cpp ****         }
1640:mtk_resgenerator.cpp ****         else
1641:mtk_resgenerator.cpp ****         {
1642:mtk_resgenerator.cpp ****             fprintf(pFile, "const %s %s[1];\n", str_CustType, str_IdMap);
 4921              	LM211:
 4922 25d7 8B4510   		movl	16(%ebp), %eax
 4923 25da 8944240C 		movl	%eax, 12(%esp)
 4924 25de 8B451C   		movl	28(%ebp), %eax
 4925 25e1 89442408 		movl	%eax, 8(%esp)
 4926 25e5 C7442404 		movl	$LC109, 4(%esp)
 4926      BC240000 
GAS LISTING d:/MTK/MTK2503/MTK2503/11CW1418SP4_03_CORETEK03AE_11C_V1_GPRS_MMI/plutommi/Customer/ResGenerator/gcctmp/cc63daaa.s 			page 77


 4927 25ed 8B45F8   		movl	-8(%ebp), %eax
 4928 25f0 890424   		movl	%eax, (%esp)
 4929 25f3 E8000000 		call	_fprintf
 4929      00
 4930              	L107:
1643:mtk_resgenerator.cpp ****         }
1644:mtk_resgenerator.cpp ****         fclose(pFile);
 4932              	LM212:
 4933              	LBE30:
 4934 25f8 8B45F8   		movl	-8(%ebp), %eax
 4935 25fb 890424   		movl	%eax, (%esp)
 4936 25fe E8000000 		call	_fclose
 4936      00
1645:mtk_resgenerator.cpp ****     }
1646:mtk_resgenerator.cpp **** }
 4938              	LM213:
 4939              	L100:
 4940 2603 C9       		leave
 4941 2604 C3       		ret
 4942              	LBE29:
 4943              	LBE28:
 4944              	LBE27:
 4952              	Lscope12:
 4954 2605 90909090 		.align 32
 4954      90909090 
 4954      90909090 
 4954      90909090 
 4954      90909090 
 4955              	LC110:
 4956 2620 47656E65 		.ascii "GenerateImageMapFile(): File output: CustImageMap.c CustImageMapExt.c\0"
 4956      72617465 
 4956      496D6167 
 4956      654D6170 
 4956      46696C65 
 4957 2666 90909090 		.align 32
 4957      90909090 
 4957      90909090 
 4957      90909090 
 4957      90909090 
 4958              	LC111:
 4959 2680 2E2E5C2E 		.ascii "..\\..\\Customer\\CustResource\\CustImgMap.c\0"
 4959      2E5C4375 
 4959      73746F6D 
 4959      65725C43 
 4959      75737452 
 4960              	LC112:
 4961 26a9 43555354 		.ascii "CUSTOM_IMAGE_MAP\0"
 4961      4F4D5F49 
 4961      4D414745 
 4961      5F4D4150 
 4961      00
 4962              	LC113:
 4963 26ba 43757272 		.ascii "CurrMaxImageId\0"
 4963      4D617849 
 4963      6D616765 
 4963      496400
 4964              	LC114:
GAS LISTING d:/MTK/MTK2503/MTK2503/11CW1418SP4_03_CORETEK03AE_11C_V1_GPRS_MMI/plutommi/Customer/ResGenerator/gcctmp/cc63daaa.s 			page 78


 4965 26c9 43757374 		.ascii "CustImageMap.c\0"
 4965      496D6167 
 4965      654D6170 
 4965      2E6300
 4966              	LC115:
 4967 26d8 496D6167 		.ascii "ImageIdMap\0"
 4967      6549644D 
 4967      617000
 4968 26e3 90909090 		.align 32
 4968      90909090 
 4968      90909090 
 4968      90909090 
 4968      90909090 
 4969              	LC116:
 4970 2700 2E2E5C2E 		.ascii "..\\..\\Customer\\CustResource\\CustImgMapExt.c\0"
 4970      2E5C4375 
 4970      73746F6D 
 4970      65725C43 
 4970      75737452 
 4971              	LC117:
 4972 272c 43757272 		.ascii "CurrMaxImageIdEXT\0"
 4972      4D617849 
 4972      6D616765 
 4972      49644558 
 4972      5400
 4973              	LC118:
 4974 273e 43757374 		.ascii "CustImageMapExt.c\0"
 4974      496D6167 
 4974      654D6170 
 4974      4578742E 
 4974      6300
 4975              	LC119:
 4976 2750 496D6167 		.ascii "ImageIdMapEXT\0"
 4976      6549644D 
 4976      61704558 
 4976      5400
 4977              		.align 2
 4980              	__Z20GenerateImageMapFilev:
1647:mtk_resgenerator.cpp **** 
1648:mtk_resgenerator.cpp **** 
1649:mtk_resgenerator.cpp **** /*****************************************************************************
1650:mtk_resgenerator.cpp **** * FUNCTION
1651:mtk_resgenerator.cpp **** *  GenerateImageMapFile
1652:mtk_resgenerator.cpp **** * DESCRIPTION
1653:mtk_resgenerator.cpp **** *  generate image ID map file
1654:mtk_resgenerator.cpp **** * PARAMETERS
1655:mtk_resgenerator.cpp **** *  void
1656:mtk_resgenerator.cpp **** * RETURNS
1657:mtk_resgenerator.cpp **** *  void
1658:mtk_resgenerator.cpp **** *****************************************************************************/
1659:mtk_resgenerator.cpp **** static void GenerateImageMapFile(void)
1660:mtk_resgenerator.cpp **** {
 4982              	LM214:
 4983 275e 55       		pushl	%ebp
 4984 275f 89E5     		movl	%esp, %ebp
 4985 2761 83EC28   		subl	$40, %esp
1661:mtk_resgenerator.cpp ****     /*----------------------------------------------------------------*/
GAS LISTING d:/MTK/MTK2503/MTK2503/11CW1418SP4_03_CORETEK03AE_11C_V1_GPRS_MMI/plutommi/Customer/ResGenerator/gcctmp/cc63daaa.s 			page 79


1662:mtk_resgenerator.cpp ****     /* Local Variables                                                */
1663:mtk_resgenerator.cpp ****     /*----------------------------------------------------------------*/
1664:mtk_resgenerator.cpp **** 
1665:mtk_resgenerator.cpp ****     /*----------------------------------------------------------------*/
1666:mtk_resgenerator.cpp ****     /* Code Body                                                      */
1667:mtk_resgenerator.cpp ****     /*----------------------------------------------------------------*/
1668:mtk_resgenerator.cpp ****     RESGEN_LOG_V("GenerateImageMapFile(): File output: CustImageMap.c CustImageMapExt.c");
 4987              	LM215:
 4988              	LBB32:
 4989 2764 C7442408 		movl	$LC110, 8(%esp)
 4989      20260000 
 4990 276c C7442404 		movl	$LC1, 4(%esp)
 4990      3E000000 
 4991 2774 C7042401 		movl	$1, (%esp)
 4991      000000
 4992 277b E8000000 		call	_reslog_adaptor_log
 4992      00
1669:mtk_resgenerator.cpp ****     GenerateMapFile_Ext(
 4994              	LM216:
 4995 2780 C7442418 		movl	$LC111, 24(%esp)
 4995      80260000 
 4996 2788 C7442414 		movl	$LC112, 20(%esp)
 4996      A9260000 
 4997 2790 C7442410 		movl	$LC113, 16(%esp)
 4997      BA260000 
 4998 2798 C744240C 		movl	$LC114, 12(%esp)
 4998      C9260000 
 4999 27a0 C7442408 		movl	$LC115, 8(%esp)
 4999      D8260000 
 5000 27a8 0FB70500 		movzwl	_CurrMaxImageId, %eax
 5000      000000
 5001 27af 89442404 		movl	%eax, 4(%esp)
 5002 27b3 C7042400 		movl	$_ImageIdMap, (%esp)
 5002      000000
 5003 27ba E80FFDFF 		call	__Z19GenerateMapFile_ExtP13CUSTOM_ID_MAPtPcS1_S1_S1_S1_
 5003      FF
1670:mtk_resgenerator.cpp ****         (CUSTOM_ID_MAP *)ImageIdMap,
1671:mtk_resgenerator.cpp ****         CurrMaxImageId,
1672:mtk_resgenerator.cpp ****         "ImageIdMap",
1673:mtk_resgenerator.cpp ****         "CustImageMap.c",
1674:mtk_resgenerator.cpp ****         "CurrMaxImageId",
1675:mtk_resgenerator.cpp ****         "CUSTOM_IMAGE_MAP",
1676:mtk_resgenerator.cpp ****         IMG_MAP_FILENAME);
1677:mtk_resgenerator.cpp ****     GenerateMapFile_Ext(
 5005              	LM217:
 5006 27bf C7442418 		movl	$LC116, 24(%esp)
 5006      00270000 
 5007 27c7 C7442414 		movl	$LC112, 20(%esp)
 5007      A9260000 
 5008 27cf C7442410 		movl	$LC117, 16(%esp)
 5008      2C270000 
 5009 27d7 C744240C 		movl	$LC118, 12(%esp)
 5009      3E270000 
 5010 27df C7442408 		movl	$LC119, 8(%esp)
 5010      50270000 
 5011 27e7 0FB70500 		movzwl	_CurrMaxImageIdEXT, %eax
 5011      000000
GAS LISTING d:/MTK/MTK2503/MTK2503/11CW1418SP4_03_CORETEK03AE_11C_V1_GPRS_MMI/plutommi/Customer/ResGenerator/gcctmp/cc63daaa.s 			page 80


 5012 27ee 89442404 		movl	%eax, 4(%esp)
 5013 27f2 C7042400 		movl	$_ImageIdMapEXT, (%esp)
 5013      000000
 5014 27f9 E8D0FCFF 		call	__Z19GenerateMapFile_ExtP13CUSTOM_ID_MAPtPcS1_S1_S1_S1_
 5014      FF
1678:mtk_resgenerator.cpp ****         (CUSTOM_ID_MAP *)ImageIdMapEXT,
1679:mtk_resgenerator.cpp ****         CurrMaxImageIdEXT,
1680:mtk_resgenerator.cpp ****         "ImageIdMapEXT",
1681:mtk_resgenerator.cpp ****         "CustImageMapExt.c",
1682:mtk_resgenerator.cpp ****         "CurrMaxImageIdEXT",
1683:mtk_resgenerator.cpp ****         "CUSTOM_IMAGE_MAP",
1684:mtk_resgenerator.cpp ****         IMG_MAP_FILENAME_EXT);
1685:mtk_resgenerator.cpp **** }
 5016              	LM218:
 5017 27fe C9       		leave
 5018 27ff C3       		ret
 5019              	LBE32:
 5020              	Lscope13:
 5022              		.align 32
 5023              	LC120:
 5024 2800 47656E65 		.ascii "GenerateAudioMapFile(): File output: CustAdoMap.c CustAdoMapExt.c\0"
 5024      72617465 
 5024      41756469 
 5024      6F4D6170 
 5024      46696C65 
 5025 2842 90909090 		.align 32
 5025      90909090 
 5025      90909090 
 5025      90909090 
 5025      90909090 
 5026              	LC121:
 5027 2860 2E2E5C2E 		.ascii "..\\..\\Customer\\CustResource\\CustAdoMap.c\0"
 5027      2E5C4375 
 5027      73746F6D 
 5027      65725C43 
 5027      75737452 
 5028              	LC122:
 5029 2889 43555354 		.ascii "CUSTOM_AUDIO_MAP\0"
 5029      4F4D5F41 
 5029      5544494F 
 5029      5F4D4150 
 5029      00
 5030              	LC123:
 5031 289a 43757272 		.ascii "CurrMaxAudioId\0"
 5031      4D617841 
 5031      7564696F 
 5031      496400
 5032              	LC124:
 5033 28a9 43757374 		.ascii "CustAudioMap.c\0"
 5033      41756469 
 5033      6F4D6170 
 5033      2E6300
 5034              	LC125:
 5035 28b8 41756469 		.ascii "AudioIdMap\0"
 5035      6F49644D 
 5035      617000
 5036 28c3 90909090 		.align 32
GAS LISTING d:/MTK/MTK2503/MTK2503/11CW1418SP4_03_CORETEK03AE_11C_V1_GPRS_MMI/plutommi/Customer/ResGenerator/gcctmp/cc63daaa.s 			page 81


 5036      90909090 
 5036      90909090 
 5036      90909090 
 5036      90909090 
 5037              	LC126:
 5038 28e0 2E2E5C2E 		.ascii "..\\..\\Customer\\CustResource\\CustAdoMapExt.c\0"
 5038      2E5C4375 
 5038      73746F6D 
 5038      65725C43 
 5038      75737452 
 5039              	LC127:
 5040 290c 43757272 		.ascii "CurrMaxAudioIdEXT\0"
 5040      4D617841 
 5040      7564696F 
 5040      49644558 
 5040      5400
 5041              	LC128:
 5042 291e 43757374 		.ascii "CustAudioMapExt.c\0"
 5042      41756469 
 5042      6F4D6170 
 5042      4578742E 
 5042      6300
 5043              	LC129:
 5044 2930 41756469 		.ascii "AudioIdMapEXT\0"
 5044      6F49644D 
 5044      61704558 
 5044      5400
 5045              		.align 2
 5048              	__Z20GenerateAudioMapFilev:
1686:mtk_resgenerator.cpp **** 
1687:mtk_resgenerator.cpp **** 
1688:mtk_resgenerator.cpp **** /*****************************************************************************
1689:mtk_resgenerator.cpp **** * FUNCTION
1690:mtk_resgenerator.cpp **** *  GenerateAudioMapFile
1691:mtk_resgenerator.cpp **** * DESCRIPTION
1692:mtk_resgenerator.cpp **** *  generate audio ID map file
1693:mtk_resgenerator.cpp **** * PARAMETERS
1694:mtk_resgenerator.cpp **** *  void
1695:mtk_resgenerator.cpp **** * RETURNS
1696:mtk_resgenerator.cpp **** *  void
1697:mtk_resgenerator.cpp **** *****************************************************************************/
1698:mtk_resgenerator.cpp **** static void GenerateAudioMapFile(void)
1699:mtk_resgenerator.cpp **** {
 5050              	LM219:
 5051 293e 55       		pushl	%ebp
 5052 293f 89E5     		movl	%esp, %ebp
 5053 2941 83EC28   		subl	$40, %esp
1700:mtk_resgenerator.cpp ****     /*----------------------------------------------------------------*/
1701:mtk_resgenerator.cpp ****     /* Local Variables                                                */
1702:mtk_resgenerator.cpp ****     /*----------------------------------------------------------------*/
1703:mtk_resgenerator.cpp **** 
1704:mtk_resgenerator.cpp ****     /*----------------------------------------------------------------*/
1705:mtk_resgenerator.cpp ****     /* Code Body                                                      */
1706:mtk_resgenerator.cpp ****     /*----------------------------------------------------------------*/
1707:mtk_resgenerator.cpp ****     RESGEN_LOG_V("GenerateAudioMapFile(): File output: CustAdoMap.c CustAdoMapExt.c");
 5055              	LM220:
 5056              	LBB33:
GAS LISTING d:/MTK/MTK2503/MTK2503/11CW1418SP4_03_CORETEK03AE_11C_V1_GPRS_MMI/plutommi/Customer/ResGenerator/gcctmp/cc63daaa.s 			page 82


 5057 2944 C7442408 		movl	$LC120, 8(%esp)
 5057      00280000 
 5058 294c C7442404 		movl	$LC1, 4(%esp)
 5058      3E000000 
 5059 2954 C7042401 		movl	$1, (%esp)
 5059      000000
 5060 295b E8000000 		call	_reslog_adaptor_log
 5060      00
1708:mtk_resgenerator.cpp **** 
1709:mtk_resgenerator.cpp ****     GenerateMapFile_Ext(
 5062              	LM221:
 5063 2960 C7442418 		movl	$LC121, 24(%esp)
 5063      60280000 
 5064 2968 C7442414 		movl	$LC122, 20(%esp)
 5064      89280000 
 5065 2970 C7442410 		movl	$LC123, 16(%esp)
 5065      9A280000 
 5066 2978 C744240C 		movl	$LC124, 12(%esp)
 5066      A9280000 
 5067 2980 C7442408 		movl	$LC125, 8(%esp)
 5067      B8280000 
 5068 2988 0FB70500 		movzwl	_CurrMaxAudioId, %eax
 5068      000000
 5069 298f 89442404 		movl	%eax, 4(%esp)
 5070 2993 C7042400 		movl	$_AudioIdMap, (%esp)
 5070      000000
 5071 299a E82FFBFF 		call	__Z19GenerateMapFile_ExtP13CUSTOM_ID_MAPtPcS1_S1_S1_S1_
 5071      FF
1710:mtk_resgenerator.cpp ****         (CUSTOM_ID_MAP *)AudioIdMap,
1711:mtk_resgenerator.cpp ****         CurrMaxAudioId,
1712:mtk_resgenerator.cpp ****         "AudioIdMap",
1713:mtk_resgenerator.cpp ****         "CustAudioMap.c",
1714:mtk_resgenerator.cpp ****         "CurrMaxAudioId",
1715:mtk_resgenerator.cpp ****         "CUSTOM_AUDIO_MAP",
1716:mtk_resgenerator.cpp ****         ADO_MAP_FILENAME);
1717:mtk_resgenerator.cpp ****     GenerateMapFile_Ext(
 5073              	LM222:
 5074 299f C7442418 		movl	$LC126, 24(%esp)
 5074      E0280000 
 5075 29a7 C7442414 		movl	$LC122, 20(%esp)
 5075      89280000 
 5076 29af C7442410 		movl	$LC127, 16(%esp)
 5076      0C290000 
 5077 29b7 C744240C 		movl	$LC128, 12(%esp)
 5077      1E290000 
 5078 29bf C7442408 		movl	$LC129, 8(%esp)
 5078      30290000 
 5079 29c7 0FB70500 		movzwl	_CurrMaxAudioIdEXT, %eax
 5079      000000
 5080 29ce 89442404 		movl	%eax, 4(%esp)
 5081 29d2 C7042400 		movl	$_AudioIdMapEXT, (%esp)
 5081      000000
 5082 29d9 E8F0FAFF 		call	__Z19GenerateMapFile_ExtP13CUSTOM_ID_MAPtPcS1_S1_S1_S1_
 5082      FF
1718:mtk_resgenerator.cpp ****         (CUSTOM_ID_MAP *)AudioIdMapEXT,
1719:mtk_resgenerator.cpp ****         CurrMaxAudioIdEXT,
1720:mtk_resgenerator.cpp ****         "AudioIdMapEXT",
GAS LISTING d:/MTK/MTK2503/MTK2503/11CW1418SP4_03_CORETEK03AE_11C_V1_GPRS_MMI/plutommi/Customer/ResGenerator/gcctmp/cc63daaa.s 			page 83


1721:mtk_resgenerator.cpp ****         "CustAudioMapExt.c",
1722:mtk_resgenerator.cpp ****         "CurrMaxAudioIdEXT",
1723:mtk_resgenerator.cpp ****         "CUSTOM_AUDIO_MAP",
1724:mtk_resgenerator.cpp ****         ADO_MAP_FILENAME_EXT);
1725:mtk_resgenerator.cpp **** }
 5084              	LM223:
 5085 29de C9       		leave
 5086 29df C3       		ret
 5087              	LBE33:
 5088              	Lscope14:
 5090              		.align 32
 5091              	LC130:
 5092 29e0 47656E65 		.ascii "GenerateFontMapFile(): File output: CustFontMap.c CustFontMapExt.c\0"
 5092      72617465 
 5092      466F6E74 
 5092      4D617046 
 5092      696C6528 
 5093 2a23 90909090 		.align 32
 5093      90909090 
 5093      90909090 
 5093      90909090 
 5093      90909090 
 5094              	LC131:
 5095 2a40 2E2E5C2E 		.ascii "..\\..\\Customer\\CustResource\\CustFontMapExt.c\0"
 5095      2E5C4375 
 5095      73746F6D 
 5095      65725C43 
 5095      75737452 
 5096              	LC132:
 5097 2a6d 43555354 		.ascii "CUSTOM_FONT_MAP\0"
 5097      4F4D5F46 
 5097      4F4E545F 
 5097      4D415000 
 5098              	LC133:
 5099 2a7d 6D746B5F 		.ascii "mtk_CurrMaxFontIdEXT\0"
 5099      43757272 
 5099      4D617846 
 5099      6F6E7449 
 5099      64455854 
 5100              	LC134:
 5101 2a92 43757374 		.ascii "CustFontMapExt.c\0"
 5101      466F6E74 
 5101      4D617045 
 5101      78742E63 
 5101      00
 5102              	LC135:
 5103 2aa3 6D746B5F 		.ascii "mtk_CustFontMapEXT\0"
 5103      43757374 
 5103      466F6E74 
 5103      4D617045 
 5103      585400
 5104              		.align 2
 5107              	__Z19GenerateFontMapFilev:
1726:mtk_resgenerator.cpp **** 
1727:mtk_resgenerator.cpp **** 
1728:mtk_resgenerator.cpp **** 
1729:mtk_resgenerator.cpp **** /*****************************************************************************
GAS LISTING d:/MTK/MTK2503/MTK2503/11CW1418SP4_03_CORETEK03AE_11C_V1_GPRS_MMI/plutommi/Customer/ResGenerator/gcctmp/cc63daaa.s 			page 84


1730:mtk_resgenerator.cpp **** * FUNCTION
1731:mtk_resgenerator.cpp **** *  GenerateFontMapFile
1732:mtk_resgenerator.cpp **** * DESCRIPTION
1733:mtk_resgenerator.cpp **** *  generate Font ID map file
1734:mtk_resgenerator.cpp **** * PARAMETERS
1735:mtk_resgenerator.cpp **** *  void
1736:mtk_resgenerator.cpp **** * RETURNS
1737:mtk_resgenerator.cpp **** *  void
1738:mtk_resgenerator.cpp **** *****************************************************************************/
1739:mtk_resgenerator.cpp **** static void GenerateFontMapFile(void)
1740:mtk_resgenerator.cpp **** {
 5109              	LM224:
 5110 2ab6 55       		pushl	%ebp
 5111 2ab7 89E5     		movl	%esp, %ebp
 5112 2ab9 83EC28   		subl	$40, %esp
1741:mtk_resgenerator.cpp ****     /*----------------------------------------------------------------*/
1742:mtk_resgenerator.cpp ****     /* Local Variables                                                */
1743:mtk_resgenerator.cpp ****     /*----------------------------------------------------------------*/
1744:mtk_resgenerator.cpp **** 
1745:mtk_resgenerator.cpp ****     /*----------------------------------------------------------------*/
1746:mtk_resgenerator.cpp ****     /* Code Body                                                      */
1747:mtk_resgenerator.cpp ****     /*----------------------------------------------------------------*/
1748:mtk_resgenerator.cpp ****     RESGEN_LOG_V("GenerateFontMapFile(): File output: CustFontMap.c CustFontMapExt.c");
 5114              	LM225:
 5115              	LBB34:
 5116 2abc C7442408 		movl	$LC130, 8(%esp)
 5116      E0290000 
 5117 2ac4 C7442404 		movl	$LC1, 4(%esp)
 5117      3E000000 
 5118 2acc C7042401 		movl	$1, (%esp)
 5118      000000
 5119 2ad3 E8000000 		call	_reslog_adaptor_log
 5119      00
1749:mtk_resgenerator.cpp **** 
1750:mtk_resgenerator.cpp ****     GenerateMapFile_Ext(
 5121              	LM226:
 5122 2ad8 C7442418 		movl	$LC131, 24(%esp)
 5122      402A0000 
 5123 2ae0 C7442414 		movl	$LC132, 20(%esp)
 5123      6D2A0000 
 5124 2ae8 C7442410 		movl	$LC133, 16(%esp)
 5124      7D2A0000 
 5125 2af0 C744240C 		movl	$LC134, 12(%esp)
 5125      922A0000 
 5126 2af8 C7442408 		movl	$LC135, 8(%esp)
 5126      A32A0000 
 5127 2b00 0FB70500 		movzwl	_CurrMaxFontIdEXT, %eax
 5127      000000
 5128 2b07 89442404 		movl	%eax, 4(%esp)
 5129 2b0b C7042400 		movl	$_FontIdMapEXT, (%esp)
 5129      000000
 5130 2b12 E8B7F9FF 		call	__Z19GenerateMapFile_ExtP13CUSTOM_ID_MAPtPcS1_S1_S1_S1_
 5130      FF
1751:mtk_resgenerator.cpp ****         (CUSTOM_ID_MAP *)FontIdMapEXT,
1752:mtk_resgenerator.cpp ****         CurrMaxFontIdEXT,
1753:mtk_resgenerator.cpp ****         "mtk_CustFontMapEXT",
1754:mtk_resgenerator.cpp ****         "CustFontMapExt.c",
GAS LISTING d:/MTK/MTK2503/MTK2503/11CW1418SP4_03_CORETEK03AE_11C_V1_GPRS_MMI/plutommi/Customer/ResGenerator/gcctmp/cc63daaa.s 			page 85


1755:mtk_resgenerator.cpp ****         "mtk_CurrMaxFontIdEXT",
1756:mtk_resgenerator.cpp ****         "CUSTOM_FONT_MAP",
1757:mtk_resgenerator.cpp ****         FONT_MAP_FILENAME_EXT);
1758:mtk_resgenerator.cpp **** }
 5132              	LM227:
 5133 2b17 C9       		leave
 5134 2b18 C3       		ret
 5135              	LBE34:
 5136              	Lscope15:
 5138              	LC136:
 5139 2b19 6100     		.ascii "a\0"
 5140              	LC137:
 5141 2b1b 636F6E73 		.ascii "const unsigned short %s=%d;\12\0"
 5141      7420756E 
 5141      7369676E 
 5141      65642073 
 5141      686F7274 
 5142              	LC138:
 5143 2b38 097B2564 		.ascii "\11{%d,%d,%d},\12\0"
 5143      2C25642C 
 5143      25647D2C 
 5143      0A00
 5144              	LC139:
 5145 2b46 25732025 		.ascii "%s %s[1];\0"
 5145      735B315D 
 5145      3B00
 5146              		.align 2
 5155              	__Z25GenerateMapSearchFile_ExtP20CUSTOM_ID_SEARCH_MAPtPcS1_S1_S1_:
1759:mtk_resgenerator.cpp **** 
1760:mtk_resgenerator.cpp **** /*****************************************************************************
1761:mtk_resgenerator.cpp **** * FUNCTION
1762:mtk_resgenerator.cpp **** *  GenerateMapSearchFile_Ext
1763:mtk_resgenerator.cpp **** * DESCRIPTION
1764:mtk_resgenerator.cpp **** *  generate ID search map file
1765:mtk_resgenerator.cpp **** * PARAMETERS
1766:mtk_resgenerator.cpp **** *  pMap                [IN]    ID search map
1767:mtk_resgenerator.cpp **** *  nSize               [IN]    size
1768:mtk_resgenerator.cpp **** *  str_CurrMaxSearchId [IN]    output variable name
1769:mtk_resgenerator.cpp **** *  str_IdSearchMap     [IN]    output variable name
1770:mtk_resgenerator.cpp **** *  str_CustType        [IN]    output variable name
1771:mtk_resgenerator.cpp **** *  curr_map_filename   [IN]    output file name
1772:mtk_resgenerator.cpp **** * RETURNS
1773:mtk_resgenerator.cpp **** *  void
1774:mtk_resgenerator.cpp **** *****************************************************************************/
1775:mtk_resgenerator.cpp **** static void GenerateMapSearchFile_Ext(
1776:mtk_resgenerator.cpp ****                                       CUSTOM_ID_SEARCH_MAP *pMap,
1777:mtk_resgenerator.cpp ****                                       U16 nSize,
1778:mtk_resgenerator.cpp ****                                       char *str_CurrMaxSearchId,
1779:mtk_resgenerator.cpp ****                                       char *str_IdSearchMap,
1780:mtk_resgenerator.cpp ****                                       char *str_CustType,
1781:mtk_resgenerator.cpp ****                                       char *curr_map_filename)
1782:mtk_resgenerator.cpp **** {
 5157              	LM228:
 5158 2b50 55       		pushl	%ebp
 5159 2b51 89E5     		movl	%esp, %ebp
 5160 2b53 83EC28   		subl	$40, %esp
 5161 2b56 8B450C   		movl	12(%ebp), %eax
GAS LISTING d:/MTK/MTK2503/MTK2503/11CW1418SP4_03_CORETEK03AE_11C_V1_GPRS_MMI/plutommi/Customer/ResGenerator/gcctmp/cc63daaa.s 			page 86


 5162 2b59 668945FE 		movw	%ax, -2(%ebp)
1783:mtk_resgenerator.cpp ****     /*----------------------------------------------------------------*/
1784:mtk_resgenerator.cpp ****     /* Local Variables                                                */
1785:mtk_resgenerator.cpp ****     /*----------------------------------------------------------------*/
1786:mtk_resgenerator.cpp ****     FILE *pFile;
1787:mtk_resgenerator.cpp ****     int i;
1788:mtk_resgenerator.cpp **** 
1789:mtk_resgenerator.cpp ****     /*----------------------------------------------------------------*/
1790:mtk_resgenerator.cpp ****     /* Code Body                                                      */
1791:mtk_resgenerator.cpp ****     /*----------------------------------------------------------------*/
1792:mtk_resgenerator.cpp ****     if(pFile = fopen(curr_map_filename, "a"))
 5164              	LM229:
 5165              	LBB35:
 5166 2b5d C7442404 		movl	$LC136, 4(%esp)
 5166      192B0000 
 5167 2b65 8B451C   		movl	28(%ebp), %eax
 5168 2b68 890424   		movl	%eax, (%esp)
 5169 2b6b E8000000 		call	_fopen
 5169      00
 5170 2b70 8945F8   		movl	%eax, -8(%ebp)
 5171 2b73 837DF800 		cmpl	$0, -8(%ebp)
 5172 2b77 0F840201 		je	L111
 5172      0000
1793:mtk_resgenerator.cpp ****     {
1794:mtk_resgenerator.cpp ****         fprintf(pFile, "const unsigned short %s=%d;\n", str_CurrMaxSearchId, nSize);
 5174              	LM230:
 5175 2b7d 0FB745FE 		movzwl	-2(%ebp), %eax
 5176 2b81 8944240C 		movl	%eax, 12(%esp)
 5177 2b85 8B4510   		movl	16(%ebp), %eax
 5178 2b88 89442408 		movl	%eax, 8(%esp)
 5179 2b8c C7442404 		movl	$LC137, 4(%esp)
 5179      1B2B0000 
 5180 2b94 8B45F8   		movl	-8(%ebp), %eax
 5181 2b97 890424   		movl	%eax, (%esp)
 5182 2b9a E8000000 		call	_fprintf
 5182      00
1795:mtk_resgenerator.cpp **** 
1796:mtk_resgenerator.cpp ****         /* writing the search map array inside the file. */
1797:mtk_resgenerator.cpp ****         if(nSize)
 5184              	LM231:
 5185 2b9f 66837DFE 		cmpw	$0, -2(%ebp)
 5185      00
 5186 2ba4 0F84A900 		je	L113
 5186      0000
1798:mtk_resgenerator.cpp ****         {
1799:mtk_resgenerator.cpp ****             fprintf(pFile, "const %s %s[]={\n", str_CustType, str_IdSearchMap);
 5188              	LM232:
 5189 2baa 8B4514   		movl	20(%ebp), %eax
 5190 2bad 8944240C 		movl	%eax, 12(%esp)
 5191 2bb1 8B4518   		movl	24(%ebp), %eax
 5192 2bb4 89442408 		movl	%eax, 8(%esp)
 5193 2bb8 C7442404 		movl	$LC107, 4(%esp)
 5193      A3240000 
 5194 2bc0 8B45F8   		movl	-8(%ebp), %eax
 5195 2bc3 890424   		movl	%eax, (%esp)
 5196 2bc6 E8000000 		call	_fprintf
 5196      00
GAS LISTING d:/MTK/MTK2503/MTK2503/11CW1418SP4_03_CORETEK03AE_11C_V1_GPRS_MMI/plutommi/Customer/ResGenerator/gcctmp/cc63daaa.s 			page 87


1800:mtk_resgenerator.cpp ****             for(i = 0; i < nSize; i++)
 5198              	LM233:
 5199 2bcb C745F400 		movl	$0, -12(%ebp)
 5199      000000
 5200              	L114:
 5201 2bd2 0FB745FE 		movzwl	-2(%ebp), %eax
 5202 2bd6 3945F4   		cmpl	%eax, -12(%ebp)
 5203 2bd9 7C02     		jl	L117
 5204 2bdb EB61     		jmp	L115
 5205              	L117:
1801:mtk_resgenerator.cpp ****             {
1802:mtk_resgenerator.cpp ****                 fprintf(pFile, "\t{%d,%d,%d},\n", pMap[i].minId, pMap[i].maxId, pMap[i].index);
 5207              	LM234:
 5208 2bdd 8B55F4   		movl	-12(%ebp), %edx
 5209 2be0 89D0     		movl	%edx, %eax
 5210 2be2 01C0     		addl	%eax, %eax
 5211 2be4 01D0     		addl	%edx, %eax
 5212 2be6 8D1400   		leal	(%eax,%eax), %edx
 5213 2be9 8B4508   		movl	8(%ebp), %eax
 5214 2bec 0FB74410 		movzwl	4(%eax,%edx), %eax
 5214      04
 5215 2bf1 89442410 		movl	%eax, 16(%esp)
 5216 2bf5 8B55F4   		movl	-12(%ebp), %edx
 5217 2bf8 89D0     		movl	%edx, %eax
 5218 2bfa 01C0     		addl	%eax, %eax
 5219 2bfc 01D0     		addl	%edx, %eax
 5220 2bfe 8D1400   		leal	(%eax,%eax), %edx
 5221 2c01 8B4508   		movl	8(%ebp), %eax
 5222 2c04 0FB74410 		movzwl	2(%eax,%edx), %eax
 5222      02
 5223 2c09 8944240C 		movl	%eax, 12(%esp)
 5224 2c0d 8B55F4   		movl	-12(%ebp), %edx
 5225 2c10 89D0     		movl	%edx, %eax
 5226 2c12 01C0     		addl	%eax, %eax
 5227 2c14 01D0     		addl	%edx, %eax
 5228 2c16 8D1400   		leal	(%eax,%eax), %edx
 5229 2c19 8B4508   		movl	8(%ebp), %eax
 5230 2c1c 0FB70410 		movzwl	(%eax,%edx), %eax
 5231 2c20 89442408 		movl	%eax, 8(%esp)
 5232 2c24 C7442404 		movl	$LC138, 4(%esp)
 5232      382B0000 
 5233 2c2c 8B45F8   		movl	-8(%ebp), %eax
 5234 2c2f 890424   		movl	%eax, (%esp)
 5235 2c32 E8000000 		call	_fprintf
 5235      00
 5237              	LM235:
 5238 2c37 8D45F4   		leal	-12(%ebp), %eax
 5239 2c3a FF00     		incl	(%eax)
 5240 2c3c EB94     		jmp	L114
 5241              	L115:
1803:mtk_resgenerator.cpp ****             }
1804:mtk_resgenerator.cpp ****             fprintf(pFile, "};\n\n\n\n");
 5243              	LM236:
 5244 2c3e C7442404 		movl	$LC55, 4(%esp)
 5244      1C150000 
 5245 2c46 8B45F8   		movl	-8(%ebp), %eax
 5246 2c49 890424   		movl	%eax, (%esp)
GAS LISTING d:/MTK/MTK2503/MTK2503/11CW1418SP4_03_CORETEK03AE_11C_V1_GPRS_MMI/plutommi/Customer/ResGenerator/gcctmp/cc63daaa.s 			page 88


 5247 2c4c E8000000 		call	_fprintf
 5247      00
 5248 2c51 EB21     		jmp	L118
 5249              	L113:
1805:mtk_resgenerator.cpp ****         }
1806:mtk_resgenerator.cpp ****         else
1807:mtk_resgenerator.cpp ****         {
1808:mtk_resgenerator.cpp ****             fprintf(pFile, "%s %s[1];", str_CustType, str_IdSearchMap);
 5251              	LM237:
 5252 2c53 8B4514   		movl	20(%ebp), %eax
 5253 2c56 8944240C 		movl	%eax, 12(%esp)
 5254 2c5a 8B4518   		movl	24(%ebp), %eax
 5255 2c5d 89442408 		movl	%eax, 8(%esp)
 5256 2c61 C7442404 		movl	$LC139, 4(%esp)
 5256      462B0000 
 5257 2c69 8B45F8   		movl	-8(%ebp), %eax
 5258 2c6c 890424   		movl	%eax, (%esp)
 5259 2c6f E8000000 		call	_fprintf
 5259      00
 5260              	L118:
1809:mtk_resgenerator.cpp ****         }
1810:mtk_resgenerator.cpp ****         fclose(pFile);
 5262              	LM238:
 5263 2c74 8B45F8   		movl	-8(%ebp), %eax
 5264 2c77 890424   		movl	%eax, (%esp)
 5265 2c7a E8000000 		call	_fclose
 5265      00
1811:mtk_resgenerator.cpp ****     }
1812:mtk_resgenerator.cpp **** }
 5267              	LM239:
 5268              	L111:
 5269 2c7f C9       		leave
 5270 2c80 C3       		ret
 5271              	LBE35:
 5277              	Lscope16:
 5279 2c81 90909090 		.align 32
 5279      90909090 
 5279      90909090 
 5279      90909090 
 5279      90909090 
 5280              	LC140:
 5281 2ca0 47656E65 		.ascii "GenerateImageMapSearchFile(): File output: CustImgMap.c CustImgMapExt.c\0"
 5281      72617465 
 5281      496D6167 
 5281      654D6170 
 5281      53656172 
 5282              	LC141:
 5283 2ce8 43555354 		.ascii "CUSTOM_IMAGE_SEARCH_MAP\0"
 5283      4F4D5F49 
 5283      4D414745 
 5283      5F534541 
 5283      5243485F 
 5284              	LC142:
 5285 2d00 496D6167 		.ascii "ImageIdSearchMap\0"
 5285      65496453 
 5285      65617263 
 5285      684D6170 
GAS LISTING d:/MTK/MTK2503/MTK2503/11CW1418SP4_03_CORETEK03AE_11C_V1_GPRS_MMI/plutommi/Customer/ResGenerator/gcctmp/cc63daaa.s 			page 89


 5285      00
 5286              	LC143:
 5287 2d11 43757272 		.ascii "CurrMaxSearchImageId\0"
 5287      4D617853 
 5287      65617263 
 5287      68496D61 
 5287      67654964 
 5288              	LC144:
 5289 2d26 496D6167 		.ascii "ImageIdSearchMapEXT\0"
 5289      65496453 
 5289      65617263 
 5289      684D6170 
 5289      45585400 
 5290              	LC145:
 5291 2d3a 43757272 		.ascii "CurrMaxSearchImageIdEXT\0"
 5291      4D617853 
 5291      65617263 
 5291      68496D61 
 5291      67654964 
 5292              		.align 2
 5295              	__Z26GenerateImageMapSearchFilev:
1813:mtk_resgenerator.cpp **** 
1814:mtk_resgenerator.cpp **** 
1815:mtk_resgenerator.cpp **** /*****************************************************************************
1816:mtk_resgenerator.cpp **** * FUNCTION
1817:mtk_resgenerator.cpp **** *  GenerateImageMapSearchFile
1818:mtk_resgenerator.cpp **** * DESCRIPTION
1819:mtk_resgenerator.cpp **** *  generate image search map file
1820:mtk_resgenerator.cpp **** * PARAMETERS
1821:mtk_resgenerator.cpp **** *  void
1822:mtk_resgenerator.cpp **** * RETURNS
1823:mtk_resgenerator.cpp **** *  void
1824:mtk_resgenerator.cpp **** *****************************************************************************/
1825:mtk_resgenerator.cpp **** static void GenerateImageMapSearchFile(void)
1826:mtk_resgenerator.cpp **** {
 5297              	LM240:
 5298 2d52 55       		pushl	%ebp
 5299 2d53 89E5     		movl	%esp, %ebp
 5300 2d55 83EC18   		subl	$24, %esp
1827:mtk_resgenerator.cpp ****     /*----------------------------------------------------------------*/
1828:mtk_resgenerator.cpp ****     /* Local Variables                                                */
1829:mtk_resgenerator.cpp ****     /*----------------------------------------------------------------*/
1830:mtk_resgenerator.cpp **** 
1831:mtk_resgenerator.cpp ****     /*----------------------------------------------------------------*/
1832:mtk_resgenerator.cpp ****     /* Code Body                                                      */
1833:mtk_resgenerator.cpp ****     /*----------------------------------------------------------------*/
1834:mtk_resgenerator.cpp ****     RESGEN_LOG_V("GenerateImageMapSearchFile(): File output: CustImgMap.c CustImgMapExt.c");
 5302              	LM241:
 5303              	LBB36:
 5304 2d58 C7442408 		movl	$LC140, 8(%esp)
 5304      A02C0000 
 5305 2d60 C7442404 		movl	$LC1, 4(%esp)
 5305      3E000000 
 5306 2d68 C7042401 		movl	$1, (%esp)
 5306      000000
 5307 2d6f E8000000 		call	_reslog_adaptor_log
 5307      00
GAS LISTING d:/MTK/MTK2503/MTK2503/11CW1418SP4_03_CORETEK03AE_11C_V1_GPRS_MMI/plutommi/Customer/ResGenerator/gcctmp/cc63daaa.s 			page 90


1835:mtk_resgenerator.cpp **** 
1836:mtk_resgenerator.cpp ****     GenerateMapSearchFile_Ext(
 5309              	LM242:
 5310 2d74 C7442414 		movl	$LC111, 20(%esp)
 5310      80260000 
 5311 2d7c C7442410 		movl	$LC141, 16(%esp)
 5311      E82C0000 
 5312 2d84 C744240C 		movl	$LC142, 12(%esp)
 5312      002D0000 
 5313 2d8c C7442408 		movl	$LC143, 8(%esp)
 5313      112D0000 
 5314 2d94 0FB70500 		movzwl	_CurrMaxSearchImageId, %eax
 5314      000000
 5315 2d9b 89442404 		movl	%eax, 4(%esp)
 5316 2d9f C7042400 		movl	$_ImageIdSearchMap, (%esp)
 5316      000000
 5317 2da6 E8A5FDFF 		call	__Z25GenerateMapSearchFile_ExtP20CUSTOM_ID_SEARCH_MAPtPcS1_S1_S1_
 5317      FF
1837:mtk_resgenerator.cpp ****         (CUSTOM_ID_SEARCH_MAP *)ImageIdSearchMap,
1838:mtk_resgenerator.cpp ****         CurrMaxSearchImageId,
1839:mtk_resgenerator.cpp ****         "CurrMaxSearchImageId",
1840:mtk_resgenerator.cpp ****         "ImageIdSearchMap",
1841:mtk_resgenerator.cpp ****         "CUSTOM_IMAGE_SEARCH_MAP",
1842:mtk_resgenerator.cpp ****         IMG_MAP_FILENAME);
1843:mtk_resgenerator.cpp ****     GenerateMapSearchFile_Ext(
 5319              	LM243:
 5320 2dab C7442414 		movl	$LC116, 20(%esp)
 5320      00270000 
 5321 2db3 C7442410 		movl	$LC141, 16(%esp)
 5321      E82C0000 
 5322 2dbb C744240C 		movl	$LC144, 12(%esp)
 5322      262D0000 
 5323 2dc3 C7442408 		movl	$LC145, 8(%esp)
 5323      3A2D0000 
 5324 2dcb 0FB70500 		movzwl	_CurrMaxSearchImageIdEXT, %eax
 5324      000000
 5325 2dd2 89442404 		movl	%eax, 4(%esp)
 5326 2dd6 C7042400 		movl	$_ImageIdSearchMapEXT, (%esp)
 5326      000000
 5327 2ddd E86EFDFF 		call	__Z25GenerateMapSearchFile_ExtP20CUSTOM_ID_SEARCH_MAPtPcS1_S1_S1_
 5327      FF
1844:mtk_resgenerator.cpp ****         (CUSTOM_ID_SEARCH_MAP *)ImageIdSearchMapEXT,
1845:mtk_resgenerator.cpp ****         CurrMaxSearchImageIdEXT,
1846:mtk_resgenerator.cpp ****         "CurrMaxSearchImageIdEXT",
1847:mtk_resgenerator.cpp ****         "ImageIdSearchMapEXT",
1848:mtk_resgenerator.cpp ****         "CUSTOM_IMAGE_SEARCH_MAP",
1849:mtk_resgenerator.cpp ****         IMG_MAP_FILENAME_EXT);
1850:mtk_resgenerator.cpp **** }
 5329              	LM244:
 5330 2de2 C9       		leave
 5331 2de3 C3       		ret
 5332              	LBE36:
 5333              	Lscope17:
 5335 2de4 90909090 		.align 32
 5335      90909090 
 5335      90909090 
 5335      90909090 
GAS LISTING d:/MTK/MTK2503/MTK2503/11CW1418SP4_03_CORETEK03AE_11C_V1_GPRS_MMI/plutommi/Customer/ResGenerator/gcctmp/cc63daaa.s 			page 91


 5335      90909090 
 5336              	LC146:
 5337 2e00 47656E65 		.ascii "GenerateAudioMapSearchFile(): File output: CustAdoMap.c CustAdoMapExt.c\0"
 5337      72617465 
 5337      41756469 
 5337      6F4D6170 
 5337      53656172 
 5338              	LC147:
 5339 2e48 43555354 		.ascii "CUSTOM_AUDIO_SEARCH_MAP\0"
 5339      4F4D5F41 
 5339      5544494F 
 5339      5F534541 
 5339      5243485F 
 5340              	LC148:
 5341 2e60 41756469 		.ascii "AudioIdSearchMap\0"
 5341      6F496453 
 5341      65617263 
 5341      684D6170 
 5341      00
 5342              	LC149:
 5343 2e71 43757272 		.ascii "CurrMaxSearchAudioId\0"
 5343      4D617853 
 5343      65617263 
 5343      68417564 
 5343      696F4964 
 5344              	LC150:
 5345 2e86 41756469 		.ascii "AudioIdSearchMapEXT\0"
 5345      6F496453 
 5345      65617263 
 5345      684D6170 
 5345      45585400 
 5346              	LC151:
 5347 2e9a 43757272 		.ascii "CurrMaxSearchAudioIdEXT\0"
 5347      4D617853 
 5347      65617263 
 5347      68417564 
 5347      696F4964 
 5348              		.align 2
 5351              	__Z26GenerateAudioMapSearchFilev:
1851:mtk_resgenerator.cpp **** 
1852:mtk_resgenerator.cpp **** 
1853:mtk_resgenerator.cpp **** /*****************************************************************************
1854:mtk_resgenerator.cpp **** * FUNCTION
1855:mtk_resgenerator.cpp **** *  GenerateAudioMapSearchFile
1856:mtk_resgenerator.cpp **** * DESCRIPTION
1857:mtk_resgenerator.cpp **** *  generate audio search map file
1858:mtk_resgenerator.cpp **** * PARAMETERS
1859:mtk_resgenerator.cpp **** *  void
1860:mtk_resgenerator.cpp **** * RETURNS
1861:mtk_resgenerator.cpp **** *  void
1862:mtk_resgenerator.cpp **** *****************************************************************************/
1863:mtk_resgenerator.cpp **** static void GenerateAudioMapSearchFile(void)
1864:mtk_resgenerator.cpp **** {
 5353              	LM245:
 5354 2eb2 55       		pushl	%ebp
 5355 2eb3 89E5     		movl	%esp, %ebp
 5356 2eb5 83EC18   		subl	$24, %esp
GAS LISTING d:/MTK/MTK2503/MTK2503/11CW1418SP4_03_CORETEK03AE_11C_V1_GPRS_MMI/plutommi/Customer/ResGenerator/gcctmp/cc63daaa.s 			page 92


1865:mtk_resgenerator.cpp ****     /*----------------------------------------------------------------*/
1866:mtk_resgenerator.cpp ****     /* Local Variables                                                */
1867:mtk_resgenerator.cpp ****     /*----------------------------------------------------------------*/
1868:mtk_resgenerator.cpp **** 
1869:mtk_resgenerator.cpp ****     /*----------------------------------------------------------------*/
1870:mtk_resgenerator.cpp ****     /* Code Body                                                      */
1871:mtk_resgenerator.cpp ****     /*----------------------------------------------------------------*/
1872:mtk_resgenerator.cpp ****     RESGEN_LOG_V("GenerateAudioMapSearchFile(): File output: CustAdoMap.c CustAdoMapExt.c");
 5358              	LM246:
 5359              	LBB37:
 5360 2eb8 C7442408 		movl	$LC146, 8(%esp)
 5360      002E0000 
 5361 2ec0 C7442404 		movl	$LC1, 4(%esp)
 5361      3E000000 
 5362 2ec8 C7042401 		movl	$1, (%esp)
 5362      000000
 5363 2ecf E8000000 		call	_reslog_adaptor_log
 5363      00
1873:mtk_resgenerator.cpp **** 
1874:mtk_resgenerator.cpp ****     GenerateMapSearchFile_Ext(
 5365              	LM247:
 5366 2ed4 C7442414 		movl	$LC121, 20(%esp)
 5366      60280000 
 5367 2edc C7442410 		movl	$LC147, 16(%esp)
 5367      482E0000 
 5368 2ee4 C744240C 		movl	$LC148, 12(%esp)
 5368      602E0000 
 5369 2eec C7442408 		movl	$LC149, 8(%esp)
 5369      712E0000 
 5370 2ef4 0FB70500 		movzwl	_CurrMaxSearchAudioId, %eax
 5370      000000
 5371 2efb 89442404 		movl	%eax, 4(%esp)
 5372 2eff C7042400 		movl	$_AudioIdSearchMap, (%esp)
 5372      000000
 5373 2f06 E845FCFF 		call	__Z25GenerateMapSearchFile_ExtP20CUSTOM_ID_SEARCH_MAPtPcS1_S1_S1_
 5373      FF
1875:mtk_resgenerator.cpp ****         (CUSTOM_ID_SEARCH_MAP *)AudioIdSearchMap,
1876:mtk_resgenerator.cpp ****         CurrMaxSearchAudioId,
1877:mtk_resgenerator.cpp ****         "CurrMaxSearchAudioId",
1878:mtk_resgenerator.cpp ****         "AudioIdSearchMap",
1879:mtk_resgenerator.cpp ****         "CUSTOM_AUDIO_SEARCH_MAP",
1880:mtk_resgenerator.cpp ****         ADO_MAP_FILENAME);
1881:mtk_resgenerator.cpp ****     GenerateMapSearchFile_Ext(
 5375              	LM248:
 5376 2f0b C7442414 		movl	$LC126, 20(%esp)
 5376      E0280000 
 5377 2f13 C7442410 		movl	$LC147, 16(%esp)
 5377      482E0000 
 5378 2f1b C744240C 		movl	$LC150, 12(%esp)
 5378      862E0000 
 5379 2f23 C7442408 		movl	$LC151, 8(%esp)
 5379      9A2E0000 
 5380 2f2b 0FB70500 		movzwl	_CurrMaxSearchAudioIdEXT, %eax
 5380      000000
 5381 2f32 89442404 		movl	%eax, 4(%esp)
 5382 2f36 C7042400 		movl	$_AudioIdSearchMapEXT, (%esp)
 5382      000000
GAS LISTING d:/MTK/MTK2503/MTK2503/11CW1418SP4_03_CORETEK03AE_11C_V1_GPRS_MMI/plutommi/Customer/ResGenerator/gcctmp/cc63daaa.s 			page 93


 5383 2f3d E80EFCFF 		call	__Z25GenerateMapSearchFile_ExtP20CUSTOM_ID_SEARCH_MAPtPcS1_S1_S1_
 5383      FF
1882:mtk_resgenerator.cpp ****         (CUSTOM_ID_SEARCH_MAP *)AudioIdSearchMapEXT,
1883:mtk_resgenerator.cpp ****         CurrMaxSearchAudioIdEXT,
1884:mtk_resgenerator.cpp ****         "CurrMaxSearchAudioIdEXT",
1885:mtk_resgenerator.cpp ****         "AudioIdSearchMapEXT",
1886:mtk_resgenerator.cpp ****         "CUSTOM_AUDIO_SEARCH_MAP",
1887:mtk_resgenerator.cpp ****         ADO_MAP_FILENAME_EXT);
1888:mtk_resgenerator.cpp **** }
 5385              	LM249:
 5386 2f42 C9       		leave
 5387 2f43 C3       		ret
 5388              	LBE37:
 5389              	Lscope18:
 5391 2f44 90909090 		.align 32
 5391      90909090 
 5391      90909090 
 5391      90909090 
 5391      90909090 
 5392              	LC152:
 5393 2f60 47656E65 		.ascii "GenerateFontMapSearchFile(): File output: CustFontMap.c CustFontMapExt.c\0"
 5393      72617465 
 5393      466F6E74 
 5393      4D617053 
 5393      65617263 
 5394              	LC153:
 5395 2fa9 43555354 		.ascii "CUSTOM_FONT_SEARCH_MAP\0"
 5395      4F4D5F46 
 5395      4F4E545F 
 5395      53454152 
 5395      43485F4D 
 5396              	LC154:
 5397 2fc0 6D746B5F 		.ascii "mtk_CustFontSearchMapEXT\0"
 5397      43757374 
 5397      466F6E74 
 5397      53656172 
 5397      63684D61 
 5398              	LC155:
 5399 2fd9 6D746B5F 		.ascii "mtk_CurrMaxSearchFontIdEXT\0"
 5399      43757272 
 5399      4D617853 
 5399      65617263 
 5399      68466F6E 
 5400              		.align 2
 5403              	__Z25GenerateFontMapSearchFilev:
1889:mtk_resgenerator.cpp **** 
1890:mtk_resgenerator.cpp **** 
1891:mtk_resgenerator.cpp **** 
1892:mtk_resgenerator.cpp **** #if defined(__MMI_RESOURCE_AUDIO_COMPRESS__) || defined(__MMI_RESOURCE_IMAGE_COMPRESS__)
1893:mtk_resgenerator.cpp **** /*****************************************************************************
1894:mtk_resgenerator.cpp **** * FUNCTION
1895:mtk_resgenerator.cpp **** *  GenerateAudioZipList
1896:mtk_resgenerator.cpp **** * DESCRIPTION
1897:mtk_resgenerator.cpp **** *  generate Zip list structure
1898:mtk_resgenerator.cpp **** * PARAMETERS
1899:mtk_resgenerator.cpp **** *  pMap                [IN]    ID map
1900:mtk_resgenerator.cpp **** *  nSize               [IN]    size
GAS LISTING d:/MTK/MTK2503/MTK2503/11CW1418SP4_03_CORETEK03AE_11C_V1_GPRS_MMI/plutommi/Customer/ResGenerator/gcctmp/cc63daaa.s 			page 94


1901:mtk_resgenerator.cpp **** *  str_IdMap           [IN]    output variable name
1902:mtk_resgenerator.cpp **** *  str_CustMap         [IN]    output variable name
1903:mtk_resgenerator.cpp **** *  str_CurrMaxId       [IN]    output variable name
1904:mtk_resgenerator.cpp **** *  str_CustType        [IN]    output variable name
1905:mtk_resgenerator.cpp **** *  curr_map_filename   [IN]    output file name
1906:mtk_resgenerator.cpp **** * RETURNS
1907:mtk_resgenerator.cpp **** *  void
1908:mtk_resgenerator.cpp **** *****************************************************************************/
1909:mtk_resgenerator.cpp **** static void GenerateZipList(
1910:mtk_resgenerator.cpp ****                             res_compress_struct *pCompress,
1911:mtk_resgenerator.cpp ****                             U16 nSize,
1912:mtk_resgenerator.cpp ****                             char *str_zip_count,
1913:mtk_resgenerator.cpp ****                             char *str_zip_struct,
1914:mtk_resgenerator.cpp ****                             char *str_zip_type,
1915:mtk_resgenerator.cpp ****                             char *curr_map_filename)
1916:mtk_resgenerator.cpp **** {
1917:mtk_resgenerator.cpp ****     /*----------------------------------------------------------------*/
1918:mtk_resgenerator.cpp ****     /* Local Variables                                                */
1919:mtk_resgenerator.cpp ****     /*----------------------------------------------------------------*/
1920:mtk_resgenerator.cpp ****     FILE *pFile;
1921:mtk_resgenerator.cpp ****     U32 i;
1922:mtk_resgenerator.cpp **** 
1923:mtk_resgenerator.cpp ****     /*----------------------------------------------------------------*/
1924:mtk_resgenerator.cpp ****     /* Code Body                                                      */
1925:mtk_resgenerator.cpp ****     /*----------------------------------------------------------------*/
1926:mtk_resgenerator.cpp ****     if(pFile = fopen(curr_map_filename, "a"))
1927:mtk_resgenerator.cpp ****     {
1928:mtk_resgenerator.cpp **** 
1929:mtk_resgenerator.cpp ****         /* Write extern of array */
1930:mtk_resgenerator.cpp ****         for(i = 0; i < nSize; i++)
1931:mtk_resgenerator.cpp ****         {
1932:mtk_resgenerator.cpp ****             fprintf(pFile, "extern __align(4) U8 %s[];\n", pCompress[i].zi_name);
1933:mtk_resgenerator.cpp ****             fprintf(pFile, "extern __align(4) const U8 %s[];\n", pCompress[i].ro_name);
1934:mtk_resgenerator.cpp ****         }
1935:mtk_resgenerator.cpp **** 
1936:mtk_resgenerator.cpp **** 
1937:mtk_resgenerator.cpp ****         fprintf(pFile, "const unsigned short %s=%d;\n", str_zip_count, nSize);
1938:mtk_resgenerator.cpp **** 
1939:mtk_resgenerator.cpp ****         /* writing the search map array inside the file. */
1940:mtk_resgenerator.cpp ****         if(nSize != 0)
1941:mtk_resgenerator.cpp ****         {
1942:mtk_resgenerator.cpp ****             fprintf(pFile, "const %s %s[]={\n", str_zip_type, str_zip_struct);
1943:mtk_resgenerator.cpp ****             for(i = 0; i < nSize; i++)
1944:mtk_resgenerator.cpp ****             {
1945:mtk_resgenerator.cpp ****                 fprintf(pFile, "\t{(U8*)&%s, %d, (U8*)&%s, %d},\n",
1946:mtk_resgenerator.cpp ****                     pCompress[i].zi_name,
1947:mtk_resgenerator.cpp ****                     pCompress[i].zi_len,
1948:mtk_resgenerator.cpp ****                     pCompress[i].ro_name,
1949:mtk_resgenerator.cpp ****                     pCompress[i].ro_len);
1950:mtk_resgenerator.cpp ****             }
1951:mtk_resgenerator.cpp ****             fprintf(pFile, "};\n\n\n\n");
1952:mtk_resgenerator.cpp ****         }
1953:mtk_resgenerator.cpp ****         else
1954:mtk_resgenerator.cpp ****         {
1955:mtk_resgenerator.cpp ****             fprintf(pFile, "%s %s[1];", str_zip_type, str_zip_struct);
1956:mtk_resgenerator.cpp ****         }
1957:mtk_resgenerator.cpp ****         fclose(pFile);
GAS LISTING d:/MTK/MTK2503/MTK2503/11CW1418SP4_03_CORETEK03AE_11C_V1_GPRS_MMI/plutommi/Customer/ResGenerator/gcctmp/cc63daaa.s 			page 95


1958:mtk_resgenerator.cpp ****     }
1959:mtk_resgenerator.cpp **** }
1960:mtk_resgenerator.cpp **** 
1961:mtk_resgenerator.cpp **** #endif /* define(__MMI_RESOURCE_AUDIO_COMPRESS__) || defined(__MMI_RESOURCE_IMAGE_COMPRESS__) */
1962:mtk_resgenerator.cpp **** 
1963:mtk_resgenerator.cpp **** 
1964:mtk_resgenerator.cpp **** #if defined(__MMI_RESOURCE_AUDIO_COMPRESS__)
1965:mtk_resgenerator.cpp **** 
1966:mtk_resgenerator.cpp **** extern res_compress_struct res_compress_data[];
1967:mtk_resgenerator.cpp **** extern U32 res_compress_count;
1968:mtk_resgenerator.cpp **** 
1969:mtk_resgenerator.cpp **** static void GenerateAudioZipList(void)
1970:mtk_resgenerator.cpp **** {
1971:mtk_resgenerator.cpp ****     RESGEN_LOG_V("GenerateImageZipList(): File output: Append zipped image table to CustAdoRes.c Cu
1972:mtk_resgenerator.cpp **** 
1973:mtk_resgenerator.cpp ****     GenerateZipList(
1974:mtk_resgenerator.cpp ****         res_compress_data,
1975:mtk_resgenerator.cpp ****         res_compress_count,
1976:mtk_resgenerator.cpp ****         "mmi_res_zip_aud_count",
1977:mtk_resgenerator.cpp ****         "mmi_res_zip_aud_struct",
1978:mtk_resgenerator.cpp ****         "res_compress_list_struct",
1979:mtk_resgenerator.cpp ****         ADO_DATA_FILENAME);
1980:mtk_resgenerator.cpp **** }
1981:mtk_resgenerator.cpp **** 
1982:mtk_resgenerator.cpp **** #endif
1983:mtk_resgenerator.cpp **** 
1984:mtk_resgenerator.cpp **** #if defined(__MMI_RESOURCE_IMAGE_COMPRESS__)
1985:mtk_resgenerator.cpp **** 
1986:mtk_resgenerator.cpp **** extern res_compress_struct g_res_compress_data_image[];
1987:mtk_resgenerator.cpp **** extern U32 g_res_compress_count_image;
1988:mtk_resgenerator.cpp **** 
1989:mtk_resgenerator.cpp **** static void GenerateImageZipList(void)
1990:mtk_resgenerator.cpp **** {
1991:mtk_resgenerator.cpp ****     RESGEN_LOG_V("GenerateImageZipList(): File output: Append zipped image table to CustImgRes.c Cu
1992:mtk_resgenerator.cpp ****     GenerateZipList(
1993:mtk_resgenerator.cpp ****         g_res_compress_data_image,
1994:mtk_resgenerator.cpp ****         g_res_compress_count_image,
1995:mtk_resgenerator.cpp ****         "mmi_res_zip_img_count",
1996:mtk_resgenerator.cpp ****         "mmi_res_zip_img_struct",
1997:mtk_resgenerator.cpp ****         "res_compress_list_struct",
1998:mtk_resgenerator.cpp ****         IMG_DATA_FILENAME);
1999:mtk_resgenerator.cpp **** }
2000:mtk_resgenerator.cpp **** 
2001:mtk_resgenerator.cpp **** #endif
2002:mtk_resgenerator.cpp **** 
2003:mtk_resgenerator.cpp **** 
2004:mtk_resgenerator.cpp **** 
2005:mtk_resgenerator.cpp **** /*****************************************************************************
2006:mtk_resgenerator.cpp **** * FUNCTION
2007:mtk_resgenerator.cpp **** *  GenerateFontMapSearchFile
2008:mtk_resgenerator.cpp **** * DESCRIPTION
2009:mtk_resgenerator.cpp **** *  generate Font search map file
2010:mtk_resgenerator.cpp **** * PARAMETERS
2011:mtk_resgenerator.cpp **** *  void
2012:mtk_resgenerator.cpp **** * RETURNS
2013:mtk_resgenerator.cpp **** *  void
2014:mtk_resgenerator.cpp **** *****************************************************************************/
GAS LISTING d:/MTK/MTK2503/MTK2503/11CW1418SP4_03_CORETEK03AE_11C_V1_GPRS_MMI/plutommi/Customer/ResGenerator/gcctmp/cc63daaa.s 			page 96


2015:mtk_resgenerator.cpp **** static void GenerateFontMapSearchFile(void)
2016:mtk_resgenerator.cpp **** {
 5405              	LM250:
 5406 2ff4 55       		pushl	%ebp
 5407 2ff5 89E5     		movl	%esp, %ebp
 5408 2ff7 83EC18   		subl	$24, %esp
2017:mtk_resgenerator.cpp ****     /*----------------------------------------------------------------*/
2018:mtk_resgenerator.cpp ****     /* Local Variables                                                */
2019:mtk_resgenerator.cpp ****     /*----------------------------------------------------------------*/
2020:mtk_resgenerator.cpp **** 
2021:mtk_resgenerator.cpp ****     /*----------------------------------------------------------------*/
2022:mtk_resgenerator.cpp ****     /* Code Body                                                      */
2023:mtk_resgenerator.cpp ****     /*----------------------------------------------------------------*/
2024:mtk_resgenerator.cpp ****     RESGEN_LOG_V("GenerateFontMapSearchFile(): File output: CustFontMap.c CustFontMapExt.c");
 5410              	LM251:
 5411              	LBB38:
 5412 2ffa C7442408 		movl	$LC152, 8(%esp)
 5412      602F0000 
 5413 3002 C7442404 		movl	$LC1, 4(%esp)
 5413      3E000000 
 5414 300a C7042401 		movl	$1, (%esp)
 5414      000000
 5415 3011 E8000000 		call	_reslog_adaptor_log
 5415      00
2025:mtk_resgenerator.cpp **** 
2026:mtk_resgenerator.cpp ****     GenerateMapSearchFile_Ext(
 5417              	LM252:
 5418 3016 C7442414 		movl	$LC131, 20(%esp)
 5418      402A0000 
 5419 301e C7442410 		movl	$LC153, 16(%esp)
 5419      A92F0000 
 5420 3026 C744240C 		movl	$LC154, 12(%esp)
 5420      C02F0000 
 5421 302e C7442408 		movl	$LC155, 8(%esp)
 5421      D92F0000 
 5422 3036 0FB70500 		movzwl	_CurrMaxSearchFontIdEXT, %eax
 5422      000000
 5423 303d 89442404 		movl	%eax, 4(%esp)
 5424 3041 C7042400 		movl	$_FontIdSearchMapEXT, (%esp)
 5424      000000
 5425 3048 E803FBFF 		call	__Z25GenerateMapSearchFile_ExtP20CUSTOM_ID_SEARCH_MAPtPcS1_S1_S1_
 5425      FF
2027:mtk_resgenerator.cpp ****         (CUSTOM_ID_SEARCH_MAP *)FontIdSearchMapEXT,
2028:mtk_resgenerator.cpp ****         CurrMaxSearchFontIdEXT,
2029:mtk_resgenerator.cpp ****         "mtk_CurrMaxSearchFontIdEXT",
2030:mtk_resgenerator.cpp ****         "mtk_CustFontSearchMapEXT",
2031:mtk_resgenerator.cpp ****         "CUSTOM_FONT_SEARCH_MAP",
2032:mtk_resgenerator.cpp ****         FONT_MAP_FILENAME_EXT);
2033:mtk_resgenerator.cpp **** }
 5427              	LM253:
 5428 304d C9       		leave
 5429 304e C3       		ret
 5430              	LBE38:
 5431              	Lscope19:
 5433 304f 90909090 		.align 32
 5433      90909090 
 5433      90909090 
GAS LISTING d:/MTK/MTK2503/MTK2503/11CW1418SP4_03_CORETEK03AE_11C_V1_GPRS_MMI/plutommi/Customer/ResGenerator/gcctmp/cc63daaa.s 			page 97


 5433      90909090 
 5433      90
 5434              	LC156:
 5435 3060 47656E65 		.ascii "GenerateMenuFile(): nSize = %d\0"
 5435      72617465 
 5435      4D656E75 
 5435      46696C65 
 5435      28293A20 
 5436 307f 90       		.align 32
 5437              	LC157:
 5438 3080 2E2E5C2E 		.ascii "..\\..\\Customer\\CustResource\\CustMenuRes.c\0"
 5438      2E5C4375 
 5438      73746F6D 
 5438      65725C43 
 5438      75737452 
 5439 30aa 90909090 		.align 32
 5439      90909090 
 5439      90909090 
 5439      90909090 
 5439      90909090 
 5440              	LC158:
 5441 30c0 0A2F2A2A 		.ascii "\12/************************************************************** \12 FILENAME\11: CustMe
 5441      2A2A2A2A 
 5441      2A2A2A2A 
 5441      2A2A2A2A 
 5441      2A2A2A2A 
 5442              	LC159:
 5443 31bc 23696E63 		.ascii "#include \"CustMenuRes.h\"\12\12\12\0"
 5443      6C756465 
 5443      20224375 
 5443      73744D65 
 5443      6E755265 
 5444 31d8 908DB426 		.align 32
 5444      00000000 
 5445              	LC160:
 5446 31e0 756E7369 		.ascii "unsigned short  CurrMaxMenuItemIndex=%d;\12\0"
 5446      676E6564 
 5446      2073686F 
 5446      72742020 
 5446      43757272 
 5447 320a 90909090 		.align 32
 5447      90909090 
 5447      90909090 
 5447      90909090 
 5447      90909090 
 5448              	LC161:
 5449 3220 636F6E73 		.ascii "const U16 nOrderMenuItem_%d[]={\0"
 5449      74205531 
 5449      36206E4F 
 5449      72646572 
 5449      4D656E75 
 5450              	LC162:
 5451 3240 25642C00 		.ascii "%d,\0"
 5452              	LC163:
 5453 3244 25647D3B 		.ascii "%d};\0"
 5453      00
 5454              	LC164:
GAS LISTING d:/MTK/MTK2503/MTK2503/11CW1418SP4_03_CORETEK03AE_11C_V1_GPRS_MMI/plutommi/Customer/ResGenerator/gcctmp/cc63daaa.s 			page 98


 5455 3249 25730A00 		.ascii "%s\12\0"
 5456 324d 90909090 		.align 32
 5456      90909090 
 5456      90909090 
 5456      90909090 
 5456      909090
 5457              	LC165:
 5458 3260 0A20636F 		.ascii "\12 const CUSTOM_MENU\11\11mtk_nCustMenus[]={\12\0"
 5458      6E737420 
 5458      43555354 
 5458      4F4D5F4D 
 5458      454E5509 
 5459 3289 90909090 		.align 32
 5459      90909090 
 5459      90909090 
 5459      90909090 
 5459      90909090 
 5460              	LC166:
 5461 32a0 7B302C20 		.ascii "{0, 0, 0, 0, 0, 0, (U16 *)0},\12\0"
 5461      302C2030 
 5461      2C20302C 
 5461      20302C20 
 5461      302C2028 
 5462 32bf 90       		.align 32
 5463              	LC167:
 5464 32c0 7B25642C 		.ascii "{%d,%d,%d,%d,%d,%d,(U16 *)nOrderMenuItem_%d},\0"
 5464      25642C25 
 5464      642C2564 
 5464      2C25642C 
 5464      25642C28 
 5465              	LC168:
 5466 32ee 7B25642C 		.ascii "{%d,%d,%d,%d,%d,%d,(U16 *)0},\0"
 5466      25642C25 
 5466      642C2564 
 5466      2C25642C 
 5466      25642C28 
 5467 330c 90909090 		.align 32
 5467      90909090 
 5467      90909090 
 5467      90909090 
 5467      90909090 
 5468              	LC169:
 5469 3320 0A0A2369 		.ascii "\12\12#ifdef __MULTIPLE_BINARY_FILES__\12\0"
 5469      66646566 
 5469      205F5F4D 
 5469      554C5449 
 5469      504C455F 
 5470 3344 90909090 		.align 32
 5470      90909090 
 5470      90909090 
 5470      90909090 
 5470      90909090 
 5471              	LC170:
 5472 3360 20202020 		.ascii "    /* we give more 50% ram for multiple bin, if Menus more than this, will be assert. */\
 5472      2F2A2077 
 5472      65206769 
 5472      7665206D 
GAS LISTING d:/MTK/MTK2503/MTK2503/11CW1418SP4_03_CORETEK03AE_11C_V1_GPRS_MMI/plutommi/Customer/ResGenerator/gcctmp/cc63daaa.s 			page 99


 5472      6F726520 
 5473 33bb 908D7426 		.align 32
 5473      00
 5474              	LC171:
 5475 33c0 20202020 		.ascii "    #define AV_TOTAL_MENU_ITEM ((sizeof(mtk_nCustMenus)/sizeof(CUSTOM_MENU))*1.5)\12\0"
 5475      23646566 
 5475      696E6520 
 5475      41565F54 
 5475      4F54414C 
 5476              	LC172:
 5477 3413 23656C73 		.ascii "#else\12\0"
 5477      650A00
 5478 341a 8DB60000 		.align 32
 5478      0000
 5479              	LC173:
 5480 3420 20202020 		.ascii "    #define AV_TOTAL_MENU_ITEM (sizeof(mtk_nCustMenus)/sizeof(CUSTOM_MENU))\12\0"
 5480      23646566 
 5480      696E6520 
 5480      41565F54 
 5480      4F54414C 
 5481              	LC174:
 5482 346d 23656E64 		.ascii "#endif\12\12\0"
 5482      69660A0A 
 5482      00
 5483 3476 8D76008D 		.align 32
 5483      BC270000 
 5483      0000
 5484              	LC175:
 5485 3480 636F6E73 		.ascii "const S32 mtk_gAv_total_menuitem = ((U32)AV_TOTAL_MENU_ITEM);\12\0"
 5485      74205333 
 5485      32206D74 
 5485      6B5F6741 
 5485      765F746F 
 5486 34bf 90       		.align 32
 5487              	LC176:
 5488 34c0 2F2A2048 		.ascii "/* Hide menu item mask */\12U8 MenuItemMask[(((U32)AV_TOTAL_MENU_ITEM) / 8) + 1];\12\0"
 5488      69646520 
 5488      6D656E75 
 5488      20697465 
 5488      6D206D61 
 5489 3511 EB0D9090 		.align 32
 5489      90909090 
 5489      90909090 
 5489      909090
 5490              	LC177:
 5491 3520 2F2A2044 		.ascii "/* Disable (dimmed) menu item mask */\12U8 g_menuitem_disable_mask[(((U32)AV_TOTAL_MENU_IT
 5491      69736162 
 5491      6C652028 
 5491      64696D6D 
 5491      65642920 
 5492 358a 90909090 		.align 32
 5492      90909090 
 5492      90909090 
 5492      90909090 
 5492      90909090 
 5493              	LC178:
 5494 35a0 0A20636F 		.ascii "\12 const CUSTOM_MENU_SEARCH_MAP\11\11CustMenuSearchMap[]={\12\0"
GAS LISTING d:/MTK/MTK2503/MTK2503/11CW1418SP4_03_CORETEK03AE_11C_V1_GPRS_MMI/plutommi/Customer/ResGenerator/gcctmp/cc63daaa.s 			page 100


 5494      6E737420 
 5494      43555354 
 5494      4F4D5F4D 
 5494      454E555F 
 5495              	LC179:
 5496 35d7 097B2564 		.ascii "\11{%d, %d, %d},\12\0"
 5496      2C202564 
 5496      2C202564 
 5496      7D2C0A00 
 5497 35e7 90909090 		.align 32
 5497      90909090 
 5497      90909090 
 5497      90909090 
 5497      90909090 
 5498              	LC180:
 5499 3600 636F6E73 		.ascii "const CUSTOM_MENU_RES_ENTRY mtk_gMenuResEntry = {(CUSTOM_MENU*)mtk_nCustMenus, (CUSTOM_MEN
 5499      74204355 
 5499      53544F4D 
 5499      5F4D454E 
 5499      555F5245 
 5500 3681 90909090 		.align 32
 5500      90909090 
 5500      90909090 
 5500      90909090 
 5500      90909090 
 5501              	LC181:
 5502 36a0 636F6E73 		.ascii "const CUSTOM_MENU\11\11nCustMenus[1];\0"
 5502      74204355 
 5502      53544F4D 
 5502      5F4D454E 
 5502      5509096E 
 5503 36c2 90909090 		.align 32
 5503      90909090 
 5503      90909090 
 5503      90909090 
 5503      90909090 
 5504              	LC182:
 5505 36e0 2E2E5C2E 		.ascii "..\\..\\Framework\\EventHandling\\EventsInc\\mmi_menu_handlers.h\0"
 5505      2E5C4672 
 5505      616D6577 
 5505      6F726B5C 
 5505      4576656E 
 5506 371c 8D742600 		.align 32
 5507              	LC183:
 5508 3720 2F2A2A2A 		.ascii "/*****************************************************************************\12*  Copyri
 5508      2A2A2A2A 
 5508      2A2A2A2A 
 5508      2A2A2A2A 
 5508      2A2A2A2A 
 5509 3ef0 4C204348 		.ascii "L CHAMBER OF COMMERCE (ICC).\12*\12*******************************************************
 5509      414D4245 
 5509      52204F46 
 5509      20434F4D 
 5509      4D455243 
 5510              		.align 32
 5511              	LC184:
 5512 3f60 2F2A2A2A 		.ascii "/*******************************************************************************\12 * File
GAS LISTING d:/MTK/MTK2503/MTK2503/11CW1418SP4_03_CORETEK03AE_11C_V1_GPRS_MMI/plutommi/Customer/ResGenerator/gcctmp/cc63daaa.s 			page 101


 5512      2A2A2A2A 
 5512      2A2A2A2A 
 5512      2A2A2A2A 
 5512      2A2A2A2A 
 5513 42e2 90909090 		.align 32
 5513      90909090 
 5513      90909090 
 5513      90909090 
 5513      90909090 
 5514              	LC185:
 5515 4300 0A236966 		.ascii "\12#ifndef _MENUHANDLER_H\12#define _MENUHANDLER_H\12\0"
 5515      6E646566 
 5515      205F4D45 
 5515      4E554841 
 5515      4E444C45 
 5516 4330 90909090 		.align 32
 5516      90909090 
 5516      90909090 
 5516      90909090 
 5517              	LC186:
 5518 4340 0A2F2A20 		.ascii "\12/* need typedef void (*FuncPtr) (void); before include this file */\12\12\0"
 5518      6E656564 
 5518      20747970 
 5518      65646566 
 5518      20766F69 
 5519 4387 90909090 		.align 32
 5519      90909090 
 5519      90909090 
 5519      90909090 
 5519      90909090 
 5520              	LC187:
 5521 43a0 2F2A2023 		.ascii "/* #define MENU_HILITE_HANDLER_COUNT   %d; */\12/* #define MENU_HINT_HANDLER_COUNT     %d;
 5521      64656669 
 5521      6E65204D 
 5521      454E555F 
 5521      48494C49 
 5522              	LC188:
 5523 43fe 23696E63 		.ascii "#include \"mmi_rp_all_defs.h\"\12\0"
 5523      6C756465 
 5523      20226D6D 
 5523      695F7270 
 5523      5F616C6C 
 5524 441c 8D742600 		.align 32
 5525              	LC189:
 5526 4420 2F2A2045 		.ascii "/* Extern functions of Hilite Handler */\12\0"
 5526      78746572 
 5526      6E206675 
 5526      6E637469 
 5526      6F6E7320 
 5527              	LC190:
 5528 444a 65787465 		.ascii "extern void %s(void);\12\0"
 5528      726E2076 
 5528      6F696420 
 5528      25732876 
 5528      6F696429 
 5529 4461 90909090 		.align 32
 5529      90909090 
GAS LISTING d:/MTK/MTK2503/MTK2503/11CW1418SP4_03_CORETEK03AE_11C_V1_GPRS_MMI/plutommi/Customer/ResGenerator/gcctmp/cc63daaa.s 			page 102


 5529      90909090 
 5529      90909090 
 5529      90909090 
 5530              	LC191:
 5531 4480 0A0A2F2A 		.ascii "\12\12/* Extern functions of Hint Handler */\12\0"
 5531      20457874 
 5531      65726E20 
 5531      66756E63 
 5531      74696F6E 
 5532              	LC192:
 5533 44aa 65787465 		.ascii "extern void %s(U16);\12\0"
 5533      726E2076 
 5533      6F696420 
 5533      25732855 
 5533      3136293B 
 5534              		.align 32
 5535              	LC193:
 5536 44c0 0A636F6E 		.ascii "\12const mmi_frm_hilite_hdlr_struct mmi_frm_const_hilite_hdlr_table[] = {\12\0"
 5536      7374206D 
 5536      6D695F66 
 5536      726D5F68 
 5536      696C6974 
 5537              	LC194:
 5538 4509 20202020 		.ascii "    {%s, %s},\12\0"
 5538      7B25732C 
 5538      2025737D 
 5538      2C0A00
 5539 4518 908DB426 		.align 32
 5539      00000000 
 5540              	LC195:
 5541 4520 0A636F6E 		.ascii "\12const mmi_frm_hilite_hdlr_struct mmi_frm_const_hilite_hdlr_table[1] = {{0, NULL}};\12\0
 5541      7374206D 
 5541      6D695F66 
 5541      726D5F68 
 5541      696C6974 
 5542 4575 8D742600 		.align 32
 5542      8DBC2700 
 5542      000000
 5543              	LC196:
 5544 4580 0A636F6E 		.ascii "\12const mmi_frm_hint_hdlr_struct mmi_frm_const_hint_hdlr_table[] = {\12\0"
 5544      7374206D 
 5544      6D695F66 
 5544      726D5F68 
 5544      696E745F 
 5545 45c5 90909090 		.align 32
 5545      90909090 
 5545      90909090 
 5545      90909090 
 5545      90909090 
 5546              	LC197:
 5547 45e0 0A636F6E 		.ascii "\12const mmi_frm_hint_hdlr_struct mmi_frm_const_hint_hdlr_table[1] = {{0, NULL}};\12\0"
 5547      7374206D 
 5547      6D695F66 
 5547      726D5F68 
 5547      696E745F 
 5548 4631 EB0D9090 		.align 32
 5548      90909090 
GAS LISTING d:/MTK/MTK2503/MTK2503/11CW1418SP4_03_CORETEK03AE_11C_V1_GPRS_MMI/plutommi/Customer/ResGenerator/gcctmp/cc63daaa.s 			page 103


 5548      90909090 
 5548      909090
 5549              	LC198:
 5550 4640 0A23656E 		.ascii "\12#endif /* _MENUHANDLER_H */ \12\0"
 5550      64696620 
 5550      2F2A205F 
 5550      4D454E55 
 5550      48414E44 
 5551 465f 90       		.align 2
 5555              	__Z16GenerateMenuFilet:
2034:mtk_resgenerator.cpp **** 
2035:mtk_resgenerator.cpp **** 
2036:mtk_resgenerator.cpp **** 
2037:mtk_resgenerator.cpp **** /*****************************************************************************
2038:mtk_resgenerator.cpp **** * FUNCTION
2039:mtk_resgenerator.cpp **** *  GenerateMenuFile
2040:mtk_resgenerator.cpp **** * DESCRIPTION
2041:mtk_resgenerator.cpp **** *  generate menu resource file
2042:mtk_resgenerator.cpp **** * PARAMETERS
2043:mtk_resgenerator.cpp **** *  nSize       [IN]    size
2044:mtk_resgenerator.cpp **** * RETURNS
2045:mtk_resgenerator.cpp **** *  int
2046:mtk_resgenerator.cpp **** *****************************************************************************/
2047:mtk_resgenerator.cpp **** static int GenerateMenuFile(U16 nSize)
2048:mtk_resgenerator.cpp **** {
 5557              	LM254:
 5558 4660 55       		pushl	%ebp
 5559 4661 89E5     		movl	%esp, %ebp
 5560 4663 53       		pushl	%ebx
 5561 4664 81ECD402 		subl	$724, %esp
 5561      0000
 5562 466a 8B4508   		movl	8(%ebp), %eax
 5563 466d 668945F6 		movw	%ax, -10(%ebp)
2049:mtk_resgenerator.cpp ****     /*----------------------------------------------------------------*/
2050:mtk_resgenerator.cpp ****     /* Local Variables                                                */
2051:mtk_resgenerator.cpp ****     /*----------------------------------------------------------------*/
2052:mtk_resgenerator.cpp ****     FILE* pFile;
2053:mtk_resgenerator.cpp ****     CUSTOM_MENU* pCustMenu = (CUSTOM_MENU*)nCustMenus;
 5565              	LM255:
 5566              	LBB39:
 5567 4671 C745EC00 		movl	$_nCustMenus, -20(%ebp)
 5567      000000
2054:mtk_resgenerator.cpp ****     S8 nItemData[100];      /* Assumed ..*/
2055:mtk_resgenerator.cpp ****     S8 MenuItemString[500]; /* Assumed ..*/
2056:mtk_resgenerator.cpp ****     int i,j;
2057:mtk_resgenerator.cpp ****     int start = 0, index = 0, num_map_search = 0;
 5569              	LM256:
 5570 4678 C7856CFD 		movl	$0, -660(%ebp)
 5570      FFFF0000 
 5570      0000
 5571 4682 C78568FD 		movl	$0, -664(%ebp)
 5571      FFFF0000 
 5571      0000
 5572 468c C78564FD 		movl	$0, -668(%ebp)
 5572      FFFF0000 
 5572      0000
2058:mtk_resgenerator.cpp ****     int min_id = 0, max_id = 0;
GAS LISTING d:/MTK/MTK2503/MTK2503/11CW1418SP4_03_CORETEK03AE_11C_V1_GPRS_MMI/plutommi/Customer/ResGenerator/gcctmp/cc63daaa.s 			page 104


 5574              	LM257:
 5575 4696 C78560FD 		movl	$0, -672(%ebp)
 5575      FFFF0000 
 5575      0000
 5576 46a0 C7855CFD 		movl	$0, -676(%ebp)
 5576      FFFF0000 
 5576      0000
2059:mtk_resgenerator.cpp **** 
2060:mtk_resgenerator.cpp ****     /*----------------------------------------------------------------*/
2061:mtk_resgenerator.cpp ****     /* Code Body                                                      */
2062:mtk_resgenerator.cpp ****     /*----------------------------------------------------------------*/
2063:mtk_resgenerator.cpp ****     RESGEN_LOG_V("GenerateMenuFile(): nSize = %d",nSize);
 5578              	LM258:
 5579 46aa 0FB745F6 		movzwl	-10(%ebp), %eax
 5580 46ae 8944240C 		movl	%eax, 12(%esp)
 5581 46b2 C7442408 		movl	$LC156, 8(%esp)
 5581      60300000 
 5582 46ba C7442404 		movl	$LC1, 4(%esp)
 5582      3E000000 
 5583 46c2 C7042401 		movl	$1, (%esp)
 5583      000000
 5584 46c9 E8000000 		call	_reslog_adaptor_log
 5584      00
2064:mtk_resgenerator.cpp **** 
2065:mtk_resgenerator.cpp ****     if(pFile = fopen(MENU_DATA_FILENAME, "w"))
 5586              	LM259:
 5587 46ce C7442404 		movl	$LC2, 4(%esp)
 5587      4F000000 
 5588 46d6 C7042480 		movl	$LC157, (%esp)
 5588      300000
 5589 46dd E8000000 		call	_fopen
 5589      00
 5590 46e2 8945F0   		movl	%eax, -16(%ebp)
 5591 46e5 837DF000 		cmpl	$0, -16(%ebp)
 5592 46e9 0F849D05 		je	L123
 5592      0000
2066:mtk_resgenerator.cpp ****     {
2067:mtk_resgenerator.cpp ****         fprintf(pFile, "/**\n *	Copyright Notice\n *	?2002 - 2003, Pixtel Communications, Inc., 148
 5594              	LM260:
 5595 46ef C7442404 		movl	$LC4, 4(%esp)
 5595      A0000000 
 5596 46f7 8B45F0   		movl	-16(%ebp), %eax
 5597 46fa 890424   		movl	%eax, (%esp)
 5598 46fd E8000000 		call	_fprintf
 5598      00
2068:mtk_resgenerator.cpp ****         fprintf(pFile, "\n/************************************************************** \n FILENA
 5600              	LM261:
 5601 4702 C7442404 		movl	$LC158, 4(%esp)
 5601      C0300000 
 5602 470a 8B45F0   		movl	-16(%ebp), %eax
 5603 470d 890424   		movl	%eax, (%esp)
 5604 4710 E8000000 		call	_fprintf
 5604      00
2069:mtk_resgenerator.cpp **** 
2070:mtk_resgenerator.cpp ****         /* put the headers needed here */
2071:mtk_resgenerator.cpp ****         fprintf(pFile, "#include \"CustMenuRes.h\"\n\n\n");
 5606              	LM262:
GAS LISTING d:/MTK/MTK2503/MTK2503/11CW1418SP4_03_CORETEK03AE_11C_V1_GPRS_MMI/plutommi/Customer/ResGenerator/gcctmp/cc63daaa.s 			page 105


 5607 4715 C7442404 		movl	$LC159, 4(%esp)
 5607      BC310000 
 5608 471d 8B45F0   		movl	-16(%ebp), %eax
 5609 4720 890424   		movl	%eax, (%esp)
 5610 4723 E8000000 		call	_fprintf
 5610      00
2072:mtk_resgenerator.cpp ****         fprintf(pFile, "unsigned short  CurrMaxMenuItemIndex=%d;\n", nSize);
 5612              	LM263:
 5613 4728 0FB745F6 		movzwl	-10(%ebp), %eax
 5614 472c 89442408 		movl	%eax, 8(%esp)
 5615 4730 C7442404 		movl	$LC160, 4(%esp)
 5615      E0310000 
 5616 4738 8B45F0   		movl	-16(%ebp), %eax
 5617 473b 890424   		movl	%eax, (%esp)
 5618 473e E8000000 		call	_fprintf
 5618      00
2073:mtk_resgenerator.cpp **** 
2074:mtk_resgenerator.cpp ****         /* writing the string array inside the file. */
2075:mtk_resgenerator.cpp ****         if(nSize)
 5620              	LM264:
 5621 4743 66837DF6 		cmpw	$0, -10(%ebp)
 5621      00
 5622 4748 0F841E05 		je	L124
 5622      0000
2076:mtk_resgenerator.cpp ****         {
2077:mtk_resgenerator.cpp ****             for(i = 0; i < nSize; i++)
 5624              	LM265:
 5625 474e C78574FD 		movl	$0, -652(%ebp)
 5625      FFFF0000 
 5625      0000
 5626              	L125:
 5627 4758 0FB745F6 		movzwl	-10(%ebp), %eax
 5628 475c 398574FD 		cmpl	%eax, -652(%ebp)
 5628      FFFF
 5629 4762 7C05     		jl	L128
 5630 4764 E9380100 		jmp	L126
 5630      00
 5631              	L128:
2078:mtk_resgenerator.cpp ****             {
2079:mtk_resgenerator.cpp ****                 if(pCustMenu[i].nNumofMenuItem)
 5633              	LM266:
 5634 4769 8B8574FD 		movl	-652(%ebp), %eax
 5634      FFFF
 5635 476f 89C2     		movl	%eax, %edx
 5636 4771 C1E204   		sall	$4, %edx
 5637 4774 8B45EC   		movl	-20(%ebp), %eax
 5638 4777 66837C10 		cmpw	$0, 2(%eax,%edx)
 5638      0200
 5639 477d 0F841101 		je	L127
 5639      0000
2080:mtk_resgenerator.cpp ****                 {
2081:mtk_resgenerator.cpp ****                     sprintf(MenuItemString, "const U16 nOrderMenuItem_%d[]={", i);
 5641              	LM267:
 5642 4783 8B8574FD 		movl	-652(%ebp), %eax
 5642      FFFF
 5643 4789 89442408 		movl	%eax, 8(%esp)
 5644 478d C7442404 		movl	$LC161, 4(%esp)
GAS LISTING d:/MTK/MTK2503/MTK2503/11CW1418SP4_03_CORETEK03AE_11C_V1_GPRS_MMI/plutommi/Customer/ResGenerator/gcctmp/cc63daaa.s 			page 106


 5644      20320000 
 5645 4795 8D8578FD 		leal	-648(%ebp), %eax
 5645      FFFF
 5646 479b 890424   		movl	%eax, (%esp)
 5647 479e E8000000 		call	_sprintf
 5647      00
2082:mtk_resgenerator.cpp ****                     for(j = 0; j < (pCustMenu[i].nNumofMenuItem - 1); j++)
 5649              	LM268:
 5650 47a3 C78570FD 		movl	$0, -656(%ebp)
 5650      FFFF0000 
 5650      0000
 5651              	L130:
 5652 47ad 8B8574FD 		movl	-652(%ebp), %eax
 5652      FFFF
 5653 47b3 89C2     		movl	%eax, %edx
 5654 47b5 C1E204   		sall	$4, %edx
 5655 47b8 8B45EC   		movl	-20(%ebp), %eax
 5656 47bb 0FB74410 		movzwl	2(%eax,%edx), %eax
 5656      02
 5657 47c0 48       		decl	%eax
 5658 47c1 398570FD 		cmpl	%eax, -656(%ebp)
 5658      FFFF
 5659 47c7 7C02     		jl	L133
 5660 47c9 EB5B     		jmp	L131
 5661              	L133:
2083:mtk_resgenerator.cpp ****                     {
2084:mtk_resgenerator.cpp ****                         sprintf(nItemData, "%d,", pCustMenu[i].nOrderMenuItemId[j]);
 5663              	LM269:
 5664 47cb 8B8574FD 		movl	-652(%ebp), %eax
 5664      FFFF
 5665 47d1 89C3     		movl	%eax, %ebx
 5666 47d3 C1E304   		sall	$4, %ebx
 5667 47d6 8B4DEC   		movl	-20(%ebp), %ecx
 5668 47d9 8B8570FD 		movl	-656(%ebp), %eax
 5668      FFFF
 5669 47df 8D1400   		leal	(%eax,%eax), %edx
 5670 47e2 8B44190C 		movl	12(%ecx,%ebx), %eax
 5671 47e6 0FB70410 		movzwl	(%eax,%edx), %eax
 5672 47ea 89442408 		movl	%eax, 8(%esp)
 5673 47ee C7442404 		movl	$LC162, 4(%esp)
 5673      40320000 
 5674 47f6 8D8578FF 		leal	-136(%ebp), %eax
 5674      FFFF
 5675 47fc 890424   		movl	%eax, (%esp)
 5676 47ff E8000000 		call	_sprintf
 5676      00
2085:mtk_resgenerator.cpp ****                         strcat(MenuItemString, nItemData);
 5678              	LM270:
 5679 4804 8D8578FF 		leal	-136(%ebp), %eax
 5679      FFFF
 5680 480a 89442404 		movl	%eax, 4(%esp)
 5681 480e 8D8578FD 		leal	-648(%ebp), %eax
 5681      FFFF
 5682 4814 890424   		movl	%eax, (%esp)
 5683 4817 E8000000 		call	_strcat
 5683      00
 5685              	LM271:
GAS LISTING d:/MTK/MTK2503/MTK2503/11CW1418SP4_03_CORETEK03AE_11C_V1_GPRS_MMI/plutommi/Customer/ResGenerator/gcctmp/cc63daaa.s 			page 107


 5686 481c 8D8570FD 		leal	-656(%ebp), %eax
 5686      FFFF
 5687 4822 FF00     		incl	(%eax)
 5688 4824 EB87     		jmp	L130
 5689              	L131:
2086:mtk_resgenerator.cpp ****                     }
2087:mtk_resgenerator.cpp ****                     sprintf(nItemData, "%d};", pCustMenu[i].nOrderMenuItemId[j]);
 5691              	LM272:
 5692 4826 8B8574FD 		movl	-652(%ebp), %eax
 5692      FFFF
 5693 482c 89C3     		movl	%eax, %ebx
 5694 482e C1E304   		sall	$4, %ebx
 5695 4831 8B4DEC   		movl	-20(%ebp), %ecx
 5696 4834 8B8570FD 		movl	-656(%ebp), %eax
 5696      FFFF
 5697 483a 8D1400   		leal	(%eax,%eax), %edx
 5698 483d 8B44190C 		movl	12(%ecx,%ebx), %eax
 5699 4841 0FB70410 		movzwl	(%eax,%edx), %eax
 5700 4845 89442408 		movl	%eax, 8(%esp)
 5701 4849 C7442404 		movl	$LC163, 4(%esp)
 5701      44320000 
 5702 4851 8D8578FF 		leal	-136(%ebp), %eax
 5702      FFFF
 5703 4857 890424   		movl	%eax, (%esp)
 5704 485a E8000000 		call	_sprintf
 5704      00
2088:mtk_resgenerator.cpp ****                     strcat(MenuItemString, nItemData);
 5706              	LM273:
 5707 485f 8D8578FF 		leal	-136(%ebp), %eax
 5707      FFFF
 5708 4865 89442404 		movl	%eax, 4(%esp)
 5709 4869 8D8578FD 		leal	-648(%ebp), %eax
 5709      FFFF
 5710 486f 890424   		movl	%eax, (%esp)
 5711 4872 E8000000 		call	_strcat
 5711      00
2089:mtk_resgenerator.cpp ****                     fprintf(pFile, "%s\n", MenuItemString);
 5713              	LM274:
 5714 4877 8D8578FD 		leal	-648(%ebp), %eax
 5714      FFFF
 5715 487d 89442408 		movl	%eax, 8(%esp)
 5716 4881 C7442404 		movl	$LC164, 4(%esp)
 5716      49320000 
 5717 4889 8B45F0   		movl	-16(%ebp), %eax
 5718 488c 890424   		movl	%eax, (%esp)
 5719 488f E8000000 		call	_fprintf
 5719      00
 5721              	LM275:
 5722              	L127:
 5723 4894 8D8574FD 		leal	-652(%ebp), %eax
 5723      FFFF
 5724 489a FF00     		incl	(%eax)
 5725 489c E9B7FEFF 		jmp	L125
 5725      FF
 5726              	L126:
2090:mtk_resgenerator.cpp ****                 }
2091:mtk_resgenerator.cpp **** 
GAS LISTING d:/MTK/MTK2503/MTK2503/11CW1418SP4_03_CORETEK03AE_11C_V1_GPRS_MMI/plutommi/Customer/ResGenerator/gcctmp/cc63daaa.s 			page 108


2092:mtk_resgenerator.cpp ****             }
2093:mtk_resgenerator.cpp ****             fprintf(pFile, "\n const CUSTOM_MENU		mtk_nCustMenus[]={\n");
 5728              	LM276:
 5729 48a1 C7442404 		movl	$LC165, 4(%esp)
 5729      60320000 
 5730 48a9 8B45F0   		movl	-16(%ebp), %eax
 5731 48ac 890424   		movl	%eax, (%esp)
 5732 48af E8000000 		call	_fprintf
 5732      00
2094:mtk_resgenerator.cpp ****             /* write a dummy entry at index 0 */
2095:mtk_resgenerator.cpp ****             fprintf(pFile, "{0, 0, 0, 0, 0, 0, (U16 *)0},\n");
 5734              	LM277:
 5735 48b4 C7442404 		movl	$LC166, 4(%esp)
 5735      A0320000 
 5736 48bc 8B45F0   		movl	-16(%ebp), %eax
 5737 48bf 890424   		movl	%eax, (%esp)
 5738 48c2 E8000000 		call	_fprintf
 5738      00
2096:mtk_resgenerator.cpp ****             for(i = 0; i < nSize; i++)
 5740              	LM278:
 5741 48c7 C78574FD 		movl	$0, -652(%ebp)
 5741      FFFF0000 
 5741      0000
 5742              	L134:
 5743 48d1 0FB745F6 		movzwl	-10(%ebp), %eax
 5744 48d5 398574FD 		cmpl	%eax, -652(%ebp)
 5744      FFFF
 5745 48db 7C05     		jl	L137
 5746 48dd E9AA0100 		jmp	L135
 5746      00
 5747              	L137:
2097:mtk_resgenerator.cpp ****             {
2098:mtk_resgenerator.cpp ****                 if(pCustMenu[i].nParentId < MAX_MENU_ITEMS)
 5749              	LM279:
 5750 48e2 8B8574FD 		movl	-652(%ebp), %eax
 5750      FFFF
 5751 48e8 89C2     		movl	%eax, %edx
 5752 48ea C1E204   		sall	$4, %edx
 5753 48ed 8B45EC   		movl	-20(%ebp), %eax
 5754 48f0 66833C10 		cmpw	$-1, (%eax,%edx)
 5754      FF
 5755 48f5 0F848401 		je	L136
 5755      0000
2099:mtk_resgenerator.cpp ****                 {
2100:mtk_resgenerator.cpp ****                     if(pCustMenu[i].nNumofMenuItem)
 5757              	LM280:
 5758 48fb 8B8574FD 		movl	-652(%ebp), %eax
 5758      FFFF
 5759 4901 89C2     		movl	%eax, %edx
 5760 4903 C1E204   		sall	$4, %edx
 5761 4906 8B45EC   		movl	-20(%ebp), %eax
 5762 4909 66837C10 		cmpw	$0, 2(%eax,%edx)
 5762      0200
 5763 490f 0F84AE00 		je	L139
 5763      0000
2101:mtk_resgenerator.cpp ****                         sprintf(MenuItemString, "{%d,%d,%d,%d,%d,%d,(U16 *)nOrderMenuItem_%d},",  p
 5765              	LM281:
GAS LISTING d:/MTK/MTK2503/MTK2503/11CW1418SP4_03_CORETEK03AE_11C_V1_GPRS_MMI/plutommi/Customer/ResGenerator/gcctmp/cc63daaa.s 			page 109


 5766 4915 8B8574FD 		movl	-652(%ebp), %eax
 5766      FFFF
 5767 491b 89442420 		movl	%eax, 32(%esp)
 5768 491f 8B8574FD 		movl	-652(%ebp), %eax
 5768      FFFF
 5769 4925 89C2     		movl	%eax, %edx
 5770 4927 C1E204   		sall	$4, %edx
 5771 492a 8B45EC   		movl	-20(%ebp), %eax
 5772 492d 0FB74410 		movzwl	8(%eax,%edx), %eax
 5772      08
 5773 4932 8944241C 		movl	%eax, 28(%esp)
 5774 4936 8B8574FD 		movl	-652(%ebp), %eax
 5774      FFFF
 5775 493c 89C2     		movl	%eax, %edx
 5776 493e C1E204   		sall	$4, %edx
 5777 4941 8B45EC   		movl	-20(%ebp), %eax
 5778 4944 0FB74410 		movzwl	6(%eax,%edx), %eax
 5778      06
 5779 4949 89442418 		movl	%eax, 24(%esp)
 5780 494d 8B8574FD 		movl	-652(%ebp), %eax
 5780      FFFF
 5781 4953 89C2     		movl	%eax, %edx
 5782 4955 C1E204   		sall	$4, %edx
 5783 4958 8B45EC   		movl	-20(%ebp), %eax
 5784 495b 0FB64410 		movzbl	5(%eax,%edx), %eax
 5784      05
 5785 4960 89442414 		movl	%eax, 20(%esp)
 5786 4964 8B8574FD 		movl	-652(%ebp), %eax
 5786      FFFF
 5787 496a 89C2     		movl	%eax, %edx
 5788 496c C1E204   		sall	$4, %edx
 5789 496f 8B45EC   		movl	-20(%ebp), %eax
 5790 4972 0FB64410 		movzbl	4(%eax,%edx), %eax
 5790      04
 5791 4977 89442410 		movl	%eax, 16(%esp)
 5792 497b 8B8574FD 		movl	-652(%ebp), %eax
 5792      FFFF
 5793 4981 89C2     		movl	%eax, %edx
 5794 4983 C1E204   		sall	$4, %edx
 5795 4986 8B45EC   		movl	-20(%ebp), %eax
 5796 4989 0FB74410 		movzwl	2(%eax,%edx), %eax
 5796      02
 5797 498e 8944240C 		movl	%eax, 12(%esp)
 5798 4992 8B8574FD 		movl	-652(%ebp), %eax
 5798      FFFF
 5799 4998 89C2     		movl	%eax, %edx
 5800 499a C1E204   		sall	$4, %edx
 5801 499d 8B45EC   		movl	-20(%ebp), %eax
 5802 49a0 0FB70410 		movzwl	(%eax,%edx), %eax
 5803 49a4 89442408 		movl	%eax, 8(%esp)
 5804 49a8 C7442404 		movl	$LC167, 4(%esp)
 5804      C0320000 
 5805 49b0 8D8578FD 		leal	-648(%ebp), %eax
 5805      FFFF
 5806 49b6 890424   		movl	%eax, (%esp)
 5807 49b9 E8000000 		call	_sprintf
 5807      00
GAS LISTING d:/MTK/MTK2503/MTK2503/11CW1418SP4_03_CORETEK03AE_11C_V1_GPRS_MMI/plutommi/Customer/ResGenerator/gcctmp/cc63daaa.s 			page 110


 5808 49be E99F0000 		jmp	L140
 5808      00
 5809              	L139:
2102:mtk_resgenerator.cpp ****                     else
2103:mtk_resgenerator.cpp ****                         sprintf(MenuItemString, "{%d,%d,%d,%d,%d,%d,(U16 *)0},", pCustMenu[i].nPare
 5811              	LM282:
 5812 49c3 8B8574FD 		movl	-652(%ebp), %eax
 5812      FFFF
 5813 49c9 89C2     		movl	%eax, %edx
 5814 49cb C1E204   		sall	$4, %edx
 5815 49ce 8B45EC   		movl	-20(%ebp), %eax
 5816 49d1 0FB74410 		movzwl	8(%eax,%edx), %eax
 5816      08
 5817 49d6 8944241C 		movl	%eax, 28(%esp)
 5818 49da 8B8574FD 		movl	-652(%ebp), %eax
 5818      FFFF
 5819 49e0 89C2     		movl	%eax, %edx
 5820 49e2 C1E204   		sall	$4, %edx
 5821 49e5 8B45EC   		movl	-20(%ebp), %eax
 5822 49e8 0FB74410 		movzwl	6(%eax,%edx), %eax
 5822      06
 5823 49ed 89442418 		movl	%eax, 24(%esp)
 5824 49f1 8B8574FD 		movl	-652(%ebp), %eax
 5824      FFFF
 5825 49f7 89C2     		movl	%eax, %edx
 5826 49f9 C1E204   		sall	$4, %edx
 5827 49fc 8B45EC   		movl	-20(%ebp), %eax
 5828 49ff 0FB64410 		movzbl	5(%eax,%edx), %eax
 5828      05
 5829 4a04 89442414 		movl	%eax, 20(%esp)
 5830 4a08 8B8574FD 		movl	-652(%ebp), %eax
 5830      FFFF
 5831 4a0e 89C2     		movl	%eax, %edx
 5832 4a10 C1E204   		sall	$4, %edx
 5833 4a13 8B45EC   		movl	-20(%ebp), %eax
 5834 4a16 0FB64410 		movzbl	4(%eax,%edx), %eax
 5834      04
 5835 4a1b 89442410 		movl	%eax, 16(%esp)
 5836 4a1f 8B8574FD 		movl	-652(%ebp), %eax
 5836      FFFF
 5837 4a25 89C2     		movl	%eax, %edx
 5838 4a27 C1E204   		sall	$4, %edx
 5839 4a2a 8B45EC   		movl	-20(%ebp), %eax
 5840 4a2d 0FB74410 		movzwl	2(%eax,%edx), %eax
 5840      02
 5841 4a32 8944240C 		movl	%eax, 12(%esp)
 5842 4a36 8B8574FD 		movl	-652(%ebp), %eax
 5842      FFFF
 5843 4a3c 89C2     		movl	%eax, %edx
 5844 4a3e C1E204   		sall	$4, %edx
 5845 4a41 8B45EC   		movl	-20(%ebp), %eax
 5846 4a44 0FB70410 		movzwl	(%eax,%edx), %eax
 5847 4a48 89442408 		movl	%eax, 8(%esp)
 5848 4a4c C7442404 		movl	$LC168, 4(%esp)
 5848      EE320000 
 5849 4a54 8D8578FD 		leal	-648(%ebp), %eax
 5849      FFFF
GAS LISTING d:/MTK/MTK2503/MTK2503/11CW1418SP4_03_CORETEK03AE_11C_V1_GPRS_MMI/plutommi/Customer/ResGenerator/gcctmp/cc63daaa.s 			page 111


 5850 4a5a 890424   		movl	%eax, (%esp)
 5851 4a5d E8000000 		call	_sprintf
 5851      00
 5852              	L140:
2104:mtk_resgenerator.cpp ****                     fprintf(pFile, "%s\n", MenuItemString);
 5854              	LM283:
 5855 4a62 8D8578FD 		leal	-648(%ebp), %eax
 5855      FFFF
 5856 4a68 89442408 		movl	%eax, 8(%esp)
 5857 4a6c C7442404 		movl	$LC164, 4(%esp)
 5857      49320000 
 5858 4a74 8B45F0   		movl	-16(%ebp), %eax
 5859 4a77 890424   		movl	%eax, (%esp)
 5860 4a7a E8000000 		call	_fprintf
 5860      00
 5862              	LM284:
 5863              	L136:
 5864 4a7f 8D8574FD 		leal	-652(%ebp), %eax
 5864      FFFF
 5865 4a85 FF00     		incl	(%eax)
 5866 4a87 E945FEFF 		jmp	L134
 5866      FF
 5867              	L135:
2105:mtk_resgenerator.cpp ****                 }
2106:mtk_resgenerator.cpp ****             }
2107:mtk_resgenerator.cpp ****             fprintf(pFile, "};\n");
 5869              	LM285:
 5870 4a8c C7442404 		movl	$LC17, 4(%esp)
 5870      02040000 
 5871 4a94 8B45F0   		movl	-16(%ebp), %eax
 5872 4a97 890424   		movl	%eax, (%esp)
 5873 4a9a E8000000 		call	_fprintf
 5873      00
2108:mtk_resgenerator.cpp **** 
2109:mtk_resgenerator.cpp ****             fprintf(pFile, "\n\n#ifdef __MULTIPLE_BINARY_FILES__\n");
 5875              	LM286:
 5876 4a9f C7442404 		movl	$LC169, 4(%esp)
 5876      20330000 
 5877 4aa7 8B45F0   		movl	-16(%ebp), %eax
 5878 4aaa 890424   		movl	%eax, (%esp)
 5879 4aad E8000000 		call	_fprintf
 5879      00
2110:mtk_resgenerator.cpp ****             fprintf(pFile, "    /* we give more 50% ram for multiple bin, if Menus more than this, 
 5881              	LM287:
 5882 4ab2 C7442404 		movl	$LC170, 4(%esp)
 5882      60330000 
 5883 4aba 8B45F0   		movl	-16(%ebp), %eax
 5884 4abd 890424   		movl	%eax, (%esp)
 5885 4ac0 E8000000 		call	_fprintf
 5885      00
2111:mtk_resgenerator.cpp ****             fprintf(pFile, "    #define AV_TOTAL_MENU_ITEM ((sizeof(mtk_nCustMenus)/sizeof(CUSTOM_M
 5887              	LM288:
 5888 4ac5 C7442404 		movl	$LC171, 4(%esp)
 5888      C0330000 
 5889 4acd 8B45F0   		movl	-16(%ebp), %eax
 5890 4ad0 890424   		movl	%eax, (%esp)
 5891 4ad3 E8000000 		call	_fprintf
GAS LISTING d:/MTK/MTK2503/MTK2503/11CW1418SP4_03_CORETEK03AE_11C_V1_GPRS_MMI/plutommi/Customer/ResGenerator/gcctmp/cc63daaa.s 			page 112


 5891      00
2112:mtk_resgenerator.cpp ****             fprintf(pFile, "#else\n");
 5893              	LM289:
 5894 4ad8 C7442404 		movl	$LC172, 4(%esp)
 5894      13340000 
 5895 4ae0 8B45F0   		movl	-16(%ebp), %eax
 5896 4ae3 890424   		movl	%eax, (%esp)
 5897 4ae6 E8000000 		call	_fprintf
 5897      00
2113:mtk_resgenerator.cpp ****             fprintf(pFile, "    #define AV_TOTAL_MENU_ITEM (sizeof(mtk_nCustMenus)/sizeof(CUSTOM_ME
 5899              	LM290:
 5900 4aeb C7442404 		movl	$LC173, 4(%esp)
 5900      20340000 
 5901 4af3 8B45F0   		movl	-16(%ebp), %eax
 5902 4af6 890424   		movl	%eax, (%esp)
 5903 4af9 E8000000 		call	_fprintf
 5903      00
2114:mtk_resgenerator.cpp ****             fprintf(pFile, "#endif\n\n");
 5905              	LM291:
 5906 4afe C7442404 		movl	$LC174, 4(%esp)
 5906      6D340000 
 5907 4b06 8B45F0   		movl	-16(%ebp), %eax
 5908 4b09 890424   		movl	%eax, (%esp)
 5909 4b0c E8000000 		call	_fprintf
 5909      00
2115:mtk_resgenerator.cpp ****             fprintf(pFile, "const S32 mtk_gAv_total_menuitem = ((U32)AV_TOTAL_MENU_ITEM);\n");
 5911              	LM292:
 5912 4b11 C7442404 		movl	$LC175, 4(%esp)
 5912      80340000 
 5913 4b19 8B45F0   		movl	-16(%ebp), %eax
 5914 4b1c 890424   		movl	%eax, (%esp)
 5915 4b1f E8000000 		call	_fprintf
 5915      00
2116:mtk_resgenerator.cpp ****             fprintf(pFile, "/* Hide menu item mask */\nU8 MenuItemMask[(((U32)AV_TOTAL_MENU_ITEM) /
 5917              	LM293:
 5918 4b24 C7442404 		movl	$LC176, 4(%esp)
 5918      C0340000 
 5919 4b2c 8B45F0   		movl	-16(%ebp), %eax
 5920 4b2f 890424   		movl	%eax, (%esp)
 5921 4b32 E8000000 		call	_fprintf
 5921      00
2117:mtk_resgenerator.cpp ****             fprintf(pFile, "/* Disable (dimmed) menu item mask */\nU8 g_menuitem_disable_mask[(((U3
 5923              	LM294:
 5924 4b37 C7442404 		movl	$LC177, 4(%esp)
 5924      20350000 
 5925 4b3f 8B45F0   		movl	-16(%ebp), %eax
 5926 4b42 890424   		movl	%eax, (%esp)
 5927 4b45 E8000000 		call	_fprintf
 5927      00
2118:mtk_resgenerator.cpp **** 
2119:mtk_resgenerator.cpp ****             fprintf(pFile, "\n const CUSTOM_MENU_SEARCH_MAP		CustMenuSearchMap[]={\n");
 5929              	LM295:
 5930 4b4a C7442404 		movl	$LC178, 4(%esp)
 5930      A0350000 
 5931 4b52 8B45F0   		movl	-16(%ebp), %eax
 5932 4b55 890424   		movl	%eax, (%esp)
 5933 4b58 E8000000 		call	_fprintf
GAS LISTING d:/MTK/MTK2503/MTK2503/11CW1418SP4_03_CORETEK03AE_11C_V1_GPRS_MMI/plutommi/Customer/ResGenerator/gcctmp/cc63daaa.s 			page 113


 5933      00
2120:mtk_resgenerator.cpp ****             for(i = 0; i < nSize; i++)
 5935              	LM296:
 5936 4b5d C78574FD 		movl	$0, -652(%ebp)
 5936      FFFF0000 
 5936      0000
 5937              	L141:
 5938 4b67 0FB745F6 		movzwl	-10(%ebp), %eax
 5939 4b6b 398574FD 		cmpl	%eax, -652(%ebp)
 5939      FFFF
 5940 4b71 7C05     		jl	L144
 5941 4b73 E9C20000 		jmp	L142
 5941      00
 5942              	L144:
2121:mtk_resgenerator.cpp ****             {
2122:mtk_resgenerator.cpp ****                 if(pCustMenu[i].nParentId < MAX_MENU_ITEMS)
 5944              	LM297:
 5945 4b78 8B8574FD 		movl	-652(%ebp), %eax
 5945      FFFF
 5946 4b7e 89C2     		movl	%eax, %edx
 5947 4b80 C1E204   		sall	$4, %edx
 5948 4b83 8B45EC   		movl	-20(%ebp), %eax
 5949 4b86 66833C10 		cmpw	$-1, (%eax,%edx)
 5949      FF
 5950 4b8b 7438     		je	L145
2123:mtk_resgenerator.cpp ****                 {
2124:mtk_resgenerator.cpp ****                     if (!start)
 5952              	LM298:
 5953 4b8d 83BD6CFD 		cmpl	$0, -660(%ebp)
 5953      FFFF00
 5954 4b94 7525     		jne	L146
2125:mtk_resgenerator.cpp ****                     {
2126:mtk_resgenerator.cpp ****                         min_id = max_id = i + 1;
 5956              	LM299:
 5957 4b96 8B8574FD 		movl	-652(%ebp), %eax
 5957      FFFF
 5958 4b9c 40       		incl	%eax
 5959 4b9d 89855CFD 		movl	%eax, -676(%ebp)
 5959      FFFF
 5960 4ba3 8B855CFD 		movl	-676(%ebp), %eax
 5960      FFFF
 5961 4ba9 898560FD 		movl	%eax, -672(%ebp)
 5961      FFFF
2127:mtk_resgenerator.cpp ****                         start = 1;
 5963              	LM300:
 5964 4baf C7856CFD 		movl	$1, -660(%ebp)
 5964      FFFF0100 
 5964      0000
 5965 4bb9 EB72     		jmp	L143
 5966              	L146:
2128:mtk_resgenerator.cpp ****                     }
2129:mtk_resgenerator.cpp ****                     else
2130:mtk_resgenerator.cpp ****                     {
2131:mtk_resgenerator.cpp ****                         max_id++;
 5968              	LM301:
 5969 4bbb 8D855CFD 		leal	-676(%ebp), %eax
 5969      FFFF
GAS LISTING d:/MTK/MTK2503/MTK2503/11CW1418SP4_03_CORETEK03AE_11C_V1_GPRS_MMI/plutommi/Customer/ResGenerator/gcctmp/cc63daaa.s 			page 114


 5970 4bc1 FF00     		incl	(%eax)
 5971 4bc3 EB68     		jmp	L143
 5972              	L145:
2132:mtk_resgenerator.cpp ****                     }
2133:mtk_resgenerator.cpp ****                 }
2134:mtk_resgenerator.cpp ****                 else
2135:mtk_resgenerator.cpp ****                 {
2136:mtk_resgenerator.cpp ****                     if (start)
 5974              	LM302:
 5975 4bc5 83BD6CFD 		cmpl	$0, -660(%ebp)
 5975      FFFF00
 5976 4bcc 745F     		je	L143
2137:mtk_resgenerator.cpp ****                     {
2138:mtk_resgenerator.cpp ****                         fprintf(pFile, "\t{%d, %d, %d},\n", min_id, max_id, index + 1); /* index + 
 5978              	LM303:
 5979 4bce 8B8568FD 		movl	-664(%ebp), %eax
 5979      FFFF
 5980 4bd4 40       		incl	%eax
 5981 4bd5 89442410 		movl	%eax, 16(%esp)
 5982 4bd9 8B855CFD 		movl	-676(%ebp), %eax
 5982      FFFF
 5983 4bdf 8944240C 		movl	%eax, 12(%esp)
 5984 4be3 8B8560FD 		movl	-672(%ebp), %eax
 5984      FFFF
 5985 4be9 89442408 		movl	%eax, 8(%esp)
 5986 4bed C7442404 		movl	$LC179, 4(%esp)
 5986      D7350000 
 5987 4bf5 8B45F0   		movl	-16(%ebp), %eax
 5988 4bf8 890424   		movl	%eax, (%esp)
 5989 4bfb E8000000 		call	_fprintf
 5989      00
2139:mtk_resgenerator.cpp ****                         index += max_id - min_id + 1;
 5991              	LM304:
 5992 4c00 8B9560FD 		movl	-672(%ebp), %edx
 5992      FFFF
 5993 4c06 8B855CFD 		movl	-676(%ebp), %eax
 5993      FFFF
 5994 4c0c 29D0     		subl	%edx, %eax
 5995 4c0e 038568FD 		addl	-664(%ebp), %eax
 5995      FFFF
 5996 4c14 40       		incl	%eax
 5997 4c15 898568FD 		movl	%eax, -664(%ebp)
 5997      FFFF
2140:mtk_resgenerator.cpp ****                         num_map_search++;
 5999              	LM305:
 6000 4c1b 8D8564FD 		leal	-668(%ebp), %eax
 6000      FFFF
 6001 4c21 FF00     		incl	(%eax)
2141:mtk_resgenerator.cpp ****                         start = 0;
 6003              	LM306:
 6004 4c23 C7856CFD 		movl	$0, -660(%ebp)
 6004      FFFF0000 
 6004      0000
 6006              	LM307:
 6007              	L143:
 6008 4c2d 8D8574FD 		leal	-652(%ebp), %eax
 6008      FFFF
GAS LISTING d:/MTK/MTK2503/MTK2503/11CW1418SP4_03_CORETEK03AE_11C_V1_GPRS_MMI/plutommi/Customer/ResGenerator/gcctmp/cc63daaa.s 			page 115


 6009 4c33 FF00     		incl	(%eax)
 6010 4c35 E92DFFFF 		jmp	L141
 6010      FF
 6011              	L142:
2142:mtk_resgenerator.cpp ****                     }
2143:mtk_resgenerator.cpp ****                 }
2144:mtk_resgenerator.cpp ****             }
2145:mtk_resgenerator.cpp **** 
2146:mtk_resgenerator.cpp ****             fprintf(pFile, "};\n");
 6013              	LM308:
 6014 4c3a C7442404 		movl	$LC17, 4(%esp)
 6014      02040000 
 6015 4c42 8B45F0   		movl	-16(%ebp), %eax
 6016 4c45 890424   		movl	%eax, (%esp)
 6017 4c48 E8000000 		call	_fprintf
 6017      00
2147:mtk_resgenerator.cpp ****             fprintf(pFile, "const CUSTOM_MENU_RES_ENTRY mtk_gMenuResEntry = {(CUSTOM_MENU*)mtk_nCus
 6019              	LM309:
 6020 4c4d 8B8564FD 		movl	-668(%ebp), %eax
 6020      FFFF
 6021 4c53 89442408 		movl	%eax, 8(%esp)
 6022 4c57 C7442404 		movl	$LC180, 4(%esp)
 6022      00360000 
 6023 4c5f 8B45F0   		movl	-16(%ebp), %eax
 6024 4c62 890424   		movl	%eax, (%esp)
 6025 4c65 E8000000 		call	_fprintf
 6025      00
 6026 4c6a EB13     		jmp	L150
 6027              	L124:
2148:mtk_resgenerator.cpp ****         }
2149:mtk_resgenerator.cpp ****         else
2150:mtk_resgenerator.cpp ****         {
2151:mtk_resgenerator.cpp ****             fprintf(pFile, "const CUSTOM_MENU		nCustMenus[1];");
 6029              	LM310:
 6030 4c6c C7442404 		movl	$LC181, 4(%esp)
 6030      A0360000 
 6031 4c74 8B45F0   		movl	-16(%ebp), %eax
 6032 4c77 890424   		movl	%eax, (%esp)
 6033 4c7a E8000000 		call	_fprintf
 6033      00
 6034              	L150:
2152:mtk_resgenerator.cpp ****         }
2153:mtk_resgenerator.cpp ****         fclose(pFile);
 6036              	LM311:
 6037 4c7f 8B45F0   		movl	-16(%ebp), %eax
 6038 4c82 890424   		movl	%eax, (%esp)
 6039 4c85 E8000000 		call	_fclose
 6039      00
 6040 4c8a EB0F     		jmp	L151
 6041              	L123:
2154:mtk_resgenerator.cpp ****     }
2155:mtk_resgenerator.cpp ****     else
2156:mtk_resgenerator.cpp ****     {
2157:mtk_resgenerator.cpp ****         return 0;
 6043              	LM312:
 6044 4c8c C78558FD 		movl	$0, -680(%ebp)
 6044      FFFF0000 
GAS LISTING d:/MTK/MTK2503/MTK2503/11CW1418SP4_03_CORETEK03AE_11C_V1_GPRS_MMI/plutommi/Customer/ResGenerator/gcctmp/cc63daaa.s 			page 116


 6044      0000
 6045 4c96 E9590300 		jmp	L122
 6045      00
 6046              	L151:
2158:mtk_resgenerator.cpp ****     }
2159:mtk_resgenerator.cpp **** 
2160:mtk_resgenerator.cpp ****     /* Menuitem reduce memory, move registe hilite handlers to resgen */
2161:mtk_resgenerator.cpp ****     if(pFile = fopen(MENU_HANDLER_FILENAME, "w"))
 6048              	LM313:
 6049 4c9b C7442404 		movl	$LC2, 4(%esp)
 6049      4F000000 
 6050 4ca3 C70424E0 		movl	$LC182, (%esp)
 6050      360000
 6051 4caa E8000000 		call	_fopen
 6051      00
 6052 4caf 8945F0   		movl	%eax, -16(%ebp)
 6053 4cb2 837DF000 		cmpl	$0, -16(%ebp)
 6054 4cb6 0F842203 		je	L152
 6054      0000
2162:mtk_resgenerator.cpp ****     {
2163:mtk_resgenerator.cpp ****         /* Output to head file MENU_HANDLER_FILENAME */
2164:mtk_resgenerator.cpp ****         /* File Header */
2165:mtk_resgenerator.cpp ****         fprintf(pFile, "/**************************************************************************
 6056              	LM314:
 6057 4cbc C7442404 		movl	$LC183, 4(%esp)
 6057      20370000 
 6058 4cc4 8B45F0   		movl	-16(%ebp), %eax
 6059 4cc7 890424   		movl	%eax, (%esp)
 6060 4cca E8000000 		call	_fprintf
 6060      00
2166:mtk_resgenerator.cpp ****         fprintf(pFile, "/**************************************************************************
 6062              	LM315:
 6063 4ccf C7442404 		movl	$LC184, 4(%esp)
 6063      603F0000 
 6064 4cd7 8B45F0   		movl	-16(%ebp), %eax
 6065 4cda 890424   		movl	%eax, (%esp)
 6066 4cdd E8000000 		call	_fprintf
 6066      00
2167:mtk_resgenerator.cpp ****         /* Define Extern and Include */
2168:mtk_resgenerator.cpp ****         fprintf(pFile, "\n#ifndef _MENUHANDLER_H\n#define _MENUHANDLER_H\n");
 6068              	LM316:
 6069 4ce2 C7442404 		movl	$LC185, 4(%esp)
 6069      00430000 
 6070 4cea 8B45F0   		movl	-16(%ebp), %eax
 6071 4ced 890424   		movl	%eax, (%esp)
 6072 4cf0 E8000000 		call	_fprintf
 6072      00
2169:mtk_resgenerator.cpp ****         fprintf(pFile, "\n/* need typedef void (*FuncPtr) (void); before include this file */\n\n")
 6074              	LM317:
 6075 4cf5 C7442404 		movl	$LC186, 4(%esp)
 6075      40430000 
 6076 4cfd 8B45F0   		movl	-16(%ebp), %eax
 6077 4d00 890424   		movl	%eax, (%esp)
 6078 4d03 E8000000 		call	_fprintf
 6078      00
2170:mtk_resgenerator.cpp ****         fprintf(pFile, "/* #define MENU_HILITE_HANDLER_COUNT   %d; */\n/* #define MENU_HINT_HANDLER
 6080              	LM318:
GAS LISTING d:/MTK/MTK2503/MTK2503/11CW1418SP4_03_CORETEK03AE_11C_V1_GPRS_MMI/plutommi/Customer/ResGenerator/gcctmp/cc63daaa.s 			page 117


 6081 4d08 A1000000 		movl	_HintHdlrCount, %eax
 6081      00
 6082 4d0d 8944240C 		movl	%eax, 12(%esp)
 6083 4d11 A1000000 		movl	_HiliteHdlrCount, %eax
 6083      00
 6084 4d16 89442408 		movl	%eax, 8(%esp)
 6085 4d1a C7442404 		movl	$LC187, 4(%esp)
 6085      A0430000 
 6086 4d22 8B45F0   		movl	-16(%ebp), %eax
 6087 4d25 890424   		movl	%eax, (%esp)
 6088 4d28 E8000000 		call	_fprintf
 6088      00
2171:mtk_resgenerator.cpp **** 
2172:mtk_resgenerator.cpp ****         fprintf(pFile, "#include \"mmi_rp_all_defs.h\"\n");
 6090              	LM319:
 6091 4d2d C7442404 		movl	$LC188, 4(%esp)
 6091      FE430000 
 6092 4d35 8B45F0   		movl	-16(%ebp), %eax
 6093 4d38 890424   		movl	%eax, (%esp)
 6094 4d3b E8000000 		call	_fprintf
 6094      00
2173:mtk_resgenerator.cpp ****         /* Extern of handler functions */
2174:mtk_resgenerator.cpp ****         fprintf(pFile, "/* Extern functions of Hilite Handler */\n");
 6096              	LM320:
 6097 4d40 C7442404 		movl	$LC189, 4(%esp)
 6097      20440000 
 6098 4d48 8B45F0   		movl	-16(%ebp), %eax
 6099 4d4b 890424   		movl	%eax, (%esp)
 6100 4d4e E8000000 		call	_fprintf
 6100      00
2175:mtk_resgenerator.cpp ****         for (i=0; i<MAX_MENU_ITEMS; i++)
 6102              	LM321:
 6103 4d53 C78574FD 		movl	$0, -652(%ebp)
 6103      FFFF0000 
 6103      0000
 6104              	L153:
 6105 4d5d 81BD74FD 		cmpl	$65534, -652(%ebp)
 6105      FFFFFEFF 
 6105      0000
 6106 4d67 7E02     		jle	L156
 6107 4d69 EB4E     		jmp	L154
 6108              	L156:
2176:mtk_resgenerator.cpp ****         {
2177:mtk_resgenerator.cpp ****             if (nMenuHiliteHandlers[i].nMenuItemId != 0)
 6110              	LM322:
 6111 4d6b 8B9574FD 		movl	-652(%ebp), %edx
 6111      FFFF
 6112 4d71 89D0     		movl	%edx, %eax
 6113 4d73 C1E007   		sall	$7, %eax
 6114 4d76 01D0     		addl	%edx, %eax
 6115 4d78 01C0     		addl	%eax, %eax
 6116 4d7a 6683B800 		cmpw	$0, _nMenuHiliteHandlers(%eax)
 6116      00000000 
 6117 4d82 742B     		je	L155
2178:mtk_resgenerator.cpp ****             {
2179:mtk_resgenerator.cpp ****                 fprintf(pFile, "extern void %s(void);\n", nMenuHiliteHandlers[i].HiliteFuncName);
 6119              	LM323:
GAS LISTING d:/MTK/MTK2503/MTK2503/11CW1418SP4_03_CORETEK03AE_11C_V1_GPRS_MMI/plutommi/Customer/ResGenerator/gcctmp/cc63daaa.s 			page 118


 6120 4d84 8B9574FD 		movl	-652(%ebp), %edx
 6120      FFFF
 6121 4d8a 89D0     		movl	%edx, %eax
 6122 4d8c C1E007   		sall	$7, %eax
 6123 4d8f 01D0     		addl	%edx, %eax
 6124 4d91 01C0     		addl	%eax, %eax
 6125 4d93 05820000 		addl	$_nMenuHiliteHandlers+130, %eax
 6125      00
 6126 4d98 89442408 		movl	%eax, 8(%esp)
 6127 4d9c C7442404 		movl	$LC190, 4(%esp)
 6127      4A440000 
 6128 4da4 8B45F0   		movl	-16(%ebp), %eax
 6129 4da7 890424   		movl	%eax, (%esp)
 6130 4daa E8000000 		call	_fprintf
 6130      00
 6132              	LM324:
 6133              	L155:
 6134 4daf 8D8574FD 		leal	-652(%ebp), %eax
 6134      FFFF
 6135 4db5 FF00     		incl	(%eax)
 6136 4db7 EBA4     		jmp	L153
 6137              	L154:
2180:mtk_resgenerator.cpp ****             }
2181:mtk_resgenerator.cpp ****         }
2182:mtk_resgenerator.cpp ****         fprintf(pFile, "\n\n/* Extern functions of Hint Handler */\n");
 6139              	LM325:
 6140 4db9 C7442404 		movl	$LC191, 4(%esp)
 6140      80440000 
 6141 4dc1 8B45F0   		movl	-16(%ebp), %eax
 6142 4dc4 890424   		movl	%eax, (%esp)
 6143 4dc7 E8000000 		call	_fprintf
 6143      00
2183:mtk_resgenerator.cpp ****         for (i=0; i<MAX_MENU_ITEMS; i++)
 6145              	LM326:
 6146 4dcc C78574FD 		movl	$0, -652(%ebp)
 6146      FFFF0000 
 6146      0000
 6147              	L158:
 6148 4dd6 81BD74FD 		cmpl	$65534, -652(%ebp)
 6148      FFFFFEFF 
 6148      0000
 6149 4de0 7E02     		jle	L161
 6150 4de2 EB4E     		jmp	L159
 6151              	L161:
2184:mtk_resgenerator.cpp ****         {
2185:mtk_resgenerator.cpp ****             if (nMenuHintHandlers[i].nMenuItemId != 0)
 6153              	LM327:
 6154 4de4 8B9574FD 		movl	-652(%ebp), %edx
 6154      FFFF
 6155 4dea 89D0     		movl	%edx, %eax
 6156 4dec C1E007   		sall	$7, %eax
 6157 4def 01D0     		addl	%edx, %eax
 6158 4df1 01C0     		addl	%eax, %eax
 6159 4df3 6683B800 		cmpw	$0, _nMenuHintHandlers(%eax)
 6159      00000000 
 6160 4dfb 742B     		je	L160
2186:mtk_resgenerator.cpp ****             {
GAS LISTING d:/MTK/MTK2503/MTK2503/11CW1418SP4_03_CORETEK03AE_11C_V1_GPRS_MMI/plutommi/Customer/ResGenerator/gcctmp/cc63daaa.s 			page 119


2187:mtk_resgenerator.cpp ****                 fprintf(pFile, "extern void %s(U16);\n", nMenuHintHandlers[i].HintFuncName);
 6162              	LM328:
 6163 4dfd 8B9574FD 		movl	-652(%ebp), %edx
 6163      FFFF
 6164 4e03 89D0     		movl	%edx, %eax
 6165 4e05 C1E007   		sall	$7, %eax
 6166 4e08 01D0     		addl	%edx, %eax
 6167 4e0a 01C0     		addl	%eax, %eax
 6168 4e0c 05820000 		addl	$_nMenuHintHandlers+130, %eax
 6168      00
 6169 4e11 89442408 		movl	%eax, 8(%esp)
 6170 4e15 C7442404 		movl	$LC192, 4(%esp)
 6170      AA440000 
 6171 4e1d 8B45F0   		movl	-16(%ebp), %eax
 6172 4e20 890424   		movl	%eax, (%esp)
 6173 4e23 E8000000 		call	_fprintf
 6173      00
 6175              	LM329:
 6176              	L160:
 6177 4e28 8D8574FD 		leal	-652(%ebp), %eax
 6177      FFFF
 6178 4e2e FF00     		incl	(%eax)
 6179 4e30 EBA4     		jmp	L158
 6180              	L159:
2188:mtk_resgenerator.cpp ****             }
2189:mtk_resgenerator.cpp ****         }
2190:mtk_resgenerator.cpp ****         /* MenuHiliteHandlers Array */
2191:mtk_resgenerator.cpp ****         if (HiliteHdlrCount != 0)
 6182              	LM330:
 6183 4e32 833D0000 		cmpl	$0, _HiliteHdlrCount
 6183      000000
 6184 4e39 0F84A600 		je	L163
 6184      0000
2192:mtk_resgenerator.cpp ****         {
2193:mtk_resgenerator.cpp ****             fprintf(pFile, "\nconst mmi_frm_hilite_hdlr_struct mmi_frm_const_hilite_hdlr_table[] = 
 6186              	LM331:
 6187 4e3f C7442404 		movl	$LC193, 4(%esp)
 6187      C0440000 
 6188 4e47 8B45F0   		movl	-16(%ebp), %eax
 6189 4e4a 890424   		movl	%eax, (%esp)
 6190 4e4d E8000000 		call	_fprintf
 6190      00
2194:mtk_resgenerator.cpp ****             for (i=0; i<MAX_MENU_ITEMS; i++)
 6192              	LM332:
 6193 4e52 C78574FD 		movl	$0, -652(%ebp)
 6193      FFFF0000 
 6193      0000
 6194              	L164:
 6195 4e5c 81BD74FD 		cmpl	$65534, -652(%ebp)
 6195      FFFFFEFF 
 6195      0000
 6196 4e66 7E02     		jle	L167
 6197 4e68 EB66     		jmp	L165
 6198              	L167:
2195:mtk_resgenerator.cpp ****             {
2196:mtk_resgenerator.cpp ****                 if (nMenuHiliteHandlers[i].nMenuItemId != 0)
 6200              	LM333:
GAS LISTING d:/MTK/MTK2503/MTK2503/11CW1418SP4_03_CORETEK03AE_11C_V1_GPRS_MMI/plutommi/Customer/ResGenerator/gcctmp/cc63daaa.s 			page 120


 6201 4e6a 8B9574FD 		movl	-652(%ebp), %edx
 6201      FFFF
 6202 4e70 89D0     		movl	%edx, %eax
 6203 4e72 C1E007   		sall	$7, %eax
 6204 4e75 01D0     		addl	%edx, %eax
 6205 4e77 01C0     		addl	%eax, %eax
 6206 4e79 6683B800 		cmpw	$0, _nMenuHiliteHandlers(%eax)
 6206      00000000 
 6207 4e81 7443     		je	L166
2197:mtk_resgenerator.cpp ****                 {
2198:mtk_resgenerator.cpp ****                     fprintf(pFile, "    {%s, %s},\n", nMenuHiliteHandlers[i].MenuItemIdEnum, nMenuH
 6209              	LM334:
 6210 4e83 8B9574FD 		movl	-652(%ebp), %edx
 6210      FFFF
 6211 4e89 89D0     		movl	%edx, %eax
 6212 4e8b C1E007   		sall	$7, %eax
 6213 4e8e 01D0     		addl	%edx, %eax
 6214 4e90 01C0     		addl	%eax, %eax
 6215 4e92 05820000 		addl	$_nMenuHiliteHandlers+130, %eax
 6215      00
 6216 4e97 8944240C 		movl	%eax, 12(%esp)
 6217 4e9b 8B9574FD 		movl	-652(%ebp), %edx
 6217      FFFF
 6218 4ea1 89D0     		movl	%edx, %eax
 6219 4ea3 C1E007   		sall	$7, %eax
 6220 4ea6 01D0     		addl	%edx, %eax
 6221 4ea8 01C0     		addl	%eax, %eax
 6222 4eaa 05020000 		addl	$_nMenuHiliteHandlers+2, %eax
 6222      00
 6223 4eaf 89442408 		movl	%eax, 8(%esp)
 6224 4eb3 C7442404 		movl	$LC194, 4(%esp)
 6224      09450000 
 6225 4ebb 8B45F0   		movl	-16(%ebp), %eax
 6226 4ebe 890424   		movl	%eax, (%esp)
 6227 4ec1 E8000000 		call	_fprintf
 6227      00
 6229              	LM335:
 6230              	L166:
 6231 4ec6 8D8574FD 		leal	-652(%ebp), %eax
 6231      FFFF
 6232 4ecc FF00     		incl	(%eax)
 6233 4ece EB8C     		jmp	L164
 6234              	L165:
2199:mtk_resgenerator.cpp ****                 }
2200:mtk_resgenerator.cpp ****             }
2201:mtk_resgenerator.cpp ****             fprintf(pFile, "};\n");
 6236              	LM336:
 6237 4ed0 C7442404 		movl	$LC17, 4(%esp)
 6237      02040000 
 6238 4ed8 8B45F0   		movl	-16(%ebp), %eax
 6239 4edb 890424   		movl	%eax, (%esp)
 6240 4ede E8000000 		call	_fprintf
 6240      00
 6241 4ee3 EB13     		jmp	L169
 6242              	L163:
2202:mtk_resgenerator.cpp ****         }
2203:mtk_resgenerator.cpp ****         else
GAS LISTING d:/MTK/MTK2503/MTK2503/11CW1418SP4_03_CORETEK03AE_11C_V1_GPRS_MMI/plutommi/Customer/ResGenerator/gcctmp/cc63daaa.s 			page 121


2204:mtk_resgenerator.cpp ****         {
2205:mtk_resgenerator.cpp ****             fprintf(pFile, "\nconst mmi_frm_hilite_hdlr_struct mmi_frm_const_hilite_hdlr_table[1] =
 6244              	LM337:
 6245 4ee5 C7442404 		movl	$LC195, 4(%esp)
 6245      20450000 
 6246 4eed 8B45F0   		movl	-16(%ebp), %eax
 6247 4ef0 890424   		movl	%eax, (%esp)
 6248 4ef3 E8000000 		call	_fprintf
 6248      00
 6249              	L169:
2206:mtk_resgenerator.cpp ****         }
2207:mtk_resgenerator.cpp **** 
2208:mtk_resgenerator.cpp ****         /* MenuHintHandlers Array */
2209:mtk_resgenerator.cpp ****         if (HintHdlrCount != 0)
 6251              	LM338:
 6252 4ef8 833D0000 		cmpl	$0, _HintHdlrCount
 6252      000000
 6253 4eff 0F84A600 		je	L170
 6253      0000
2210:mtk_resgenerator.cpp ****         {
2211:mtk_resgenerator.cpp ****             fprintf(pFile, "\nconst mmi_frm_hint_hdlr_struct mmi_frm_const_hint_hdlr_table[] = {\n"
 6255              	LM339:
 6256 4f05 C7442404 		movl	$LC196, 4(%esp)
 6256      80450000 
 6257 4f0d 8B45F0   		movl	-16(%ebp), %eax
 6258 4f10 890424   		movl	%eax, (%esp)
 6259 4f13 E8000000 		call	_fprintf
 6259      00
2212:mtk_resgenerator.cpp ****             for (i=0; i<MAX_MENU_ITEMS; i++)
 6261              	LM340:
 6262 4f18 C78574FD 		movl	$0, -652(%ebp)
 6262      FFFF0000 
 6262      0000
 6263              	L171:
 6264 4f22 81BD74FD 		cmpl	$65534, -652(%ebp)
 6264      FFFFFEFF 
 6264      0000
 6265 4f2c 7E02     		jle	L174
 6266 4f2e EB66     		jmp	L172
 6267              	L174:
2213:mtk_resgenerator.cpp ****             {
2214:mtk_resgenerator.cpp ****                 if (nMenuHintHandlers[i].nMenuItemId != 0)
 6269              	LM341:
 6270 4f30 8B9574FD 		movl	-652(%ebp), %edx
 6270      FFFF
 6271 4f36 89D0     		movl	%edx, %eax
 6272 4f38 C1E007   		sall	$7, %eax
 6273 4f3b 01D0     		addl	%edx, %eax
 6274 4f3d 01C0     		addl	%eax, %eax
 6275 4f3f 6683B800 		cmpw	$0, _nMenuHintHandlers(%eax)
 6275      00000000 
 6276 4f47 7443     		je	L173
2215:mtk_resgenerator.cpp ****                 {
2216:mtk_resgenerator.cpp ****                     fprintf(pFile, "    {%s, %s},\n", nMenuHintHandlers[i].MenuItemIdEnum, nMenuHin
 6278              	LM342:
 6279 4f49 8B9574FD 		movl	-652(%ebp), %edx
 6279      FFFF
GAS LISTING d:/MTK/MTK2503/MTK2503/11CW1418SP4_03_CORETEK03AE_11C_V1_GPRS_MMI/plutommi/Customer/ResGenerator/gcctmp/cc63daaa.s 			page 122


 6280 4f4f 89D0     		movl	%edx, %eax
 6281 4f51 C1E007   		sall	$7, %eax
 6282 4f54 01D0     		addl	%edx, %eax
 6283 4f56 01C0     		addl	%eax, %eax
 6284 4f58 05820000 		addl	$_nMenuHintHandlers+130, %eax
 6284      00
 6285 4f5d 8944240C 		movl	%eax, 12(%esp)
 6286 4f61 8B9574FD 		movl	-652(%ebp), %edx
 6286      FFFF
 6287 4f67 89D0     		movl	%edx, %eax
 6288 4f69 C1E007   		sall	$7, %eax
 6289 4f6c 01D0     		addl	%edx, %eax
 6290 4f6e 01C0     		addl	%eax, %eax
 6291 4f70 05020000 		addl	$_nMenuHintHandlers+2, %eax
 6291      00
 6292 4f75 89442408 		movl	%eax, 8(%esp)
 6293 4f79 C7442404 		movl	$LC194, 4(%esp)
 6293      09450000 
 6294 4f81 8B45F0   		movl	-16(%ebp), %eax
 6295 4f84 890424   		movl	%eax, (%esp)
 6296 4f87 E8000000 		call	_fprintf
 6296      00
 6298              	LM343:
 6299              	L173:
 6300 4f8c 8D8574FD 		leal	-652(%ebp), %eax
 6300      FFFF
 6301 4f92 FF00     		incl	(%eax)
 6302 4f94 EB8C     		jmp	L171
 6303              	L172:
2217:mtk_resgenerator.cpp ****                 }
2218:mtk_resgenerator.cpp ****             }
2219:mtk_resgenerator.cpp ****             fprintf(pFile, "};\n");
 6305              	LM344:
 6306 4f96 C7442404 		movl	$LC17, 4(%esp)
 6306      02040000 
 6307 4f9e 8B45F0   		movl	-16(%ebp), %eax
 6308 4fa1 890424   		movl	%eax, (%esp)
 6309 4fa4 E8000000 		call	_fprintf
 6309      00
 6310 4fa9 EB13     		jmp	L176
 6311              	L170:
2220:mtk_resgenerator.cpp ****         }
2221:mtk_resgenerator.cpp ****         else
2222:mtk_resgenerator.cpp ****         {
2223:mtk_resgenerator.cpp ****             fprintf(pFile, "\nconst mmi_frm_hint_hdlr_struct mmi_frm_const_hint_hdlr_table[1] = {{0
 6313              	LM345:
 6314 4fab C7442404 		movl	$LC197, 4(%esp)
 6314      E0450000 
 6315 4fb3 8B45F0   		movl	-16(%ebp), %eax
 6316 4fb6 890424   		movl	%eax, (%esp)
 6317 4fb9 E8000000 		call	_fprintf
 6317      00
 6318              	L176:
2224:mtk_resgenerator.cpp ****         }
2225:mtk_resgenerator.cpp ****         /* endif */
2226:mtk_resgenerator.cpp ****         fprintf(pFile, "\n#endif /* _MENUHANDLER_H */ \n");
 6320              	LM346:
GAS LISTING d:/MTK/MTK2503/MTK2503/11CW1418SP4_03_CORETEK03AE_11C_V1_GPRS_MMI/plutommi/Customer/ResGenerator/gcctmp/cc63daaa.s 			page 123


 6321 4fbe C7442404 		movl	$LC198, 4(%esp)
 6321      40460000 
 6322 4fc6 8B45F0   		movl	-16(%ebp), %eax
 6323 4fc9 890424   		movl	%eax, (%esp)
 6324 4fcc E8000000 		call	_fprintf
 6324      00
2227:mtk_resgenerator.cpp **** 
2228:mtk_resgenerator.cpp ****         fclose(pFile);
 6326              	LM347:
 6327 4fd1 8B45F0   		movl	-16(%ebp), %eax
 6328 4fd4 890424   		movl	%eax, (%esp)
 6329 4fd7 E8000000 		call	_fclose
 6329      00
 6330 4fdc EB0C     		jmp	L177
 6331              	L152:
2229:mtk_resgenerator.cpp ****     }
2230:mtk_resgenerator.cpp ****     else
2231:mtk_resgenerator.cpp ****     {
2232:mtk_resgenerator.cpp ****         return 0;
 6333              	LM348:
 6334 4fde C78558FD 		movl	$0, -680(%ebp)
 6334      FFFF0000 
 6334      0000
 6335 4fe8 EB0A     		jmp	L122
 6336              	L177:
2233:mtk_resgenerator.cpp ****     }
2234:mtk_resgenerator.cpp ****     return 1;
 6338              	LM349:
 6339 4fea C78558FD 		movl	$1, -680(%ebp)
 6339      FFFF0100 
 6339      0000
2235:mtk_resgenerator.cpp **** }
 6341              	LM350:
 6342              	L122:
 6343              	LBE39:
 6344 4ff4 8B8558FD 		movl	-680(%ebp), %eax
 6344      FFFF
 6345 4ffa 81C4D402 		addl	$724, %esp
 6345      0000
 6346 5000 5B       		popl	%ebx
 6347 5001 5D       		popl	%ebp
 6348 5002 C3       		ret
 6363              	Lscope20:
 6365 5003 90909090 		.align 32
 6365      90909090 
 6365      90909090 
 6365      90909090 
 6365      90909090 
 6366              	LC199:
 6367 5020 2E2E5C2E 		.ascii "..\\..\\customer\\custresource\\CustImgDataRes_0.c\0"
 6367      2E5C6375 
 6367      73746F6D 
 6367      65725C63 
 6367      75737472 
 6368 504f 90909090 		.align 32
 6368      90909090 
 6368      90909090 
GAS LISTING d:/MTK/MTK2503/MTK2503/11CW1418SP4_03_CORETEK03AE_11C_V1_GPRS_MMI/plutommi/Customer/ResGenerator/gcctmp/cc63daaa.s 			page 124


 6368      90909090 
 6368      90
 6369              	LC200:
 6370 5060 2E2E5C2E 		.ascii "..\\..\\customer\\custresource\\CustImgDataRes_1.c\0"
 6370      2E5C6375 
 6370      73746F6D 
 6370      65725C63 
 6370      75737472 
 6371 508f 90909090 		.align 32
 6371      90909090 
 6371      90909090 
 6371      90909090 
 6371      90
 6372              	LC201:
 6373 50a0 2E2E5C2E 		.ascii "..\\..\\customer\\custresource\\CustImgDataRes_2.c\0"
 6373      2E5C6375 
 6373      73746F6D 
 6373      65725C63 
 6373      75737472 
 6374 50cf 90909090 		.align 32
 6374      90909090 
 6374      90909090 
 6374      90909090 
 6374      90
 6375              	LC202:
 6376 50e0 2E2E5C2E 		.ascii "..\\..\\customer\\custresource\\CustImgDataRes_3.c\0"
 6376      2E5C6375 
 6376      73746F6D 
 6376      65725C63 
 6376      75737472 
 6377              	.globl _output_file_name
 6378              		.data
 6379              		.align 4
 6380              	_output_file_name:
 6381 0000 20500000 		.long	LC199
 6382 0004 60500000 		.long	LC200
 6383 0008 A0500000 		.long	LC201
 6384 000c E0500000 		.long	LC202
 6386              	.lcomm _ZZ19process_line_bufferPcE5bjump,16
 6387              		.text
 6388 510f 90       		.align 2
 6391              	.globl __Z19process_line_bufferPc
 6393              	__Z19process_line_bufferPc:
2236:mtk_resgenerator.cpp **** 
2237:mtk_resgenerator.cpp **** #if 0
2238:mtk_resgenerator.cpp **** /* under construction !*/
2239:mtk_resgenerator.cpp **** /* under construction !*/
2240:mtk_resgenerator.cpp **** /* under construction !*/
2241:mtk_resgenerator.cpp **** /* under construction !*/
2242:mtk_resgenerator.cpp **** /* under construction !*/
2243:mtk_resgenerator.cpp **** /* under construction !*/
2244:mtk_resgenerator.cpp **** /* under construction !*/
2245:mtk_resgenerator.cpp **** /* under construction !*/
2246:mtk_resgenerator.cpp **** /* under construction !*/
2247:mtk_resgenerator.cpp **** /* under construction !*/
2248:mtk_resgenerator.cpp **** /* under construction !*/
2249:mtk_resgenerator.cpp **** /* under construction !*/
GAS LISTING d:/MTK/MTK2503/MTK2503/11CW1418SP4_03_CORETEK03AE_11C_V1_GPRS_MMI/plutommi/Customer/ResGenerator/gcctmp/cc63daaa.s 			page 125


2250:mtk_resgenerator.cpp **** /* under construction !*/
2251:mtk_resgenerator.cpp **** /* under construction !*/
2252:mtk_resgenerator.cpp **** /* under construction !*/
2253:mtk_resgenerator.cpp **** /* under construction !*/
2254:mtk_resgenerator.cpp **** /* under construction !*/
2255:mtk_resgenerator.cpp **** /* under construction !*/
2256:mtk_resgenerator.cpp **** /* under construction !*/
2257:mtk_resgenerator.cpp **** /* under construction !*/
2258:mtk_resgenerator.cpp **** /* under construction !*/
2259:mtk_resgenerator.cpp **** /* under construction !*/
2260:mtk_resgenerator.cpp **** /* under construction !*/
2261:mtk_resgenerator.cpp **** /* under construction !*/
2262:mtk_resgenerator.cpp **** /* under construction !*/
2263:mtk_resgenerator.cpp **** /* under construction !*/
2264:mtk_resgenerator.cpp **** /* under construction !*/
2265:mtk_resgenerator.cpp **** /* under construction !*/
2266:mtk_resgenerator.cpp **** /* under construction !*/
2267:mtk_resgenerator.cpp **** /* under construction !*/
2268:mtk_resgenerator.cpp **** /* under construction !*/
2269:mtk_resgenerator.cpp **** /* under construction !*/
2270:mtk_resgenerator.cpp **** /* under construction !*/
2271:mtk_resgenerator.cpp **** /* under construction !*/
2272:mtk_resgenerator.cpp **** #endif
2273:mtk_resgenerator.cpp **** /* start split image data */
2274:mtk_resgenerator.cpp **** 
2275:mtk_resgenerator.cpp **** const char HEADER[] = "__align(4)";
2276:mtk_resgenerator.cpp **** const char REP_HEADER[] =  ("extern ");
2277:mtk_resgenerator.cpp **** #define START_FLAG    ('{')
2278:mtk_resgenerator.cpp **** #define END_FLAG      ('}')
2279:mtk_resgenerator.cpp **** #define AVERAGE_IMG_NUMBER    (2000)
2280:mtk_resgenerator.cpp **** 
2281:mtk_resgenerator.cpp **** #define CUST_RES_FILE_COUNT    (4)
2282:mtk_resgenerator.cpp **** const char *output_file_name[CUST_RES_FILE_COUNT] = {
2283:mtk_resgenerator.cpp ****     "..\\..\\customer\\custresource\\CustImgDataRes_0.c",
2284:mtk_resgenerator.cpp ****     "..\\..\\customer\\custresource\\CustImgDataRes_1.c",
2285:mtk_resgenerator.cpp ****     "..\\..\\customer\\custresource\\CustImgDataRes_2.c",
2286:mtk_resgenerator.cpp ****     "..\\..\\customer\\custresource\\CustImgDataRes_3.c",
2287:mtk_resgenerator.cpp **** };
2288:mtk_resgenerator.cpp **** 
2289:mtk_resgenerator.cpp **** #ifdef __RESOURCE_GEN_
2290:mtk_resgenerator.cpp **** #define CUST_IMG_DATA_PATH    "..\\..\\customer\\custresource"
2291:mtk_resgenerator.cpp **** #define CUST_IMG_DATA_FILE    "..\\..\\customer\\custresource\\custimgdatahw.h"
2292:mtk_resgenerator.cpp **** #define CUST_IMG_DATA_O_FILE    "..\\..\\customer\\custresource\\custimgdatahwBak.h"
2293:mtk_resgenerator.cpp **** #define CUST_IMG_HEADER_FILE  "..\\..\\customer\\custresource\\tmp_imgdata.h"
2294:mtk_resgenerator.cpp **** #else
2295:mtk_resgenerator.cpp **** #define CUST_IMG_DATA_PATH    ".\\"
2296:mtk_resgenerator.cpp **** #define CUST_IMG_DATA_FILE    ".\\custimgdatahw.h"
2297:mtk_resgenerator.cpp **** #endif
2298:mtk_resgenerator.cpp **** 
2299:mtk_resgenerator.cpp **** typedef char(* BUFFER_HEADER)[1024];
2300:mtk_resgenerator.cpp **** 
2301:mtk_resgenerator.cpp **** 
2302:mtk_resgenerator.cpp **** /*
2303:mtk_resgenerator.cpp **** * here we supporse the line content as following three lines:
2304:mtk_resgenerator.cpp **** * __align(4) const U8 __MAINLCD__ACTIVE__POWERONOFF__LOGO_BMP_[] =
2305:mtk_resgenerator.cpp **** * const U8 __MAINLCD__ACTIVE__POWERONOFF__LOGO_BMP_[] =
2306:mtk_resgenerator.cpp **** * other content without '=' and "__align(4)"
GAS LISTING d:/MTK/MTK2503/MTK2503/11CW1418SP4_03_CORETEK03AE_11C_V1_GPRS_MMI/plutommi/Customer/ResGenerator/gcctmp/cc63daaa.s 			page 126


2307:mtk_resgenerator.cpp **** */
2308:mtk_resgenerator.cpp **** char *process_line_buffer(char *buffer)
2309:mtk_resgenerator.cpp **** {
 6395              	LM351:
 6396 5110 55       		pushl	%ebp
 6397 5111 89E5     		movl	%esp, %ebp
 6398 5113 83EC18   		subl	$24, %esp
2310:mtk_resgenerator.cpp ****     char *tmp_buff = NULL;
 6400              	LM352:
 6401              	LBB40:
 6402 5116 C745FC00 		movl	$0, -4(%ebp)
 6402      000000
2311:mtk_resgenerator.cpp ****     static bool bjump = false;
2312:mtk_resgenerator.cpp ****     int len = strlen(REP_HEADER);
 6404              	LM353:
 6405 511d C7042473 		movl	$_REP_HEADER, (%esp)
 6405      830000
 6406 5124 E8000000 		call	_strlen
 6406      00
 6407 5129 8945F8   		movl	%eax, -8(%ebp)
2313:mtk_resgenerator.cpp **** 
2314:mtk_resgenerator.cpp ****     if(buffer != NULL)
 6409              	LM354:
 6410              	LBB41:
 6411 512c 837D0800 		cmpl	$0, 8(%ebp)
 6412 5130 0F84F200 		je	L179
 6412      0000
2315:mtk_resgenerator.cpp ****     {
2316:mtk_resgenerator.cpp ****         if(!bjump)
 6414              	LM355:
 6415              	LBB42:
 6416              	LBB43:
 6417 5136 803D1800 		cmpb	$0, _ZZ19process_line_bufferPcE5bjump
 6417      000000
 6418 513d 0F85C700 		jne	L180
 6418      0000
2317:mtk_resgenerator.cpp ****         {
2318:mtk_resgenerator.cpp ****             if(strchr(buffer, START_FLAG) != NULL)
 6420              	LM356:
 6421              	LBB44:
 6422 5143 C7442404 		movl	$123, 4(%esp)
 6422      7B000000 
 6423 514b 8B4508   		movl	8(%ebp), %eax
 6424 514e 890424   		movl	%eax, (%esp)
 6425 5151 E8000000 		call	__ZSt6strchrPci
 6425      00
 6426 5156 85C0     		testl	%eax, %eax
 6427 5158 7407     		je	L181
2319:mtk_resgenerator.cpp ****             {
2320:mtk_resgenerator.cpp ****                 bjump = true;
 6429              	LM357:
 6430 515a C6051800 		movb	$1, _ZZ19process_line_bufferPcE5bjump
 6430      000001
 6431              	L181:
2321:mtk_resgenerator.cpp ****             }
2322:mtk_resgenerator.cpp ****             if(!bjump)
 6433              	LM358:
GAS LISTING d:/MTK/MTK2503/MTK2503/11CW1418SP4_03_CORETEK03AE_11C_V1_GPRS_MMI/plutommi/Customer/ResGenerator/gcctmp/cc63daaa.s 			page 127


 6434              	LBB45:
 6435 5161 803D1800 		cmpb	$0, _ZZ19process_line_bufferPcE5bjump
 6435      000000
 6436 5168 0F85BA00 		jne	L179
 6436      0000
2323:mtk_resgenerator.cpp ****             {
2324:mtk_resgenerator.cpp ****                 tmp_buff = strchr(buffer, '=');
 6438              	LM359:
 6439              	LBB46:
 6440 516e C7442404 		movl	$61, 4(%esp)
 6440      3D000000 
 6441 5176 8B4508   		movl	8(%ebp), %eax
 6442 5179 890424   		movl	%eax, (%esp)
 6443 517c E8000000 		call	__ZSt6strchrPci
 6443      00
 6444 5181 8945FC   		movl	%eax, -4(%ebp)
2325:mtk_resgenerator.cpp ****                 if(tmp_buff != NULL) /* this line have '=', and we will change '=' to ';' */
 6446              	LM360:
 6447              	LBB47:
 6448 5184 837DFC00 		cmpl	$0, -4(%ebp)
 6449 5188 7472     		je	L183
2326:mtk_resgenerator.cpp ****                 {
2327:mtk_resgenerator.cpp ****                     *tmp_buff = ';';
 6451              	LM361:
 6452              	LBB48:
 6453 518a 8B45FC   		movl	-4(%ebp), %eax
 6454 518d C6003B   		movb	$59, (%eax)
2328:mtk_resgenerator.cpp **** 
2329:mtk_resgenerator.cpp ****                     /* in this line maybe have "__align(4)", so we will check it at the following p
2330:mtk_resgenerator.cpp ****                     tmp_buff = strstr(buffer, HEADER);
 6456              	LM362:
 6457 5190 C7442404 		movl	$_HEADER, 4(%esp)
 6457      68830000 
 6458 5198 8B4508   		movl	8(%ebp), %eax
 6459 519b 890424   		movl	%eax, (%esp)
 6460 519e E8000000 		call	__ZSt6strstrPcPKc
 6460      00
 6461 51a3 8945FC   		movl	%eax, -4(%ebp)
2331:mtk_resgenerator.cpp ****                     if(tmp_buff == NULL) /* this line do not have "__align(4)" */
 6463              	LM363:
 6464 51a6 837DFC00 		cmpl	$0, -4(%ebp)
 6465 51aa 7508     		jne	L184
2332:mtk_resgenerator.cpp ****                         tmp_buff = buffer;
 6467              	LM364:
 6468 51ac 8B4508   		movl	8(%ebp), %eax
 6469 51af 8945FC   		movl	%eax, -4(%ebp)
 6470 51b2 EB13     		jmp	L185
 6471              	L184:
2333:mtk_resgenerator.cpp ****                     else /* remove header: "__align(4)" */
2334:mtk_resgenerator.cpp ****                         tmp_buff = tmp_buff + strlen(HEADER) + 1;
 6473              	LM365:
 6474 51b4 C7042468 		movl	$_HEADER, (%esp)
 6474      830000
 6475 51bb E8000000 		call	_strlen
 6475      00
 6476 51c0 0345FC   		addl	-4(%ebp), %eax
 6477 51c3 40       		incl	%eax
GAS LISTING d:/MTK/MTK2503/MTK2503/11CW1418SP4_03_CORETEK03AE_11C_V1_GPRS_MMI/plutommi/Customer/ResGenerator/gcctmp/cc63daaa.s 			page 128


 6478 51c4 8945FC   		movl	%eax, -4(%ebp)
 6479              	L185:
2335:mtk_resgenerator.cpp **** 
2336:mtk_resgenerator.cpp ****                     tmp_buff = tmp_buff - len;
 6481              	LM366:
 6482 51c7 8B55F8   		movl	-8(%ebp), %edx
 6483 51ca 8D45FC   		leal	-4(%ebp), %eax
 6484 51cd 2910     		subl	%edx, (%eax)
2337:mtk_resgenerator.cpp ****                     for(int i = 0; i < len; ++i)
 6486              	LM367:
 6487              	LBB49:
 6488 51cf C745F400 		movl	$0, -12(%ebp)
 6488      000000
 6489              	L186:
 6490 51d6 8B45F4   		movl	-12(%ebp), %eax
 6491 51d9 3B45F8   		cmpl	-8(%ebp), %eax
 6492 51dc 7C02     		jl	L189
 6493 51de EB22     		jmp	L190
 6494              	L189:
2338:mtk_resgenerator.cpp ****                     {
2339:mtk_resgenerator.cpp ****                         tmp_buff[i] = REP_HEADER[i];
 6496              	LM368:
 6497 51e0 8B45F4   		movl	-12(%ebp), %eax
 6498 51e3 8B55FC   		movl	-4(%ebp), %edx
 6499 51e6 01C2     		addl	%eax, %edx
 6500 51e8 8B45F4   		movl	-12(%ebp), %eax
 6501 51eb 05738300 		addl	$_REP_HEADER, %eax
 6501      00
 6502 51f0 0FB600   		movzbl	(%eax), %eax
 6503 51f3 8802     		movb	%al, (%edx)
 6505              	LM369:
 6506 51f5 8D45F4   		leal	-12(%ebp), %eax
 6507 51f8 FF00     		incl	(%eax)
 6508 51fa EBDA     		jmp	L186
 6509              	L183:
2340:mtk_resgenerator.cpp ****                     }
2341:mtk_resgenerator.cpp ****                 }
2342:mtk_resgenerator.cpp ****                 else
2343:mtk_resgenerator.cpp ****                 {
2344:mtk_resgenerator.cpp ****                     tmp_buff = buffer;
 6511              	LM370:
 6512              	LBE49:
 6513              	LBE48:
 6514 51fc 8B4508   		movl	8(%ebp), %eax
 6515 51ff 8945FC   		movl	%eax, -4(%ebp)
 6516              	L190:
2345:mtk_resgenerator.cpp ****                 }
2346:mtk_resgenerator.cpp **** 
2347:mtk_resgenerator.cpp ****                 /* we will return buffer pointer after this line is processed */
2348:mtk_resgenerator.cpp ****                 return tmp_buff;
 6518              	LM371:
 6519              	LBE47:
 6520 5202 8B45FC   		movl	-4(%ebp), %eax
 6521 5205 8945F0   		movl	%eax, -16(%ebp)
 6522 5208 EB25     		jmp	L178
 6523              	L180:
2349:mtk_resgenerator.cpp ****             }
GAS LISTING d:/MTK/MTK2503/MTK2503/11CW1418SP4_03_CORETEK03AE_11C_V1_GPRS_MMI/plutommi/Customer/ResGenerator/gcctmp/cc63daaa.s 			page 129


2350:mtk_resgenerator.cpp ****         }
2351:mtk_resgenerator.cpp ****         else
2352:mtk_resgenerator.cpp ****         {
2353:mtk_resgenerator.cpp ****             if(strchr(buffer, END_FLAG) != NULL)
 6525              	LM372:
 6526              	LBE46:
 6527              	LBE45:
 6528              	LBE44:
 6529 520a C7442404 		movl	$125, 4(%esp)
 6529      7D000000 
 6530 5212 8B4508   		movl	8(%ebp), %eax
 6531 5215 890424   		movl	%eax, (%esp)
 6532 5218 E8000000 		call	__ZSt6strchrPci
 6532      00
 6533 521d 85C0     		testl	%eax, %eax
 6534 521f 7407     		je	L179
2354:mtk_resgenerator.cpp ****             {
2355:mtk_resgenerator.cpp ****                 bjump = false;
 6536              	LM373:
 6537 5221 C6051800 		movb	$0, _ZZ19process_line_bufferPcE5bjump
 6537      000000
 6538              	L179:
2356:mtk_resgenerator.cpp ****             }
2357:mtk_resgenerator.cpp ****         }
2358:mtk_resgenerator.cpp ****     }
2359:mtk_resgenerator.cpp ****     return NULL;
 6540              	LM374:
 6541              	LBE43:
 6542              	LBE42:
 6543              	LBE41:
 6544 5228 C745F000 		movl	$0, -16(%ebp)
 6544      000000
2360:mtk_resgenerator.cpp **** }
 6546              	LM375:
 6547              	L178:
 6548              	LBE40:
 6549 522f 8B45F0   		movl	-16(%ebp), %eax
 6550 5232 C9       		leave
 6551 5233 C3       		ret
 6560              	Lscope21:
 6562              	.lcomm _ZZ16get_file_headersPcPPA1024_cPiE5bjump,16
 6563              	LC203:
 6564 5234 553800   		.ascii "U8\0"
 6565 5237 90       		.align 2
 6570              	.globl __Z16get_file_headersPcPPA1024_cPi
 6572              	__Z16get_file_headersPcPPA1024_cPi:
2361:mtk_resgenerator.cpp **** 
2362:mtk_resgenerator.cpp **** 
2363:mtk_resgenerator.cpp **** /*************************************************************************
2364:mtk_resgenerator.cpp **** * FUNCTION
2365:mtk_resgenerator.cpp **** *  get_file_headers
2366:mtk_resgenerator.cpp **** *
2367:mtk_resgenerator.cpp **** * DESCRIPTION
2368:mtk_resgenerator.cpp **** *   get file header of data.h, we supporse that before "U8" line will be the
2369:mtk_resgenerator.cpp **** *   header line
2370:mtk_resgenerator.cpp **** *
2371:mtk_resgenerator.cpp **** * PARAMETERS
GAS LISTING d:/MTK/MTK2503/MTK2503/11CW1418SP4_03_CORETEK03AE_11C_V1_GPRS_MMI/plutommi/Customer/ResGenerator/gcctmp/cc63daaa.s 			page 130


2372:mtk_resgenerator.cpp **** *   sourc           :[IN]      one line data of data.h
2373:mtk_resgenerator.cpp **** *   dest            :[OTU]     we will put the header data in this array
2374:mtk_resgenerator.cpp **** *   num             :[IN/OUT]  this if total line numbers of header 
2375:mtk_resgenerator.cpp **** *
2376:mtk_resgenerator.cpp **** * RETURNS
2377:mtk_resgenerator.cpp **** *   TRUE means current line is header line, FALSE means current line is not header line
2378:mtk_resgenerator.cpp **** *
2379:mtk_resgenerator.cpp **** *************************************************************************/
2380:mtk_resgenerator.cpp **** bool get_file_headers(char *sourc, BUFFER_HEADER *dest, int *num)
2381:mtk_resgenerator.cpp **** {
 6574              	LM376:
 6575 5238 55       		pushl	%ebp
 6576 5239 89E5     		movl	%esp, %ebp
 6577 523b 83EC08   		subl	$8, %esp
2382:mtk_resgenerator.cpp ****     static bool bjump = false;
2383:mtk_resgenerator.cpp **** 
2384:mtk_resgenerator.cpp ****     if(!bjump)
 6579              	LM377:
 6580              	LBB50:
 6581 523e 803D2800 		cmpb	$0, _ZZ16get_file_headersPcPPA1024_cPiE5bjump
 6581      000000
 6582 5245 7555     		jne	L194
2385:mtk_resgenerator.cpp ****     {
2386:mtk_resgenerator.cpp ****         if(sourc != NULL)
 6584              	LM378:
 6585 5247 837D0800 		cmpl	$0, 8(%ebp)
 6586 524b 744F     		je	L194
2387:mtk_resgenerator.cpp ****         {
2388:mtk_resgenerator.cpp ****             if(strstr(sourc, "U8") != NULL)
 6588              	LM379:
 6589 524d C7442404 		movl	$LC203, 4(%esp)
 6589      34520000 
 6590 5255 8B4508   		movl	8(%ebp), %eax
 6591 5258 890424   		movl	%eax, (%esp)
 6592 525b E8000000 		call	__ZSt6strstrPcPKc
 6592      00
 6593 5260 85C0     		testl	%eax, %eax
 6594 5262 7409     		je	L196
2389:mtk_resgenerator.cpp ****             {
2390:mtk_resgenerator.cpp ****                 bjump = true;
 6596              	LM380:
 6597 5264 C6052800 		movb	$1, _ZZ16get_file_headersPcPPA1024_cPiE5bjump
 6597      000001
 6598 526b EB2F     		jmp	L194
 6599              	L196:
2391:mtk_resgenerator.cpp ****             }
2392:mtk_resgenerator.cpp ****             else
2393:mtk_resgenerator.cpp ****             {
2394:mtk_resgenerator.cpp ****                 if(*num < 32)
 6601              	LM381:
 6602 526d 8B4510   		movl	16(%ebp), %eax
 6603 5270 83381F   		cmpl	$31, (%eax)
 6604 5273 7F27     		jg	L194
2395:mtk_resgenerator.cpp ****                 {
2396:mtk_resgenerator.cpp ****                     strcpy((*dest)[*num], sourc);
 6606              	LM382:
 6607 5275 8B4508   		movl	8(%ebp), %eax
GAS LISTING d:/MTK/MTK2503/MTK2503/11CW1418SP4_03_CORETEK03AE_11C_V1_GPRS_MMI/plutommi/Customer/ResGenerator/gcctmp/cc63daaa.s 			page 131


 6608 5278 89442404 		movl	%eax, 4(%esp)
 6609 527c 8B550C   		movl	12(%ebp), %edx
 6610 527f 8B4510   		movl	16(%ebp), %eax
 6611 5282 8B00     		movl	(%eax), %eax
 6612 5284 C1E00A   		sall	$10, %eax
 6613 5287 0302     		addl	(%edx), %eax
 6614 5289 890424   		movl	%eax, (%esp)
 6615 528c E8000000 		call	_strcpy
 6615      00
2397:mtk_resgenerator.cpp ****                     *num += 1;
 6617              	LM383:
 6618 5291 8B5510   		movl	16(%ebp), %edx
 6619 5294 8B4510   		movl	16(%ebp), %eax
 6620 5297 8B00     		movl	(%eax), %eax
 6621 5299 40       		incl	%eax
 6622 529a 8902     		movl	%eax, (%edx)
 6623              	L194:
2398:mtk_resgenerator.cpp ****                 }
2399:mtk_resgenerator.cpp ****             }
2400:mtk_resgenerator.cpp ****         }
2401:mtk_resgenerator.cpp ****     }
2402:mtk_resgenerator.cpp **** 
2403:mtk_resgenerator.cpp ****     return bjump;
 6625              	LM384:
 6626 529c 0FB60528 		movzbl	_ZZ16get_file_headersPcPPA1024_cPiE5bjump, %eax
 6626      000000
2404:mtk_resgenerator.cpp **** }
 6628              	LM385:
 6629 52a3 C9       		leave
 6630 52a4 C3       		ret
 6631              	LBE50:
 6635              	Lscope22:
 6637              	.lcomm _ZZ22generate_img_data_fileP6_iobufPA1024_ciiE5count,16
 6638              	LC204:
 6639 52a5 67656E65 		.ascii "generate file failed.\0"
 6639      72617465 
 6639      2066696C 
 6639      65206661 
 6639      696C6564 
 6640              	LC205:
 6641 52bb 63726561 		.ascii "create data file \"%s\" failed.\0"
 6641      74652064 
 6641      61746120 
 6641      66696C65 
 6641      20222573 
 6642              	LC206:
 6643 52d9 7D00     		.ascii "}\0"
 6644              	LC207:
 6645 52db 72656164 		.ascii "read source file error.\0"
 6645      20736F75 
 6645      72636520 
 6645      66696C65 
 6645      20657272 
 6646 52f3 8DB60000 		.align 32
 6646      00008DBC 
 6646      27000000 
 6646      00
GAS LISTING d:/MTK/MTK2503/MTK2503/11CW1418SP4_03_CORETEK03AE_11C_V1_GPRS_MMI/plutommi/Customer/ResGenerator/gcctmp/cc63daaa.s 			page 132


 6647              	LC208:
 6648 5300 23656E64 		.ascii "#endif //!defined(__MMI_RESOURCE_IMAGE_GROUP_COMPRESS__) || defined(__MMI_RESOURCE_UT_UNCO
 6648      6966202F 
 6648      2F216465 
 6648      66696E65 
 6648      64285F5F 
 6649              		.align 2
 6655              	.globl __Z22generate_img_data_fileP6_iobufPA1024_cii
 6657              	__Z22generate_img_data_fileP6_iobufPA1024_cii:
2405:mtk_resgenerator.cpp **** 
2406:mtk_resgenerator.cpp **** /*************************************************************************
2407:mtk_resgenerator.cpp **** * FUNCTION
2408:mtk_resgenerator.cpp **** *  generate_img_data_file
2409:mtk_resgenerator.cpp **** *
2410:mtk_resgenerator.cpp **** * DESCRIPTION
2411:mtk_resgenerator.cpp **** *   get file header of data.h, we supporse that before "U8" line will be the
2412:mtk_resgenerator.cpp **** *   header line
2413:mtk_resgenerator.cpp **** *
2414:mtk_resgenerator.cpp **** * PARAMETERS
2415:mtk_resgenerator.cpp **** *   fp             :[IN]  one line data of data.h
2416:mtk_resgenerator.cpp **** *   header         :[IN]  we will put the header data in this array
2417:mtk_resgenerator.cpp **** *   header_count   :[IN]  this if total line numbers of header 
2418:mtk_resgenerator.cpp **** *   img_count      :[IN]  this if total line numbers of header 
2419:mtk_resgenerator.cpp **** *
2420:mtk_resgenerator.cpp **** * RETURNS
2421:mtk_resgenerator.cpp **** *   TRUE means current line is header line, FALSE means current line is not header line
2422:mtk_resgenerator.cpp **** *
2423:mtk_resgenerator.cpp **** *************************************************************************/
2424:mtk_resgenerator.cpp **** #ifndef RESGEN_IMG_SPLIT_OUTPUT_ROUND_ROBIN
2425:mtk_resgenerator.cpp **** bool generate_img_data_file(FILE* fp, BUFFER_HEADER header, int header_count, int img_count)
2426:mtk_resgenerator.cpp **** {
2427:mtk_resgenerator.cpp ****     static int count = 0;
2428:mtk_resgenerator.cpp ****     char buffer[2048];
2429:mtk_resgenerator.cpp ****     char *tmp_buff = NULL;
2430:mtk_resgenerator.cpp ****     FILE *out_fp = NULL;
2431:mtk_resgenerator.cpp ****     int fc = img_count/CUST_RES_FILE_COUNT + 1;
2432:mtk_resgenerator.cpp **** 
2433:mtk_resgenerator.cpp ****     if(fp == NULL)
2434:mtk_resgenerator.cpp ****     {
2435:mtk_resgenerator.cpp ****         return false;
2436:mtk_resgenerator.cpp ****     }
2437:mtk_resgenerator.cpp **** 
2438:mtk_resgenerator.cpp ****     for(int i = 0; i < header_count; ++i)
2439:mtk_resgenerator.cpp ****     {
2440:mtk_resgenerator.cpp ****         if(fgets(buffer, 2048, fp) == NULL)
2441:mtk_resgenerator.cpp ****         {
2442:mtk_resgenerator.cpp ****             RESGEN_LOG_E("generate file failed.");
2443:mtk_resgenerator.cpp ****             return false;
2444:mtk_resgenerator.cpp ****         }
2445:mtk_resgenerator.cpp ****     }
2446:mtk_resgenerator.cpp **** 
2447:mtk_resgenerator.cpp ****     while(!feof(fp))
2448:mtk_resgenerator.cpp ****     {
2449:mtk_resgenerator.cpp **** 
2450:mtk_resgenerator.cpp ****         if(fgets(buffer, 2048, fp) != NULL)
2451:mtk_resgenerator.cpp ****         {
2452:mtk_resgenerator.cpp ****             if(count % fc/*AVERAGE_IMG_NUMBER*/ == 0 && out_fp == NULL)
GAS LISTING d:/MTK/MTK2503/MTK2503/11CW1418SP4_03_CORETEK03AE_11C_V1_GPRS_MMI/plutommi/Customer/ResGenerator/gcctmp/cc63daaa.s 			page 133


2453:mtk_resgenerator.cpp ****             {
2454:mtk_resgenerator.cpp ****                 /* 
2455:mtk_resgenerator.cpp ****                 * create output file, if create failed,
2456:mtk_resgenerator.cpp ****                 * we will return directly else we will write data into it
2457:mtk_resgenerator.cpp ****                 */
2458:mtk_resgenerator.cpp ****                 out_fp = fopen(output_file_name[count/fc/*AVERAGE_IMG_NUMBER*/], "w");
2459:mtk_resgenerator.cpp ****                 if(out_fp == NULL)
2460:mtk_resgenerator.cpp ****                 {
2461:mtk_resgenerator.cpp ****                     RESGEN_LOG_E("create data file \"%s\" failed.", output_file_name[count/fc/*AVER
2462:mtk_resgenerator.cpp ****                     return false;
2463:mtk_resgenerator.cpp ****                 }
2464:mtk_resgenerator.cpp **** 
2465:mtk_resgenerator.cpp ****                 fputs("#include \"CustDataRes.h\"\n", out_fp);
2466:mtk_resgenerator.cpp ****                 fputs("n#include \"ResCompressConfig.h\"\n\n", out_fp);
2467:mtk_resgenerator.cpp ****                 fputs("#if !defined(__MMI_RESOURCE_IMAGE_GROUP_COMPRESS__) || defined(__MMI_RESOURC
2468:mtk_resgenerator.cpp ****                 /* write header information to new file */
2469:mtk_resgenerator.cpp ****                 for(int i = 0; i < header_count; ++i)
2470:mtk_resgenerator.cpp ****                 {
2471:mtk_resgenerator.cpp ****                     fputs(header[i], out_fp);
2472:mtk_resgenerator.cpp ****                 }
2473:mtk_resgenerator.cpp ****             }
2474:mtk_resgenerator.cpp ****             /* write data into dest file */
2475:mtk_resgenerator.cpp ****             fputs(buffer, out_fp);
2476:mtk_resgenerator.cpp **** 
2477:mtk_resgenerator.cpp ****             /* get count of image data*/
2478:mtk_resgenerator.cpp ****             if(strstr(buffer, "}") != NULL)
2479:mtk_resgenerator.cpp ****             {
2480:mtk_resgenerator.cpp ****                 count++;
2481:mtk_resgenerator.cpp ****                 if(count % fc/*AVERAGE_IMG_NUMBER*/ == 0)
2482:mtk_resgenerator.cpp ****                 {
2483:mtk_resgenerator.cpp ****                     /* reset the file handler */
2484:mtk_resgenerator.cpp ****                     if(out_fp != NULL)
2485:mtk_resgenerator.cpp ****                     {
2486:mtk_resgenerator.cpp ****                         fclose(out_fp);
2487:mtk_resgenerator.cpp ****                         out_fp = NULL;
2488:mtk_resgenerator.cpp ****                     }
2489:mtk_resgenerator.cpp **** 
2490:mtk_resgenerator.cpp ****                 }
2491:mtk_resgenerator.cpp ****             }
2492:mtk_resgenerator.cpp ****         }
2493:mtk_resgenerator.cpp ****         else
2494:mtk_resgenerator.cpp ****         {
2495:mtk_resgenerator.cpp ****             if(!feof(fp))
2496:mtk_resgenerator.cpp ****             {
2497:mtk_resgenerator.cpp ****                 RESGEN_LOG_E("read source file error.");
2498:mtk_resgenerator.cpp ****                 if(out_fp != NULL)
2499:mtk_resgenerator.cpp ****                 {
2500:mtk_resgenerator.cpp ****                     fclose(out_fp);
2501:mtk_resgenerator.cpp ****                     out_fp = NULL;
2502:mtk_resgenerator.cpp ****                 }
2503:mtk_resgenerator.cpp ****                 return false;
2504:mtk_resgenerator.cpp ****             }
2505:mtk_resgenerator.cpp ****         }
2506:mtk_resgenerator.cpp ****     }
2507:mtk_resgenerator.cpp **** 
2508:mtk_resgenerator.cpp ****     /* close the last file */
2509:mtk_resgenerator.cpp ****     if(out_fp != NULL)
GAS LISTING d:/MTK/MTK2503/MTK2503/11CW1418SP4_03_CORETEK03AE_11C_V1_GPRS_MMI/plutommi/Customer/ResGenerator/gcctmp/cc63daaa.s 			page 134


2510:mtk_resgenerator.cpp ****     {
2511:mtk_resgenerator.cpp ****         fputs("#endif //!defined(__MMI_RESOURCE_IMAGE_GROUP_COMPRESS__) || defined(__MMI_RESOURCE_U
2512:mtk_resgenerator.cpp ****         fclose(out_fp);
2513:mtk_resgenerator.cpp ****         out_fp = NULL;
2514:mtk_resgenerator.cpp ****     }
2515:mtk_resgenerator.cpp **** 
2516:mtk_resgenerator.cpp ****     return true;
2517:mtk_resgenerator.cpp **** }
2518:mtk_resgenerator.cpp **** #else //RESGEN_IMG_SPLIT_OUTPUT_ROUND_ROBIN
2519:mtk_resgenerator.cpp **** bool generate_img_data_file(FILE* fp, BUFFER_HEADER header, int header_count, int img_count)
2520:mtk_resgenerator.cpp **** {
 6659              	LM386:
 6660 5376 55       		pushl	%ebp
 6661 5377 89E5     		movl	%esp, %ebp
 6662 5379 81EC6808 		subl	$2152, %esp
 6662      0000
2521:mtk_resgenerator.cpp ****     static int count = 0;
2522:mtk_resgenerator.cpp ****     char buffer[2048];
2523:mtk_resgenerator.cpp ****     char *tmp_buff = NULL;
 6664              	LM387:
 6665              	LBB51:
 6666 537f C785F4F7 		movl	$0, -2060(%ebp)
 6666      FFFF0000 
 6666      0000
2524:mtk_resgenerator.cpp ****     FILE * out_file[CUST_RES_FILE_COUNT];
2525:mtk_resgenerator.cpp ****     FILE *out_fp = NULL;
 6668              	LM388:
 6669 5389 C785D4F7 		movl	$0, -2092(%ebp)
 6669      FFFF0000 
 6669      0000
2526:mtk_resgenerator.cpp ****     int fc = img_count/CUST_RES_FILE_COUNT + 1;
 6671              	LM389:
 6672 5393 8B4514   		movl	20(%ebp), %eax
 6673 5396 8985BCF7 		movl	%eax, -2116(%ebp)
 6673      FFFF
 6674 539c 83BDBCF7 		cmpl	$0, -2116(%ebp)
 6674      FFFF00
 6675 53a3 7907     		jns	L200
 6676 53a5 8385BCF7 		addl	$3, -2116(%ebp)
 6676      FFFF03
 6677              	L200:
 6678 53ac 8B85BCF7 		movl	-2116(%ebp), %eax
 6678      FFFF
 6679 53b2 C1F802   		sarl	$2, %eax
 6680 53b5 40       		incl	%eax
 6681 53b6 8985D0F7 		movl	%eax, -2096(%ebp)
 6681      FFFF
2527:mtk_resgenerator.cpp ****     bool result = true;
 6683              	LM390:
 6684 53bc C685CFF7 		movb	$1, -2097(%ebp)
 6684      FFFF01
2528:mtk_resgenerator.cpp **** 
2529:mtk_resgenerator.cpp ****     if(fp == NULL)
 6686              	LM391:
 6687 53c3 837D0800 		cmpl	$0, 8(%ebp)
 6688 53c7 750F     		jne	L201
2530:mtk_resgenerator.cpp ****     {
GAS LISTING d:/MTK/MTK2503/MTK2503/11CW1418SP4_03_CORETEK03AE_11C_V1_GPRS_MMI/plutommi/Customer/ResGenerator/gcctmp/cc63daaa.s 			page 135


2531:mtk_resgenerator.cpp ****         return false;
 6690              	LM392:
 6691 53c9 C785C0F7 		movl	$0, -2112(%ebp)
 6691      FFFF0000 
 6691      0000
 6692 53d3 E9F90200 		jmp	L199
 6692      00
 6693              	L201:
2532:mtk_resgenerator.cpp ****     }
2533:mtk_resgenerator.cpp **** 
2534:mtk_resgenerator.cpp ****     // Check Header
2535:mtk_resgenerator.cpp ****     for(int i = 0; i < header_count; ++i)
 6695              	LM393:
 6696              	LBB52:
 6697 53d8 C785C8F7 		movl	$0, -2104(%ebp)
 6697      FFFF0000 
 6697      0000
 6698              	L202:
 6699 53e2 8B85C8F7 		movl	-2104(%ebp), %eax
 6699      FFFF
 6700 53e8 3B4510   		cmpl	16(%ebp), %eax
 6701 53eb 7C02     		jl	L205
 6702 53ed EB56     		jmp	L203
 6703              	L205:
2536:mtk_resgenerator.cpp ****     {
2537:mtk_resgenerator.cpp ****         if(fgets(buffer, 2048, fp) == NULL)
 6705              	LM394:
 6706 53ef 8B4508   		movl	8(%ebp), %eax
 6707 53f2 89442408 		movl	%eax, 8(%esp)
 6708 53f6 C7442404 		movl	$2048, 4(%esp)
 6708      00080000 
 6709 53fe 8D85F8F7 		leal	-2056(%ebp), %eax
 6709      FFFF
 6710 5404 890424   		movl	%eax, (%esp)
 6711 5407 E8000000 		call	_fgets
 6711      00
 6712 540c 85C0     		testl	%eax, %eax
 6713 540e 752B     		jne	L204
2538:mtk_resgenerator.cpp ****         {
2539:mtk_resgenerator.cpp ****             RESGEN_LOG_E("generate file failed.");
 6715              	LM395:
 6716 5410 C7442408 		movl	$LC204, 8(%esp)
 6716      A5520000 
 6717 5418 C7442404 		movl	$LC1, 4(%esp)
 6717      3E000000 
 6718 5420 C7042403 		movl	$3, (%esp)
 6718      000000
 6719 5427 E8000000 		call	_reslog_adaptor_log
 6719      00
2540:mtk_resgenerator.cpp ****             return false;
 6721              	LM396:
 6722 542c C785C0F7 		movl	$0, -2112(%ebp)
 6722      FFFF0000 
 6722      0000
 6723 5436 E9960200 		jmp	L199
 6723      00
 6725              	LM397:
GAS LISTING d:/MTK/MTK2503/MTK2503/11CW1418SP4_03_CORETEK03AE_11C_V1_GPRS_MMI/plutommi/Customer/ResGenerator/gcctmp/cc63daaa.s 			page 136


 6726              	L204:
 6727 543b 8D85C8F7 		leal	-2104(%ebp), %eax
 6727      FFFF
 6728 5441 FF00     		incl	(%eax)
 6729 5443 EB9D     		jmp	L202
 6730              	L203:
2541:mtk_resgenerator.cpp ****         }
2542:mtk_resgenerator.cpp ****     }
2543:mtk_resgenerator.cpp **** 
2544:mtk_resgenerator.cpp ****     // Write Header if this is the first input for this file.
2545:mtk_resgenerator.cpp ****     for(int i = 0 ;i < CUST_RES_FILE_COUNT ;i++){
 6732              	LM398:
 6733              	LBE52:
 6734              	LBB53:
 6735 5445 C785C8F7 		movl	$0, -2104(%ebp)
 6735      FFFF0000 
 6735      0000
 6736              	L207:
 6737 544f 83BDC8F7 		cmpl	$3, -2104(%ebp)
 6737      FFFF03
 6738 5456 7E05     		jle	L210
 6739 5458 E9030100 		jmp	L217
 6739      00
 6740              	L210:
2546:mtk_resgenerator.cpp ****         out_fp = fopen(output_file_name[i], "w");
 6742              	LM399:
 6743              	LBB54:
 6744              	LBB55:
 6745 545d C7442404 		movl	$LC2, 4(%esp)
 6745      4F000000 
 6746 5465 8B85C8F7 		movl	-2104(%ebp), %eax
 6746      FFFF
 6747 546b 8B048500 		movl	_output_file_name(,%eax,4), %eax
 6747      000000
 6748 5472 890424   		movl	%eax, (%esp)
 6749 5475 E8000000 		call	_fopen
 6749      00
 6750 547a 8985D4F7 		movl	%eax, -2092(%ebp)
 6750      FFFF
2547:mtk_resgenerator.cpp ****         fputs("#include \"CustDataRes.h\"\n", out_fp);
 6752              	LM400:
 6753 5480 8B85D4F7 		movl	-2092(%ebp), %eax
 6753      FFFF
 6754 5486 89442404 		movl	%eax, 4(%esp)
 6755 548a C704242A 		movl	$LC39, (%esp)
 6755      120000
 6756 5491 E8000000 		call	_fputs
 6756      00
2548:mtk_resgenerator.cpp ****         fputs("\n#include \"ResCompressConfig.h\"\n\n", out_fp);
 6758              	LM401:
 6759 5496 8B85D4F7 		movl	-2092(%ebp), %eax
 6759      FFFF
 6760 549c 89442404 		movl	%eax, 4(%esp)
 6761 54a0 C7042440 		movl	$LC49, (%esp)
 6761      140000
 6762 54a7 E8000000 		call	_fputs
 6762      00
GAS LISTING d:/MTK/MTK2503/MTK2503/11CW1418SP4_03_CORETEK03AE_11C_V1_GPRS_MMI/plutommi/Customer/ResGenerator/gcctmp/cc63daaa.s 			page 137


2549:mtk_resgenerator.cpp ****         fputs("#if !defined(__MMI_RESOURCE_IMAGE_GROUP_COMPRESS__) || defined(__MMI_RESOURCE_UT_UNC
 6764              	LM402:
 6765 54ac 8B85D4F7 		movl	-2092(%ebp), %eax
 6765      FFFF
 6766 54b2 89442404 		movl	%eax, 4(%esp)
 6767 54b6 C7042480 		movl	$LC51, (%esp)
 6767      140000
 6768 54bd E8000000 		call	_fputs
 6768      00
2550:mtk_resgenerator.cpp **** 
2551:mtk_resgenerator.cpp ****         if(out_fp != NULL){
 6770              	LM403:
 6771              	LBB56:
 6772 54c2 83BDD4F7 		cmpl	$0, -2092(%ebp)
 6772      FFFF00
 6773 54c9 7454     		je	L211
2552:mtk_resgenerator.cpp ****             for(int j = 0; j < header_count; j++){
 6775              	LM404:
 6776              	LBB57:
 6777              	LBB58:
 6778 54cb C785C4F7 		movl	$0, -2108(%ebp)
 6778      FFFF0000 
 6778      0000
 6779              	L212:
 6780 54d5 8B85C4F7 		movl	-2108(%ebp), %eax
 6780      FFFF
 6781 54db 3B4510   		cmpl	16(%ebp), %eax
 6782 54de 7C02     		jl	L215
 6783 54e0 EB28     		jmp	L213
 6784              	L215:
2553:mtk_resgenerator.cpp ****                 fputs(header[j], out_fp);
 6786              	LM405:
 6787 54e2 8B85D4F7 		movl	-2092(%ebp), %eax
 6787      FFFF
 6788 54e8 89442404 		movl	%eax, 4(%esp)
 6789 54ec 8B85C4F7 		movl	-2108(%ebp), %eax
 6789      FFFF
 6790 54f2 C1E00A   		sall	$10, %eax
 6791 54f5 03450C   		addl	12(%ebp), %eax
 6792 54f8 890424   		movl	%eax, (%esp)
 6793 54fb E8000000 		call	_fputs
 6793      00
 6795              	LM406:
 6796 5500 8D85C4F7 		leal	-2108(%ebp), %eax
 6796      FFFF
 6797 5506 FF00     		incl	(%eax)
 6798 5508 EBCB     		jmp	L212
 6799              	L213:
2554:mtk_resgenerator.cpp ****             }
2555:mtk_resgenerator.cpp ****             // Save the file descriptor 
2556:mtk_resgenerator.cpp ****             out_file[i] = out_fp; 
 6801              	LM407:
 6802              	LBE58:
 6803 550a 8B95C8F7 		movl	-2104(%ebp), %edx
 6803      FFFF
 6804 5510 8B85D4F7 		movl	-2092(%ebp), %eax
 6804      FFFF
GAS LISTING d:/MTK/MTK2503/MTK2503/11CW1418SP4_03_CORETEK03AE_11C_V1_GPRS_MMI/plutommi/Customer/ResGenerator/gcctmp/cc63daaa.s 			page 138


 6805 5516 898495D8 		movl	%eax, -2088(%ebp,%edx,4)
 6805      F7FFFF
 6806              	LBE57:
 6807 551d EB34     		jmp	L209
 6808              	L211:
2557:mtk_resgenerator.cpp ****         }else{
2558:mtk_resgenerator.cpp ****             RESGEN_LOG_E("create data file \"%s\" failed.", output_file_name[i]);
 6810              	LM408:
 6811 551f 8B85C8F7 		movl	-2104(%ebp), %eax
 6811      FFFF
 6812 5525 8B048500 		movl	_output_file_name(,%eax,4), %eax
 6812      000000
 6813 552c 8944240C 		movl	%eax, 12(%esp)
 6814 5530 C7442408 		movl	$LC205, 8(%esp)
 6814      BB520000 
 6815 5538 C7442404 		movl	$LC1, 4(%esp)
 6815      3E000000 
 6816 5540 C7042403 		movl	$3, (%esp)
 6816      000000
 6817 5547 E8000000 		call	_reslog_adaptor_log
 6817      00
2559:mtk_resgenerator.cpp ****             result = false;
 6819              	LM409:
 6820 554c C685CFF7 		movb	$0, -2097(%ebp)
 6820      FFFF00
 6822              	LM410:
 6823              	L209:
 6824 5553 8D85C8F7 		leal	-2104(%ebp), %eax
 6824      FFFF
 6825              	LBE56:
 6826              	LBE55:
 6827              	LBE54:
 6828 5559 FF00     		incl	(%eax)
 6829 555b E9EFFEFF 		jmp	L207
 6829      FF
2560:mtk_resgenerator.cpp ****         }
2561:mtk_resgenerator.cpp ****     }
2562:mtk_resgenerator.cpp **** 
2563:mtk_resgenerator.cpp ****     while(!feof(fp) && result != false)
 6831              	LM411:
 6832              	L217:
 6833              	LBE53:
 6834 5560 8B4508   		movl	8(%ebp), %eax
 6835 5563 890424   		movl	%eax, (%esp)
 6836 5566 E8000000 		call	_feof
 6836      00
 6837 556b 85C0     		testl	%eax, %eax
 6838 556d 0F85F000 		jne	L218
 6838      0000
 6839 5573 80BDCFF7 		cmpb	$0, -2097(%ebp)
 6839      FFFF00
 6840 557a 7505     		jne	L219
 6841 557c E9E20000 		jmp	L218
 6841      00
 6842              	L219:
2564:mtk_resgenerator.cpp ****     {
2565:mtk_resgenerator.cpp ****         out_fp = out_file[count % CUST_RES_FILE_COUNT];
GAS LISTING d:/MTK/MTK2503/MTK2503/11CW1418SP4_03_CORETEK03AE_11C_V1_GPRS_MMI/plutommi/Customer/ResGenerator/gcctmp/cc63daaa.s 			page 139


 6844              	LM412:
 6845 5581 A1380000 		movl	_ZZ22generate_img_data_fileP6_iobufPA1024_ciiE5count, %eax
 6845      00
 6846 5586 8985B8F7 		movl	%eax, -2120(%ebp)
 6846      FFFF
 6847 558c 8B95B8F7 		movl	-2120(%ebp), %edx
 6847      FFFF
 6848 5592 8995B4F7 		movl	%edx, -2124(%ebp)
 6848      FFFF
 6849 5598 83BDB4F7 		cmpl	$0, -2124(%ebp)
 6849      FFFF00
 6850 559f 7907     		jns	L221
 6851 55a1 8385B4F7 		addl	$3, -2124(%ebp)
 6851      FFFF03
 6852              	L221:
 6853 55a8 8B85B4F7 		movl	-2124(%ebp), %eax
 6853      FFFF
 6854 55ae C1F802   		sarl	$2, %eax
 6855 55b1 C1E002   		sall	$2, %eax
 6856 55b4 8B95B8F7 		movl	-2120(%ebp), %edx
 6856      FFFF
 6857 55ba 29C2     		subl	%eax, %edx
 6858 55bc 89D0     		movl	%edx, %eax
 6859 55be 8B8485D8 		movl	-2088(%ebp,%eax,4), %eax
 6859      F7FFFF
 6860 55c5 8985D4F7 		movl	%eax, -2092(%ebp)
 6860      FFFF
2566:mtk_resgenerator.cpp **** 
2567:mtk_resgenerator.cpp ****         if(fgets(buffer, 2048, fp) != NULL)
 6862              	LM413:
 6863 55cb 8B4508   		movl	8(%ebp), %eax
 6864 55ce 89442408 		movl	%eax, 8(%esp)
 6865 55d2 C7442404 		movl	$2048, 4(%esp)
 6865      00080000 
 6866 55da 8D85F8F7 		leal	-2056(%ebp), %eax
 6866      FFFF
 6867 55e0 890424   		movl	%eax, (%esp)
 6868 55e3 E8000000 		call	_fgets
 6868      00
 6869 55e8 85C0     		testl	%eax, %eax
 6870 55ea 7441     		je	L222
2568:mtk_resgenerator.cpp ****         {
2569:mtk_resgenerator.cpp ****             /* write data into dest file */
2570:mtk_resgenerator.cpp ****             fputs(buffer, out_fp);
 6872              	LM414:
 6873 55ec 8B85D4F7 		movl	-2092(%ebp), %eax
 6873      FFFF
 6874 55f2 89442404 		movl	%eax, 4(%esp)
 6875 55f6 8D85F8F7 		leal	-2056(%ebp), %eax
 6875      FFFF
 6876 55fc 890424   		movl	%eax, (%esp)
 6877 55ff E8000000 		call	_fputs
 6877      00
2571:mtk_resgenerator.cpp **** 
2572:mtk_resgenerator.cpp ****             /* get count of image data*/
2573:mtk_resgenerator.cpp ****             if(strstr(buffer, "}") != NULL)
 6879              	LM415:
GAS LISTING d:/MTK/MTK2503/MTK2503/11CW1418SP4_03_CORETEK03AE_11C_V1_GPRS_MMI/plutommi/Customer/ResGenerator/gcctmp/cc63daaa.s 			page 140


 6880 5604 C7442404 		movl	$LC206, 4(%esp)
 6880      D9520000 
 6881 560c 8D85F8F7 		leal	-2056(%ebp), %eax
 6881      FFFF
 6882 5612 890424   		movl	%eax, (%esp)
 6883 5615 E8000000 		call	__ZSt6strstrPcPKc
 6883      00
 6884 561a 85C0     		testl	%eax, %eax
 6885 561c 0F843EFF 		je	L217
 6885      FFFF
2574:mtk_resgenerator.cpp ****             {
2575:mtk_resgenerator.cpp ****                 count++;
 6887              	LM416:
 6888 5622 FF053800 		incl	_ZZ22generate_img_data_fileP6_iobufPA1024_ciiE5count
 6888      0000
 6889 5628 E933FFFF 		jmp	L217
 6889      FF
 6890              	L222:
2576:mtk_resgenerator.cpp ****             }
2577:mtk_resgenerator.cpp ****         }
2578:mtk_resgenerator.cpp ****         else
2579:mtk_resgenerator.cpp ****         {
2580:mtk_resgenerator.cpp ****             if(!feof(fp))
 6892              	LM417:
 6893 562d 8B4508   		movl	8(%ebp), %eax
 6894 5630 890424   		movl	%eax, (%esp)
 6895 5633 E8000000 		call	_feof
 6895      00
 6896 5638 85C0     		testl	%eax, %eax
 6897 563a 0F8520FF 		jne	L217
 6897      FFFF
2581:mtk_resgenerator.cpp ****             {
2582:mtk_resgenerator.cpp ****                 RESGEN_LOG_E("read source file error.");
 6899              	LM418:
 6900 5640 C7442408 		movl	$LC207, 8(%esp)
 6900      DB520000 
 6901 5648 C7442404 		movl	$LC1, 4(%esp)
 6901      3E000000 
 6902 5650 C7042403 		movl	$3, (%esp)
 6902      000000
 6903 5657 E8000000 		call	_reslog_adaptor_log
 6903      00
2583:mtk_resgenerator.cpp ****                 result= false;
 6905              	LM419:
 6906 565c C685CFF7 		movb	$0, -2097(%ebp)
 6906      FFFF00
 6907              	L218:
2584:mtk_resgenerator.cpp ****                 break;
2585:mtk_resgenerator.cpp ****             }
2586:mtk_resgenerator.cpp ****         }
2587:mtk_resgenerator.cpp ****     }
2588:mtk_resgenerator.cpp **** 
2589:mtk_resgenerator.cpp ****     for(int i = 0; i< CUST_RES_FILE_COUNT; i++){
 6909              	LM420:
 6910              	LBB59:
 6911 5663 C785C4F7 		movl	$0, -2108(%ebp)
 6911      FFFF0000 
GAS LISTING d:/MTK/MTK2503/MTK2503/11CW1418SP4_03_CORETEK03AE_11C_V1_GPRS_MMI/plutommi/Customer/ResGenerator/gcctmp/cc63daaa.s 			page 141


 6911      0000
 6912              	L226:
 6913 566d 83BDC4F7 		cmpl	$3, -2108(%ebp)
 6913      FFFF03
 6914 5674 7E02     		jle	L229
 6915 5676 EB4C     		jmp	L227
 6916              	L229:
2590:mtk_resgenerator.cpp ****         /* close the files */
2591:mtk_resgenerator.cpp ****         if( out_file[i] != NULL)
 6918              	LM421:
 6919 5678 8B85C4F7 		movl	-2108(%ebp), %eax
 6919      FFFF
 6920 567e 83BC85D8 		cmpl	$0, -2088(%ebp,%eax,4)
 6920      F7FFFF00 
 6921 5686 7432     		je	L228
2592:mtk_resgenerator.cpp ****         {
2593:mtk_resgenerator.cpp ****             fputs("#endif //!defined(__MMI_RESOURCE_IMAGE_GROUP_COMPRESS__) || defined(__MMI_RESOUR
 6923              	LM422:
 6924 5688 8B85C4F7 		movl	-2108(%ebp), %eax
 6924      FFFF
 6925 568e 8B8485D8 		movl	-2088(%ebp,%eax,4), %eax
 6925      F7FFFF
 6926 5695 89442404 		movl	%eax, 4(%esp)
 6927 5699 C7042400 		movl	$LC208, (%esp)
 6927      530000
 6928 56a0 E8000000 		call	_fputs
 6928      00
2594:mtk_resgenerator.cpp ****             fclose( out_file[i]);
 6930              	LM423:
 6931 56a5 8B85C4F7 		movl	-2108(%ebp), %eax
 6931      FFFF
 6932 56ab 8B8485D8 		movl	-2088(%ebp,%eax,4), %eax
 6932      F7FFFF
 6933 56b2 890424   		movl	%eax, (%esp)
 6934 56b5 E8000000 		call	_fclose
 6934      00
 6936              	LM424:
 6937              	L228:
 6938 56ba 8D85C4F7 		leal	-2108(%ebp), %eax
 6938      FFFF
 6939 56c0 FF00     		incl	(%eax)
 6940 56c2 EBA9     		jmp	L226
 6941              	L227:
2595:mtk_resgenerator.cpp ****         }
2596:mtk_resgenerator.cpp ****     }
2597:mtk_resgenerator.cpp **** 
2598:mtk_resgenerator.cpp ****     return result;
 6943              	LM425:
 6944              	LBE59:
 6945 56c4 0FB685CF 		movzbl	-2097(%ebp), %eax
 6945      F7FFFF
 6946 56cb 8985C0F7 		movl	%eax, -2112(%ebp)
 6946      FFFF
2599:mtk_resgenerator.cpp **** }
 6948              	LM426:
 6949              	L199:
 6950              	LBE51:
GAS LISTING d:/MTK/MTK2503/MTK2503/11CW1418SP4_03_CORETEK03AE_11C_V1_GPRS_MMI/plutommi/Customer/ResGenerator/gcctmp/cc63daaa.s 			page 142


 6951 56d1 8B85C0F7 		movl	-2112(%ebp), %eax
 6951      FFFF
 6952 56d7 C9       		leave
 6953 56d8 C3       		ret
 6975              	Lscope23:
 6977              	.lcomm _ZZ13get_img_countP6_iobufE9const_num,16
 6978              	LC209:
 6979 56d9 67657420 		.ascii "get image count failed, L=%d\12\0"
 6979      696D6167 
 6979      6520636F 
 6979      756E7420 
 6979      6661696C 
 6980 56f7 90       		.align 2
 6983              	.globl __Z13get_img_countP6_iobuf
 6985              	__Z13get_img_countP6_iobuf:
2600:mtk_resgenerator.cpp **** #endif ////RESGEN_IMG_SPLIT_OUTPUT_ROUND_ROBIN
2601:mtk_resgenerator.cpp **** 
2602:mtk_resgenerator.cpp **** int get_img_count(FILE *fp)
2603:mtk_resgenerator.cpp **** {
 6987              	LM427:
 6988 56f8 55       		pushl	%ebp
 6989 56f9 89E5     		movl	%esp, %ebp
 6990 56fb 81EC2804 		subl	$1064, %esp
 6990      0000
2604:mtk_resgenerator.cpp ****     char buffer[1024];
2605:mtk_resgenerator.cpp ****     static int const_num = 0;
2606:mtk_resgenerator.cpp **** 
2607:mtk_resgenerator.cpp ****     if(fp == NULL)
 6992              	LM428:
 6993              	LBB60:
 6994 5701 837D0800 		cmpl	$0, 8(%ebp)
 6995 5705 750F     		jne	L232
2608:mtk_resgenerator.cpp ****         return -1;
 6997              	LM429:
 6998 5707 C785F4FB 		movl	$-1, -1036(%ebp)
 6998      FFFFFFFF 
 6998      FFFF
 6999 5711 E98C0000 		jmp	L231
 6999      00
 7000              	L232:
 7001 5716 90       		nop
2609:mtk_resgenerator.cpp **** 
2610:mtk_resgenerator.cpp ****     while(!feof(fp))
 7003              	LM430:
 7004              	L233:
 7005 5717 8B4508   		movl	8(%ebp), %eax
 7006 571a 890424   		movl	%eax, (%esp)
 7007 571d E8000000 		call	_feof
 7007      00
 7008 5722 85C0     		testl	%eax, %eax
 7009 5724 7402     		je	L235
 7010 5726 EB6F     		jmp	L234
 7011              	L235:
2611:mtk_resgenerator.cpp ****     {
2612:mtk_resgenerator.cpp ****         if((fgets(buffer, 1024, fp) != NULL))
 7013              	LM431:
 7014 5728 8B4508   		movl	8(%ebp), %eax
GAS LISTING d:/MTK/MTK2503/MTK2503/11CW1418SP4_03_CORETEK03AE_11C_V1_GPRS_MMI/plutommi/Customer/ResGenerator/gcctmp/cc63daaa.s 			page 143


 7015 572b 89442408 		movl	%eax, 8(%esp)
 7016 572f C7442404 		movl	$1024, 4(%esp)
 7016      00040000 
 7017 5737 8D85F8FB 		leal	-1032(%ebp), %eax
 7017      FFFF
 7018 573d 890424   		movl	%eax, (%esp)
 7019 5740 E8000000 		call	_fgets
 7019      00
 7020 5745 85C0     		testl	%eax, %eax
 7021 5747 7422     		je	L236
2613:mtk_resgenerator.cpp ****         {
2614:mtk_resgenerator.cpp ****             if(strstr(buffer, "U8") != NULL)
 7023              	LM432:
 7024 5749 C7442404 		movl	$LC203, 4(%esp)
 7024      34520000 
 7025 5751 8D85F8FB 		leal	-1032(%ebp), %eax
 7025      FFFF
 7026 5757 890424   		movl	%eax, (%esp)
 7027 575a E8000000 		call	__ZSt6strstrPcPKc
 7027      00
 7028 575f 85C0     		testl	%eax, %eax
 7029 5761 74B4     		je	L233
2615:mtk_resgenerator.cpp ****             {
2616:mtk_resgenerator.cpp ****                 const_num++;
 7031              	LM433:
 7032 5763 FF054800 		incl	_ZZ13get_img_countP6_iobufE9const_num
 7032      0000
 7033 5769 EBAC     		jmp	L233
 7034              	L236:
2617:mtk_resgenerator.cpp ****             }
2618:mtk_resgenerator.cpp ****         }
2619:mtk_resgenerator.cpp ****         else
2620:mtk_resgenerator.cpp ****         {
2621:mtk_resgenerator.cpp ****             fprintf(stderr, "get image count failed, L=%d\n", __LINE__);
 7036              	LM434:
 7037 576b C7442408 		movl	$2621, 8(%esp)
 7037      3D0A0000 
 7038 5773 C7442404 		movl	$LC209, 4(%esp)
 7038      D9560000 
 7039 577b A1000000 		movl	__imp___iob, %eax
 7039      00
 7040 5780 83C040   		addl	$64, %eax
 7041 5783 890424   		movl	%eax, (%esp)
 7042 5786 E8000000 		call	_fprintf
 7042      00
2622:mtk_resgenerator.cpp ****             return -1;
 7044              	LM435:
 7045 578b C785F4FB 		movl	$-1, -1036(%ebp)
 7045      FFFFFFFF 
 7045      FFFF
 7046 5795 EB0B     		jmp	L231
 7047              	L234:
2623:mtk_resgenerator.cpp ****         }
2624:mtk_resgenerator.cpp **** 
2625:mtk_resgenerator.cpp ****     }
2626:mtk_resgenerator.cpp **** 
2627:mtk_resgenerator.cpp ****     return const_num;
GAS LISTING d:/MTK/MTK2503/MTK2503/11CW1418SP4_03_CORETEK03AE_11C_V1_GPRS_MMI/plutommi/Customer/ResGenerator/gcctmp/cc63daaa.s 			page 144


 7049              	LM436:
 7050 5797 A1480000 		movl	_ZZ13get_img_countP6_iobufE9const_num, %eax
 7050      00
 7051 579c 8985F4FB 		movl	%eax, -1036(%ebp)
 7051      FFFF
2628:mtk_resgenerator.cpp **** }
 7053              	LM437:
 7054              	L231:
 7055              	LBE60:
 7056 57a2 8B85F4FB 		movl	-1036(%ebp), %eax
 7056      FFFF
 7057 57a8 C9       		leave
 7058 57a9 C3       		ret
 7063              	Lscope24:
 7065 57aa 90909090 		.align 32
 7065      90909090 
 7065      90909090 
 7065      90909090 
 7065      90909090 
 7066              	LC210:
 7067 57c0 73706C69 		.ascii "split_img_data_file(): split custimgdatahw.h into CustImgDataRes_[0..3]\0"
 7067      745F696D 
 7067      675F6461 
 7067      74615F66 
 7067      696C6528 
 7068              	LC211:
 7069 5808 7200     		.ascii "r\0"
 7070 580a 90909090 		.align 32
 7070      90909090 
 7070      90909090 
 7070      90909090 
 7070      90909090 
 7071              	LC212:
 7072 5820 2E2E5C2E 		.ascii "..\\..\\customer\\custresource\\custimgdatahw.h\0"
 7072      2E5C6375 
 7072      73746F6D 
 7072      65725C63 
 7072      75737472 
 7073 584c 90909090 		.align 32
 7073      90909090 
 7073      90909090 
 7073      90909090 
 7073      90909090 
 7074              	LC213:
 7075 5860 53504C49 		.ascii "SPLIT:can not open file: custimgdatahw.h\12\0"
 7075      543A6361 
 7075      6E206E6F 
 7075      74206F70 
 7075      656E2066 
 7076              	LC214:
 7077 588a 772B00   		.ascii "w+\0"
 7078 588d 90909090 		.align 32
 7078      90909090 
 7078      90909090 
 7078      90909090 
 7078      909090
 7079              	LC215:
GAS LISTING d:/MTK/MTK2503/MTK2503/11CW1418SP4_03_CORETEK03AE_11C_V1_GPRS_MMI/plutommi/Customer/ResGenerator/gcctmp/cc63daaa.s 			page 145


 7080 58a0 2E2E5C2E 		.ascii "..\\..\\customer\\custresource\\tmp_imgdata.h\0"
 7080      2E5C6375 
 7080      73746F6D 
 7080      65725C63 
 7080      75737472 
 7081 58ca 90909090 		.align 32
 7081      90909090 
 7081      90909090 
 7081      90909090 
 7081      90909090 
 7082              	LC216:
 7083 58e0 53504C49 		.ascii "SPLIT:can not open file: tmp_imgdata.h\12\0"
 7083      543A6361 
 7083      6E206E6F 
 7083      74206F70 
 7083      656E2066 
 7084 5908 90909090 		.align 32
 7084      90909090 
 7084      90909090 
 7084      90909090 
 7084      90909090 
 7085              	LC217:
 7086 5920 2369666E 		.ascii "#ifndef __CUST_IMG_DATA_HW_H_\12\0"
 7086      64656620 
 7086      5F5F4355 
 7086      53545F49 
 7086      4D475F44 
 7087 593f 90       		.align 32
 7088              	LC218:
 7089 5940 23646566 		.ascii "#define __CUST_IMG_DATA_HW_H_\12\0"
 7089      696E6520 
 7089      5F5F4355 
 7089      53545F49 
 7089      4D475F44 
 7090 595f 90       		.align 32
 7091              	LC219:
 7092 5960 23696E63 		.ascii "#include \"CustDataRes.h\"\12#include \"ResCompressConfig.h\"\12\12\0"
 7092      6C756465 
 7092      20224375 
 7092      73744461 
 7092      74615265 
 7093 599a 8DB60000 		.align 32
 7093      0000
 7094              	LC220:
 7095 59a0 23656E64 		.ascii "#endif // !defined(__MMI_RESOURCE_IMAGE_GROUP_COMPRESS__) || defined(__MMI_RESOURCE_UT_UNC
 7095      6966202F 
 7095      2F202164 
 7095      6566696E 
 7095      6564285F 
 7096 5a17 89F68DBC 		.align 32
 7096      27000000 
 7096      00
 7097              	LC221:
 7098 5a20 23656E64 		.ascii "#endif /* __CUST_IMG_DATA_HW_H_ */\0"
 7098      6966202F 
 7098      2A205F5F 
 7098      43555354 
GAS LISTING d:/MTK/MTK2503/MTK2503/11CW1418SP4_03_CORETEK03AE_11C_V1_GPRS_MMI/plutommi/Customer/ResGenerator/gcctmp/cc63daaa.s 			page 146


 7098      5F494D47 
 7099              	LC222:
 7100 5a43 73706C69 		.ascii "split file failed, Line=%d\0"
 7100      74206669 
 7100      6C652066 
 7100      61696C65 
 7100      642C204C 
 7101              	LC223:
 7102 5a5e 73706C69 		.ascii "split file successfully!!\12\0"
 7102      74206669 
 7102      6C652073 
 7102      75636365 
 7102      73736675 
 7103 5a79 8DB42600 		.align 32
 7103      000000
 7104              	LC224:
 7105 5a80 67656E65 		.ascii "generate image data file failed. %d\0"
 7105      72617465 
 7105      20696D61 
 7105      67652064 
 7105      61746120 
 7106 5aa4 90909090 		.align 32
 7106      90909090 
 7106      90909090 
 7106      90909090 
 7106      90909090 
 7107              	LC225:
 7108 5ac0 2E2E5C2E 		.ascii "..\\..\\customer\\custresource\\custimgdatahwBak.h\0"
 7108      2E5C6375 
 7108      73746F6D 
 7108      65725C63 
 7108      75737472 
 7109              	LC226:
 7110 5aef 64656C20 		.ascii "del %s\0"
 7110      257300
 7111              	LC227:
 7112 5af6 72656E61 		.ascii "rename %s custimgdatahwBak.h\0"
 7112      6D652025 
 7112      73206375 
 7112      7374696D 
 7112      67646174 
 7113              	LC228:
 7114 5b13 72656E61 		.ascii "rename %s custimgdatahw.h\0"
 7114      6D652025 
 7114      73206375 
 7114      7374696D 
 7114      67646174 
 7115 5b2d 90       		.align 2
 7117              	.globl __Z19split_img_data_filev
 7119              	__Z19split_img_data_filev:
2629:mtk_resgenerator.cpp **** 
2630:mtk_resgenerator.cpp **** bool split_img_data_file()
2631:mtk_resgenerator.cpp **** {   
 7121              	LM438:
 7122 5b2e 55       		pushl	%ebp
 7123 5b2f 89E5     		movl	%esp, %ebp
 7124 5b31 81EC4808 		subl	$2120, %esp
GAS LISTING d:/MTK/MTK2503/MTK2503/11CW1418SP4_03_CORETEK03AE_11C_V1_GPRS_MMI/plutommi/Customer/ResGenerator/gcctmp/cc63daaa.s 			page 147


 7124      0000
2632:mtk_resgenerator.cpp ****     FILE *fp = NULL;
 7126              	LM439:
 7127              	LBB61:
 7128 5b37 C745F400 		movl	$0, -12(%ebp)
 7128      000000
2633:mtk_resgenerator.cpp ****     FILE *wfp = NULL;
 7130              	LM440:
 7131 5b3e C745F000 		movl	$0, -16(%ebp)
 7131      000000
2634:mtk_resgenerator.cpp ****     int header_num = 0;
 7133              	LM441:
 7134 5b45 C745EC00 		movl	$0, -20(%ebp)
 7134      000000
2635:mtk_resgenerator.cpp ****     char buffer[2048];
2636:mtk_resgenerator.cpp ****     char *tmp_buff = NULL;
 7136              	LM442:
 7137 5b4c C785E4F7 		movl	$0, -2076(%ebp)
 7137      FFFF0000 
 7137      0000
2637:mtk_resgenerator.cpp ****     int len = strlen(REP_HEADER);
 7139              	LM443:
 7140 5b56 C7042473 		movl	$_REP_HEADER, (%esp)
 7140      830000
 7141 5b5d E8000000 		call	_strlen
 7141      00
 7142 5b62 8985E0F7 		movl	%eax, -2080(%ebp)
 7142      FFFF
2638:mtk_resgenerator.cpp ****     int img_count = -1;
 7144              	LM444:
 7145 5b68 C785DCF7 		movl	$-1, -2084(%ebp)
 7145      FFFFFFFF 
 7145      FFFF
2639:mtk_resgenerator.cpp **** 
2640:mtk_resgenerator.cpp ****     bool bjump = false;
 7147              	LM445:
 7148 5b72 C685DBF7 		movb	$0, -2085(%ebp)
 7148      FFFF00
2641:mtk_resgenerator.cpp **** 
2642:mtk_resgenerator.cpp ****     /* record header of split file:datahw.h */
2643:mtk_resgenerator.cpp ****     BUFFER_HEADER hp = NULL;
 7150              	LM446:
 7151 5b79 C785D4F7 		movl	$0, -2092(%ebp)
 7151      FFFF0000 
 7151      0000
2644:mtk_resgenerator.cpp ****     RESGEN_LOG_V("split_img_data_file(): split custimgdatahw.h into CustImgDataRes_[0..3]");
 7153              	LM447:
 7154 5b83 C7442408 		movl	$LC210, 8(%esp)
 7154      C0570000 
 7155 5b8b C7442404 		movl	$LC1, 4(%esp)
 7155      3E000000 
 7156 5b93 C7042401 		movl	$1, (%esp)
 7156      000000
 7157 5b9a E8000000 		call	_reslog_adaptor_log
 7157      00
2645:mtk_resgenerator.cpp ****     hp = (char(*)[1024]) malloc(32 * sizeof(char) * 1024);
 7159              	LM448:
GAS LISTING d:/MTK/MTK2503/MTK2503/11CW1418SP4_03_CORETEK03AE_11C_V1_GPRS_MMI/plutommi/Customer/ResGenerator/gcctmp/cc63daaa.s 			page 148


 7160 5b9f C7042400 		movl	$32768, (%esp)
 7160      800000
 7161 5ba6 E8000000 		call	_malloc
 7161      00
 7162 5bab 8985D4F7 		movl	%eax, -2092(%ebp)
 7162      FFFF
2646:mtk_resgenerator.cpp **** 
2647:mtk_resgenerator.cpp ****     fp = fopen(CUST_IMG_DATA_FILE, "r");
 7164              	LM449:
 7165 5bb1 C7442404 		movl	$LC211, 4(%esp)
 7165      08580000 
 7166 5bb9 C7042420 		movl	$LC212, (%esp)
 7166      580000
 7167 5bc0 E8000000 		call	_fopen
 7167      00
 7168 5bc5 8945F4   		movl	%eax, -12(%ebp)
2648:mtk_resgenerator.cpp ****     if(fp == NULL)
 7170              	LM450:
 7171 5bc8 837DF400 		cmpl	$0, -12(%ebp)
 7172 5bcc 7527     		jne	L240
2649:mtk_resgenerator.cpp ****     {
2650:mtk_resgenerator.cpp ****         fprintf(stderr, "SPLIT:can not open file: custimgdatahw.h\n");
 7174              	LM451:
 7175 5bce C7442404 		movl	$LC213, 4(%esp)
 7175      60580000 
 7176 5bd6 A1000000 		movl	__imp___iob, %eax
 7176      00
 7177 5bdb 83C040   		addl	$64, %eax
 7178 5bde 890424   		movl	%eax, (%esp)
 7179 5be1 E8000000 		call	_fprintf
 7179      00
2651:mtk_resgenerator.cpp ****         return false;
 7181              	LM452:
 7182 5be6 C785CCF7 		movl	$0, -2100(%ebp)
 7182      FFFF0000 
 7182      0000
 7183 5bf0 E9630300 		jmp	L239
 7183      00
 7184              	L240:
2652:mtk_resgenerator.cpp ****     }
2653:mtk_resgenerator.cpp **** 
2654:mtk_resgenerator.cpp ****     wfp = fopen(CUST_IMG_HEADER_FILE, "w+");
 7186              	LM453:
 7187 5bf5 C7442404 		movl	$LC214, 4(%esp)
 7187      8A580000 
 7188 5bfd C70424A0 		movl	$LC215, (%esp)
 7188      580000
 7189 5c04 E8000000 		call	_fopen
 7189      00
 7190 5c09 8945F0   		movl	%eax, -16(%ebp)
2655:mtk_resgenerator.cpp ****     if(wfp == NULL)
 7192              	LM454:
 7193 5c0c 837DF000 		cmpl	$0, -16(%ebp)
 7194 5c10 7532     		jne	L241
2656:mtk_resgenerator.cpp ****     {
2657:mtk_resgenerator.cpp ****         fprintf(stderr, "SPLIT:can not open file: tmp_imgdata.h\n");
 7196              	LM455:
GAS LISTING d:/MTK/MTK2503/MTK2503/11CW1418SP4_03_CORETEK03AE_11C_V1_GPRS_MMI/plutommi/Customer/ResGenerator/gcctmp/cc63daaa.s 			page 149


 7197 5c12 C7442404 		movl	$LC216, 4(%esp)
 7197      E0580000 
 7198 5c1a A1000000 		movl	__imp___iob, %eax
 7198      00
 7199 5c1f 83C040   		addl	$64, %eax
 7200 5c22 890424   		movl	%eax, (%esp)
 7201 5c25 E8000000 		call	_fprintf
 7201      00
2658:mtk_resgenerator.cpp ****         fclose(fp);
 7203              	LM456:
 7204 5c2a 8B45F4   		movl	-12(%ebp), %eax
 7205 5c2d 890424   		movl	%eax, (%esp)
 7206 5c30 E8000000 		call	_fclose
 7206      00
2659:mtk_resgenerator.cpp ****         return false;
 7208              	LM457:
 7209 5c35 C785CCF7 		movl	$0, -2100(%ebp)
 7209      FFFF0000 
 7209      0000
 7210 5c3f E9140300 		jmp	L239
 7210      00
 7211              	L241:
2660:mtk_resgenerator.cpp ****     }
2661:mtk_resgenerator.cpp **** 
2662:mtk_resgenerator.cpp ****     /* add include guard */
2663:mtk_resgenerator.cpp ****     fputs("#ifndef __CUST_IMG_DATA_HW_H_\n", wfp);
 7213              	LM458:
 7214 5c44 8B45F0   		movl	-16(%ebp), %eax
 7215 5c47 89442404 		movl	%eax, 4(%esp)
 7216 5c4b C7042420 		movl	$LC217, (%esp)
 7216      590000
 7217 5c52 E8000000 		call	_fputs
 7217      00
2664:mtk_resgenerator.cpp ****     fputs("#define __CUST_IMG_DATA_HW_H_\n", wfp);
 7219              	LM459:
 7220 5c57 8B45F0   		movl	-16(%ebp), %eax
 7221 5c5a 89442404 		movl	%eax, 4(%esp)
 7222 5c5e C7042440 		movl	$LC218, (%esp)
 7222      590000
 7223 5c65 E8000000 		call	_fputs
 7223      00
2665:mtk_resgenerator.cpp ****     fputs("#include \"CustDataRes.h\"\n#include \"ResCompressConfig.h\"\n\n", wfp);
 7225              	LM460:
 7226 5c6a 8B45F0   		movl	-16(%ebp), %eax
 7227 5c6d 89442404 		movl	%eax, 4(%esp)
 7228 5c71 C7042460 		movl	$LC219, (%esp)
 7228      590000
 7229 5c78 E8000000 		call	_fputs
 7229      00
2666:mtk_resgenerator.cpp ****     fputs("#if !defined(__MMI_RESOURCE_IMAGE_GROUP_COMPRESS__) || defined(__MMI_RESOURCE_UT_UNCOMPR
 7231              	LM461:
 7232 5c7d 8B45F0   		movl	-16(%ebp), %eax
 7233 5c80 89442404 		movl	%eax, 4(%esp)
 7234 5c84 C7042480 		movl	$LC51, (%esp)
 7234      140000
 7235 5c8b E8000000 		call	_fputs
 7235      00
GAS LISTING d:/MTK/MTK2503/MTK2503/11CW1418SP4_03_CORETEK03AE_11C_V1_GPRS_MMI/plutommi/Customer/ResGenerator/gcctmp/cc63daaa.s 			page 150


2667:mtk_resgenerator.cpp **** 			
2668:mtk_resgenerator.cpp ****     char *cache = buffer + len + 1;
 7237              	LM462:
 7238 5c90 8D85E8F7 		leal	-2072(%ebp), %eax
 7238      FFFF
 7239 5c96 0385E0F7 		addl	-2080(%ebp), %eax
 7239      FFFF
 7240 5c9c 40       		incl	%eax
 7241 5c9d 8985D0F7 		movl	%eax, -2096(%ebp)
 7241      FFFF
2669:mtk_resgenerator.cpp ****     while(!feof(fp))
 7243              	LM463:
 7244              	L242:
 7245 5ca3 8B45F4   		movl	-12(%ebp), %eax
 7246 5ca6 890424   		movl	%eax, (%esp)
 7247 5ca9 E8000000 		call	_feof
 7247      00
 7248 5cae 85C0     		testl	%eax, %eax
 7249 5cb0 7405     		je	L244
 7250 5cb2 E98C0000 		jmp	L243
 7250      00
 7251              	L244:
2670:mtk_resgenerator.cpp ****     {
2671:mtk_resgenerator.cpp ****         tmp_buff = fgets(/*buffer + len + 1*/cache, 2048, fp);
 7253              	LM464:
 7254 5cb7 8B45F4   		movl	-12(%ebp), %eax
 7255 5cba 89442408 		movl	%eax, 8(%esp)
 7256 5cbe C7442404 		movl	$2048, 4(%esp)
 7256      00080000 
 7257 5cc6 8B85D0F7 		movl	-2096(%ebp), %eax
 7257      FFFF
 7258 5ccc 890424   		movl	%eax, (%esp)
 7259 5ccf E8000000 		call	_fgets
 7259      00
 7260 5cd4 8985E4F7 		movl	%eax, -2076(%ebp)
 7260      FFFF
2672:mtk_resgenerator.cpp **** 
2673:mtk_resgenerator.cpp ****         /* get data from the original data header file */
2674:mtk_resgenerator.cpp ****         if(!bjump)
 7262              	LM465:
 7263 5cda 80BDDBF7 		cmpb	$0, -2085(%ebp)
 7263      FFFF00
 7264 5ce1 7525     		jne	L245
2675:mtk_resgenerator.cpp ****         {
2676:mtk_resgenerator.cpp ****             bjump = get_file_headers(tmp_buff, &hp, &header_num);
 7266              	LM466:
 7267 5ce3 8D45EC   		leal	-20(%ebp), %eax
 7268 5ce6 89442408 		movl	%eax, 8(%esp)
 7269 5cea 8D85D4F7 		leal	-2092(%ebp), %eax
 7269      FFFF
 7270 5cf0 89442404 		movl	%eax, 4(%esp)
 7271 5cf4 8B85E4F7 		movl	-2076(%ebp), %eax
 7271      FFFF
 7272 5cfa 890424   		movl	%eax, (%esp)
 7273 5cfd E836F5FF 		call	__Z16get_file_headersPcPPA1024_cPi
 7273      FF
 7274 5d02 8885DBF7 		movb	%al, -2085(%ebp)
GAS LISTING d:/MTK/MTK2503/MTK2503/11CW1418SP4_03_CORETEK03AE_11C_V1_GPRS_MMI/plutommi/Customer/ResGenerator/gcctmp/cc63daaa.s 			page 151


 7274      FFFF
 7275              	L245:
2677:mtk_resgenerator.cpp ****         }
2678:mtk_resgenerator.cpp **** 
2679:mtk_resgenerator.cpp ****         /* process data and generate new header */
2680:mtk_resgenerator.cpp ****         tmp_buff = process_line_buffer(tmp_buff);
 7277              	LM467:
 7278 5d08 8B85E4F7 		movl	-2076(%ebp), %eax
 7278      FFFF
 7279 5d0e 890424   		movl	%eax, (%esp)
 7280 5d11 E8FAF3FF 		call	__Z19process_line_bufferPc
 7280      FF
 7281 5d16 8985E4F7 		movl	%eax, -2076(%ebp)
 7281      FFFF
2681:mtk_resgenerator.cpp ****         if(tmp_buff != NULL)
 7283              	LM468:
 7284 5d1c 83BDE4F7 		cmpl	$0, -2076(%ebp)
 7284      FFFF00
 7285 5d23 0F847AFF 		je	L242
 7285      FFFF
2682:mtk_resgenerator.cpp ****         {
2683:mtk_resgenerator.cpp ****             fputs(tmp_buff, wfp);
 7287              	LM469:
 7288 5d29 8B45F0   		movl	-16(%ebp), %eax
 7289 5d2c 89442404 		movl	%eax, 4(%esp)
 7290 5d30 8B85E4F7 		movl	-2076(%ebp), %eax
 7290      FFFF
 7291 5d36 890424   		movl	%eax, (%esp)
 7292 5d39 E8000000 		call	_fputs
 7292      00
 7293 5d3e E960FFFF 		jmp	L242
 7293      FF
 7294              	L243:
2684:mtk_resgenerator.cpp ****         }
2685:mtk_resgenerator.cpp ****     }
2686:mtk_resgenerator.cpp **** 
2687:mtk_resgenerator.cpp ****     fputs("#endif // !defined(__MMI_RESOURCE_IMAGE_GROUP_COMPRESS__) || defined(__MMI_RESOURCE_UT_U
 7296              	LM470:
 7297 5d43 8B45F0   		movl	-16(%ebp), %eax
 7298 5d46 89442404 		movl	%eax, 4(%esp)
 7299 5d4a C70424A0 		movl	$LC220, (%esp)
 7299      590000
 7300 5d51 E8000000 		call	_fputs
 7300      00
2688:mtk_resgenerator.cpp ****     fputs("#endif /* __CUST_IMG_DATA_HW_H_ */", wfp);
 7302              	LM471:
 7303 5d56 8B45F0   		movl	-16(%ebp), %eax
 7304 5d59 89442404 		movl	%eax, 4(%esp)
 7305 5d5d C7042420 		movl	$LC221, (%esp)
 7305      5A0000
 7306 5d64 E8000000 		call	_fputs
 7306      00
2689:mtk_resgenerator.cpp **** 
2690:mtk_resgenerator.cpp ****     /* get the image total count */
2691:mtk_resgenerator.cpp ****     rewind(wfp);
 7308              	LM472:
 7309 5d69 8B45F0   		movl	-16(%ebp), %eax
GAS LISTING d:/MTK/MTK2503/MTK2503/11CW1418SP4_03_CORETEK03AE_11C_V1_GPRS_MMI/plutommi/Customer/ResGenerator/gcctmp/cc63daaa.s 			page 152


 7310 5d6c 890424   		movl	%eax, (%esp)
 7311 5d6f E8000000 		call	_rewind
 7311      00
2692:mtk_resgenerator.cpp ****     img_count = get_img_count(wfp); /* get image count */
 7313              	LM473:
 7314 5d74 8B45F0   		movl	-16(%ebp), %eax
 7315 5d77 890424   		movl	%eax, (%esp)
 7316 5d7a E879F9FF 		call	__Z13get_img_countP6_iobuf
 7316      FF
 7317 5d7f 8985DCF7 		movl	%eax, -2084(%ebp)
 7317      FFFF
2693:mtk_resgenerator.cpp ****     /* error process */
2694:mtk_resgenerator.cpp ****     if(img_count == -1)
 7319              	LM474:
 7320 5d85 83BDDCF7 		cmpl	$-1, -2084(%ebp)
 7320      FFFFFF
 7321 5d8c 7520     		jne	L247
2695:mtk_resgenerator.cpp ****         fprintf(stderr, "split file failed, Line=%d", __LINE__);
 7323              	LM475:
 7324 5d8e C7442408 		movl	$2695, 8(%esp)
 7324      870A0000 
 7325 5d96 C7442404 		movl	$LC222, 4(%esp)
 7325      435A0000 
 7326 5d9e A1000000 		movl	__imp___iob, %eax
 7326      00
 7327 5da3 83C040   		addl	$64, %eax
 7328 5da6 890424   		movl	%eax, (%esp)
 7329 5da9 E8000000 		call	_fprintf
 7329      00
 7330              	L247:
2696:mtk_resgenerator.cpp **** 
2697:mtk_resgenerator.cpp ****     /* generate data file of image */
2698:mtk_resgenerator.cpp ****     rewind(fp);
 7332              	LM476:
 7333 5dae 8B45F4   		movl	-12(%ebp), %eax
 7334 5db1 890424   		movl	%eax, (%esp)
 7335 5db4 E8000000 		call	_rewind
 7335      00
2699:mtk_resgenerator.cpp ****     if(generate_img_data_file(fp, hp, header_num, img_count))
 7337              	LM477:
 7338 5db9 8B85DCF7 		movl	-2084(%ebp), %eax
 7338      FFFF
 7339 5dbf 8944240C 		movl	%eax, 12(%esp)
 7340 5dc3 8B45EC   		movl	-20(%ebp), %eax
 7341 5dc6 89442408 		movl	%eax, 8(%esp)
 7342 5dca 8B85D4F7 		movl	-2092(%ebp), %eax
 7342      FFFF
 7343 5dd0 89442404 		movl	%eax, 4(%esp)
 7344 5dd4 8B45F4   		movl	-12(%ebp), %eax
 7345 5dd7 890424   		movl	%eax, (%esp)
 7346 5dda E897F5FF 		call	__Z22generate_img_data_fileP6_iobufPA1024_cii
 7346      FF
 7347 5ddf 84C0     		testb	%al, %al
 7348 5de1 741A     		je	L248
2700:mtk_resgenerator.cpp ****     {
2701:mtk_resgenerator.cpp ****         fprintf(stderr, "split file successfully!!\n");
 7350              	LM478:
GAS LISTING d:/MTK/MTK2503/MTK2503/11CW1418SP4_03_CORETEK03AE_11C_V1_GPRS_MMI/plutommi/Customer/ResGenerator/gcctmp/cc63daaa.s 			page 153


 7351 5de3 C7442404 		movl	$LC223, 4(%esp)
 7351      5E5A0000 
 7352 5deb A1000000 		movl	__imp___iob, %eax
 7352      00
 7353 5df0 83C040   		addl	$64, %eax
 7354 5df3 890424   		movl	%eax, (%esp)
 7355 5df6 E8000000 		call	_fprintf
 7355      00
 7356 5dfb EB20     		jmp	L249
 7357              	L248:
2702:mtk_resgenerator.cpp ****     }
2703:mtk_resgenerator.cpp ****     else
2704:mtk_resgenerator.cpp ****     {
2705:mtk_resgenerator.cpp ****         fprintf(stderr, "generate image data file failed. %d", __LINE__);
 7359              	LM479:
 7360 5dfd C7442408 		movl	$2705, 8(%esp)
 7360      910A0000 
 7361 5e05 C7442404 		movl	$LC224, 4(%esp)
 7361      805A0000 
 7362 5e0d A1000000 		movl	__imp___iob, %eax
 7362      00
 7363 5e12 83C040   		addl	$64, %eax
 7364 5e15 890424   		movl	%eax, (%esp)
 7365 5e18 E8000000 		call	_fprintf
 7365      00
 7366              	L249:
2706:mtk_resgenerator.cpp ****     }
2707:mtk_resgenerator.cpp **** 
2708:mtk_resgenerator.cpp ****     fclose(fp);
 7368              	LM480:
 7369 5e1d 8B45F4   		movl	-12(%ebp), %eax
 7370 5e20 890424   		movl	%eax, (%esp)
 7371 5e23 E8000000 		call	_fclose
 7371      00
2709:mtk_resgenerator.cpp ****     fp = NULL;
 7373              	LM481:
 7374 5e28 C745F400 		movl	$0, -12(%ebp)
 7374      000000
2710:mtk_resgenerator.cpp **** 
2711:mtk_resgenerator.cpp ****     fclose(wfp);
 7376              	LM482:
 7377 5e2f 8B45F0   		movl	-16(%ebp), %eax
 7378 5e32 890424   		movl	%eax, (%esp)
 7379 5e35 E8000000 		call	_fclose
 7379      00
2712:mtk_resgenerator.cpp ****     wfp = NULL;
 7381              	LM483:
 7382 5e3a C745F000 		movl	$0, -16(%ebp)
 7382      000000
2713:mtk_resgenerator.cpp **** 
2714:mtk_resgenerator.cpp ****     fp = fopen(CUST_IMG_DATA_O_FILE, "r");
 7384              	LM484:
 7385 5e41 C7442404 		movl	$LC211, 4(%esp)
 7385      08580000 
 7386 5e49 C70424C0 		movl	$LC225, (%esp)
 7386      5A0000
 7387 5e50 E8000000 		call	_fopen
GAS LISTING d:/MTK/MTK2503/MTK2503/11CW1418SP4_03_CORETEK03AE_11C_V1_GPRS_MMI/plutommi/Customer/ResGenerator/gcctmp/cc63daaa.s 			page 154


 7387      00
 7388 5e55 8945F4   		movl	%eax, -12(%ebp)
2715:mtk_resgenerator.cpp ****     if(fp != NULL)
 7390              	LM485:
 7391 5e58 837DF400 		cmpl	$0, -12(%ebp)
 7392 5e5c 745C     		je	L250
2716:mtk_resgenerator.cpp ****     {
2717:mtk_resgenerator.cpp ****         fclose(fp);
 7394              	LM486:
 7395 5e5e 8B45F4   		movl	-12(%ebp), %eax
 7396 5e61 890424   		movl	%eax, (%esp)
 7397 5e64 E8000000 		call	_fclose
 7397      00
2718:mtk_resgenerator.cpp ****         fp = 0;
 7399              	LM487:
 7400 5e69 C745F400 		movl	$0, -12(%ebp)
 7400      000000
2719:mtk_resgenerator.cpp ****         memset(buffer, 0, 2048);
 7402              	LM488:
 7403 5e70 C7442408 		movl	$2048, 8(%esp)
 7403      00080000 
 7404 5e78 C7442404 		movl	$0, 4(%esp)
 7404      00000000 
 7405 5e80 8D85E8F7 		leal	-2072(%ebp), %eax
 7405      FFFF
 7406 5e86 890424   		movl	%eax, (%esp)
 7407 5e89 E8000000 		call	_memset
 7407      00
2720:mtk_resgenerator.cpp ****         sprintf(buffer, "del %s", CUST_IMG_DATA_O_FILE);
 7409              	LM489:
 7410 5e8e C7442408 		movl	$LC225, 8(%esp)
 7410      C05A0000 
 7411 5e96 C7442404 		movl	$LC226, 4(%esp)
 7411      EF5A0000 
 7412 5e9e 8D85E8F7 		leal	-2072(%ebp), %eax
 7412      FFFF
 7413 5ea4 890424   		movl	%eax, (%esp)
 7414 5ea7 E8000000 		call	_sprintf
 7414      00
2721:mtk_resgenerator.cpp ****         execute_ext_command(buffer);
 7416              	LM490:
 7417 5eac 8D85E8F7 		leal	-2072(%ebp), %eax
 7417      FFFF
 7418 5eb2 890424   		movl	%eax, (%esp)
 7419 5eb5 E8000000 		call	_execute_ext_command
 7419      00
 7420              	L250:
2722:mtk_resgenerator.cpp ****     }
2723:mtk_resgenerator.cpp **** 
2724:mtk_resgenerator.cpp ****     memset(buffer, 0, 2048);
 7422              	LM491:
 7423 5eba C7442408 		movl	$2048, 8(%esp)
 7423      00080000 
 7424 5ec2 C7442404 		movl	$0, 4(%esp)
 7424      00000000 
 7425 5eca 8D85E8F7 		leal	-2072(%ebp), %eax
 7425      FFFF
GAS LISTING d:/MTK/MTK2503/MTK2503/11CW1418SP4_03_CORETEK03AE_11C_V1_GPRS_MMI/plutommi/Customer/ResGenerator/gcctmp/cc63daaa.s 			page 155


 7426 5ed0 890424   		movl	%eax, (%esp)
 7427 5ed3 E8000000 		call	_memset
 7427      00
2725:mtk_resgenerator.cpp ****     sprintf(buffer, "rename %s custimgdatahwBak.h", CUST_IMG_DATA_FILE);
 7429              	LM492:
 7430 5ed8 C7442408 		movl	$LC212, 8(%esp)
 7430      20580000 
 7431 5ee0 C7442404 		movl	$LC227, 4(%esp)
 7431      F65A0000 
 7432 5ee8 8D85E8F7 		leal	-2072(%ebp), %eax
 7432      FFFF
 7433 5eee 890424   		movl	%eax, (%esp)
 7434 5ef1 E8000000 		call	_sprintf
 7434      00
2726:mtk_resgenerator.cpp ****     execute_ext_command(buffer);
 7436              	LM493:
 7437 5ef6 8D85E8F7 		leal	-2072(%ebp), %eax
 7437      FFFF
 7438 5efc 890424   		movl	%eax, (%esp)
 7439 5eff E8000000 		call	_execute_ext_command
 7439      00
2727:mtk_resgenerator.cpp **** 
2728:mtk_resgenerator.cpp ****     /* generate new extern data file */
2729:mtk_resgenerator.cpp ****     memset(buffer, 0, 2048);
 7441              	LM494:
 7442 5f04 C7442408 		movl	$2048, 8(%esp)
 7442      00080000 
 7443 5f0c C7442404 		movl	$0, 4(%esp)
 7443      00000000 
 7444 5f14 8D85E8F7 		leal	-2072(%ebp), %eax
 7444      FFFF
 7445 5f1a 890424   		movl	%eax, (%esp)
 7446 5f1d E8000000 		call	_memset
 7446      00
2730:mtk_resgenerator.cpp ****     sprintf(buffer, "rename %s custimgdatahw.h", CUST_IMG_HEADER_FILE);
 7448              	LM495:
 7449 5f22 C7442408 		movl	$LC215, 8(%esp)
 7449      A0580000 
 7450 5f2a C7442404 		movl	$LC228, 4(%esp)
 7450      135B0000 
 7451 5f32 8D85E8F7 		leal	-2072(%ebp), %eax
 7451      FFFF
 7452 5f38 890424   		movl	%eax, (%esp)
 7453 5f3b E8000000 		call	_sprintf
 7453      00
2731:mtk_resgenerator.cpp ****     execute_ext_command(buffer);
 7455              	LM496:
 7456 5f40 8D85E8F7 		leal	-2072(%ebp), %eax
 7456      FFFF
 7457 5f46 890424   		movl	%eax, (%esp)
 7458 5f49 E8000000 		call	_execute_ext_command
 7458      00
2732:mtk_resgenerator.cpp **** 
2733:mtk_resgenerator.cpp ****     return true;
 7460              	LM497:
 7461 5f4e C785CCF7 		movl	$1, -2100(%ebp)
 7461      FFFF0100 
GAS LISTING d:/MTK/MTK2503/MTK2503/11CW1418SP4_03_CORETEK03AE_11C_V1_GPRS_MMI/plutommi/Customer/ResGenerator/gcctmp/cc63daaa.s 			page 156


 7461      0000
2734:mtk_resgenerator.cpp **** }
 7463              	LM498:
 7464              	L239:
 7465              	LBE61:
 7466 5f58 8B85CCF7 		movl	-2100(%ebp), %eax
 7466      FFFF
 7467 5f5e C9       		leave
 7468 5f5f C3       		ret
 7481              	Lscope25:
 7483              		.data
 7484              		.align 4
 7485              	_g_error:
 7486 0010 FFFFFFFF 		.long	-1
 7487              		.text
 7488              		.align 2
 7491              	__Z22launch_resgen_servicesv:
2735:mtk_resgenerator.cpp **** 
2736:mtk_resgenerator.cpp **** /* end split image data */
2737:mtk_resgenerator.cpp **** 
2738:mtk_resgenerator.cpp **** extern "C" void ToolPopulateInitial(void);
2739:mtk_resgenerator.cpp **** extern "C" void ToolPopulateDone(void);
2740:mtk_resgenerator.cpp **** extern "C" MMI_BOOL Aload(S8 *string, U16* pType);
2741:mtk_resgenerator.cpp **** 
2742:mtk_resgenerator.cpp **** #ifdef __MMI_RESOURCE_ENFB_SUPPORT__
2743:mtk_resgenerator.cpp **** extern "C" int disableENFB;
2744:mtk_resgenerator.cpp **** #endif
2745:mtk_resgenerator.cpp **** 
2746:mtk_resgenerator.cpp **** 
2747:mtk_resgenerator.cpp **** static S32 g_error = -1;
2748:mtk_resgenerator.cpp **** 
2749:mtk_resgenerator.cpp **** static void launch_resgen_services(){
 7493              	LM499:
 7494 5f60 55       		pushl	%ebp
 7495 5f61 89E5     		movl	%esp, %ebp
 7496 5f63 83EC18   		subl	$24, %esp
2750:mtk_resgenerator.cpp ****     int debugLevelCfg = RES_LOG_LEVEL_VERBOSE;
 7498              	LM500:
 7499              	LBB62:
 7500 5f66 C745FC01 		movl	$1, -4(%ebp)
 7500      000000
2751:mtk_resgenerator.cpp **** 
2752:mtk_resgenerator.cpp ****     // Start Resgen Log service
2753:mtk_resgenerator.cpp ****     reslog_adaptor_start_service();
 7502              	LM501:
 7503 5f6d E8000000 		call	_reslog_adaptor_start_service
 7503      00
2754:mtk_resgenerator.cpp **** 
2755:mtk_resgenerator.cpp ****     // Load configuration
2756:mtk_resgenerator.cpp ****     ResgenConfigurator *configObj = ResgenConfigurator::getInstance();
 7505              	LM502:
 7506 5f72 E8000000 		call	__ZN18ResgenConfigurator11getInstanceEv
 7506      00
 7507 5f77 8945F8   		movl	%eax, -8(%ebp)
2757:mtk_resgenerator.cpp ****     if(configObj!=NULL){
 7509              	LM503:
 7510 5f7a 837DF800 		cmpl	$0, -8(%ebp)
GAS LISTING d:/MTK/MTK2503/MTK2503/11CW1418SP4_03_CORETEK03AE_11C_V1_GPRS_MMI/plutommi/Customer/ResGenerator/gcctmp/cc63daaa.s 			page 157


 7511 5f7e 7422     		je	L252
2758:mtk_resgenerator.cpp ****         configObj->loadConfiguration(ResgenConfigurator::DEFAULT_CONFIG_FILE);
 7513              	LM504:
 7514 5f80 A1000000 		movl	__ZN18ResgenConfigurator19DEFAULT_CONFIG_FILEE, %eax
 7514      00
 7515 5f85 89442404 		movl	%eax, 4(%esp)
 7516 5f89 8B45F8   		movl	-8(%ebp), %eax
 7517 5f8c 890424   		movl	%eax, (%esp)
 7518 5f8f E8000000 		call	__ZN18ResgenConfigurator17loadConfigurationEPKc
 7518      00
2759:mtk_resgenerator.cpp ****         debugLevelCfg = configObj->getDebugLevel();
 7520              	LM505:
 7521 5f94 8B45F8   		movl	-8(%ebp), %eax
 7522 5f97 890424   		movl	%eax, (%esp)
 7523 5f9a E8000000 		call	__ZN18ResgenConfigurator13getDebugLevelEv
 7523      00
 7524 5f9f 8945FC   		movl	%eax, -4(%ebp)
 7525              	L252:
2760:mtk_resgenerator.cpp ****     }
2761:mtk_resgenerator.cpp **** 
2762:mtk_resgenerator.cpp ****     // Set default log level
2763:mtk_resgenerator.cpp ****     reslog_adaptor_set_max_level(debugLevelCfg);
 7527              	LM506:
 7528 5fa2 8B45FC   		movl	-4(%ebp), %eax
 7529 5fa5 890424   		movl	%eax, (%esp)
 7530 5fa8 E8000000 		call	_reslog_adaptor_set_max_level
 7530      00
2764:mtk_resgenerator.cpp **** 
2765:mtk_resgenerator.cpp ****     // Create crush handling serice
2766:mtk_resgenerator.cpp ****     ResgenCrashHandlingService * crashHandlingObj = ResgenCrashHandlingService::getInstance();
 7532              	LM507:
 7533 5fad E8000000 		call	__ZN26ResgenCrashHandlingService11getInstanceEv
 7533      00
 7534 5fb2 8945F4   		movl	%eax, -12(%ebp)
2767:mtk_resgenerator.cpp **** 
2768:mtk_resgenerator.cpp ****     // Start the service to catch regen crush exceptions
2769:mtk_resgenerator.cpp ****     crashHandlingObj->start();
 7536              	LM508:
 7537 5fb5 8B45F4   		movl	-12(%ebp), %eax
 7538 5fb8 890424   		movl	%eax, (%esp)
 7539 5fbb E8000000 		call	__ZN26ResgenCrashHandlingService5startEv
 7539      00
2770:mtk_resgenerator.cpp **** }
 7541              	LM509:
 7542 5fc0 C9       		leave
 7543 5fc1 C3       		ret
 7544              	LBE62:
 7550              	Lscope26:
 7552              	LC229:
 7553 5fc2 6D746B5F 		.ascii "mtk_resgenerator.exe fail!\0"
 7553      72657367 
 7553      656E6572 
 7553      61746F72 
 7553      2E657865 
 7554 5fdd 8D7600   		.align 32
 7555              	LC230:
 7556 5fe0 6D746B5F 		.ascii "mtk_resgenerator.exe failed, the error flag was set.\12\0"
GAS LISTING d:/MTK/MTK2503/MTK2503/11CW1418SP4_03_CORETEK03AE_11C_V1_GPRS_MMI/plutommi/Customer/ResGenerator/gcctmp/cc63daaa.s 			page 158


 7556      72657367 
 7556      656E6572 
 7556      61746F72 
 7556      2E657865 
 7557 6016 8D76008D 		.align 32
 7557      BC270000 
 7557      0000
 7558              	LC231:
 7559 6020 50006C00 		.ascii "P\0l\0e\0a\0s\0e\0 \0c\0h\0e\0c\0k\0 \0p\0l\0u\0t\0o\0m\0m\0i\0\\\0C\0u\0s\0t\0o\0m\0e\0r\
 7559      65006100 
 7559      73006500 
 7559      20006300 
 7559      68006500 
 7560 60cc 90909090 		.align 32
 7560      90909090 
 7560      90909090 
 7560      90909090 
 7560      90909090 
 7561              	LC232:
 7562 60e0 0A2D2D2D 		.ascii "\12--------------- REF LIST ERROR -------------------\12\0"
 7562      2D2D2D2D 
 7562      2D2D2D2D 
 7562      2D2D2D2D 
 7562      20524546 
 7563 6115 8D742600 		.align 32
 7563      8DBC2700 
 7563      000000
 7564              	LC233:
 7565 6120 506C6561 		.ascii "Please check plutommi\\Customer\\CustResource\\ref_list.txt for this error !\12\0"
 7565      73652063 
 7565      6865636B 
 7565      20706C75 
 7565      746F6D6D 
 7566 616b 90       		.align 2
 7567              	LC234:
 7568 616c 25006C00 		.ascii "%\0l\0s\0\12\0\0\0"
 7568      73000A00 
 7568      0000
 7569 6176 8D76008D 		.align 32
 7569      BC270000 
 7569      0000
 7570              	LC235:
 7571 6180 0A2D2D2D 		.ascii "\12--------------------------------------------------\12\0"
 7571      2D2D2D2D 
 7571      2D2D2D2D 
 7571      2D2D2D2D 
 7571      2D2D2D2D 
 7572 61b5 8D742600 		.align 32
 7572      8DBC2700 
 7572      000000
 7573              	LC236:
 7574 61c0 50006C00 		.ascii "P\0l\0e\0a\0s\0e\0 \0c\0h\0e\0c\0k\0 \0p\0l\0u\0t\0o\0m\0m\0i\0\\\0C\0u\0s\0t\0o\0m\0e\0r\
 7574      65006100 
 7574      73006500 
 7574      20006300 
 7574      68006500 
 7575 62aa 90909090 		.align 32
GAS LISTING d:/MTK/MTK2503/MTK2503/11CW1418SP4_03_CORETEK03AE_11C_V1_GPRS_MMI/plutommi/Customer/ResGenerator/gcctmp/cc63daaa.s 			page 159


 7575      90909090 
 7575      90909090 
 7575      90909090 
 7575      90909090 
 7576              	LC237:
 7577 62c0 506C6561 		.ascii "Please check plutommi\\Customer\\CustResource\\PLUTO_MMI\\ref_list\\ref_list_translation.t
 7577      73652063 
 7577      6865636B 
 7577      20706C75 
 7577      746F6D6D 
 7578              		.align 2
 7581              	__Z19handle_regen_errorsv:
2771:mtk_resgenerator.cpp **** 
2772:mtk_resgenerator.cpp **** // function handle_regen_errors will be phased not
2773:mtk_resgenerator.cpp **** // after all moudule are using resgen log framework API
2774:mtk_resgenerator.cpp **** static int handle_regen_errors(){
 7583              	LM510:
 7584 632c 55       		pushl	%ebp
 7585 632d 89E5     		movl	%esp, %ebp
 7586 632f 83EC28   		subl	$40, %esp
2775:mtk_resgenerator.cpp ****     wchar_t * err_msg = NULL;
 7588              	LM511:
 7589              	LBB63:
 7590 6332 C745FC00 		movl	$0, -4(%ebp)
 7590      000000
2776:mtk_resgenerator.cpp ****     int err_code = 0;
 7592              	LM512:
 7593 6339 C745F800 		movl	$0, -8(%ebp)
 7593      000000
2777:mtk_resgenerator.cpp ****     /* Check error in each module */
2778:mtk_resgenerator.cpp ****     if (mtk_resgen_has_error() )
 7595              	LM513:
 7596 6340 E8000000 		call	_mtk_resgen_has_error
 7596      00
 7597 6345 85C0     		testl	%eax, %eax
 7598 6347 7440     		je	L254
2779:mtk_resgenerator.cpp ****     {
2780:mtk_resgenerator.cpp ****         RESGEN_LOG_E("mtk_resgenerator.exe fail!");
 7600              	LM514:
 7601 6349 C7442408 		movl	$LC229, 8(%esp)
 7601      C25F0000 
 7602 6351 C7442404 		movl	$LC1, 4(%esp)
 7602      3E000000 
 7603 6359 C7042403 		movl	$3, (%esp)
 7603      000000
 7604 6360 E8000000 		call	_reslog_adaptor_log
 7604      00
2781:mtk_resgenerator.cpp ****         fprintf(stderr, "mtk_resgenerator.exe failed, the error flag was set.\n");
 7606              	LM515:
 7607 6365 C7442404 		movl	$LC230, 4(%esp)
 7607      E05F0000 
 7608 636d A1000000 		movl	__imp___iob, %eax
 7608      00
 7609 6372 83C040   		addl	$64, %eax
 7610 6375 890424   		movl	%eax, (%esp)
 7611 6378 E8000000 		call	_fprintf
 7611      00
GAS LISTING d:/MTK/MTK2503/MTK2503/11CW1418SP4_03_CORETEK03AE_11C_V1_GPRS_MMI/plutommi/Customer/ResGenerator/gcctmp/cc63daaa.s 			page 160


2782:mtk_resgenerator.cpp ****         return 1;
 7613              	LM516:
 7614 637d C745F401 		movl	$1, -12(%ebp)
 7614      000000
 7615 6384 E9520100 		jmp	L253
 7615      00
 7616              	L254:
2783:mtk_resgenerator.cpp ****     }
2784:mtk_resgenerator.cpp **** 
2785:mtk_resgenerator.cpp ****     err_code = str_merge_get_err(&err_msg);
 7618              	LM517:
 7619 6389 8D45FC   		leal	-4(%ebp), %eax
 7620 638c 890424   		movl	%eax, (%esp)
 7621 638f E8000000 		call	_str_merge_get_err
 7621      00
 7622 6394 8945F8   		movl	%eax, -8(%ebp)
2786:mtk_resgenerator.cpp **** 
2787:mtk_resgenerator.cpp ****     if(err_code == STRMERGE_LOAD_REF_LIST_ERR)
 7624              	LM518:
 7625 6397 837DF801 		cmpl	$1, -8(%ebp)
 7626 639b 0F859600 		jne	L255
 7626      0000
2788:mtk_resgenerator.cpp ****     {
2789:mtk_resgenerator.cpp ****         // Output to log file
2790:mtk_resgenerator.cpp ****         RESGEN_WLOG_E(L"Please check plutommi\\Customer\\CustResource\\ref_list.txt for this error 
 7628              	LM519:
 7629 63a1 8B45FC   		movl	-4(%ebp), %eax
 7630 63a4 8944240C 		movl	%eax, 12(%esp)
 7631 63a8 C7442408 		movl	$LC231, 8(%esp)
 7631      20600000 
 7632 63b0 C7442404 		movl	$LC1, 4(%esp)
 7632      3E000000 
 7633 63b8 C7042403 		movl	$3, (%esp)
 7633      000000
 7634 63bf E8000000 		call	_reslog_adaptor_wlog
 7634      00
2791:mtk_resgenerator.cpp ****         // Show message in console
2792:mtk_resgenerator.cpp ****         fprintf(stderr,"\n--------------- REF LIST ERROR -------------------\n");
 7636              	LM520:
 7637 63c4 C7442404 		movl	$LC232, 4(%esp)
 7637      E0600000 
 7638 63cc A1000000 		movl	__imp___iob, %eax
 7638      00
 7639 63d1 83C040   		addl	$64, %eax
 7640 63d4 890424   		movl	%eax, (%esp)
 7641 63d7 E8000000 		call	_fprintf
 7641      00
2793:mtk_resgenerator.cpp ****         fprintf(stderr,"Please check plutommi\\Customer\\CustResource\\ref_list.txt for this error 
 7643              	LM521:
 7644 63dc C7442404 		movl	$LC233, 4(%esp)
 7644      20610000 
 7645 63e4 A1000000 		movl	__imp___iob, %eax
 7645      00
 7646 63e9 83C040   		addl	$64, %eax
 7647 63ec 890424   		movl	%eax, (%esp)
 7648 63ef E8000000 		call	_fprintf
 7648      00
GAS LISTING d:/MTK/MTK2503/MTK2503/11CW1418SP4_03_CORETEK03AE_11C_V1_GPRS_MMI/plutommi/Customer/ResGenerator/gcctmp/cc63daaa.s 			page 161


2794:mtk_resgenerator.cpp ****         fwprintf(stderr, L"%ls\n",err_msg);
 7650              	LM522:
 7651 63f4 8B45FC   		movl	-4(%ebp), %eax
 7652 63f7 89442408 		movl	%eax, 8(%esp)
 7653 63fb C7442404 		movl	$LC234, 4(%esp)
 7653      6C610000 
 7654 6403 A1000000 		movl	__imp___iob, %eax
 7654      00
 7655 6408 83C040   		addl	$64, %eax
 7656 640b 890424   		movl	%eax, (%esp)
 7657 640e E8000000 		call	_fwprintf
 7657      00
2795:mtk_resgenerator.cpp ****         fprintf(stderr,"\n--------------------------------------------------\n");
 7659              	LM523:
 7660 6413 C7442404 		movl	$LC235, 4(%esp)
 7660      80610000 
 7661 641b A1000000 		movl	__imp___iob, %eax
 7661      00
 7662 6420 83C040   		addl	$64, %eax
 7663 6423 890424   		movl	%eax, (%esp)
 7664 6426 E8000000 		call	_fprintf
 7664      00
2796:mtk_resgenerator.cpp ****         return 1;
 7666              	LM524:
 7667 642b C745F401 		movl	$1, -12(%ebp)
 7667      000000
 7668 6432 E9A40000 		jmp	L253
 7668      00
 7669              	L255:
2797:mtk_resgenerator.cpp ****     }
2798:mtk_resgenerator.cpp **** 
2799:mtk_resgenerator.cpp ****     if(err_code == STRMERGE_LOAD_SSC_ERR)
 7671              	LM525:
 7672 6437 837DF802 		cmpl	$2, -8(%ebp)
 7673 643b 0F859300 		jne	L256
 7673      0000
2800:mtk_resgenerator.cpp ****     {
2801:mtk_resgenerator.cpp ****         // Output to log file
2802:mtk_resgenerator.cpp ****         RESGEN_WLOG_E(L"Please check plutommi\\Customer\\CustResource\\PLUTO_MMI\\ref_list\\ref_lis
 7675              	LM526:
 7676 6441 8B45FC   		movl	-4(%ebp), %eax
 7677 6444 8944240C 		movl	%eax, 12(%esp)
 7678 6448 C7442408 		movl	$LC236, 8(%esp)
 7678      C0610000 
 7679 6450 C7442404 		movl	$LC1, 4(%esp)
 7679      3E000000 
 7680 6458 C7042403 		movl	$3, (%esp)
 7680      000000
 7681 645f E8000000 		call	_reslog_adaptor_wlog
 7681      00
2803:mtk_resgenerator.cpp ****         // Show message in console
2804:mtk_resgenerator.cpp ****         fprintf(stderr,"\n--------------- REF LIST ERROR -------------------\n");
 7683              	LM527:
 7684 6464 C7442404 		movl	$LC232, 4(%esp)
 7684      E0600000 
 7685 646c A1000000 		movl	__imp___iob, %eax
 7685      00
GAS LISTING d:/MTK/MTK2503/MTK2503/11CW1418SP4_03_CORETEK03AE_11C_V1_GPRS_MMI/plutommi/Customer/ResGenerator/gcctmp/cc63daaa.s 			page 162


 7686 6471 83C040   		addl	$64, %eax
 7687 6474 890424   		movl	%eax, (%esp)
 7688 6477 E8000000 		call	_fprintf
 7688      00
2805:mtk_resgenerator.cpp ****         fprintf(stderr,"Please check plutommi\\Customer\\CustResource\\PLUTO_MMI\\ref_list\\ref_lis
 7690              	LM528:
 7691 647c C7442404 		movl	$LC237, 4(%esp)
 7691      C0620000 
 7692 6484 A1000000 		movl	__imp___iob, %eax
 7692      00
 7693 6489 83C040   		addl	$64, %eax
 7694 648c 890424   		movl	%eax, (%esp)
 7695 648f E8000000 		call	_fprintf
 7695      00
2806:mtk_resgenerator.cpp ****         fwprintf(stderr, L"%ls\n",err_msg);
 7697              	LM529:
 7698 6494 8B45FC   		movl	-4(%ebp), %eax
 7699 6497 89442408 		movl	%eax, 8(%esp)
 7700 649b C7442404 		movl	$LC234, 4(%esp)
 7700      6C610000 
 7701 64a3 A1000000 		movl	__imp___iob, %eax
 7701      00
 7702 64a8 83C040   		addl	$64, %eax
 7703 64ab 890424   		movl	%eax, (%esp)
 7704 64ae E8000000 		call	_fwprintf
 7704      00
2807:mtk_resgenerator.cpp ****         fprintf(stderr,"\n--------------------------------------------------\n");
 7706              	LM530:
 7707 64b3 C7442404 		movl	$LC235, 4(%esp)
 7707      80610000 
 7708 64bb A1000000 		movl	__imp___iob, %eax
 7708      00
 7709 64c0 83C040   		addl	$64, %eax
 7710 64c3 890424   		movl	%eax, (%esp)
 7711 64c6 E8000000 		call	_fprintf
 7711      00
2808:mtk_resgenerator.cpp ****         return 1;
 7713              	LM531:
 7714 64cb C745F401 		movl	$1, -12(%ebp)
 7714      000000
 7715 64d2 EB07     		jmp	L253
 7716              	L256:
2809:mtk_resgenerator.cpp ****     }
2810:mtk_resgenerator.cpp ****     return 0;
 7718              	LM532:
 7719 64d4 C745F400 		movl	$0, -12(%ebp)
 7719      000000
2811:mtk_resgenerator.cpp **** }
 7721              	LM533:
 7722              	L253:
 7723              	LBE63:
 7724 64db 8B45F4   		movl	-12(%ebp), %eax
 7725 64de C9       		leave
 7726 64df C3       		ret
 7731              	Lscope27:
 7733              		.align 2
 7736              	__Z18check_fatal_errorsv:
GAS LISTING d:/MTK/MTK2503/MTK2503/11CW1418SP4_03_CORETEK03AE_11C_V1_GPRS_MMI/plutommi/Customer/ResGenerator/gcctmp/cc63daaa.s 			page 163


2812:mtk_resgenerator.cpp **** 
2813:mtk_resgenerator.cpp **** 
2814:mtk_resgenerator.cpp **** static int check_fatal_errors(){
 7738              	LM534:
 7739 64e0 55       		pushl	%ebp
 7740 64e1 89E5     		movl	%esp, %ebp
 7741 64e3 83EC08   		subl	$8, %esp
2815:mtk_resgenerator.cpp ****     int hasPendingFatalError = reslog_adaptor_has_pending_fatal_error();
 7743              	LM535:
 7744              	LBB64:
 7745 64e6 E8000000 		call	_reslog_adaptor_has_pending_fatal_error
 7745      00
 7746 64eb 8945FC   		movl	%eax, -4(%ebp)
2816:mtk_resgenerator.cpp ****     if(hasPendingFatalError){
 7748              	LM536:
 7749 64ee 837DFC00 		cmpl	$0, -4(%ebp)
 7750 64f2 7405     		je	L258
2817:mtk_resgenerator.cpp ****         reslog_adaptor_flush_pending_fatal_error();
 7752              	LM537:
 7753 64f4 E8000000 		call	_reslog_adaptor_flush_pending_fatal_error
 7753      00
 7754              	L258:
2818:mtk_resgenerator.cpp ****     }
2819:mtk_resgenerator.cpp ****     hasPendingFatalError |= handle_regen_errors();
 7756              	LM538:
 7757 64f9 E82EFEFF 		call	__Z19handle_regen_errorsv
 7757      FF
 7758 64fe 89C2     		movl	%eax, %edx
 7759 6500 8D45FC   		leal	-4(%ebp), %eax
 7760 6503 0910     		orl	%edx, (%eax)
2820:mtk_resgenerator.cpp ****     return hasPendingFatalError;
 7762              	LM539:
 7763 6505 8B45FC   		movl	-4(%ebp), %eax
2821:mtk_resgenerator.cpp **** }
 7765              	LM540:
 7766 6508 C9       		leave
 7767 6509 C3       		ret
 7768              	LBE64:
 7772              	Lscope28:
 7774              		.align 2
 7777              	__Z20stop_resgen_servicesv:
2822:mtk_resgenerator.cpp **** 
2823:mtk_resgenerator.cpp **** static void stop_resgen_services(){
 7779              	LM541:
 7780 650a 55       		pushl	%ebp
 7781 650b 89E5     		movl	%esp, %ebp
 7782 650d 83EC08   		subl	$8, %esp
2824:mtk_resgenerator.cpp ****     ResgenCrashHandlingService * crashHandlingObj = ResgenCrashHandlingService::getInstance();
 7784              	LM542:
 7785              	LBB65:
 7786 6510 E8000000 		call	__ZN26ResgenCrashHandlingService11getInstanceEv
 7786      00
 7787 6515 8945FC   		movl	%eax, -4(%ebp)
2825:mtk_resgenerator.cpp ****     crashHandlingObj->stop();
 7789              	LM543:
 7790 6518 8B45FC   		movl	-4(%ebp), %eax
 7791 651b 890424   		movl	%eax, (%esp)
GAS LISTING d:/MTK/MTK2503/MTK2503/11CW1418SP4_03_CORETEK03AE_11C_V1_GPRS_MMI/plutommi/Customer/ResGenerator/gcctmp/cc63daaa.s 			page 164


 7792 651e E8000000 		call	__ZN26ResgenCrashHandlingService4stopEv
 7792      00
2826:mtk_resgenerator.cpp ****     ResgenConfigurator::release();
 7794              	LM544:
 7795 6523 E8000000 		call	__ZN18ResgenConfigurator7releaseEv
 7795      00
2827:mtk_resgenerator.cpp ****     reslog_adaptor_stop_service();
 7797              	LM545:
 7798 6528 E8000000 		call	_reslog_adaptor_stop_service
 7798      00
2828:mtk_resgenerator.cpp **** }
 7800              	LM546:
 7801 652d C9       		leave
 7802 652e C3       		ret
 7803              	LBE65:
 7807              	Lscope29:
 7809 652f 90909090 		.align 32
 7809      90909090 
 7809      90909090 
 7809      90909090 
 7809      90
 7810              	LC238:
 7811 6540 6D746B5F 		.ascii "mtk_resgenerator.exe execute successfully.\0"
 7811      72657367 
 7811      656E6572 
 7811      61746F72 
 7811      2E657865 
 7812 656b 90909090 		.align 32
 7812      90909090 
 7812      90909090 
 7812      90909090 
 7812      90909090 
 7813              	LC239:
 7814 6580 6D746B5F 		.ascii "mtk_resgenerator.exe execute successfully.\12\0"
 7814      72657367 
 7814      656E6572 
 7814      61746F72 
 7814      2E657865 
 7815              		.align 2
 7818              	__Z14resgen_on_exitv:
2829:mtk_resgenerator.cpp **** 
2830:mtk_resgenerator.cpp **** 
2831:mtk_resgenerator.cpp **** /*****************************************************************************
2832:mtk_resgenerator.cpp **** * FUNCTION
2833:mtk_resgenerator.cpp **** *  on_exit
2834:mtk_resgenerator.cpp **** * DESCRIPTION
2835:mtk_resgenerator.cpp **** *  program exit function
2836:mtk_resgenerator.cpp **** * PARAMETERS
2837:mtk_resgenerator.cpp **** *  void
2838:mtk_resgenerator.cpp **** * RETURNS
2839:mtk_resgenerator.cpp **** *  void
2840:mtk_resgenerator.cpp **** *****************************************************************************/
2841:mtk_resgenerator.cpp **** static void resgen_on_exit(void)
2842:mtk_resgenerator.cpp **** {
 7820              	LM547:
 7821 65ac 55       		pushl	%ebp
 7822 65ad 89E5     		movl	%esp, %ebp
GAS LISTING d:/MTK/MTK2503/MTK2503/11CW1418SP4_03_CORETEK03AE_11C_V1_GPRS_MMI/plutommi/Customer/ResGenerator/gcctmp/cc63daaa.s 			page 165


 7823 65af 83EC18   		subl	$24, %esp
2843:mtk_resgenerator.cpp ****     /*----------------------------------------------------------------*/
2844:mtk_resgenerator.cpp ****     /* Local Variables                                                */
2845:mtk_resgenerator.cpp ****     /*----------------------------------------------------------------*/
2846:mtk_resgenerator.cpp **** 
2847:mtk_resgenerator.cpp ****     /*----------------------------------------------------------------*/
2848:mtk_resgenerator.cpp ****     /* Code Body                                                      */
2849:mtk_resgenerator.cpp ****     /*----------------------------------------------------------------*/
2850:mtk_resgenerator.cpp ****     fflush(stdout);
 7825              	LM548:
 7826 65b2 A1000000 		movl	__imp___iob, %eax
 7826      00
 7827              	LBB66:
 7828 65b7 83C020   		addl	$32, %eax
 7829 65ba 890424   		movl	%eax, (%esp)
 7830 65bd E8000000 		call	_fflush
 7830      00
2851:mtk_resgenerator.cpp **** 
2852:mtk_resgenerator.cpp ****     int regenHasError = check_fatal_errors();
 7832              	LM549:
 7833 65c2 E819FFFF 		call	__Z18check_fatal_errorsv
 7833      FF
 7834 65c7 8945FC   		movl	%eax, -4(%ebp)
2853:mtk_resgenerator.cpp **** 
2854:mtk_resgenerator.cpp ****     if (g_error != -1 && regenHasError==0 )  // normal exit
 7836              	LM550:
 7837 65ca 833D1000 		cmpl	$-1, _g_error
 7837      0000FF
 7838 65d1 744B     		je	L261
 7839 65d3 837DFC00 		cmpl	$0, -4(%ebp)
 7840 65d7 7545     		jne	L261
2855:mtk_resgenerator.cpp ****     {
2856:mtk_resgenerator.cpp ****         RESGEN_LOG_V("mtk_resgenerator.exe execute successfully.");
 7842              	LM551:
 7843 65d9 C7442408 		movl	$LC238, 8(%esp)
 7843      40650000 
 7844 65e1 C7442404 		movl	$LC1, 4(%esp)
 7844      3E000000 
 7845 65e9 C7042401 		movl	$1, (%esp)
 7845      000000
 7846 65f0 E8000000 		call	_reslog_adaptor_log
 7846      00
2857:mtk_resgenerator.cpp ****         fprintf(stderr, "mtk_resgenerator.exe execute successfully.\n");
 7848              	LM552:
 7849 65f5 C7442404 		movl	$LC239, 4(%esp)
 7849      80650000 
 7850 65fd A1000000 		movl	__imp___iob, %eax
 7850      00
 7851 6602 83C040   		addl	$64, %eax
 7852 6605 890424   		movl	%eax, (%esp)
 7853 6608 E8000000 		call	_fprintf
 7853      00
2858:mtk_resgenerator.cpp ****         stop_resgen_services();
 7855              	LM553:
 7856 660d E8F8FEFF 		call	__Z20stop_resgen_servicesv
 7856      FF
2859:mtk_resgenerator.cpp ****         _exit(1);
GAS LISTING d:/MTK/MTK2503/MTK2503/11CW1418SP4_03_CORETEK03AE_11C_V1_GPRS_MMI/plutommi/Customer/ResGenerator/gcctmp/cc63daaa.s 			page 166


 7858              	LM554:
 7859 6612 C7042401 		movl	$1, (%esp)
 7859      000000
 7860 6619 E8000000 		call	__exit
 7860      00
 7861              	L261:
2860:mtk_resgenerator.cpp ****     }
2861:mtk_resgenerator.cpp ****     else                // abnormal exit
2862:mtk_resgenerator.cpp ****     {
2863:mtk_resgenerator.cpp ****         stop_resgen_services();
 7863              	LM555:
 7864 661e E8E7FEFF 		call	__Z20stop_resgen_servicesv
 7864      FF
2864:mtk_resgenerator.cpp ****         _exit(2);
 7866              	LM556:
 7867 6623 C7042402 		movl	$2, (%esp)
 7867      000000
 7868 662a E8000000 		call	__exit
 7868      00
2865:mtk_resgenerator.cpp ****     }
2866:mtk_resgenerator.cpp **** }
 7870              	LM557:
 7871              	LBE66:
 7875              	Lscope30:
 7877 662f 90       		.align 2
 7883              	__Z14writeLogToFilePcS_i:
2867:mtk_resgenerator.cpp **** 
2868:mtk_resgenerator.cpp **** static void writeLogToFile(char * fileName, char *msg,int append)
2869:mtk_resgenerator.cpp **** {
 7885              	LM558:
 7886 6630 55       		pushl	%ebp
 7887 6631 89E5     		movl	%esp, %ebp
 7888 6633 83EC18   		subl	$24, %esp
2870:mtk_resgenerator.cpp ****     FILE * logfile = NULL;
 7890              	LM559:
 7891              	LBB67:
 7892 6636 C745FC00 		movl	$0, -4(%ebp)
 7892      000000
2871:mtk_resgenerator.cpp ****     if(append)
 7894              	LM560:
 7895 663d 837D1000 		cmpl	$0, 16(%ebp)
 7896 6641 7418     		je	L264
2872:mtk_resgenerator.cpp ****     {
2873:mtk_resgenerator.cpp ****         logfile = fopen(fileName,"w");
 7898              	LM561:
 7899 6643 C7442404 		movl	$LC2, 4(%esp)
 7899      4F000000 
 7900 664b 8B4508   		movl	8(%ebp), %eax
 7901 664e 890424   		movl	%eax, (%esp)
 7902 6651 E8000000 		call	_fopen
 7902      00
 7903 6656 8945FC   		movl	%eax, -4(%ebp)
 7904 6659 EB16     		jmp	L265
 7905              	L264:
2874:mtk_resgenerator.cpp ****     }else{
2875:mtk_resgenerator.cpp ****         logfile= fopen(fileName,"a");
 7907              	LM562:
GAS LISTING d:/MTK/MTK2503/MTK2503/11CW1418SP4_03_CORETEK03AE_11C_V1_GPRS_MMI/plutommi/Customer/ResGenerator/gcctmp/cc63daaa.s 			page 167


 7908 665b C7442404 		movl	$LC136, 4(%esp)
 7908      192B0000 
 7909 6663 8B4508   		movl	8(%ebp), %eax
 7910 6666 890424   		movl	%eax, (%esp)
 7911 6669 E8000000 		call	_fopen
 7911      00
 7912 666e 8945FC   		movl	%eax, -4(%ebp)
 7913              	L265:
2876:mtk_resgenerator.cpp ****     }
2877:mtk_resgenerator.cpp **** 
2878:mtk_resgenerator.cpp ****     if(logfile!=NULL)
 7915              	LM563:
 7916 6671 837DFC00 		cmpl	$0, -4(%ebp)
 7917 6675 741D     		je	L263
2879:mtk_resgenerator.cpp ****     {
2880:mtk_resgenerator.cpp ****         fputs (msg,logfile);
 7919              	LM564:
 7920 6677 8B45FC   		movl	-4(%ebp), %eax
 7921 667a 89442404 		movl	%eax, 4(%esp)
 7922 667e 8B450C   		movl	12(%ebp), %eax
 7923 6681 890424   		movl	%eax, (%esp)
 7924 6684 E8000000 		call	_fputs
 7924      00
2881:mtk_resgenerator.cpp ****         fclose(logfile);
 7926              	LM565:
 7927 6689 8B45FC   		movl	-4(%ebp), %eax
 7928 668c 890424   		movl	%eax, (%esp)
 7929 668f E8000000 		call	_fclose
 7929      00
2882:mtk_resgenerator.cpp ****     }
2883:mtk_resgenerator.cpp **** }
 7931              	LM566:
 7932              	L263:
 7933 6694 C9       		leave
 7934 6695 C3       		ret
 7935              	LBE67:
 7939              	Lscope31:
 7941              		.align 2
 7944              	__Z21CATResourceGenerationv:
2884:mtk_resgenerator.cpp **** 
2885:mtk_resgenerator.cpp **** ///////////////////////////////////////////////////////////////////////////////
2886:mtk_resgenerator.cpp **** // CAT Resource Generation
2887:mtk_resgenerator.cpp **** ///////////////////////////////////////////////////////////////////////////////
2888:mtk_resgenerator.cpp **** 
2889:mtk_resgenerator.cpp **** static void CATResourceGeneration(){
 7946              	LM567:
 7947 6696 55       		pushl	%ebp
 7948 6697 89E5     		movl	%esp, %ebp
2890:mtk_resgenerator.cpp **** #if defined(__CAT_SUPPORT__) && defined(MMIRESOURCE_CAT_IMG_RESERVED_SIZE_BYTE) && (MMIRESOURCE_CAT
2891:mtk_resgenerator.cpp ****     int reserveSize = MMIRESOURCE_CAT_IMG_RESERVED_SIZE_BYTE;
2892:mtk_resgenerator.cpp ****     CATResGenerator * catObj = new CATResGenerator();
2893:mtk_resgenerator.cpp ****     catObj->setReservedSymbolName("cat_reserved_space");
2894:mtk_resgenerator.cpp ****     catObj->setReservedSymbolFile("..\\..\\Customer\\CustResource\\CustCATReserved.c");
2895:mtk_resgenerator.cpp ****     catObj->setCatSectionName(MMIRESOURCE_CAT_RES_SECTION_NAME_IMG);
2896:mtk_resgenerator.cpp ****     catObj->generate(MMIRESOURCE_CAT_IMG_RESERVED_SIZE_BYTE);
2897:mtk_resgenerator.cpp ****     delete catObj;
2898:mtk_resgenerator.cpp **** #endif
GAS LISTING d:/MTK/MTK2503/MTK2503/11CW1418SP4_03_CORETEK03AE_11C_V1_GPRS_MMI/plutommi/Customer/ResGenerator/gcctmp/cc63daaa.s 			page 168


2899:mtk_resgenerator.cpp **** }
 7950              	LM568:
 7951 6699 5D       		popl	%ebp
 7952 669a C3       		ret
 7953              	Lscope32:
 7955              	.globl __ZN25OfflineResPopImageAdaptor33IMAGE_REPLACEBALE_SUPPORT_DISABLEE
 7956              		.bss
 7957              		.align 4
 7958              	__ZN25OfflineResPopImageAdaptor33IMAGE_REPLACEBALE_SUPPORT_DISABLEE:
 7959 0004 00000000 		.space 4
 7960              	.globl __ZN25OfflineResPopImageAdaptor32IMAGE_REPLACEBALE_SUPPORT_ENABLEE
 7961              		.data
 7962              		.align 4
 7963              	__ZN25OfflineResPopImageAdaptor32IMAGE_REPLACEBALE_SUPPORT_ENABLEE:
 7964 0014 01000000 		.long	1
 7966 0018 00000000 		.text
 7966      00000000 
 7967 669b 908D7426 		.align 32
 7967      00
 7968              	LC240:
 7969 66a0 4F66666C 		.ascii "OfflineResPopController: save the population actions of legacy resource to resource reposi
 7969      696E6552 
 7969      6573506F 
 7969      70436F6E 
 7969      74726F6C 
 7970 66ff 90       		.align 32
 7971              	LC241:
 7972 6700 6F66666C 		.ascii "offline_pre_xml_legacy_audio_repo.txt\0"
 7972      696E655F 
 7972      7072655F 
 7972      786D6C5F 
 7972      6C656761 
 7973 6726 90909090 		.align 32
 7973      90909090 
 7973      90909090 
 7973      90909090 
 7973      90909090 
 7974              	LC242:
 7975 6740 6F66666C 		.ascii "offline_pre_xml_legacy_binary_repo.txt\0"
 7975      696E655F 
 7975      7072655F 
 7975      786D6C5F 
 7975      6C656761 
 7976 6767 90909090 		.align 32
 7976      90909090 
 7976      90909090 
 7976      90909090 
 7976      90909090 
 7977              	LC243:
 7978 6780 4F66666C 		.ascii "OfflineResPopController: save the population actions declared by legacy population APIs (O
 7978      696E6552 
 7978      6573506F 
 7978      70436F6E 
 7978      74726F6C 
 7979 67f5 8D742600 		.align 32
 7979      8DBC2700 
 7979      000000
GAS LISTING d:/MTK/MTK2503/MTK2503/11CW1418SP4_03_CORETEK03AE_11C_V1_GPRS_MMI/plutommi/Customer/ResGenerator/gcctmp/cc63daaa.s 			page 169


 7980              	LC244:
 7981 6800 4F66666C 		.ascii "OfflineResPopController: populate resource which can't be populated offline. (Order: befor
 7981      696E6552 
 7981      6573506F 
 7981      70436F6E 
 7981      74726F6C 
 7982 686a 90909090 		.align 32
 7982      90909090 
 7982      90909090 
 7982      90909090 
 7982      90909090 
 7983              	LC245:
 7984 6880 4F66666C 		.ascii "OfflineResPopController: populate XML resource which can't be populated online.\0"
 7984      696E6552 
 7984      6573506F 
 7984      70436F6E 
 7984      74726F6C 
 7985 68d0 90909090 		.align 32
 7985      90909090 
 7985      90909090 
 7985      90909090 
 7986              	LC246:
 7987 68e0 6F66666C 		.ascii "offline_post_xml_legacy_audio_repo.txt\0"
 7987      696E655F 
 7987      706F7374 
 7987      5F786D6C 
 7987      5F6C6567 
 7988 6907 90909090 		.align 32
 7988      90909090 
 7988      90909090 
 7988      90909090 
 7988      90909090 
 7989              	LC247:
 7990 6920 6F66666C 		.ascii "offline_post_xml_legacy_binary_repo.txt\0"
 7990      696E655F 
 7990      706F7374 
 7990      5F786D6C 
 7990      5F6C6567 
 7991 6948 90909090 		.align 32
 7991      90909090 
 7991      90909090 
 7991      90909090 
 7991      90909090 
 7992              	LC248:
 7993 6960 4F66666C 		.ascii "OfflineResPopController: save the population actions declared by legacy population APIs. (
 7993      696E6552 
 7993      6573506F 
 7993      70436F6E 
 7993      74726F6C 
 7994 69d5 8D742600 		.align 32
 7994      8DBC2700 
 7994      000000
 7995              	LC249:
 7996 69e0 4F66666C 		.ascii "OfflineResPopController: populate resource which can't be populated offline. (Order: after
 7996      696E6552 
 7996      6573506F 
 7996      70436F6E 
GAS LISTING d:/MTK/MTK2503/MTK2503/11CW1418SP4_03_CORETEK03AE_11C_V1_GPRS_MMI/plutommi/Customer/ResGenerator/gcctmp/cc63daaa.s 			page 170


 7996      74726F6C 
 7997 6a49 90909090 		.align 32
 7997      90909090 
 7997      90909090 
 7997      90909090 
 7997      90909090 
 7998              	LC250:
 7999 6a60 4F66666C 		.ascii "OfflineResPopController: populate offline legacy resource. (Order: after XML resource)\0"
 7999      696E6552 
 7999      6573506F 
 7999      70436F6E 
 7999      74726F6C 
 8000 6ab7 89F68DBC 		.align 32
 8000      27000000 
 8000      00
 8001              	LC251:
 8002 6ac0 4F66666C 		.ascii "OfflineResPopController: populate offline XML resource.\0"
 8002      696E6552 
 8002      6573506F 
 8002      70436F6E 
 8002      74726F6C 
 8003              	LC252:
 8004 6af8 6F66666C 		.ascii "offline_xml_audio_repo.txt\0"
 8004      696E655F 
 8004      786D6C5F 
 8004      61756469 
 8004      6F5F7265 
 8005 6b13 90       		.align 2
 8008              	__Z23OfflineResPopControllerv:
2900:mtk_resgenerator.cpp **** 
2901:mtk_resgenerator.cpp **** 
2902:mtk_resgenerator.cpp **** #ifdef  __RESGEN_INTERNAL_OFFLINE__
2903:mtk_resgenerator.cpp **** 
2904:mtk_resgenerator.cpp **** ///////////////////////////////////////////////////////////////////////////////
2905:mtk_resgenerator.cpp **** // Resgen 1.5 (Offline Resgen)
2906:mtk_resgenerator.cpp **** ///////////////////////////////////////////////////////////////////////////////
2907:mtk_resgenerator.cpp **** 
2908:mtk_resgenerator.cpp **** ///////////////////////////////////////////////////////
2909:mtk_resgenerator.cpp **** // Binary Population Adaptor
2910:mtk_resgenerator.cpp **** //////////////////////////////////////////////////////
2911:mtk_resgenerator.cpp **** class OfflineResPopBinaryAdaptor:public OfflineResPopAdaptor{
2912:mtk_resgenerator.cpp **** protected:
2913:mtk_resgenerator.cpp ****     virtual int issueLecacyPopulation(ResPopParam * param)
2914:mtk_resgenerator.cpp ****     {
2915:mtk_resgenerator.cpp ****         char * path = NULL;
2916:mtk_resgenerator.cpp ****         char * enumString = NULL;
2917:mtk_resgenerator.cpp ****         BinaryResParam * binaryParam = (BinaryResParam*)param;
2918:mtk_resgenerator.cpp ****         if(param == NULL){
2919:mtk_resgenerator.cpp ****             cout<<"[ERROR][issueLecacyPopulation] binaryParam can't be NULL"<<endl;
2920:mtk_resgenerator.cpp ****             return -1;
2921:mtk_resgenerator.cpp ****         }
2922:mtk_resgenerator.cpp ****         //         string debugStr("");
2923:mtk_resgenerator.cpp ****         //         binaryParam->toString(&debugStr);
2924:mtk_resgenerator.cpp ****         //         cout<<debugStr<<endl;
2925:mtk_resgenerator.cpp ****         path = new char[binaryParam->getBinaryFilePath()->size()+1];
2926:mtk_resgenerator.cpp ****         enumString = new char[binaryParam->getIdEnumString()->size()+1];
2927:mtk_resgenerator.cpp ****         strcpy(path, binaryParam->getBinaryFilePath()->c_str());
GAS LISTING d:/MTK/MTK2503/MTK2503/11CW1418SP4_03_CORETEK03AE_11C_V1_GPRS_MMI/plutommi/Customer/ResGenerator/gcctmp/cc63daaa.s 			page 171


2928:mtk_resgenerator.cpp ****         strcpy(enumString, binaryParam->getIdEnumString()->c_str());	
2929:mtk_resgenerator.cpp **** 
2930:mtk_resgenerator.cpp ****         //cout<<"Populate"<<path<<endl;
2931:mtk_resgenerator.cpp ****         SetBinaryWithBuffer(binaryParam->getIdEnumValue(), path, enumString,(_binary_type_enum)bina
2932:mtk_resgenerator.cpp ****         delete [] path;
2933:mtk_resgenerator.cpp ****         delete [] enumString;
2934:mtk_resgenerator.cpp ****         return 0;
2935:mtk_resgenerator.cpp ****     };
2936:mtk_resgenerator.cpp **** };
2937:mtk_resgenerator.cpp **** ///////////////////////////////////////////////////////
2938:mtk_resgenerator.cpp **** // Audio Population Adaptor
2939:mtk_resgenerator.cpp **** ///////////////////////////////////////////////////////
2940:mtk_resgenerator.cpp **** class OfflineResPopAudioAdaptor:public OfflineResPopAdaptor{
2941:mtk_resgenerator.cpp **** protected:
2942:mtk_resgenerator.cpp ****     virtual int issueLecacyPopulation(ResPopParam * param)
2943:mtk_resgenerator.cpp ****     {
2944:mtk_resgenerator.cpp ****         char * audioPath = NULL;
2945:mtk_resgenerator.cpp ****         char * enumString = NULL;
2946:mtk_resgenerator.cpp ****         AudioResParam * audioParam = (AudioResParam*)param;
2947:mtk_resgenerator.cpp ****         if(param == NULL){
2948:mtk_resgenerator.cpp ****             cout<<"ERROR!! _audioParam can't be NULL"<<endl;
2949:mtk_resgenerator.cpp ****             return -1;
2950:mtk_resgenerator.cpp ****         }
2951:mtk_resgenerator.cpp ****         //string debugStr("");
2952:mtk_resgenerator.cpp ****         //audioParam->toString(&debugStr);
2953:mtk_resgenerator.cpp ****         //cout<<debugStr<<endl;
2954:mtk_resgenerator.cpp ****         audioPath = new char[audioParam->getAudioFilePath()->size()+1];
2955:mtk_resgenerator.cpp ****         enumString = new char[audioParam->getIdEnumString()->size()+1];
2956:mtk_resgenerator.cpp ****         strcpy(audioPath, audioParam->getAudioFilePath()->c_str());
2957:mtk_resgenerator.cpp ****         strcpy(enumString, audioParam->getIdEnumString()->c_str());	
2958:mtk_resgenerator.cpp **** 
2959:mtk_resgenerator.cpp ****         if(audioParam->getForceType() >= OFFLINE_RESGEN_NO_FORCE_TYPE){
2960:mtk_resgenerator.cpp ****             //cout<<"Populate"<<audioPath<<endl;
2961:mtk_resgenerator.cpp ****             SetAudioWithBuffer(audioParam->getIdEnumValue(), audioPath, enumString, audioParam->get
2962:mtk_resgenerator.cpp ****         }else{
2963:mtk_resgenerator.cpp ****             //cout<<"Populate"<<audioPath<<endl;
2964:mtk_resgenerator.cpp ****             SetAudioWithBufferForceType(audioParam->getIdEnumValue(), audioPath, enumString, audioP
2965:mtk_resgenerator.cpp ****         }
2966:mtk_resgenerator.cpp ****         delete [] audioPath;
2967:mtk_resgenerator.cpp ****         delete [] enumString;
2968:mtk_resgenerator.cpp ****         return 0;
2969:mtk_resgenerator.cpp ****     };
2970:mtk_resgenerator.cpp **** };
2971:mtk_resgenerator.cpp **** 
2972:mtk_resgenerator.cpp **** ///////////////////////////////////////////////////////
2973:mtk_resgenerator.cpp **** // Image Population Adaptor
2974:mtk_resgenerator.cpp **** ///////////////////////////////////////////////////////
2975:mtk_resgenerator.cpp **** class OfflineResPopImageAdaptor:public OfflineResPopAdaptor{
2976:mtk_resgenerator.cpp **** public:
2977:mtk_resgenerator.cpp ****     static int IMAGE_REPLACEBALE_SUPPORT_ENABLE;
2978:mtk_resgenerator.cpp ****     static int IMAGE_REPLACEBALE_SUPPORT_DISABLE;
2979:mtk_resgenerator.cpp ****     
2980:mtk_resgenerator.cpp ****     OfflineResPopImageAdaptor(int replacePoolSupport){
2981:mtk_resgenerator.cpp ****         this->replacePoolSupport = replacePoolSupport;
2982:mtk_resgenerator.cpp ****     }
2983:mtk_resgenerator.cpp **** protected:
2984:mtk_resgenerator.cpp ****     int replacePoolSupport;
GAS LISTING d:/MTK/MTK2503/MTK2503/11CW1418SP4_03_CORETEK03AE_11C_V1_GPRS_MMI/plutommi/Customer/ResGenerator/gcctmp/cc63daaa.s 			page 172


2985:mtk_resgenerator.cpp ****     
2986:mtk_resgenerator.cpp ****     virtual int issueLecacyPopulation(ResPopParam * param){
2987:mtk_resgenerator.cpp ****         char * imagePath = NULL;
2988:mtk_resgenerator.cpp ****         char * enumString = NULL;
2989:mtk_resgenerator.cpp ****         int isReplacable = IMAGE_REPLACEBALE_SUPPORT_DISABLE;
2990:mtk_resgenerator.cpp ****         
2991:mtk_resgenerator.cpp ****         ImageResParam * imageParam = (ImageResParam*)param;
2992:mtk_resgenerator.cpp ****         if(imageParam == NULL){
2993:mtk_resgenerator.cpp ****             cout<<"[ERROR] imageParam can't be NULL"<<endl;
2994:mtk_resgenerator.cpp ****             return -1;
2995:mtk_resgenerator.cpp ****         }
2996:mtk_resgenerator.cpp ****         //string debugStr("");
2997:mtk_resgenerator.cpp ****         //imageParam->toString(&debugStr);
2998:mtk_resgenerator.cpp ****         //cout<<debugStr<<endl;
2999:mtk_resgenerator.cpp ****         imagePath = new char[imageParam->getImageFilePath()->size()+1];
3000:mtk_resgenerator.cpp ****         enumString = new char[imageParam->getIdEnumString()->size()+1];
3001:mtk_resgenerator.cpp ****         strcpy(imagePath, imageParam->getImageFilePath()->c_str());
3002:mtk_resgenerator.cpp ****         strcpy(enumString, imageParam->getIdEnumString()->c_str());	
3003:mtk_resgenerator.cpp **** 
3004:mtk_resgenerator.cpp ****         if(this->replacePoolSupport == IMAGE_REPLACEBALE_SUPPORT_ENABLE){
3005:mtk_resgenerator.cpp ****             isReplacable = imageParam->getIsMultipleBin();
3006:mtk_resgenerator.cpp ****         }else{
3007:mtk_resgenerator.cpp ****             isReplacable = IMAGE_REPLACEBALE_SUPPORT_DISABLE;
3008:mtk_resgenerator.cpp ****         }
3009:mtk_resgenerator.cpp **** 
3010:mtk_resgenerator.cpp ****         if(imageParam->getForceType() >= OFFLINE_RESGEN_NO_FORCE_TYPE){
3011:mtk_resgenerator.cpp ****             //cout<<"Populate"<<imagePath<<endl;
3012:mtk_resgenerator.cpp ****             SetImageQWithBuffer(imageParam->getIdEnumValue(), imagePath, enumString, isReplacable,i
3013:mtk_resgenerator.cpp ****         }else{
3014:mtk_resgenerator.cpp ****             //cout<<"Populate"<<imagePath<<endl;
3015:mtk_resgenerator.cpp ****             SetImageQWithBufferForceType(imageParam->getIdEnumValue(), imagePath, enumString, isRep
3016:mtk_resgenerator.cpp ****         }
3017:mtk_resgenerator.cpp ****         delete [] imagePath;
3018:mtk_resgenerator.cpp ****         delete [] enumString;
3019:mtk_resgenerator.cpp ****         return 0;
3020:mtk_resgenerator.cpp ****     };
3021:mtk_resgenerator.cpp **** };
3022:mtk_resgenerator.cpp **** 
3023:mtk_resgenerator.cpp **** int OfflineResPopImageAdaptor::IMAGE_REPLACEBALE_SUPPORT_DISABLE = 0;
3024:mtk_resgenerator.cpp **** int OfflineResPopImageAdaptor::IMAGE_REPLACEBALE_SUPPORT_ENABLE = 1;
3025:mtk_resgenerator.cpp **** 
3026:mtk_resgenerator.cpp **** ///////////////////////////////////////////////////////
3027:mtk_resgenerator.cpp **** // String Population Adaptor
3028:mtk_resgenerator.cpp **** ///////////////////////////////////////////////////////
3029:mtk_resgenerator.cpp **** class OfflineResPopStringAdaptor:public OfflineResPopAdaptor{
3030:mtk_resgenerator.cpp **** protected:
3031:mtk_resgenerator.cpp ****     virtual int issueLecacyPopulation(ResPopParam * param){
3032:mtk_resgenerator.cpp ****         if(param == NULL){
3033:mtk_resgenerator.cpp ****             return -1;
3034:mtk_resgenerator.cpp ****         }
3035:mtk_resgenerator.cpp ****         StringResParam* item =(StringResParam*)param;
3036:mtk_resgenerator.cpp ****         char * defaultString = new char[item->getDefaultString()->size()+1];
3037:mtk_resgenerator.cpp ****         strcpy(defaultString, item->getDefaultString()->c_str());
3038:mtk_resgenerator.cpp ****         char * enumString = new char[item->getIdEnumString()->size()+1];
3039:mtk_resgenerator.cpp ****         strcpy(enumString, item->getIdEnumString()->c_str());	
3040:mtk_resgenerator.cpp ****         //cout<<item->getIdEnumValue() << defaultString<< enumString<<endl;
3041:mtk_resgenerator.cpp ****         SetString(item->getIdEnumValue(),defaultString,enumString);
GAS LISTING d:/MTK/MTK2503/MTK2503/11CW1418SP4_03_CORETEK03AE_11C_V1_GPRS_MMI/plutommi/Customer/ResGenerator/gcctmp/cc63daaa.s 			page 173


3042:mtk_resgenerator.cpp ****         delete [] defaultString;
3043:mtk_resgenerator.cpp ****         delete [] enumString;
3044:mtk_resgenerator.cpp ****         return 0;
3045:mtk_resgenerator.cpp ****     };
3046:mtk_resgenerator.cpp **** };
3047:mtk_resgenerator.cpp **** 
3048:mtk_resgenerator.cpp **** class OfflineResPopService{
3049:mtk_resgenerator.cpp **** private:
3050:mtk_resgenerator.cpp ****     void populateResource(ResParamModel* modelObj, char * dbFile, ParamTextFileDAO * daoObj, Offlin
3051:mtk_resgenerator.cpp ****         modelObj->setRepositoryFileName(dbFile);
3052:mtk_resgenerator.cpp ****         modelObj->loadFromRepository(daoObj);
3053:mtk_resgenerator.cpp ****         resPopulator->setResPopModel(modelObj);
3054:mtk_resgenerator.cpp ****         resPopulator->populate();
3055:mtk_resgenerator.cpp ****     };
3056:mtk_resgenerator.cpp **** 
3057:mtk_resgenerator.cpp **** public:
3058:mtk_resgenerator.cpp ****     void populateBinaryResource(char * dbFile){
3059:mtk_resgenerator.cpp ****         ResParamModel * paramModel = new ResParamModel();
3060:mtk_resgenerator.cpp ****         // Enable redundant population for 3D binary resgen
3061:mtk_resgenerator.cpp ****         paramModel->setRedundantAllowed(ResParamModel::REDUNDANT_ALLOWDED_ENABLE);
3062:mtk_resgenerator.cpp **** 
3063:mtk_resgenerator.cpp ****         BinaryParamTextFileDAO * daoObj = new BinaryParamTextFileDAO();
3064:mtk_resgenerator.cpp ****         OfflineResPopulator * resPopulator = new OfflineResPopBinaryAdaptor();
3065:mtk_resgenerator.cpp **** 
3066:mtk_resgenerator.cpp ****         populateResource(paramModel,dbFile,daoObj,resPopulator);
3067:mtk_resgenerator.cpp **** 
3068:mtk_resgenerator.cpp ****         delete paramModel;
3069:mtk_resgenerator.cpp ****         delete resPopulator;
3070:mtk_resgenerator.cpp ****         delete daoObj;
3071:mtk_resgenerator.cpp ****     }
3072:mtk_resgenerator.cpp **** 
3073:mtk_resgenerator.cpp **** 
3074:mtk_resgenerator.cpp ****     void populateAudioResource(char * dbFile){
3075:mtk_resgenerator.cpp ****         ResParamModel * paramModel = new ResParamModel();
3076:mtk_resgenerator.cpp ****         AudioParamTextFileDAO * daoObj = new AudioParamTextFileDAO();
3077:mtk_resgenerator.cpp ****         OfflineResPopulator * resPopulator = new OfflineResPopAudioAdaptor();
3078:mtk_resgenerator.cpp **** 
3079:mtk_resgenerator.cpp ****         populateResource(paramModel,dbFile,daoObj,resPopulator);
3080:mtk_resgenerator.cpp **** 
3081:mtk_resgenerator.cpp ****         delete paramModel;
3082:mtk_resgenerator.cpp ****         delete resPopulator;
3083:mtk_resgenerator.cpp ****         delete daoObj;
3084:mtk_resgenerator.cpp ****     }
3085:mtk_resgenerator.cpp **** 
3086:mtk_resgenerator.cpp **** 
3087:mtk_resgenerator.cpp **** 
3088:mtk_resgenerator.cpp ****     void populateImageResource(char * dbFile){
3089:mtk_resgenerator.cpp ****         ResParamModel * paramModel = new ResParamModel();
3090:mtk_resgenerator.cpp ****         ImageParamTextFileDAO * daoObj = new ImageParamTextFileDAO();
3091:mtk_resgenerator.cpp ****         int isReplacePoolSupport = OfflineResPopImageAdaptor::IMAGE_REPLACEBALE_SUPPORT_DISABLE;
3092:mtk_resgenerator.cpp **** #if defined(__NFB_THIRD_ROM_SUPPORT__) && !defined( __MULTIPLE_BINARY_FILES__) && !defined(__CAT_SU
3093:mtk_resgenerator.cpp ****         isReplacePoolSupport = OfflineResPopImageAdaptor::IMAGE_REPLACEBALE_SUPPORT_DISABLE;
3094:mtk_resgenerator.cpp **** #else
3095:mtk_resgenerator.cpp ****         isReplacePoolSupport = OfflineResPopImageAdaptor::IMAGE_REPLACEBALE_SUPPORT_ENABLE;
3096:mtk_resgenerator.cpp **** #endif //__NFB_THIRD_ROM_SUPPORT__ && !( __MULTIPLE_BINARY_FILES__) && !(__CAT_SUPPORT__)
3097:mtk_resgenerator.cpp ****         
3098:mtk_resgenerator.cpp ****         OfflineResPopulator * resPopulator = new OfflineResPopImageAdaptor(isReplacePoolSupport);
GAS LISTING d:/MTK/MTK2503/MTK2503/11CW1418SP4_03_CORETEK03AE_11C_V1_GPRS_MMI/plutommi/Customer/ResGenerator/gcctmp/cc63daaa.s 			page 174


3099:mtk_resgenerator.cpp **** 
3100:mtk_resgenerator.cpp ****         populateResource(paramModel,dbFile,daoObj,resPopulator);
3101:mtk_resgenerator.cpp **** 
3102:mtk_resgenerator.cpp ****         delete paramModel;
3103:mtk_resgenerator.cpp ****         delete resPopulator;
3104:mtk_resgenerator.cpp ****         delete daoObj;
3105:mtk_resgenerator.cpp ****     }
3106:mtk_resgenerator.cpp **** 
3107:mtk_resgenerator.cpp **** 
3108:mtk_resgenerator.cpp **** 
3109:mtk_resgenerator.cpp ****     void populateStringResource(char * dbFile){
3110:mtk_resgenerator.cpp ****         ResParamModel * paramModel = new ResParamModel();
3111:mtk_resgenerator.cpp ****         StringParamTextFileDAO * daoObj = new StringParamTextFileDAO();
3112:mtk_resgenerator.cpp ****         OfflineResPopulator * resPopulator = new OfflineResPopStringAdaptor();
3113:mtk_resgenerator.cpp **** 
3114:mtk_resgenerator.cpp ****         populateResource(paramModel,dbFile,daoObj,resPopulator);
3115:mtk_resgenerator.cpp **** 
3116:mtk_resgenerator.cpp ****         delete paramModel;
3117:mtk_resgenerator.cpp ****         delete resPopulator;
3118:mtk_resgenerator.cpp ****         delete daoObj;
3119:mtk_resgenerator.cpp ****     }
3120:mtk_resgenerator.cpp **** 
3121:mtk_resgenerator.cpp **** 
3122:mtk_resgenerator.cpp **** };
3123:mtk_resgenerator.cpp **** 
3124:mtk_resgenerator.cpp **** //////////////////////////////////////////////////////////////////////////////
3125:mtk_resgenerator.cpp **** // Controller function of Offline Res Population
3126:mtk_resgenerator.cpp **** //////////////////////////////////////////////////////////////////////////////
3127:mtk_resgenerator.cpp **** 
3128:mtk_resgenerator.cpp **** static void OfflineResPopController(){
 8010              	LM569:
 8011 6b14 55       		pushl	%ebp
 8012 6b15 89E5     		movl	%esp, %ebp
 8013 6b17 83EC18   		subl	$24, %esp
3129:mtk_resgenerator.cpp ****     RESGEN_LOG_V("OfflineResPopController: save the population actions of legacy resource to resour
 8015              	LM570:
 8016              	LBB68:
 8017 6b1a C7442408 		movl	$LC240, 8(%esp)
 8017      A0660000 
 8018 6b22 C7442404 		movl	$LC1, 4(%esp)
 8018      3E000000 
 8019 6b2a C7042401 		movl	$1, (%esp)
 8019      000000
 8020 6b31 E8000000 		call	_reslog_adaptor_log
 8020      00
3130:mtk_resgenerator.cpp **** 
3131:mtk_resgenerator.cpp ****     // Open Param DB for legacy resources	
3132:mtk_resgenerator.cpp **** #ifndef __POPULATE_NO_STRING_DATA__
3133:mtk_resgenerator.cpp ****     StringAdaptorStartOfflinePopulation(DEFAULT_OFFLINE_PRE_XML_LEGACY_STRING_DB);
3134:mtk_resgenerator.cpp **** #endif
3135:mtk_resgenerator.cpp **** 
3136:mtk_resgenerator.cpp **** #ifndef __POPULATE_NO_IMAGE_DATA__
3137:mtk_resgenerator.cpp ****     ImageAdaptorStartOfflinePopulation(DEFAULT_OFFLINE_PRE_XML_LEGACY_IMAGE_DB);
3138:mtk_resgenerator.cpp **** #endif
3139:mtk_resgenerator.cpp ****     AudioAdaptorStartOfflinePopulation(DEFAULT_OFFLINE_PRE_XML_LEGACY_AUDIO_DB);
 8022              	LM571:
 8023 6b36 C7042400 		movl	$LC241, (%esp)
GAS LISTING d:/MTK/MTK2503/MTK2503/11CW1418SP4_03_CORETEK03AE_11C_V1_GPRS_MMI/plutommi/Customer/ResGenerator/gcctmp/cc63daaa.s 			page 175


 8023      670000
 8024 6b3d E8000000 		call	_AudioAdaptorStartOfflinePopulation
 8024      00
3140:mtk_resgenerator.cpp ****     BinaryAdaptorStartOfflinePopulation(DEFAULT_OFFLINE_PRE_XML_LEGACY_BINARY_DB);
 8026              	LM572:
 8027 6b42 C7042440 		movl	$LC242, (%esp)
 8027      670000
 8028 6b49 E8000000 		call	_BinaryAdaptorStartOfflinePopulation
 8028      00
3141:mtk_resgenerator.cpp **** 
3142:mtk_resgenerator.cpp ****     // Start Legacy native resoruce Popualtion
3143:mtk_resgenerator.cpp ****     ResPopInitAll();
 8030              	LM573:
 8031 6b4e E8000000 		call	_ResPopInitAll
 8031      00
3144:mtk_resgenerator.cpp **** 
3145:mtk_resgenerator.cpp ****     RESGEN_LOG_V("OfflineResPopController: save the population actions declared by legacy populatio
 8033              	LM574:
 8034 6b53 C7442408 		movl	$LC243, 8(%esp)
 8034      80670000 
 8035 6b5b C7442404 		movl	$LC1, 4(%esp)
 8035      3E000000 
 8036 6b63 C7042401 		movl	$1, (%esp)
 8036      000000
 8037 6b6a E8000000 		call	_reslog_adaptor_log
 8037      00
3146:mtk_resgenerator.cpp ****     RESGEN_LOG_V("OfflineResPopController: populate resource which can't be populated offline. (Ord
 8039              	LM575:
 8040 6b6f C7442408 		movl	$LC244, 8(%esp)
 8040      00680000 
 8041 6b77 C7442404 		movl	$LC1, 4(%esp)
 8041      3E000000 
 8042 6b7f C7042401 		movl	$1, (%esp)
 8042      000000
 8043 6b86 E8000000 		call	_reslog_adaptor_log
 8043      00
3147:mtk_resgenerator.cpp **** 
3148:mtk_resgenerator.cpp ****     PopulateResDataPreXML();
 8045              	LM576:
 8046 6b8b E8000000 		call	_PopulateResDataPreXML
 8046      00
3149:mtk_resgenerator.cpp **** #ifndef __POPULATE_NO_STRING_DATA__
3150:mtk_resgenerator.cpp ****     StringAdaptorStopOfflinePopulation();
3151:mtk_resgenerator.cpp **** #endif
3152:mtk_resgenerator.cpp **** 
3153:mtk_resgenerator.cpp **** #ifndef __POPULATE_NO_IMAGE_DATA__
3154:mtk_resgenerator.cpp ****     ImageAdaptorStopOfflinePopulation();
3155:mtk_resgenerator.cpp **** #endif
3156:mtk_resgenerator.cpp ****     AudioAdaptorStopOfflinePopulation();
 8048              	LM577:
 8049 6b90 E8000000 		call	_AudioAdaptorStopOfflinePopulation
 8049      00
3157:mtk_resgenerator.cpp ****     BinaryAdaptorStopOfflinePopulation();
 8051              	LM578:
 8052 6b95 E8000000 		call	_BinaryAdaptorStopOfflinePopulation
 8052      00
3158:mtk_resgenerator.cpp **** 
GAS LISTING d:/MTK/MTK2503/MTK2503/11CW1418SP4_03_CORETEK03AE_11C_V1_GPRS_MMI/plutommi/Customer/ResGenerator/gcctmp/cc63daaa.s 			page 176


3159:mtk_resgenerator.cpp ****     RESGEN_LOG_V("OfflineResPopController: populate XML resource which can't be populated online.")
 8054              	LM579:
 8055 6b9a C7442408 		movl	$LC245, 8(%esp)
 8055      80680000 
 8056 6ba2 C7442404 		movl	$LC1, 4(%esp)
 8056      3E000000 
 8057 6baa C7042401 		movl	$1, (%esp)
 8057      000000
 8058 6bb1 E8000000 		call	_reslog_adaptor_log
 8058      00
3160:mtk_resgenerator.cpp ****     // Start XML native resource Population
3161:mtk_resgenerator.cpp ****     PopulateResDataXML();
 8060              	LM580:
 8061 6bb6 E8000000 		call	_PopulateResDataXML
 8061      00
3162:mtk_resgenerator.cpp **** 
3163:mtk_resgenerator.cpp ****     // Start Legacy native resoruce Popualtion (for thos resource must be populated after XML resou
3164:mtk_resgenerator.cpp **** #ifndef __POPULATE_NO_STRING_DATA__
3165:mtk_resgenerator.cpp ****     StringAdaptorStartOfflinePopulation(DEFAULT_OFFLINE_POST_XML_LEGACY_STRING_DB);
3166:mtk_resgenerator.cpp **** #endif
3167:mtk_resgenerator.cpp **** 
3168:mtk_resgenerator.cpp **** #ifndef __POPULATE_NO_IMAGE_DATA__
3169:mtk_resgenerator.cpp ****     ImageAdaptorStartOfflinePopulation(DEFAULT_OFFLINE_POST_XML_LEGACY_IMAGE_DB);
3170:mtk_resgenerator.cpp **** #endif
3171:mtk_resgenerator.cpp ****     AudioAdaptorStartOfflinePopulation(DEFAULT_OFFLINE_POST_XML_LEGACY_AUDIO_DB);
 8063              	LM581:
 8064 6bbb C70424E0 		movl	$LC246, (%esp)
 8064      680000
 8065 6bc2 E8000000 		call	_AudioAdaptorStartOfflinePopulation
 8065      00
3172:mtk_resgenerator.cpp ****     BinaryAdaptorStartOfflinePopulation(DEFAULT_OFFLINE_POST_XML_LEGACY_BINARY_DB);
 8067              	LM582:
 8068 6bc7 C7042420 		movl	$LC247, (%esp)
 8068      690000
 8069 6bce E8000000 		call	_BinaryAdaptorStartOfflinePopulation
 8069      00
3173:mtk_resgenerator.cpp **** 
3174:mtk_resgenerator.cpp ****     RESGEN_LOG_V("OfflineResPopController: save the population actions declared by legacy populatio
 8071              	LM583:
 8072 6bd3 C7442408 		movl	$LC248, 8(%esp)
 8072      60690000 
 8073 6bdb C7442404 		movl	$LC1, 4(%esp)
 8073      3E000000 
 8074 6be3 C7042401 		movl	$1, (%esp)
 8074      000000
 8075 6bea E8000000 		call	_reslog_adaptor_log
 8075      00
3175:mtk_resgenerator.cpp ****     RESGEN_LOG_V("OfflineResPopController: populate resource which can't be populated offline. (Ord
 8077              	LM584:
 8078 6bef C7442408 		movl	$LC249, 8(%esp)
 8078      E0690000 
 8079 6bf7 C7442404 		movl	$LC1, 4(%esp)
 8079      3E000000 
 8080 6bff C7042401 		movl	$1, (%esp)
 8080      000000
 8081 6c06 E8000000 		call	_reslog_adaptor_log
 8081      00
GAS LISTING d:/MTK/MTK2503/MTK2503/11CW1418SP4_03_CORETEK03AE_11C_V1_GPRS_MMI/plutommi/Customer/ResGenerator/gcctmp/cc63daaa.s 			page 177


3176:mtk_resgenerator.cpp ****     PopulateResDataPostXML();
 8083              	LM585:
 8084 6c0b E8000000 		call	_PopulateResDataPostXML
 8084      00
3177:mtk_resgenerator.cpp **** 
3178:mtk_resgenerator.cpp **** #ifndef __POPULATE_NO_STRING_DATA__
3179:mtk_resgenerator.cpp ****     StringAdaptorStopOfflinePopulation();
3180:mtk_resgenerator.cpp **** #endif
3181:mtk_resgenerator.cpp **** 
3182:mtk_resgenerator.cpp **** #ifndef __POPULATE_NO_IMAGE_DATA__
3183:mtk_resgenerator.cpp ****     ImageAdaptorStopOfflinePopulation();
3184:mtk_resgenerator.cpp **** #endif
3185:mtk_resgenerator.cpp ****     AudioAdaptorStopOfflinePopulation();
 8086              	LM586:
 8087 6c10 E8000000 		call	_AudioAdaptorStopOfflinePopulation
 8087      00
3186:mtk_resgenerator.cpp ****     BinaryAdaptorStopOfflinePopulation();
 8089              	LM587:
 8090 6c15 E8000000 		call	_BinaryAdaptorStopOfflinePopulation
 8090      00
3187:mtk_resgenerator.cpp **** 
3188:mtk_resgenerator.cpp **** 
3189:mtk_resgenerator.cpp ****     // Do Offline Population with OfflineResPopService objects
3190:mtk_resgenerator.cpp ****     OfflineResPopService * offlineResPopService= new OfflineResPopService();
 8092              	LM588:
 8093 6c1a C7042401 		movl	$1, (%esp)
 8093      000000
 8094 6c21 E8000000 		call	__Znwj
 8094      00
 8095 6c26 8945FC   		movl	%eax, -4(%ebp)
 8096              	L269:
3191:mtk_resgenerator.cpp **** 
3192:mtk_resgenerator.cpp ****     RESGEN_LOG_V("OfflineResPopController: populate offline legacy resource. (Order: after XML reso
 8098              	LM589:
 8099 6c29 C7442408 		movl	$LC250, 8(%esp)
 8099      606A0000 
 8100 6c31 C7442404 		movl	$LC1, 4(%esp)
 8100      3E000000 
 8101 6c39 C7042401 		movl	$1, (%esp)
 8101      000000
 8102 6c40 E8000000 		call	_reslog_adaptor_log
 8102      00
3193:mtk_resgenerator.cpp **** 
3194:mtk_resgenerator.cpp ****     //Note: Binary resource population has been moved to python scripts.
3195:mtk_resgenerator.cpp **** 
3196:mtk_resgenerator.cpp ****     // Native resourc population
3197:mtk_resgenerator.cpp **** #ifndef __POPULATE_NO_STRING_DATA__
3198:mtk_resgenerator.cpp ****     offlineResPopService->populateStringResource(DEFAULT_OFFLINE_PRE_XML_LEGACY_STRING_DB);
3199:mtk_resgenerator.cpp **** #endif
3200:mtk_resgenerator.cpp **** 
3201:mtk_resgenerator.cpp **** #ifndef __POPULATE_NO_IMAGE_DATA__
3202:mtk_resgenerator.cpp ****     offlineResPopService->populateImageResource(DEFAULT_OFFLINE_PRE_XML_LEGACY_IMAGE_DB);
3203:mtk_resgenerator.cpp **** #endif
3204:mtk_resgenerator.cpp ****     offlineResPopService->populateAudioResource(DEFAULT_OFFLINE_PRE_XML_LEGACY_AUDIO_DB);
 8104              	LM590:
 8105 6c45 C7442404 		movl	$LC241, 4(%esp)
 8105      00670000 
GAS LISTING d:/MTK/MTK2503/MTK2503/11CW1418SP4_03_CORETEK03AE_11C_V1_GPRS_MMI/plutommi/Customer/ResGenerator/gcctmp/cc63daaa.s 			page 178


 8106 6c4d 8B45FC   		movl	-4(%ebp), %eax
 8107 6c50 890424   		movl	%eax, (%esp)
 8108 6c53 E8000000 		call	__ZN20OfflineResPopService21populateAudioResourceEPc
 8108      00
3205:mtk_resgenerator.cpp **** 
3206:mtk_resgenerator.cpp ****     RESGEN_LOG_V("OfflineResPopController: populate offline XML resource.");
 8110              	LM591:
 8111 6c58 C7442408 		movl	$LC251, 8(%esp)
 8111      C06A0000 
 8112 6c60 C7442404 		movl	$LC1, 4(%esp)
 8112      3E000000 
 8113 6c68 C7042401 		movl	$1, (%esp)
 8113      000000
 8114 6c6f E8000000 		call	_reslog_adaptor_log
 8114      00
3207:mtk_resgenerator.cpp **** 
3208:mtk_resgenerator.cpp ****     // XML resource population
3209:mtk_resgenerator.cpp **** #ifndef __POPULATE_NO_STRING_DATA__
3210:mtk_resgenerator.cpp ****     offlineResPopService->populateStringResource(DEFAULT_OFFLINE_XML_STRING_DB);
3211:mtk_resgenerator.cpp **** #endif
3212:mtk_resgenerator.cpp **** 
3213:mtk_resgenerator.cpp **** #ifndef __POPULATE_NO_IMAGE_DATA__
3214:mtk_resgenerator.cpp ****     offlineResPopService->populateImageResource(DEFAULT_OFFLINE_XML_IMAGE_DB);
3215:mtk_resgenerator.cpp **** #endif
3216:mtk_resgenerator.cpp ****     offlineResPopService->populateAudioResource(DEFAULT_OFFLINE_XML_AUDIO_DB);
 8116              	LM592:
 8117 6c74 C7442404 		movl	$LC252, 4(%esp)
 8117      F86A0000 
 8118 6c7c 8B45FC   		movl	-4(%ebp), %eax
 8119 6c7f 890424   		movl	%eax, (%esp)
 8120 6c82 E8000000 		call	__ZN20OfflineResPopService21populateAudioResourceEPc
 8120      00
3217:mtk_resgenerator.cpp **** 
3218:mtk_resgenerator.cpp ****     RESGEN_LOG_V("OfflineResPopController: populate offline legacy resource. (Order: after XML reso
 8122              	LM593:
 8123 6c87 C7442408 		movl	$LC250, 8(%esp)
 8123      606A0000 
 8124 6c8f C7442404 		movl	$LC1, 4(%esp)
 8124      3E000000 
 8125 6c97 C7042401 		movl	$1, (%esp)
 8125      000000
 8126 6c9e E8000000 		call	_reslog_adaptor_log
 8126      00
3219:mtk_resgenerator.cpp ****     // Native resource population (for thos resource must be populated after XML resource populatio
3220:mtk_resgenerator.cpp **** #ifndef __POPULATE_NO_STRING_DATA__
3221:mtk_resgenerator.cpp ****     offlineResPopService->populateStringResource(DEFAULT_OFFLINE_POST_XML_LEGACY_STRING_DB);
3222:mtk_resgenerator.cpp **** #endif
3223:mtk_resgenerator.cpp **** 
3224:mtk_resgenerator.cpp **** #ifndef __POPULATE_NO_IMAGE_DATA__
3225:mtk_resgenerator.cpp ****     offlineResPopService->populateImageResource(DEFAULT_OFFLINE_POST_XML_LEGACY_IMAGE_DB);
3226:mtk_resgenerator.cpp **** #endif
3227:mtk_resgenerator.cpp ****     offlineResPopService->populateAudioResource(DEFAULT_OFFLINE_POST_XML_LEGACY_AUDIO_DB);
 8128              	LM594:
 8129 6ca3 C7442404 		movl	$LC246, 4(%esp)
 8129      E0680000 
 8130 6cab 8B45FC   		movl	-4(%ebp), %eax
 8131 6cae 890424   		movl	%eax, (%esp)
GAS LISTING d:/MTK/MTK2503/MTK2503/11CW1418SP4_03_CORETEK03AE_11C_V1_GPRS_MMI/plutommi/Customer/ResGenerator/gcctmp/cc63daaa.s 			page 179


 8132 6cb1 E8000000 		call	__ZN20OfflineResPopService21populateAudioResourceEPc
 8132      00
3228:mtk_resgenerator.cpp **** 
3229:mtk_resgenerator.cpp ****     // Stop Legacy native resoruce Popualtion
3230:mtk_resgenerator.cpp ****     ResPopDeinitAll();
 8134              	LM595:
 8135 6cb6 E8000000 		call	_ResPopDeinitAll
 8135      00
3231:mtk_resgenerator.cpp **** 
3232:mtk_resgenerator.cpp ****     delete offlineResPopService;
 8137              	LM596:
 8138 6cbb 8B45FC   		movl	-4(%ebp), %eax
 8139 6cbe 890424   		movl	%eax, (%esp)
 8140 6cc1 E8000000 		call	__ZdlPv
 8140      00
3233:mtk_resgenerator.cpp **** }
 8142              	LM597:
 8143 6cc6 C9       		leave
 8144 6cc7 C3       		ret
 8145              	L268:
 8146              	LBE68:
 8150              	Lscope33:
 8157 6cc8 90909090 		.align 32
 8157      90909090 
 8157      90909090 
 8157      90909090 
 8157      90909090 
 8158              	LC253:
 8159 6ce0 72657367 		.ascii "resgen_xml_3d_meta_handle.py : Populate 3D meta data, Root = ..\\\\..\\\\Customer\\\\Image
 8159      656E5F78 
 8159      6D6C5F33 
 8159      645F6D65 
 8159      74615F68 
 8160 6d4b 90909090 		.align 32
 8160      90909090 
 8160      90909090 
 8160      90909090 
 8160      90909090 
 8161              	LC254:
 8162 6d60 2E2E5C2E 		.ascii "..\\..\\..\\tools\\python25\\python resgen_xml_3d_meta_handle.py ..\\\\..\\\\Customer\\\\I
 8162      2E5C2E2E 
 8162      5C746F6F 
 8162      6C735C70 
 8162      7974686F 
 8163 6dca 90909090 		.align 32
 8163      90909090 
 8163      90909090 
 8163      90909090 
 8163      90909090 
 8164              	LC255:
 8165 6de0 4572726F 		.ascii "Error!! Meta resource for Binary 3D population failed!! External python script resgen_xml_
 8165      72212120 
 8165      4D657461 
 8165      20726573 
 8165      6F757263 
 8166 6e5a 8DB60000 		.align 32
 8166      0000
GAS LISTING d:/MTK/MTK2503/MTK2503/11CW1418SP4_03_CORETEK03AE_11C_V1_GPRS_MMI/plutommi/Customer/ResGenerator/gcctmp/cc63daaa.s 			page 180


 8167              	LC256:
 8168 6e60 506C6561 		.ascii "Please check the error message of the tag Py-RESGEN_XML_3D_META_HANDLE in this log file\0"
 8168      73652063 
 8168      6865636B 
 8168      20746865 
 8168      20657272 
 8169 6eb8 908DB426 		.align 32
 8169      00000000 
 8170              	LC257:
 8171 6ec0 45787465 		.ascii "External python script resgen_xml_3d_meta_handle return error.\0"
 8171      726E616C 
 8171      20707974 
 8171      686F6E20 
 8171      73637269 
 8172 6eff 90       		.align 32
 8173              	LC258:
 8174 6f00 4572726F 		.ascii "Error!! Meta resource for Binary 3D population failed!!\0"
 8174      72212120 
 8174      4D657461 
 8174      20726573 
 8174      6F757263 
 8175 6f38 908DB426 		.align 32
 8175      00000000 
 8176              	LC259:
 8177 6f40 0A2A2A20 		.ascii "\12** External python script resgen_xml_3d_meta_handle.py return error. \12** Meta resourc
 8177      45787465 
 8177      726E616C 
 8177      20707974 
 8177      686F6E20 
 8178 7029 90       		.align 2
 8181              	__Z23prepare3DMetaPopulationv:
3234:mtk_resgenerator.cpp **** 
3235:mtk_resgenerator.cpp **** #endif //#ifdef  __RESGEN_INTERNAL_OFFLINE__
3236:mtk_resgenerator.cpp **** 
3237:mtk_resgenerator.cpp **** 
3238:mtk_resgenerator.cpp **** #ifdef __REGEN_INTERNAL_BATCHED__ 
3239:mtk_resgenerator.cpp **** 
3240:mtk_resgenerator.cpp **** ///////////////////////////////////////////////////////
3241:mtk_resgenerator.cpp **** // Batched Resource File Generation Service
3242:mtk_resgenerator.cpp **** ///////////////////////////////////////////////////////
3243:mtk_resgenerator.cpp **** 
3244:mtk_resgenerator.cpp **** class BatchedResFileGenService{
3245:mtk_resgenerator.cpp **** 
3246:mtk_resgenerator.cpp **** private:
3247:mtk_resgenerator.cpp ****     // Open dest file
3248:mtk_resgenerator.cpp ****     int initResFileOutput(char * destFileName){
3249:mtk_resgenerator.cpp ****         int resultFailFlag = 0;
3250:mtk_resgenerator.cpp **** 
3251:mtk_resgenerator.cpp ****         dest_file = fopen(destFileName, "wb");
3252:mtk_resgenerator.cpp ****         if (dest_file == NULL){
3253:mtk_resgenerator.cpp ****             resultFailFlag = -1;
3254:mtk_resgenerator.cpp ****             cout<<"dest_file could not open!\n"<<endl;
3255:mtk_resgenerator.cpp ****         }
3256:mtk_resgenerator.cpp **** 
3257:mtk_resgenerator.cpp ****         toolFlag = 1;
3258:mtk_resgenerator.cpp ****         ToolPopulateInitial();
3259:mtk_resgenerator.cpp ****         return resultFailFlag;
GAS LISTING d:/MTK/MTK2503/MTK2503/11CW1418SP4_03_CORETEK03AE_11C_V1_GPRS_MMI/plutommi/Customer/ResGenerator/gcctmp/cc63daaa.s 			page 181


3260:mtk_resgenerator.cpp ****     }
3261:mtk_resgenerator.cpp ****     // Close dest file
3262:mtk_resgenerator.cpp ****     int deInitResFileOutput(){
3263:mtk_resgenerator.cpp ****         if(dest_file != NULL)
3264:mtk_resgenerator.cpp ****         {
3265:mtk_resgenerator.cpp ****             fclose(dest_file);
3266:mtk_resgenerator.cpp ****         }
3267:mtk_resgenerator.cpp ****         dest_file = NULL;
3268:mtk_resgenerator.cpp ****         return 0;
3269:mtk_resgenerator.cpp ****     }
3270:mtk_resgenerator.cpp **** 
3271:mtk_resgenerator.cpp **** public:
3272:mtk_resgenerator.cpp ****     // Read bached resgen source and destination file from the path batchedFileName
3273:mtk_resgenerator.cpp ****     // and generate resrouces 
3274:mtk_resgenerator.cpp ****     int generateResource(char * batchedFileName){
3275:mtk_resgenerator.cpp ****         int result = 0;
3276:mtk_resgenerator.cpp ****         ResFileGenParamModel * model = new ResFileGenParamModel();
3277:mtk_resgenerator.cpp ****         model->setRepositoryFileName(batchedFileName);
3278:mtk_resgenerator.cpp ****         ResFileGenParamTextFileDAO * dao = new ResFileGenParamTextFileDAO();
3279:mtk_resgenerator.cpp ****         model->loadFromRepository(dao);
3280:mtk_resgenerator.cpp ****         vector<ResFileGenParam *> * params = model->getAllResFileGenParam();
3281:mtk_resgenerator.cpp **** 
3282:mtk_resgenerator.cpp ****         for(unsigned int i=0;i<params->size();i++){
3283:mtk_resgenerator.cpp ****             ResFileGenParam * item = (*(params))[i];
3284:mtk_resgenerator.cpp ****             if(item != NULL){
3285:mtk_resgenerator.cpp ****                 char * srcPath = new char[item->getSrcPath()->size()+1];
3286:mtk_resgenerator.cpp ****                 strcpy(srcPath, item->getSrcPath()->c_str());
3287:mtk_resgenerator.cpp ****                 char * destPath = new char[item->getDestPath()->size()+1];
3288:mtk_resgenerator.cpp ****                 strcpy(destPath, item->getDestPath()->c_str());	 
3289:mtk_resgenerator.cpp ****                 int type = item->getType();
3290:mtk_resgenerator.cpp ****                 if(type == ResFileGenParam::IMAGE_TYPE){
3291:mtk_resgenerator.cpp ****                     if(generateImageRes(srcPath,destPath)!=0){
3292:mtk_resgenerator.cpp ****                         RESGEN_LOG_E("[IMAGE] File mode: %s, %s", srcPath, destPath);
3293:mtk_resgenerator.cpp ****                         result = -1;
3294:mtk_resgenerator.cpp **** 
3295:mtk_resgenerator.cpp ****                     }
3296:mtk_resgenerator.cpp ****                 }else if (type == ResFileGenParam::FONT_TYPE){
3297:mtk_resgenerator.cpp ****                     if(generateFontRes(srcPath,destPath)!=0){
3298:mtk_resgenerator.cpp ****                         RESGEN_LOG_E("[Font] File mode: %s, %s", srcPath, destPath);
3299:mtk_resgenerator.cpp ****                         result = -1;
3300:mtk_resgenerator.cpp ****                     }
3301:mtk_resgenerator.cpp ****                 }else if (type ==ResFileGenParam::AUDIO_TYPE){
3302:mtk_resgenerator.cpp ****                     if(generateAudioRes(srcPath,destPath)!=0){
3303:mtk_resgenerator.cpp ****                         RESGEN_LOG_E("[Audio] File mode: %s, %s", srcPath, destPath);
3304:mtk_resgenerator.cpp ****                         result = -1;
3305:mtk_resgenerator.cpp ****                     }
3306:mtk_resgenerator.cpp ****                 }
3307:mtk_resgenerator.cpp **** 
3308:mtk_resgenerator.cpp ****                 delete srcPath;
3309:mtk_resgenerator.cpp ****                 delete destPath;
3310:mtk_resgenerator.cpp **** 
3311:mtk_resgenerator.cpp ****             }
3312:mtk_resgenerator.cpp **** 
3313:mtk_resgenerator.cpp ****         }
3314:mtk_resgenerator.cpp ****         model->clear();	
3315:mtk_resgenerator.cpp ****         delete model;
3316:mtk_resgenerator.cpp ****         delete dao;
GAS LISTING d:/MTK/MTK2503/MTK2503/11CW1418SP4_03_CORETEK03AE_11C_V1_GPRS_MMI/plutommi/Customer/ResGenerator/gcctmp/cc63daaa.s 			page 182


3317:mtk_resgenerator.cpp ****         return result;
3318:mtk_resgenerator.cpp ****     }
3319:mtk_resgenerator.cpp **** 
3320:mtk_resgenerator.cpp ****     int generateAudioRes(char * srcFileFileName, char * destFileName){
3321:mtk_resgenerator.cpp ****         int resourceLoadResult = 0;
3322:mtk_resgenerator.cpp ****         U16 nType;
3323:mtk_resgenerator.cpp ****         char upperFileName[MAX_FILENAME_LEN];
3324:mtk_resgenerator.cpp **** 
3325:mtk_resgenerator.cpp ****         strncpy(upperFileName, srcFileFileName, MAX_FILENAME_LEN);
3326:mtk_resgenerator.cpp ****         str_upper(upperFileName, MAX_FILENAME_LEN);
3327:mtk_resgenerator.cpp **** 
3328:mtk_resgenerator.cpp ****         if(initResFileOutput(destFileName)!=0){
3329:mtk_resgenerator.cpp ****             resourceLoadResult = -1;
3330:mtk_resgenerator.cpp ****         }
3331:mtk_resgenerator.cpp ****         if(Aload(upperFileName, &nType)!= MMI_TRUE){
3332:mtk_resgenerator.cpp ****             resourceLoadResult = -1;
3333:mtk_resgenerator.cpp ****         }
3334:mtk_resgenerator.cpp **** 
3335:mtk_resgenerator.cpp ****         if(deInitResFileOutput()!=0){
3336:mtk_resgenerator.cpp ****             resourceLoadResult = -1;
3337:mtk_resgenerator.cpp ****         }
3338:mtk_resgenerator.cpp **** 
3339:mtk_resgenerator.cpp ****         return resourceLoadResult;
3340:mtk_resgenerator.cpp ****     }
3341:mtk_resgenerator.cpp **** 
3342:mtk_resgenerator.cpp ****     int generateFontRes(char * srcFileFileName, char * destFileName){
3343:mtk_resgenerator.cpp ****         int resourceLoadResult = 0;
3344:mtk_resgenerator.cpp ****         U16 nType;
3345:mtk_resgenerator.cpp ****         char upperFileName[MAX_FILENAME_LEN];
3346:mtk_resgenerator.cpp **** 
3347:mtk_resgenerator.cpp ****         strncpy(upperFileName, srcFileFileName, MAX_FILENAME_LEN);
3348:mtk_resgenerator.cpp ****         str_upper(upperFileName, MAX_FILENAME_LEN);
3349:mtk_resgenerator.cpp **** 
3350:mtk_resgenerator.cpp ****         if(initResFileOutput(destFileName)!=0){
3351:mtk_resgenerator.cpp ****             resourceLoadResult = -1;
3352:mtk_resgenerator.cpp ****         }
3353:mtk_resgenerator.cpp **** 
3354:mtk_resgenerator.cpp ****         if(Fload(upperFileName, &nType)!= MMI_TRUE){
3355:mtk_resgenerator.cpp ****             resourceLoadResult = -1;
3356:mtk_resgenerator.cpp ****         }
3357:mtk_resgenerator.cpp ****         if(deInitResFileOutput()!=0){
3358:mtk_resgenerator.cpp ****             resourceLoadResult = -1;
3359:mtk_resgenerator.cpp ****         }
3360:mtk_resgenerator.cpp ****         return resourceLoadResult;
3361:mtk_resgenerator.cpp **** 
3362:mtk_resgenerator.cpp ****     }
3363:mtk_resgenerator.cpp ****     int generateImageRes(char * srcFileFileName, char * destFileName){
3364:mtk_resgenerator.cpp ****         int resourceLoadResult = 0;
3365:mtk_resgenerator.cpp ****         U16 nType;
3366:mtk_resgenerator.cpp ****         char upperFileName[MAX_FILENAME_LEN];
3367:mtk_resgenerator.cpp **** 
3368:mtk_resgenerator.cpp ****         strncpy(upperFileName, srcFileFileName, MAX_FILENAME_LEN);
3369:mtk_resgenerator.cpp ****         str_upper(upperFileName, MAX_FILENAME_LEN);
3370:mtk_resgenerator.cpp **** 
3371:mtk_resgenerator.cpp ****         if(initResFileOutput(destFileName)!=0){
3372:mtk_resgenerator.cpp ****             resourceLoadResult = -1;
3373:mtk_resgenerator.cpp ****         }
GAS LISTING d:/MTK/MTK2503/MTK2503/11CW1418SP4_03_CORETEK03AE_11C_V1_GPRS_MMI/plutommi/Customer/ResGenerator/gcctmp/cc63daaa.s 			page 183


3374:mtk_resgenerator.cpp **** 
3375:mtk_resgenerator.cpp ****         SetImageProcessData processData;
3376:mtk_resgenerator.cpp ****         initImageProcessData(&processData);
3377:mtk_resgenerator.cpp ****         ResgenImageOutStream * outstream;
3378:mtk_resgenerator.cpp ****         ImageOutStreamInit(&outstream);
3379:mtk_resgenerator.cpp ****         processData.outstream = outstream;
3380:mtk_resgenerator.cpp **** 
3381:mtk_resgenerator.cpp ****         if(Iload(upperFileName, SYSTEM_IMAGE, AUTO_TYPE, &processData) == MMI_TRUE)
3382:mtk_resgenerator.cpp ****         {
3383:mtk_resgenerator.cpp **** 
3384:mtk_resgenerator.cpp ****             char *curr_output_data_filename = "temp_image";
3385:mtk_resgenerator.cpp ****             FILE *output_data_file = NULL;
3386:mtk_resgenerator.cpp ****             output_data_file = fopen(curr_output_data_filename, "ab");
3387:mtk_resgenerator.cpp ****             while (output_data_file == NULL)
3388:mtk_resgenerator.cpp ****             {
3389:mtk_resgenerator.cpp ****                 Sleep(50);
3390:mtk_resgenerator.cpp ****                 output_data_file = fopen(curr_output_data_filename, "ab");
3391:mtk_resgenerator.cpp ****             }
3392:mtk_resgenerator.cpp **** 
3393:mtk_resgenerator.cpp ****             ImageOutStreamOutputFile(outstream, output_data_file);
3394:mtk_resgenerator.cpp ****             ImageOutStreamDeinit(&outstream);
3395:mtk_resgenerator.cpp ****             MYFCLOSE(output_data_file);
3396:mtk_resgenerator.cpp ****         }
3397:mtk_resgenerator.cpp ****         else
3398:mtk_resgenerator.cpp ****         {
3399:mtk_resgenerator.cpp ****             resourceLoadResult = -1;
3400:mtk_resgenerator.cpp ****             ImageOutStreamDeinit(&outstream); 				  
3401:mtk_resgenerator.cpp ****         }
3402:mtk_resgenerator.cpp **** 
3403:mtk_resgenerator.cpp ****         if(deInitResFileOutput()!=0){
3404:mtk_resgenerator.cpp ****             resourceLoadResult = -1;
3405:mtk_resgenerator.cpp ****         }
3406:mtk_resgenerator.cpp ****         return resourceLoadResult;
3407:mtk_resgenerator.cpp ****     }
3408:mtk_resgenerator.cpp **** };
3409:mtk_resgenerator.cpp **** 
3410:mtk_resgenerator.cpp **** #endif //__REGEN_INTERNAL_BATCHED__
3411:mtk_resgenerator.cpp **** 
3412:mtk_resgenerator.cpp **** 
3413:mtk_resgenerator.cpp **** static void prepare3DMetaPopulation(){
 8183              	LM598:
 8184 702a 55       		pushl	%ebp
 8185 702b 89E5     		movl	%esp, %ebp
 8186 702d 83EC18   		subl	$24, %esp
3414:mtk_resgenerator.cpp **** #ifdef __RESGEN_INTERNAL_3D_META_RESGEN_AUTO__
3415:mtk_resgenerator.cpp ****     // Populate the 3D meta resource so that APP developer don't need to add the res declaration to
3416:mtk_resgenerator.cpp ****     // manually.
3417:mtk_resgenerator.cpp **** #ifdef __COSMOS_MMI__
3418:mtk_resgenerator.cpp ****     RESGEN_LOG_V("resgen_xml_3d_meta_handle.py : Populate 3D meta data, Root = " RES_THEME_ROOT);
3419:mtk_resgenerator.cpp ****     if(0 != execute_ext_command("..\\..\\..\\" "tools\\python25\\python" " resgen_xml_3d_meta_handl
3420:mtk_resgenerator.cpp **** #else
3421:mtk_resgenerator.cpp ****     RESGEN_LOG_V("resgen_xml_3d_meta_handle.py : Populate 3D meta data, Root = " CUST_IMG_PATH "\\M
 8188              	LM599:
 8189              	LBB69:
 8190 7030 C7442408 		movl	$LC253, 8(%esp)
 8190      E06C0000 
 8191 7038 C7442404 		movl	$LC1, 4(%esp)
GAS LISTING d:/MTK/MTK2503/MTK2503/11CW1418SP4_03_CORETEK03AE_11C_V1_GPRS_MMI/plutommi/Customer/ResGenerator/gcctmp/cc63daaa.s 			page 184


 8191      3E000000 
 8192 7040 C7042401 		movl	$1, (%esp)
 8192      000000
 8193 7047 E8000000 		call	_reslog_adaptor_log
 8193      00
3422:mtk_resgenerator.cpp ****     if(0 != execute_ext_command("..\\..\\..\\" "tools\\python25\\python" " resgen_xml_3d_meta_handl
 8195              	LM600:
 8196 704c C7042460 		movl	$LC254, (%esp)
 8196      6D0000
 8197 7053 E8000000 		call	_execute_ext_command
 8197      00
 8198 7058 85C0     		testl	%eax, %eax
 8199 705a 7465     		je	L271
3423:mtk_resgenerator.cpp **** #endif // RES_THEME_ROOT
3424:mtk_resgenerator.cpp ****     {
3425:mtk_resgenerator.cpp ****         mtk_resgen_set_error();
 8201              	LM601:
 8202 705c E8000000 		call	_mtk_resgen_set_error
 8202      00
3426:mtk_resgenerator.cpp ****         RESGEN_LOG_E("Error!! Meta resource for Binary 3D population failed!! External python scrip
 8204              	LM602:
 8205 7061 C7442408 		movl	$LC255, 8(%esp)
 8205      E06D0000 
 8206 7069 C7442404 		movl	$LC1, 4(%esp)
 8206      3E000000 
 8207 7071 C7042403 		movl	$3, (%esp)
 8207      000000
 8208 7078 E8000000 		call	_reslog_adaptor_log
 8208      00
3427:mtk_resgenerator.cpp ****         RES_LOG_PENDING_FATAL(RESGEN_TAG, "Error!! Meta resource for Binary 3D population failed!!"
 8210              	LM603:
 8211 707d C7442410 		movl	$LC256, 16(%esp)
 8211      606E0000 
 8212 7085 C744240C 		movl	$LC257, 12(%esp)
 8212      C06E0000 
 8213 708d C7442408 		movl	$LC258, 8(%esp)
 8213      006F0000 
 8214 7095 C7442404 		movl	$LC1, 4(%esp)
 8214      3E000000 
 8215 709d C7042403 		movl	$3, (%esp)
 8215      000000
 8216 70a4 E8000000 		call	_reslog_adaptor_fatal_error_pending_log
 8216      00
3428:mtk_resgenerator.cpp ****         fprintf(stderr, "\n** External python script resgen_xml_3d_meta_handle.py return error. \n*
 8218              	LM604:
 8219 70a9 C7442404 		movl	$LC259, 4(%esp)
 8219      406F0000 
 8220 70b1 A1000000 		movl	__imp___iob, %eax
 8220      00
 8221 70b6 83C040   		addl	$64, %eax
 8222 70b9 890424   		movl	%eax, (%esp)
 8223 70bc E8000000 		call	_fprintf
 8223      00
3429:mtk_resgenerator.cpp **** 
3430:mtk_resgenerator.cpp ****     }
3431:mtk_resgenerator.cpp **** #endif //__RESGEN_INTERNAL_3D_META_RESGEN_AUTO__
3432:mtk_resgenerator.cpp **** }
GAS LISTING d:/MTK/MTK2503/MTK2503/11CW1418SP4_03_CORETEK03AE_11C_V1_GPRS_MMI/plutommi/Customer/ResGenerator/gcctmp/cc63daaa.s 			page 185


 8225              	LM605:
 8226              	L271:
 8227 70c1 C9       		leave
 8228 70c2 C3       		ret
 8229              	LBE69:
 8230              	Lscope34:
 8232              	LC260:
 8233 70c3 00       		.ascii "\0"
 8234 70c4 00000000 		.space 611
 8234      00000000 
 8234      00000000 
 8234      00000000 
 8234      00000000 
 8235 7327 90       		.align 2
 8238              	__Z19PostRegenOperationsv:
3433:mtk_resgenerator.cpp **** 
3434:mtk_resgenerator.cpp **** 
3435:mtk_resgenerator.cpp **** 
3436:mtk_resgenerator.cpp **** // Do Post Code Generations:
3437:mtk_resgenerator.cpp **** // (1) Third ROM image/string resource
3438:mtk_resgenerator.cpp **** // (2) Compressed image/string resource
3439:mtk_resgenerator.cpp **** 
3440:mtk_resgenerator.cpp **** #if !defined (__CAT_SUPPORT__) && !defined(__MBA_LANG_ONLY__) 
3441:mtk_resgenerator.cpp ****     #define IMG_GROUP_CMD_OPTION_THIRD_ROM_BINS "all"
3442:mtk_resgenerator.cpp **** #else //__CAT_SUPPORT__
3443:mtk_resgenerator.cpp **** // When CAT 2.0 or MBA's langpack is enabled, string resouce is put into CAT region and langpack, n
3444:mtk_resgenerator.cpp ****     #define IMG_GROUP_CMD_OPTION_THIRD_ROM_BINS "no_str"
3445:mtk_resgenerator.cpp **** #endif //__CAT_SUPPORT__
3446:mtk_resgenerator.cpp **** 
3447:mtk_resgenerator.cpp **** static void PostRegenOperations(){
 8240              	LM606:
 8241 7328 55       		pushl	%ebp
 8242 7329 89E5     		movl	%esp, %ebp
 8243 732b 57       		pushl	%edi
 8244 732c 81EC8402 		subl	$644, %esp
 8244      0000
3448:mtk_resgenerator.cpp **** 
3449:mtk_resgenerator.cpp ****     char cmdBuf[SHELL_CMD_BUFLEN] = "";
 8246              	LM607:
 8247              	LBB70:
 8248 7332 0FB605C3 		movzbl	LC260, %eax
 8248      700000
 8249 7339 888588FD 		movb	%al, -632(%ebp)
 8249      FFFF
 8250 733f 8DBD89FD 		leal	-631(%ebp), %edi
 8250      FFFF
 8251 7345 FC       		cld
 8252 7346 B9630200 		movl	$611, %ecx
 8252      00
 8253 734b B000     		movb	$0, %al
 8254 734d F3       		rep
 8255 734e AA       		stosb
3450:mtk_resgenerator.cpp ****     int exeResult = 1;
 8257              	LM608:
 8258 734f C78584FD 		movl	$1, -636(%ebp)
 8258      FFFF0100 
 8258      0000
GAS LISTING d:/MTK/MTK2503/MTK2503/11CW1418SP4_03_CORETEK03AE_11C_V1_GPRS_MMI/plutommi/Customer/ResGenerator/gcctmp/cc63daaa.s 			page 186


3451:mtk_resgenerator.cpp **** #ifndef __POPULATE_NO_STRING_DATA__
3452:mtk_resgenerator.cpp ****     // Generate 3rd ROM and string compresssion source codes
3453:mtk_resgenerator.cpp ****     sprintf(cmdBuf, "..\\..\\..\\tools\\python25\\python .\\resgen_str_compress.py -p %d > debug\\r
3454:mtk_resgenerator.cpp ****     exeResult = execute_ext_command(cmdBuf);
3455:mtk_resgenerator.cpp ****     if( exeResult!= 0){
3456:mtk_resgenerator.cpp ****         RESGEN_LOG_E("Error!! String Resource Code generation failed, please check plutommi\\custom
3457:mtk_resgenerator.cpp ****         fprintf(stderr, "\n** Error!! String Resource Code generation failed!!\n** External python 
3458:mtk_resgenerator.cpp ****         RES_LOG_PENDING_FATAL(RESGEN_TAG, "Error!! String Resource Code generation failed!!","Exter
3459:mtk_resgenerator.cpp ****     }
3460:mtk_resgenerator.cpp **** #endif
3461:mtk_resgenerator.cpp **** 
3462:mtk_resgenerator.cpp **** #ifndef __POPULATE_NO_IMAGE_DATA__
3463:mtk_resgenerator.cpp ****     // Check N-group image configuration here   
3464:mtk_resgenerator.cpp ****     RESGEN_LOG_V("ON-DEMOND IMAGE CACHE SIZE: %d",MMI_RESOURCE_IMAGE_CACHE_SIZE);
3465:mtk_resgenerator.cpp **** #ifndef __MMI_RESOURCE_6261_SLIM__
3466:mtk_resgenerator.cpp ****     if(RES_SINGLE_IMG_GROUP_MAX_SIZE > ((MMI_RESOURCE_IMAGE_CACHE_SIZE- 4 * RES_MULTI_IMG_GROUP_MAX
3467:mtk_resgenerator.cpp ****         RESGEN_LOG_E("Image group configurtion error!! RES_SINGLE_IMG_GROUP_MAX_SIZE must < MMI_RES
3468:mtk_resgenerator.cpp ****         fprintf(stderr, "\n** Image group configurtion error!!\n** RES_SINGLE_IMG_GROUP_MAX_SIZE mu
3469:mtk_resgenerator.cpp ****         RES_LOG_PENDING_FATAL(RESGEN_TAG, "Image group configurtion error!!","Doesn't support your 
3470:mtk_resgenerator.cpp **** 
3471:mtk_resgenerator.cpp ****     }
3472:mtk_resgenerator.cpp ****     
3473:mtk_resgenerator.cpp ****     if(RES_BOOT_IMG_GROUP_MAX_SIZE > (MMI_RESOURCE_IMAGE_CACHE_SIZE - 4* RES_MULTI_IMG_GROUP_MAX_SI
3474:mtk_resgenerator.cpp ****         RESGEN_LOG_E("Image group configurtion error!! RES_BOOT_IMG_GROUP_MAX_SIZE must < MMI_RESOU
3475:mtk_resgenerator.cpp ****         fprintf(stderr,"\n** Image group configurtion error!! RES_BOOT_IMG_GROUP_MAX_SIZE must < MM
3476:mtk_resgenerator.cpp ****         RES_LOG_PENDING_FATAL(RESGEN_TAG, "Image group configurtion error!!","Doesn't support you c
3477:mtk_resgenerator.cpp ****     }
3478:mtk_resgenerator.cpp **** #else //__MMI_RESOURCE_6261_SLIM__
3479:mtk_resgenerator.cpp **** /*
3480:mtk_resgenerator.cpp **** 	if(MMI_RESOURCE_IMAGE_CACHE_SIZE < 3 * RES_MULTI_IMG_GROUP_MAX_SIZE){
3481:mtk_resgenerator.cpp **** 		RESGEN_LOG_E("Image group configurtion error!! MMI_RESOURCE_IMAGE_CACHE_SIZE must >= 3 * RES_MULT
3482:mtk_resgenerator.cpp **** 		fprintf(stderr, "\n** Image group configurtion error!!\n** MMI_RESOURCE_IMAGE_CACHE_SIZE must >= 
3483:mtk_resgenerator.cpp **** 		RES_LOG_PENDING_FATAL(RESGEN_TAG, "Image group configurtion error!!","Doesn't support your config
3484:mtk_resgenerator.cpp ****     
3485:mtk_resgenerator.cpp **** 	}
3486:mtk_resgenerator.cpp **** */
3487:mtk_resgenerator.cpp **** #endif //__MMI_RESOURCE_6261_SLIM__
3488:mtk_resgenerator.cpp **** #ifdef __MMI_RESOURCE_LZMA_IMAGE_GROUP_COMPRESS__
3489:mtk_resgenerator.cpp ****     if(RES_SINGLE_IMG_GROUP_MAX_SIZE != RES_MULTI_IMG_GROUP_MAX_SIZE || RES_MULTI_IMG_GROUP_MAX_SIZ
3490:mtk_resgenerator.cpp ****         RESGEN_LOG_E("Image group configurtion error!! RES_SINGLE_IMG_GROUP_MAX_SIZE and RES_BOOT_I
3491:mtk_resgenerator.cpp ****         fprintf(stderr,"\n** Image group configurtion error!! \n** RES_SINGLE_IMG_GROUP_MAX_SIZE an
3492:mtk_resgenerator.cpp ****         RES_LOG_PENDING_FATAL(RESGEN_TAG, "Image group configurtion error", "Doesn't support you co
3493:mtk_resgenerator.cpp ****     }   
3494:mtk_resgenerator.cpp **** #endif
3495:mtk_resgenerator.cpp ****     
3496:mtk_resgenerator.cpp ****     // Generate 3rd ROM and Image compression source codes
3497:mtk_resgenerator.cpp **** #ifdef RES_BOOT_IMG_GROUPD_ID_CONFIG
3498:mtk_resgenerator.cpp ****     sprintf(cmdBuf, "..\\..\\..\\tools\\python25\\python .\\resgen_img_group_compress.py --mg=%d --
3499:mtk_resgenerator.cpp ****             RES_MULTI_IMG_GROUP_MAX_SIZE, RES_SINGLE_IMG_GROUP_MAX_SIZE, RES_BOOT_IMG_GROUP_MAX_SIZ
3500:mtk_resgenerator.cpp **** #else //RES_BOOT_IMG_GROUPD_ID_CONFIG
3501:mtk_resgenerator.cpp ****     sprintf(cmdBuf, "..\\..\\..\\tools\\python25\\python .\\resgen_img_group_compress.py --mg=%d --
3502:mtk_resgenerator.cpp ****             RES_MULTI_IMG_GROUP_MAX_SIZE, RES_SINGLE_IMG_GROUP_MAX_SIZE, IMG_GROUP_CMD_OPTION_THIRD
3503:mtk_resgenerator.cpp **** #endif //RES_BOOT_IMG_GROUPD_ID_CONFIG
3504:mtk_resgenerator.cpp **** 
3505:mtk_resgenerator.cpp ****     exeResult = execute_ext_command(cmdBuf);
3506:mtk_resgenerator.cpp ****     if( exeResult!= 0){
3507:mtk_resgenerator.cpp ****         RESGEN_LOG_E("Error!! Image Resoruce Code generation failed, please check plutommi\\custome
GAS LISTING d:/MTK/MTK2503/MTK2503/11CW1418SP4_03_CORETEK03AE_11C_V1_GPRS_MMI/plutommi/Customer/ResGenerator/gcctmp/cc63daaa.s 			page 187


3508:mtk_resgenerator.cpp ****         fprintf(stderr,"\n** Error!! Image Resoruce Code generation failed!! \n** External python s
3509:mtk_resgenerator.cpp ****         RES_LOG_PENDING_FATAL(RESGEN_TAG, "Error!! Image Resoruce Code generation failed!!", "Exter
3510:mtk_resgenerator.cpp ****     }
3511:mtk_resgenerator.cpp **** #endif
3512:mtk_resgenerator.cpp **** }
 8260              	LM609:
 8261 7359 81C48402 		addl	$644, %esp
 8261      0000
 8262 735f 5F       		popl	%edi
 8263 7360 5D       		popl	%ebp
 8264 7361 C3       		ret
 8265              	LBE70:
 8270              	Lscope35:
 8273              	LC261:
 8274 7362 61726763 		.ascii "argc = %d\0"
 8274      203D2025 
 8274      6400
 8275              	LC262:
 8276 736c 61726776 		.ascii "argv[%d] = %s\0"
 8276      5B25645D 
 8276      203D2025 
 8276      7300
 8277              	LC263:
 8278 737a 72657367 		.ascii "resgen_custpack.log\0"
 8278      656E5F63 
 8278      75737470 
 8278      61636B2E 
 8278      6C6F6700 
 8279              	LC264:
 8280 738e 2D6600   		.ascii "-f\0"
 8281              	LC265:
 8282 7391 2D6900   		.ascii "-i\0"
 8283              	LC266:
 8284 7394 2D6100   		.ascii "-a\0"
 8285              	LC267:
 8286 7397 2D4600   		.ascii "-F\0"
 8287              	LC268:
 8288 739a 64657374 		.ascii "dest_file could not open!\0"
 8288      5F66696C 
 8288      6520636F 
 8288      756C6420 
 8288      6E6F7420 
 8289              	LC269:
 8290 73b4 74656D70 		.ascii "temp_image\0"
 8290      5F696D61 
 8290      676500
 8291              	LC270:
 8292 73bf 616200   		.ascii "ab\0"
 8293 73c2 90909090 		.align 32
 8293      90909090 
 8293      90909090 
 8293      90909090 
 8293      90909090 
 8294              	LC271:
 8295 73e0 6D746B5F 		.ascii "mtk_resgenerator.exe paramater error\0"
 8295      72657367 
 8295      656E6572 
GAS LISTING d:/MTK/MTK2503/MTK2503/11CW1418SP4_03_CORETEK03AE_11C_V1_GPRS_MMI/plutommi/Customer/ResGenerator/gcctmp/cc63daaa.s 			page 188


 8295      61746F72 
 8295      2E657865 
 8296 7405 90909090 		.align 32
 8296      90909090 
 8296      90909090 
 8296      90909090 
 8296      90909090 
 8297              	LC272:
 8298 7420 5B455252 		.ascii "[ERR] mtk_resgenerator.exe paramater error\12\0"
 8298      5D206D74 
 8298      6B5F7265 
 8298      7367656E 
 8298      65726174 
 8299 744c 90909090 		.align 32
 8299      90909090 
 8299      90909090 
 8299      90909090 
 8299      90909090 
 8300              	LC273:
 8301 7460 6D746B5F 		.ascii "mtk_resgenerator.exe %s failed, can't load %s, no output to %s\0"
 8301      72657367 
 8301      656E6572 
 8301      61746F72 
 8301      2E657865 
 8302 749f 90       		.align 32
 8303              	LC274:
 8304 74a0 5B455252 		.ascii "[ERR] mtk_resgenerator.exe %s failed, can't load %s, no output to %s\12\0"
 8304      5D206D74 
 8304      6B5F7265 
 8304      7367656E 
 8304      65726174 
 8305 74e6 90909090 		.align 32
 8305      90909090 
 8305      90909090 
 8305      90909090 
 8305      90909090 
 8306              	LC275:
 8307 7500 6D746B5F 		.ascii "mtk_resgenerator.exe can't indentify the parameter, please check if the ImageFilename and 
 8307      72657367 
 8307      656E6572 
 8307      61746F72 
 8307      2E657865 
 8308 7573 8DB60000 		.align 32
 8308      00008DBC 
 8308      27000000 
 8308      00
 8309              	LC276:
 8310 7580 5B455252 		.ascii "[ERR] mtk_resgenerator.exe can't indentify the parameter, please check if the ImageFilenam
 8310      5D206D74 
 8310      6B5F7265 
 8310      7367656E 
 8310      65726174 
 8311 75fa 8DB60000 		.align 32
 8311      0000
 8312              	LC277:
 8313 7600 55736167 		.ascii "Usage: mtk_resgenerator.exe -f [-i or -a] ImageFilename OutputFilename\0"
 8313      653A206D 
GAS LISTING d:/MTK/MTK2503/MTK2503/11CW1418SP4_03_CORETEK03AE_11C_V1_GPRS_MMI/plutommi/Customer/ResGenerator/gcctmp/cc63daaa.s 			page 189


 8313      746B5F72 
 8313      65736765 
 8313      6E657261 
 8314              	LC278:
 8315 7647 2D6700   		.ascii "-g\0"
 8316              	LC279:
 8317 764a 2D7800   		.ascii "-x\0"
 8318              	LC280:
 8319 764d 2D6300   		.ascii "-c\0"
 8320              	LC281:
 8321 7650 2D6200   		.ascii "-b\0"
 8322 7653 8DB60000 		.align 32
 8322      00008DBC 
 8322      27000000 
 8322      00
 8323              	LC282:
 8324 7660 42617463 		.ascii "Batched Resgen finished successfully\0"
 8324      68656420 
 8324      52657367 
 8324      656E2066 
 8324      696E6973 
 8325              	LC283:
 8326 7685 42617463 		.ascii "Batched Resgen failed\0"
 8326      68656420 
 8326      52657367 
 8326      656E2066 
 8326      61696C65 
 8327 769b 908D7426 		.align 32
 8327      00
 8328              	LC284:
 8329 76a0 55736167 		.ascii "Usage: mtk_resgenerator.exe -b [filename]\12\0"
 8329      653A206D 
 8329      746B5F72 
 8329      65736765 
 8329      6E657261 
 8330 76cb 90909090 		.align 32
 8330      90909090 
 8330      90909090 
 8330      90909090 
 8330      90909090 
 8331              	LC285:
 8332 76e0 55736167 		.ascii "Usage: mtk_resgenerator.exe -g -x\0"
 8332      653A206D 
 8332      746B5F72 
 8332      65736765 
 8332      6E657261 
 8333 7702 90909090 		.align 32
 8333      90909090 
 8333      90909090 
 8333      90909090 
 8333      90909090 
 8334              	LC286:
 8335 7720 4D656469 		.ascii "MediaTek Resource Generate System 0.1\0"
 8335      6154656B 
 8335      20526573 
 8335      6F757263 
 8335      65204765 
GAS LISTING d:/MTK/MTK2503/MTK2503/11CW1418SP4_03_CORETEK03AE_11C_V1_GPRS_MMI/plutommi/Customer/ResGenerator/gcctmp/cc63daaa.s 			page 190


 8336              	LC287:
 8337 7746 64656275 		.ascii "debug\0"
 8337      6700
 8338 774c 90909090 		.align 32
 8338      90909090 
 8338      90909090 
 8338      90909090 
 8338      90909090 
 8339              	LC288:
 8340 7760 27646562 		.ascii "'debug' directory already exists! ret=[%d]\0"
 8340      75672720 
 8340      64697265 
 8340      63746F72 
 8340      7920616C 
 8341              	LC289:
 8342 778b 27646562 		.ascii "'debug' directory is created!\0"
 8342      75672720 
 8342      64697265 
 8342      63746F72 
 8342      79206973 
 8343              	LC290:
 8344 77a9 2D7200   		.ascii "-r\0"
 8345 77ac 90909090 		.align 32
 8345      90909090 
 8345      90909090 
 8345      90909090 
 8345      90909090 
 8346              	LC291:
 8347 77c0 5265736F 		.ascii "Resource ID range check old_last_menu=[%d], res_first=[%d] res_last=[%d].\12\0"
 8347      75726365 
 8347      20494420 
 8347      72616E67 
 8347      65206368 
 8348 780b 90909090 		.align 32
 8348      90909090 
 8348      90909090 
 8348      90909090 
 8348      90909090 
 8349              	LC292:
 8350 7820 5265736F 		.ascii "Resource ID range check old_last_menu=[%d], res_first=[%d] res_last=[%d].\0"
 8350      75726365 
 8350      20494420 
 8350      72616E67 
 8350      65206368 
 8351              	LC297:
 8352 786a 53746172 		.ascii "Start resource population\0"
 8352      74207265 
 8352      736F7572 
 8352      63652070 
 8352      6F70756C 
 8353 7884 90909090 		.align 32
 8353      90909090 
 8353      90909090 
 8353      90909090 
 8353      90909090 
 8354              	LC298:
 8355 78a0 55736167 		.ascii "Usage: mtk_resgenerator.exe -g\0"
GAS LISTING d:/MTK/MTK2503/MTK2503/11CW1418SP4_03_CORETEK03AE_11C_V1_GPRS_MMI/plutommi/Customer/ResGenerator/gcctmp/cc63daaa.s 			page 191


 8355      653A206D 
 8355      746B5F72 
 8355      65736765 
 8355      6E657261 
 8356 78bf 90       		.align 2
 8360              	.globl _main
 8362              	_main:
3513:mtk_resgenerator.cpp **** 
3514:mtk_resgenerator.cpp **** /*****************************************************************************
3515:mtk_resgenerator.cpp **** * FUNCTION
3516:mtk_resgenerator.cpp **** *  main
3517:mtk_resgenerator.cpp **** * DESCRIPTION
3518:mtk_resgenerator.cpp **** *  main function of mtk_resgenerator
3519:mtk_resgenerator.cpp **** * PARAMETERS
3520:mtk_resgenerator.cpp **** *
3521:mtk_resgenerator.cpp **** * RETURNS
3522:mtk_resgenerator.cpp **** *  int
3523:mtk_resgenerator.cpp **** *****************************************************************************/
3524:mtk_resgenerator.cpp **** int main(int argc, char *argv[])
3525:mtk_resgenerator.cpp **** {
 8364              	LM610:
 8365 78c0 55       		pushl	%ebp
 8366 78c1 89E5     		movl	%esp, %ebp
 8367 78c3 57       		pushl	%edi
 8368 78c4 81ECE407 		subl	$2020, %esp
 8368      0000
 8369 78ca 83E4F0   		andl	$-16, %esp
 8370 78cd B8000000 		movl	$0, %eax
 8370      00
 8371 78d2 898538F8 		movl	%eax, -1992(%ebp)
 8371      FFFF
 8372 78d8 8B8538F8 		movl	-1992(%ebp), %eax
 8372      FFFF
 8373 78de E8000000 		call	__alloca
 8373      00
 8374 78e3 E8000000 		call	___main
 8374      00
3526:mtk_resgenerator.cpp ****     /*----------------------------------------------------------------*/
3527:mtk_resgenerator.cpp ****     /* Local Variables                                                */
3528:mtk_resgenerator.cpp ****     /*----------------------------------------------------------------*/
3529:mtk_resgenerator.cpp ****     char tempCommand[SHELL_CMD_BUFLEN];
3530:mtk_resgenerator.cpp ****     MMI_BOOL resourceLoadResult = MMI_FALSE;
 8376              	LM611:
 8377              	LBB71:
 8378 78e8 C78584FD 		movl	$0, -636(%ebp)
 8378      FFFF0000 
 8378      0000
3531:mtk_resgenerator.cpp ****     char custpaclLog[CUSTPACK_LOG_BUFLEN]="";
 8380              	LM612:
 8381 78f2 0FB605C3 		movzbl	LC260, %eax
 8381      700000
 8382 78f9 888578FC 		movb	%al, -904(%ebp)
 8382      FFFF
 8383 78ff 8DBD79FC 		leal	-903(%ebp), %edi
 8383      FFFF
 8384 7905 FC       		cld
 8385 7906 B9FF0000 		movl	$255, %ecx
GAS LISTING d:/MTK/MTK2503/MTK2503/11CW1418SP4_03_CORETEK03AE_11C_V1_GPRS_MMI/plutommi/Customer/ResGenerator/gcctmp/cc63daaa.s 			page 192


 8385      00
 8386 790b B000     		movb	$0, %al
 8387 790d F3       		rep
 8388 790e AA       		stosb
3532:mtk_resgenerator.cpp **** 
3533:mtk_resgenerator.cpp ****     /*----------------------------------------------------------------*/
3534:mtk_resgenerator.cpp ****     /* Code Body                                                      */
3535:mtk_resgenerator.cpp ****     /*----------------------------------------------------------------*/
3536:mtk_resgenerator.cpp ****     launch_resgen_services();
 8390              	LM613:
 8391 790f E84CE6FF 		call	__Z22launch_resgen_servicesv
 8391      FF
3537:mtk_resgenerator.cpp **** 
3538:mtk_resgenerator.cpp ****     {
3539:mtk_resgenerator.cpp ****         int i;
3540:mtk_resgenerator.cpp ****         RESGEN_LOG_V("argc = %d", argc);
 8393              	LM614:
 8394              	LBB72:
 8395 7914 8B4508   		movl	8(%ebp), %eax
 8396 7917 8944240C 		movl	%eax, 12(%esp)
 8397 791b C7442408 		movl	$LC261, 8(%esp)
 8397      62730000 
 8398 7923 C7442404 		movl	$LC1, 4(%esp)
 8398      3E000000 
 8399 792b C7042401 		movl	$1, (%esp)
 8399      000000
 8400 7932 E8000000 		call	_reslog_adaptor_log
 8400      00
3541:mtk_resgenerator.cpp ****         for(i=0;i<argc;i++)
 8402              	LM615:
 8403 7937 C78574FC 		movl	$0, -908(%ebp)
 8403      FFFF0000 
 8403      0000
 8404              	L275:
 8405 7941 8B8574FC 		movl	-908(%ebp), %eax
 8405      FFFF
 8406 7947 3B4508   		cmpl	8(%ebp), %eax
 8407 794a 7C02     		jl	L278
 8408 794c EB47     		jmp	L276
 8409              	L278:
3542:mtk_resgenerator.cpp ****             RESGEN_LOG_V("argv[%d] = %s", i, argv[i]);
 8411              	LM616:
 8412 794e 8B8574FC 		movl	-908(%ebp), %eax
 8412      FFFF
 8413 7954 8D148500 		leal	0(,%eax,4), %edx
 8413      000000
 8414 795b 8B450C   		movl	12(%ebp), %eax
 8415 795e 8B0410   		movl	(%eax,%edx), %eax
 8416 7961 89442410 		movl	%eax, 16(%esp)
 8417 7965 8B8574FC 		movl	-908(%ebp), %eax
 8417      FFFF
 8418 796b 8944240C 		movl	%eax, 12(%esp)
 8419 796f C7442408 		movl	$LC262, 8(%esp)
 8419      6C730000 
 8420 7977 C7442404 		movl	$LC1, 4(%esp)
 8420      3E000000 
 8421 797f C7042401 		movl	$1, (%esp)
GAS LISTING d:/MTK/MTK2503/MTK2503/11CW1418SP4_03_CORETEK03AE_11C_V1_GPRS_MMI/plutommi/Customer/ResGenerator/gcctmp/cc63daaa.s 			page 193


 8421      000000
 8422 7986 E8000000 		call	_reslog_adaptor_log
 8422      00
 8424              	LM617:
 8425 798b 8D8574FC 		leal	-908(%ebp), %eax
 8425      FFFF
 8426 7991 FF00     		incl	(%eax)
 8427 7993 EBAC     		jmp	L275
 8428              	L276:
3543:mtk_resgenerator.cpp ****     }
3544:mtk_resgenerator.cpp **** 
3545:mtk_resgenerator.cpp ****     if(argc == 5)   //Check if run by CustPack tool
 8430              	LM618:
 8431              	LBE72:
 8432              	LBB73:
 8433 7995 837D0805 		cmpl	$5, 8(%ebp)
 8434 7999 0F858904 		jne	L279
 8434      0000
3546:mtk_resgenerator.cpp ****     {
3547:mtk_resgenerator.cpp **** 
3548:mtk_resgenerator.cpp ****         remove(CUSTPACL_LOG_FILE_NAME);//Delete cust error log file
 8436              	LM619:
 8437              	LBB74:
 8438 799f C704247A 		movl	$LC263, (%esp)
 8438      730000
 8439 79a6 E8000000 		call	_remove
 8439      00
3549:mtk_resgenerator.cpp ****         if(strcmp(argv[1], "-f")==0 && (strcmp(argv[2], "-i")==0 || strcmp(argv[2], "-a")==0 || str
 8441              	LM620:
 8442              	LBB75:
 8443 79ab C7442404 		movl	$LC264, 4(%esp)
 8443      8E730000 
 8444 79b3 8B450C   		movl	12(%ebp), %eax
 8445 79b6 83C004   		addl	$4, %eax
 8446 79b9 8B00     		movl	(%eax), %eax
 8447 79bb 890424   		movl	%eax, (%esp)
 8448 79be E8000000 		call	_strcmp
 8448      00
 8449 79c3 85C0     		testl	%eax, %eax
 8450 79c5 0F853204 		jne	L280
 8450      0000
 8451 79cb C7442404 		movl	$LC265, 4(%esp)
 8451      91730000 
 8452 79d3 8B450C   		movl	12(%ebp), %eax
 8453 79d6 83C008   		addl	$8, %eax
 8454 79d9 8B00     		movl	(%eax), %eax
 8455 79db 890424   		movl	%eax, (%esp)
 8456 79de E8000000 		call	_strcmp
 8456      00
 8457 79e3 85C0     		testl	%eax, %eax
 8458 79e5 743C     		je	L281
 8459 79e7 C7442404 		movl	$LC266, 4(%esp)
 8459      94730000 
 8460 79ef 8B450C   		movl	12(%ebp), %eax
 8461 79f2 83C008   		addl	$8, %eax
 8462 79f5 8B00     		movl	(%eax), %eax
 8463 79f7 890424   		movl	%eax, (%esp)
GAS LISTING d:/MTK/MTK2503/MTK2503/11CW1418SP4_03_CORETEK03AE_11C_V1_GPRS_MMI/plutommi/Customer/ResGenerator/gcctmp/cc63daaa.s 			page 194


 8464 79fa E8000000 		call	_strcmp
 8464      00
 8465 79ff 85C0     		testl	%eax, %eax
 8466 7a01 7420     		je	L281
 8467 7a03 C7442404 		movl	$LC267, 4(%esp)
 8467      97730000 
 8468 7a0b 8B450C   		movl	12(%ebp), %eax
 8469 7a0e 83C008   		addl	$8, %eax
 8470 7a11 8B00     		movl	(%eax), %eax
 8471 7a13 890424   		movl	%eax, (%esp)
 8472 7a16 E8000000 		call	_strcmp
 8472      00
 8473 7a1b 85C0     		testl	%eax, %eax
 8474 7a1d 0F85DA03 		jne	L280
 8474      0000
 8475              	L281:
3550:mtk_resgenerator.cpp ****         {
3551:mtk_resgenerator.cpp ****             U16 nType;
3552:mtk_resgenerator.cpp ****             S8 upperFileName[MAX_FILENAME_LEN];
3553:mtk_resgenerator.cpp **** 
3554:mtk_resgenerator.cpp ****             dest_file = fopen(argv[4], "wb");
 8477              	LM621:
 8478              	LBB76:
 8479 7a23 C7442404 		movl	$LC29, 4(%esp)
 8479      39090000 
 8480 7a2b 8B450C   		movl	12(%ebp), %eax
 8481 7a2e 83C010   		addl	$16, %eax
 8482 7a31 8B00     		movl	(%eax), %eax
 8483 7a33 890424   		movl	%eax, (%esp)
 8484 7a36 E8000000 		call	_fopen
 8484      00
 8485 7a3b A3000000 		movl	%eax, _dest_file
 8485      00
3555:mtk_resgenerator.cpp ****             if (dest_file == NULL){
 8487              	LM622:
 8488 7a40 833D0000 		cmpl	$0, _dest_file
 8488      000000
 8489 7a47 7526     		jne	L282
3556:mtk_resgenerator.cpp ****                 resultFailFlag = 1;
 8491              	LM623:
 8492 7a49 C7050000 		movl	$1, _resultFailFlag
 8492      00000100 
 8492      0000
3557:mtk_resgenerator.cpp ****                 RESGEN_LOG_V("dest_file could not open!");
 8494              	LM624:
 8495 7a53 C7442408 		movl	$LC268, 8(%esp)
 8495      9A730000 
 8496 7a5b C7442404 		movl	$LC1, 4(%esp)
 8496      3E000000 
 8497 7a63 C7042401 		movl	$1, (%esp)
 8497      000000
 8498 7a6a E8000000 		call	_reslog_adaptor_log
 8498      00
 8499              	L282:
3558:mtk_resgenerator.cpp ****             }
3559:mtk_resgenerator.cpp **** 
3560:mtk_resgenerator.cpp ****             toolFlag = 1;
GAS LISTING d:/MTK/MTK2503/MTK2503/11CW1418SP4_03_CORETEK03AE_11C_V1_GPRS_MMI/plutommi/Customer/ResGenerator/gcctmp/cc63daaa.s 			page 195


 8501              	LM625:
 8502 7a6f C7050000 		movl	$1, _toolFlag
 8502      00000100 
 8502      0000
3561:mtk_resgenerator.cpp ****             ToolPopulateInitial();
 8504              	LM626:
 8505 7a79 E8000000 		call	_ToolPopulateInitial
 8505      00
3562:mtk_resgenerator.cpp **** 
3563:mtk_resgenerator.cpp ****             strncpy(upperFileName, argv[3], MAX_FILENAME_LEN);
 8507              	LM627:
 8508 7a7e C7442408 		movl	$512, 8(%esp)
 8508      00020000 
 8509 7a86 8B450C   		movl	12(%ebp), %eax
 8510 7a89 83C00C   		addl	$12, %eax
 8511 7a8c 8B00     		movl	(%eax), %eax
 8512 7a8e 89442404 		movl	%eax, 4(%esp)
 8513 7a92 8D8568FA 		leal	-1432(%ebp), %eax
 8513      FFFF
 8514 7a98 890424   		movl	%eax, (%esp)
 8515 7a9b E8000000 		call	_strncpy
 8515      00
3564:mtk_resgenerator.cpp ****             str_upper(upperFileName, MAX_FILENAME_LEN);
 8517              	LM628:
 8518 7aa0 C7442404 		movl	$512, 4(%esp)
 8518      00020000 
 8519 7aa8 8D8568FA 		leal	-1432(%ebp), %eax
 8519      FFFF
 8520 7aae 890424   		movl	%eax, (%esp)
 8521 7ab1 E8000000 		call	_str_upper
 8521      00
3565:mtk_resgenerator.cpp **** 
3566:mtk_resgenerator.cpp **** #ifdef __MMI_RESOURCE_ENFB_SUPPORT__
3567:mtk_resgenerator.cpp ****             disableENFB = 1;
3568:mtk_resgenerator.cpp **** #endif
3569:mtk_resgenerator.cpp ****             if(strcmp(argv[2], "-i")==0)
 8523              	LM629:
 8524              	LBB77:
 8525 7ab6 C7442404 		movl	$LC265, 4(%esp)
 8525      91730000 
 8526 7abe 8B450C   		movl	12(%ebp), %eax
 8527 7ac1 83C008   		addl	$8, %eax
 8528 7ac4 8B00     		movl	(%eax), %eax
 8529 7ac6 890424   		movl	%eax, (%esp)
 8530 7ac9 E8000000 		call	_strcmp
 8530      00
 8531 7ace 85C0     		testl	%eax, %eax
 8532 7ad0 0F853501 		jne	L283
 8532      0000
3570:mtk_resgenerator.cpp ****             {
3571:mtk_resgenerator.cpp ****                 SetImageProcessData processData;
3572:mtk_resgenerator.cpp ****                 initImageProcessData(&processData);
 8534              	LM630:
 8535              	LBB78:
 8536 7ad6 8D8548F8 		leal	-1976(%ebp), %eax
 8536      FFFF
 8537 7adc 890424   		movl	%eax, (%esp)
GAS LISTING d:/MTK/MTK2503/MTK2503/11CW1418SP4_03_CORETEK03AE_11C_V1_GPRS_MMI/plutommi/Customer/ResGenerator/gcctmp/cc63daaa.s 			page 196


 8538 7adf E8000000 		call	_initImageProcessData
 8538      00
3573:mtk_resgenerator.cpp ****                 ResgenImageOutStream * outstream;
3574:mtk_resgenerator.cpp ****                 ImageOutStreamInit(&outstream);
 8540              	LM631:
 8541 7ae4 8D8574FC 		leal	-908(%ebp), %eax
 8541      FFFF
 8542 7aea 890424   		movl	%eax, (%esp)
 8543 7aed E8000000 		call	_ImageOutStreamInit
 8543      00
3575:mtk_resgenerator.cpp ****                 processData.outstream = outstream;
 8545              	LM632:
 8546 7af2 8B8574FC 		movl	-908(%ebp), %eax
 8546      FFFF
 8547 7af8 89854CFA 		movl	%eax, -1460(%ebp)
 8547      FFFF
3576:mtk_resgenerator.cpp **** 
3577:mtk_resgenerator.cpp ****                 if(Iload(upperFileName, SYSTEM_IMAGE, AUTO_TYPE, &processData) == MMI_TRUE)
 8549              	LM633:
 8550              	LBB79:
 8551 7afe 8D8548F8 		leal	-1976(%ebp), %eax
 8551      FFFF
 8552 7b04 8944240C 		movl	%eax, 12(%esp)
 8553 7b08 C7442408 		movl	$0, 8(%esp)
 8553      00000000 
 8554 7b10 C7442404 		movl	$0, 4(%esp)
 8554      00000000 
 8555 7b18 8D8568FA 		leal	-1432(%ebp), %eax
 8555      FFFF
 8556 7b1e 890424   		movl	%eax, (%esp)
 8557 7b21 E8000000 		call	_Iload
 8557      00
 8558 7b26 83F801   		cmpl	$1, %eax
 8559 7b29 0F85C200 		jne	L284
 8559      0000
3578:mtk_resgenerator.cpp ****                 {
3579:mtk_resgenerator.cpp ****                     resourceLoadResult = MMI_TRUE;
 8561              	LM634:
 8562              	LBB80:
 8563 7b2f C78584FD 		movl	$1, -636(%ebp)
 8563      FFFF0100 
 8563      0000
3580:mtk_resgenerator.cpp ****                     char *curr_output_data_filename = "temp_image";
 8565              	LM635:
 8566 7b39 C78544F8 		movl	$LC269, -1980(%ebp)
 8566      FFFFB473 
 8566      0000
3581:mtk_resgenerator.cpp ****                     FILE *output_data_file = NULL;
 8568              	LM636:
 8569 7b43 C78540F8 		movl	$0, -1984(%ebp)
 8569      FFFF0000 
 8569      0000
3582:mtk_resgenerator.cpp ****                     output_data_file = fopen(curr_output_data_filename, "ab");
 8571              	LM637:
 8572 7b4d C7442404 		movl	$LC270, 4(%esp)
 8572      BF730000 
 8573 7b55 8B8544F8 		movl	-1980(%ebp), %eax
GAS LISTING d:/MTK/MTK2503/MTK2503/11CW1418SP4_03_CORETEK03AE_11C_V1_GPRS_MMI/plutommi/Customer/ResGenerator/gcctmp/cc63daaa.s 			page 197


 8573      FFFF
 8574 7b5b 890424   		movl	%eax, (%esp)
 8575 7b5e E8000000 		call	_fopen
 8575      00
 8576 7b63 898540F8 		movl	%eax, -1984(%ebp)
 8576      FFFF
3583:mtk_resgenerator.cpp ****                     while (output_data_file == NULL)
 8578              	LM638:
 8579              	L285:
 8580 7b69 83BD40F8 		cmpl	$0, -1984(%ebp)
 8580      FFFF00
 8581 7b70 7402     		je	L287
 8582 7b72 EB2D     		jmp	L286
 8583              	L287:
3584:mtk_resgenerator.cpp ****                     {
3585:mtk_resgenerator.cpp ****                         Sleep(50);
 8585              	LM639:
 8586 7b74 C7042432 		movl	$50, (%esp)
 8586      000000
 8587 7b7b E8000000 		call	_Sleep@4
 8587      00
 8588 7b80 83EC04   		subl	$4, %esp
3586:mtk_resgenerator.cpp ****                         output_data_file = fopen(curr_output_data_filename, "ab");
 8590              	LM640:
 8591 7b83 C7442404 		movl	$LC270, 4(%esp)
 8591      BF730000 
 8592 7b8b 8B8544F8 		movl	-1980(%ebp), %eax
 8592      FFFF
 8593 7b91 890424   		movl	%eax, (%esp)
 8594 7b94 E8000000 		call	_fopen
 8594      00
 8595 7b99 898540F8 		movl	%eax, -1984(%ebp)
 8595      FFFF
 8596 7b9f EBC8     		jmp	L285
 8597              	L286:
3587:mtk_resgenerator.cpp ****                     }
3588:mtk_resgenerator.cpp **** 
3589:mtk_resgenerator.cpp ****                     ImageOutStreamOutputFile(outstream, output_data_file);
 8599              	LM641:
 8600 7ba1 8B8540F8 		movl	-1984(%ebp), %eax
 8600      FFFF
 8601 7ba7 89442404 		movl	%eax, 4(%esp)
 8602 7bab 8B8574FC 		movl	-908(%ebp), %eax
 8602      FFFF
 8603 7bb1 890424   		movl	%eax, (%esp)
 8604 7bb4 E8000000 		call	_ImageOutStreamOutputFile
 8604      00
3590:mtk_resgenerator.cpp ****                     ImageOutStreamDeinit(&outstream);
 8606              	LM642:
 8607 7bb9 8D8574FC 		leal	-908(%ebp), %eax
 8607      FFFF
 8608 7bbf 890424   		movl	%eax, (%esp)
 8609 7bc2 E8000000 		call	_ImageOutStreamDeinit
 8609      00
3591:mtk_resgenerator.cpp ****                     MYFCLOSE(output_data_file);
 8611              	LM643:
 8612 7bc7 83BD40F8 		cmpl	$0, -1984(%ebp)
GAS LISTING d:/MTK/MTK2503/MTK2503/11CW1418SP4_03_CORETEK03AE_11C_V1_GPRS_MMI/plutommi/Customer/ResGenerator/gcctmp/cc63daaa.s 			page 198


 8612      FFFF00
 8613 7bce 0F84AD00 		je	L291
 8613      0000
 8614 7bd4 8B8540F8 		movl	-1984(%ebp), %eax
 8614      FFFF
 8615 7bda 890424   		movl	%eax, (%esp)
 8616 7bdd E8000000 		call	_fclose
 8616      00
 8617 7be2 C78540F8 		movl	$0, -1984(%ebp)
 8617      FFFF0000 
 8617      0000
 8618              	LBE80:
 8619 7bec E9900000 		jmp	L291
 8619      00
 8620              	L284:
3592:mtk_resgenerator.cpp ****                 }
3593:mtk_resgenerator.cpp ****                 else
3594:mtk_resgenerator.cpp ****                 {
3595:mtk_resgenerator.cpp ****                     resourceLoadResult = MMI_FALSE;
 8622              	LM644:
 8623 7bf1 C78584FD 		movl	$0, -636(%ebp)
 8623      FFFF0000 
 8623      0000
3596:mtk_resgenerator.cpp ****                     ImageOutStreamDeinit(&outstream);					
 8625              	LM645:
 8626 7bfb 8D8574FC 		leal	-908(%ebp), %eax
 8626      FFFF
 8627 7c01 890424   		movl	%eax, (%esp)
 8628 7c04 E8000000 		call	_ImageOutStreamDeinit
 8628      00
 8629              	LBE79:
 8630              	LBE78:
 8631 7c09 EB76     		jmp	L291
 8632              	L283:
3597:mtk_resgenerator.cpp ****                 }
3598:mtk_resgenerator.cpp ****             }
3599:mtk_resgenerator.cpp ****             else if(strcmp(argv[2], "-a")==0)
 8634              	LM646:
 8635 7c0b C7442404 		movl	$LC266, 4(%esp)
 8635      94730000 
 8636 7c13 8B450C   		movl	12(%ebp), %eax
 8637 7c16 83C008   		addl	$8, %eax
 8638 7c19 8B00     		movl	(%eax), %eax
 8639 7c1b 890424   		movl	%eax, (%esp)
 8640 7c1e E8000000 		call	_strcmp
 8640      00
 8641 7c23 85C0     		testl	%eax, %eax
 8642 7c25 7520     		jne	L292
3600:mtk_resgenerator.cpp ****             {
3601:mtk_resgenerator.cpp ****                 resourceLoadResult = Aload(upperFileName, &nType);
 8644              	LM647:
 8645 7c27 8D8572FC 		leal	-910(%ebp), %eax
 8645      FFFF
 8646 7c2d 89442404 		movl	%eax, 4(%esp)
 8647 7c31 8D8568FA 		leal	-1432(%ebp), %eax
 8647      FFFF
 8648 7c37 890424   		movl	%eax, (%esp)
GAS LISTING d:/MTK/MTK2503/MTK2503/11CW1418SP4_03_CORETEK03AE_11C_V1_GPRS_MMI/plutommi/Customer/ResGenerator/gcctmp/cc63daaa.s 			page 199


 8649 7c3a E8000000 		call	_Aload
 8649      00
 8650 7c3f 898584FD 		movl	%eax, -636(%ebp)
 8650      FFFF
 8651 7c45 EB3A     		jmp	L291
 8652              	L292:
3602:mtk_resgenerator.cpp ****             }
3603:mtk_resgenerator.cpp ****             else if(strcmp(argv[2], "-F")==0)
 8654              	LM648:
 8655 7c47 C7442404 		movl	$LC267, 4(%esp)
 8655      97730000 
 8656 7c4f 8B450C   		movl	12(%ebp), %eax
 8657 7c52 83C008   		addl	$8, %eax
 8658 7c55 8B00     		movl	(%eax), %eax
 8659 7c57 890424   		movl	%eax, (%esp)
 8660 7c5a E8000000 		call	_strcmp
 8660      00
 8661 7c5f 85C0     		testl	%eax, %eax
 8662 7c61 751E     		jne	L291
3604:mtk_resgenerator.cpp ****             {
3605:mtk_resgenerator.cpp ****                 resourceLoadResult = Fload(upperFileName, &nType);
 8664              	LM649:
 8665 7c63 8D8572FC 		leal	-910(%ebp), %eax
 8665      FFFF
 8666 7c69 89442404 		movl	%eax, 4(%esp)
 8667 7c6d 8D8568FA 		leal	-1432(%ebp), %eax
 8667      FFFF
 8668 7c73 890424   		movl	%eax, (%esp)
 8669 7c76 E8000000 		call	_Fload
 8669      00
 8670 7c7b 898584FD 		movl	%eax, -636(%ebp)
 8670      FFFF
 8671              	L291:
3606:mtk_resgenerator.cpp ****             }
3607:mtk_resgenerator.cpp **** #ifdef __MMI_RESOURCE_ENFB_SUPPORT__
3608:mtk_resgenerator.cpp ****             disableENFB = 0;
3609:mtk_resgenerator.cpp **** #endif
3610:mtk_resgenerator.cpp ****             //ToolPopulateDone();
3611:mtk_resgenerator.cpp **** 
3612:mtk_resgenerator.cpp ****             if(dest_file != NULL)
 8673              	LM650:
 8674              	LBE77:
 8675 7c81 833D0000 		cmpl	$0, _dest_file
 8675      000000
 8676 7c88 740D     		je	L295
3613:mtk_resgenerator.cpp ****             {
3614:mtk_resgenerator.cpp ****                 fclose(dest_file);
 8678              	LM651:
 8679 7c8a A1000000 		movl	_dest_file, %eax
 8679      00
 8680 7c8f 890424   		movl	%eax, (%esp)
 8681 7c92 E8000000 		call	_fclose
 8681      00
 8682              	L295:
3615:mtk_resgenerator.cpp ****             }
3616:mtk_resgenerator.cpp **** 
3617:mtk_resgenerator.cpp ****             if(resultFailFlag==1 || resourceLoadResult != MMI_TRUE)
GAS LISTING d:/MTK/MTK2503/MTK2503/11CW1418SP4_03_CORETEK03AE_11C_V1_GPRS_MMI/plutommi/Customer/ResGenerator/gcctmp/cc63daaa.s 			page 200


 8684              	LM652:
 8685 7c97 833D0000 		cmpl	$1, _resultFailFlag
 8685      000001
 8686 7c9e 740E     		je	L297
 8687 7ca0 83BD84FD 		cmpl	$1, -636(%ebp)
 8687      FFFF01
 8688 7ca7 7505     		jne	L297
 8689 7ca9 E96B0100 		jmp	L302
 8689      00
 8690              	L297:
3618:mtk_resgenerator.cpp ****             {
3619:mtk_resgenerator.cpp ****                 if (strlen(argv[4]) > (SHELL_CMD_BUFLEN - 8))
 8692              	LM653:
 8693 7cae 8B450C   		movl	12(%ebp), %eax
 8694 7cb1 83C010   		addl	$16, %eax
 8695 7cb4 8B00     		movl	(%eax), %eax
 8696 7cb6 890424   		movl	%eax, (%esp)
 8697 7cb9 E8000000 		call	_strlen
 8697      00
 8698 7cbe 3D5C0200 		cmpl	$604, %eax
 8698      00
 8699 7cc3 7637     		jbe	L298
3620:mtk_resgenerator.cpp ****                 {
3621:mtk_resgenerator.cpp ****                     RESGEN_LOG_E("mtk_resgenerator.exe paramater error");
 8701              	LM654:
 8702 7cc5 C7442408 		movl	$LC271, 8(%esp)
 8702      E0730000 
 8703 7ccd C7442404 		movl	$LC1, 4(%esp)
 8703      3E000000 
 8704 7cd5 C7042403 		movl	$3, (%esp)
 8704      000000
 8705 7cdc E8000000 		call	_reslog_adaptor_log
 8705      00
3622:mtk_resgenerator.cpp ****                     sprintf(custpaclLog,"[ERR] mtk_resgenerator.exe paramater error\n");
 8707              	LM655:
 8708 7ce1 C7442404 		movl	$LC272, 4(%esp)
 8708      20740000 
 8709 7ce9 8D8578FC 		leal	-904(%ebp), %eax
 8709      FFFF
 8710 7cef 890424   		movl	%eax, (%esp)
 8711 7cf2 E8000000 		call	_sprintf
 8711      00
 8712 7cf7 E9D70000 		jmp	L299
 8712      00
 8713              	L298:
3623:mtk_resgenerator.cpp **** 
3624:mtk_resgenerator.cpp ****                 }
3625:mtk_resgenerator.cpp ****                 else
3626:mtk_resgenerator.cpp ****                 {
3627:mtk_resgenerator.cpp ****                     //sprintf(tempCommand, "del -F %s", argv[4]);
3628:mtk_resgenerator.cpp ****                     //system(tempCommand);
3629:mtk_resgenerator.cpp ****                     if(argv[2]!=NULL && argv[3]!=NULL && argv[3]!=NULL)
 8715              	LM656:
 8716 7cfc 8B450C   		movl	12(%ebp), %eax
 8717 7cff 83C008   		addl	$8, %eax
 8718 7d02 833800   		cmpl	$0, (%eax)
 8719 7d05 0F849600 		je	L300
GAS LISTING d:/MTK/MTK2503/MTK2503/11CW1418SP4_03_CORETEK03AE_11C_V1_GPRS_MMI/plutommi/Customer/ResGenerator/gcctmp/cc63daaa.s 			page 201


 8719      0000
 8720 7d0b 8B450C   		movl	12(%ebp), %eax
 8721 7d0e 83C00C   		addl	$12, %eax
 8722 7d11 833800   		cmpl	$0, (%eax)
 8723 7d14 0F848700 		je	L300
 8723      0000
 8724 7d1a 8B450C   		movl	12(%ebp), %eax
 8725 7d1d 83C00C   		addl	$12, %eax
 8726 7d20 833800   		cmpl	$0, (%eax)
 8727 7d23 747C     		je	L300
3630:mtk_resgenerator.cpp ****                     {
3631:mtk_resgenerator.cpp ****                         RESGEN_LOG_E("mtk_resgenerator.exe %s failed, can't load %s, no output to %
 8729              	LM657:
 8730 7d25 8B450C   		movl	12(%ebp), %eax
 8731 7d28 83C010   		addl	$16, %eax
 8732 7d2b 8B00     		movl	(%eax), %eax
 8733 7d2d 89442414 		movl	%eax, 20(%esp)
 8734 7d31 8B450C   		movl	12(%ebp), %eax
 8735 7d34 83C00C   		addl	$12, %eax
 8736 7d37 8B00     		movl	(%eax), %eax
 8737 7d39 89442410 		movl	%eax, 16(%esp)
 8738 7d3d 8B450C   		movl	12(%ebp), %eax
 8739 7d40 83C008   		addl	$8, %eax
 8740 7d43 8B00     		movl	(%eax), %eax
 8741 7d45 8944240C 		movl	%eax, 12(%esp)
 8742 7d49 C7442408 		movl	$LC273, 8(%esp)
 8742      60740000 
 8743 7d51 C7442404 		movl	$LC1, 4(%esp)
 8743      3E000000 
 8744 7d59 C7042403 		movl	$3, (%esp)
 8744      000000
 8745 7d60 E8000000 		call	_reslog_adaptor_log
 8745      00
3632:mtk_resgenerator.cpp ****                         sprintf(custpaclLog,"[ERR] mtk_resgenerator.exe %s failed, can't load %s, n
 8747              	LM658:
 8748 7d65 8B450C   		movl	12(%ebp), %eax
 8749 7d68 83C010   		addl	$16, %eax
 8750 7d6b 8B00     		movl	(%eax), %eax
 8751 7d6d 89442410 		movl	%eax, 16(%esp)
 8752 7d71 8B450C   		movl	12(%ebp), %eax
 8753 7d74 83C00C   		addl	$12, %eax
 8754 7d77 8B00     		movl	(%eax), %eax
 8755 7d79 8944240C 		movl	%eax, 12(%esp)
 8756 7d7d 8B450C   		movl	12(%ebp), %eax
 8757 7d80 83C008   		addl	$8, %eax
 8758 7d83 8B00     		movl	(%eax), %eax
 8759 7d85 89442408 		movl	%eax, 8(%esp)
 8760 7d89 C7442404 		movl	$LC274, 4(%esp)
 8760      A0740000 
 8761 7d91 8D8578FC 		leal	-904(%ebp), %eax
 8761      FFFF
 8762 7d97 890424   		movl	%eax, (%esp)
 8763 7d9a E8000000 		call	_sprintf
 8763      00
 8764 7d9f EB32     		jmp	L299
 8765              	L300:
3633:mtk_resgenerator.cpp ****                     }
GAS LISTING d:/MTK/MTK2503/MTK2503/11CW1418SP4_03_CORETEK03AE_11C_V1_GPRS_MMI/plutommi/Customer/ResGenerator/gcctmp/cc63daaa.s 			page 202


3634:mtk_resgenerator.cpp ****                     else
3635:mtk_resgenerator.cpp ****                     {
3636:mtk_resgenerator.cpp ****                         RESGEN_LOG_E("mtk_resgenerator.exe can't indentify the parameter, please ch
 8767              	LM659:
 8768 7da1 C7442408 		movl	$LC275, 8(%esp)
 8768      00750000 
 8769 7da9 C7442404 		movl	$LC1, 4(%esp)
 8769      3E000000 
 8770 7db1 C7042403 		movl	$3, (%esp)
 8770      000000
 8771 7db8 E8000000 		call	_reslog_adaptor_log
 8771      00
3637:mtk_resgenerator.cpp ****                         sprintf(custpaclLog,"[ERR] mtk_resgenerator.exe can't indentify the paramet
 8773              	LM660:
 8774 7dbd C7442404 		movl	$LC276, 4(%esp)
 8774      80750000 
 8775 7dc5 8D8578FC 		leal	-904(%ebp), %eax
 8775      FFFF
 8776 7dcb 890424   		movl	%eax, (%esp)
 8777 7dce E8000000 		call	_sprintf
 8777      00
 8778              	L299:
3638:mtk_resgenerator.cpp ****                     }
3639:mtk_resgenerator.cpp ****                 }
3640:mtk_resgenerator.cpp ****                 writeLogToFile(CUSTPACL_LOG_FILE_NAME,custpaclLog,0);
 8780              	LM661:
 8781 7dd3 C7442408 		movl	$0, 8(%esp)
 8781      00000000 
 8782 7ddb 8D8578FC 		leal	-904(%ebp), %eax
 8782      FFFF
 8783 7de1 89442404 		movl	%eax, 4(%esp)
 8784 7de5 C704247A 		movl	$LC263, (%esp)
 8784      730000
 8785 7dec E83FE8FF 		call	__Z14writeLogToFilePcS_i
 8785      FF
3641:mtk_resgenerator.cpp ****                 exit(2);
 8787              	LM662:
 8788 7df1 C7042402 		movl	$2, (%esp)
 8788      000000
 8789 7df8 E8000000 		call	_exit
 8789      00
 8790              	L280:
3642:mtk_resgenerator.cpp ****             }
3643:mtk_resgenerator.cpp ****         }
3644:mtk_resgenerator.cpp ****         else
3645:mtk_resgenerator.cpp ****         {
3646:mtk_resgenerator.cpp ****             RESGEN_LOG_E("Usage: mtk_resgenerator.exe -f [-i or -a] ImageFilename OutputFilename");
 8792              	LM663:
 8793              	LBE76:
 8794 7dfd C7442408 		movl	$LC277, 8(%esp)
 8794      00760000 
 8795 7e05 C7442404 		movl	$LC1, 4(%esp)
 8795      3E000000 
 8796 7e0d C7042403 		movl	$3, (%esp)
 8796      000000
 8797 7e14 E8000000 		call	_reslog_adaptor_log
 8797      00
GAS LISTING d:/MTK/MTK2503/MTK2503/11CW1418SP4_03_CORETEK03AE_11C_V1_GPRS_MMI/plutommi/Customer/ResGenerator/gcctmp/cc63daaa.s 			page 203


 8798              	L302:
3647:mtk_resgenerator.cpp ****         }
3648:mtk_resgenerator.cpp **** 
3649:mtk_resgenerator.cpp ****         return 1;
 8800              	LM664:
 8801              	LBE75:
 8802 7e19 C7853CF8 		movl	$1, -1988(%ebp)
 8802      FFFF0100 
 8802      0000
 8803 7e23 E9AD0300 		jmp	L274
 8803      00
 8804              	L279:
3650:mtk_resgenerator.cpp ****     }
3651:mtk_resgenerator.cpp **** 
3652:mtk_resgenerator.cpp ****     if(argc==3 || argc==4)
 8806              	LM665:
 8807              	LBE74:
 8808              	LBE73:
 8809              	LBB81:
 8810 7e28 837D0803 		cmpl	$3, 8(%ebp)
 8811 7e2c 740B     		je	L304
 8812 7e2e 837D0804 		cmpl	$4, 8(%ebp)
 8813 7e32 7405     		je	L304
 8814 7e34 E9AC0100 		jmp	L303
 8814      00
 8815              	L304:
3653:mtk_resgenerator.cpp ****     {
3654:mtk_resgenerator.cpp ****         if(strcmp(argv[1], "-g")==0 && strcmp(argv[2], "-x")==0)
 8817              	LM666:
 8818              	LBB82:
 8819              	LBB83:
 8820 7e39 C7442404 		movl	$LC278, 4(%esp)
 8820      47760000 
 8821 7e41 8B450C   		movl	12(%ebp), %eax
 8822 7e44 83C004   		addl	$4, %eax
 8823 7e47 8B00     		movl	(%eax), %eax
 8824 7e49 890424   		movl	%eax, (%esp)
 8825 7e4c E8000000 		call	_strcmp
 8825      00
 8826 7e51 85C0     		testl	%eax, %eax
 8827 7e53 7552     		jne	L305
 8828 7e55 C7442404 		movl	$LC279, 4(%esp)
 8828      4A760000 
 8829 7e5d 8B450C   		movl	12(%ebp), %eax
 8830 7e60 83C008   		addl	$8, %eax
 8831 7e63 8B00     		movl	(%eax), %eax
 8832 7e65 890424   		movl	%eax, (%esp)
 8833 7e68 E8000000 		call	_strcmp
 8833      00
 8834 7e6d 85C0     		testl	%eax, %eax
 8835 7e6f 7536     		jne	L305
3655:mtk_resgenerator.cpp ****         {
3656:mtk_resgenerator.cpp ****             if(argc==4 && strcmp(argv[3], "-c")==0)
 8837              	LM667:
 8838 7e71 837D0804 		cmpl	$4, 8(%ebp)
 8839 7e75 7526     		jne	L306
 8840 7e77 C7442404 		movl	$LC280, 4(%esp)
GAS LISTING d:/MTK/MTK2503/MTK2503/11CW1418SP4_03_CORETEK03AE_11C_V1_GPRS_MMI/plutommi/Customer/ResGenerator/gcctmp/cc63daaa.s 			page 204


 8840      4D760000 
 8841 7e7f 8B450C   		movl	12(%ebp), %eax
 8842 7e82 83C00C   		addl	$12, %eax
 8843 7e85 8B00     		movl	(%eax), %eax
 8844 7e87 890424   		movl	%eax, (%esp)
 8845 7e8a E8000000 		call	_strcmp
 8845      00
 8846 7e8f 85C0     		testl	%eax, %eax
 8847 7e91 750A     		jne	L306
3657:mtk_resgenerator.cpp ****             {
3658:mtk_resgenerator.cpp ****                 /* -c is mean: clean unzip file anyway */
3659:mtk_resgenerator.cpp ****                 g_is_clean = MMI_TRUE;
 8849              	LM668:
 8850 7e93 C7050000 		movl	$1, _g_is_clean
 8850      00000100 
 8850      0000
 8851              	L306:
3660:mtk_resgenerator.cpp ****             }
3661:mtk_resgenerator.cpp ****             TRACETIME;
3662:mtk_resgenerator.cpp **** 		#ifndef __POPULATE_NO_IMAGE_DATA__
3663:mtk_resgenerator.cpp ****             UnzipImage();
3664:mtk_resgenerator.cpp **** 		#endif
3665:mtk_resgenerator.cpp ****             UnzipAudio();
 8853              	LM669:
 8854 7e9d E8688BFF 		call	__Z10UnzipAudiov
 8854      FF
 8855 7ea2 E93E0100 		jmp	L303
 8855      00
 8856              	L305:
3666:mtk_resgenerator.cpp ****             TRACETIME;
3667:mtk_resgenerator.cpp ****         }
3668:mtk_resgenerator.cpp **** #ifdef __REGEN_INTERNAL_BATCHED__
3669:mtk_resgenerator.cpp ****         else if(argc==3 && strcmp(argv[1], "-b")==0 ){
 8858              	LM670:
 8859              	LBB84:
 8860              	LBB85:
 8861 7ea7 837D0803 		cmpl	$3, 8(%ebp)
 8862 7eab 0F850901 		jne	L308
 8862      0000
 8863 7eb1 C7442404 		movl	$LC281, 4(%esp)
 8863      50760000 
 8864 7eb9 8B450C   		movl	12(%ebp), %eax
 8865 7ebc 83C004   		addl	$4, %eax
 8866 7ebf 8B00     		movl	(%eax), %eax
 8867 7ec1 890424   		movl	%eax, (%esp)
 8868 7ec4 E8000000 		call	_strcmp
 8868      00
 8869 7ec9 85C0     		testl	%eax, %eax
 8870 7ecb 0F85E900 		jne	L308
 8870      0000
3670:mtk_resgenerator.cpp ****             if(argv[2]!=NULL){
 8872              	LM671:
 8873 7ed1 8B450C   		movl	12(%ebp), %eax
 8874              	LBB86:
 8875              	LBB87:
 8876 7ed4 83C008   		addl	$8, %eax
 8877 7ed7 833800   		cmpl	$0, (%eax)
GAS LISTING d:/MTK/MTK2503/MTK2503/11CW1418SP4_03_CORETEK03AE_11C_V1_GPRS_MMI/plutommi/Customer/ResGenerator/gcctmp/cc63daaa.s 			page 205


 8878 7eda 0F84B300 		je	L309
 8878      0000
3671:mtk_resgenerator.cpp ****                 int batchedResgenResult = 0;
 8880              	LM672:
 8881              	LBB88:
 8882 7ee0 C78540F8 		movl	$0, -1984(%ebp)
 8882      FFFF0000 
 8882      0000
3672:mtk_resgenerator.cpp ****                 BatchedResFileGenService *batchedResFileGenerator = new BatchedResFileGenService();
 8884              	LM673:
 8885 7eea C7042401 		movl	$1, (%esp)
 8885      000000
 8886 7ef1 E8000000 		call	__Znwj
 8886      00
 8887 7ef6 898544F8 		movl	%eax, -1980(%ebp)
 8887      FFFF
 8888              	L310:
3673:mtk_resgenerator.cpp ****                 batchedResgenResult=batchedResFileGenerator->generateResource(argv[2]);
 8890              	LM674:
 8891 7efc 8B450C   		movl	12(%ebp), %eax
 8892 7eff 83C008   		addl	$8, %eax
 8893 7f02 8B00     		movl	(%eax), %eax
 8894 7f04 89442404 		movl	%eax, 4(%esp)
 8895 7f08 8B8544F8 		movl	-1980(%ebp), %eax
 8895      FFFF
 8896 7f0e 890424   		movl	%eax, (%esp)
 8897 7f11 E8000000 		call	__ZN24BatchedResFileGenService16generateResourceEPc
 8897      00
 8898 7f16 898540F8 		movl	%eax, -1984(%ebp)
 8898      FFFF
3674:mtk_resgenerator.cpp ****                 delete batchedResFileGenerator; 
 8900              	LM675:
 8901 7f1c 8B8544F8 		movl	-1980(%ebp), %eax
 8901      FFFF
 8902 7f22 890424   		movl	%eax, (%esp)
 8903 7f25 E8000000 		call	__ZdlPv
 8903      00
3675:mtk_resgenerator.cpp **** 
3676:mtk_resgenerator.cpp ****                 if(batchedResgenResult==0){
 8905              	LM676:
 8906 7f2a 83BD40F8 		cmpl	$0, -1984(%ebp)
 8906      FFFF00
 8907 7f31 7535     		jne	L312
3677:mtk_resgenerator.cpp ****                     RESGEN_LOG_V("Batched Resgen finished successfully");
 8909              	LM677:
 8910 7f33 C7442408 		movl	$LC282, 8(%esp)
 8910      60760000 
 8911 7f3b C7442404 		movl	$LC1, 4(%esp)
 8911      3E000000 
 8912 7f43 C7042401 		movl	$1, (%esp)
 8912      000000
 8913 7f4a E8000000 		call	_reslog_adaptor_log
 8913      00
3678:mtk_resgenerator.cpp ****                     g_error = 1;
 8915              	LM678:
 8916 7f4f C7051000 		movl	$1, _g_error
 8916      00000100 
GAS LISTING d:/MTK/MTK2503/MTK2503/11CW1418SP4_03_CORETEK03AE_11C_V1_GPRS_MMI/plutommi/Customer/ResGenerator/gcctmp/cc63daaa.s 			page 206


 8916      0000
3679:mtk_resgenerator.cpp ****                     return 1;
 8918              	LM679:
 8919 7f59 C7853CF8 		movl	$1, -1988(%ebp)
 8919      FFFF0100 
 8919      0000
 8920 7f63 E96D0200 		jmp	L274
 8920      00
 8921              	L312:
3680:mtk_resgenerator.cpp ****                 }else{
3681:mtk_resgenerator.cpp ****                     RESGEN_LOG_E("Batched Resgen failed");
 8923              	LM680:
 8924 7f68 C7442408 		movl	$LC283, 8(%esp)
 8924      85760000 
 8925 7f70 C7442404 		movl	$LC1, 4(%esp)
 8925      3E000000 
 8926 7f78 C7042403 		movl	$3, (%esp)
 8926      000000
 8927 7f7f E8000000 		call	_reslog_adaptor_log
 8927      00
3682:mtk_resgenerator.cpp ****                     return 2;
 8929              	LM681:
 8930 7f84 C7853CF8 		movl	$2, -1988(%ebp)
 8930      FFFF0200 
 8930      0000
 8931 7f8e E9420200 		jmp	L274
 8931      00
 8932              	L309:
3683:mtk_resgenerator.cpp ****                 }
3684:mtk_resgenerator.cpp ****             }else{
3685:mtk_resgenerator.cpp ****                 fprintf(stderr, "Usage: mtk_resgenerator.exe -b [filename]\n");
 8934              	LM682:
 8935              	LBE88:
 8936 7f93 C7442404 		movl	$LC284, 4(%esp)
 8936      A0760000 
 8937 7f9b A1000000 		movl	__imp___iob, %eax
 8937      00
 8938 7fa0 83C040   		addl	$64, %eax
 8939 7fa3 890424   		movl	%eax, (%esp)
 8940 7fa6 E8000000 		call	_fprintf
 8940      00
3686:mtk_resgenerator.cpp ****                 return 0;
 8942              	LM683:
 8943 7fab C7853CF8 		movl	$0, -1988(%ebp)
 8943      FFFF0000 
 8943      0000
 8944 7fb5 E91B0200 		jmp	L274
 8944      00
 8945              	L308:
3687:mtk_resgenerator.cpp ****             }
3688:mtk_resgenerator.cpp ****         }
3689:mtk_resgenerator.cpp **** 
3690:mtk_resgenerator.cpp **** #endif //__REGEN_INTERNAL_BATCHED__
3691:mtk_resgenerator.cpp ****         else
3692:mtk_resgenerator.cpp ****         {
3693:mtk_resgenerator.cpp ****             RESGEN_LOG_E("Usage: mtk_resgenerator.exe -g -x");
 8947              	LM684:
GAS LISTING d:/MTK/MTK2503/MTK2503/11CW1418SP4_03_CORETEK03AE_11C_V1_GPRS_MMI/plutommi/Customer/ResGenerator/gcctmp/cc63daaa.s 			page 207


 8948              	LBE87:
 8949              	LBE86:
 8950 7fba C7442408 		movl	$LC285, 8(%esp)
 8950      E0760000 
 8951 7fc2 C7442404 		movl	$LC1, 4(%esp)
 8951      3E000000 
 8952 7fca C7042403 		movl	$3, (%esp)
 8952      000000
 8953 7fd1 E8000000 		call	_reslog_adaptor_log
 8953      00
3694:mtk_resgenerator.cpp ****             return 0;
 8955              	LM685:
 8956 7fd6 C7853CF8 		movl	$0, -1988(%ebp)
 8956      FFFF0000 
 8956      0000
 8957 7fe0 E9F00100 		jmp	L274
 8957      00
 8958              	L303:
3695:mtk_resgenerator.cpp ****         }
3696:mtk_resgenerator.cpp ****     }
3697:mtk_resgenerator.cpp **** 
3698:mtk_resgenerator.cpp ****     if((argc==2 || argc==3 || argc==4) && strcmp(argv[1], "-g")==0)
 8960              	LM686:
 8961              	LBE85:
 8962              	LBE84:
 8963              	LBE83:
 8964              	LBE82:
 8965              	LBE81:
 8966 7fe5 837D0802 		cmpl	$2, 8(%ebp)
 8967 7fe9 7411     		je	L317
 8968 7feb 837D0803 		cmpl	$3, 8(%ebp)
 8969 7fef 740B     		je	L317
 8970 7ff1 837D0804 		cmpl	$4, 8(%ebp)
 8971 7ff5 7405     		je	L317
 8972 7ff7 E9B30100 		jmp	L316
 8972      00
 8973              	L317:
 8974 7ffc C7442404 		movl	$LC278, 4(%esp)
 8974      47760000 
 8975 8004 8B450C   		movl	12(%ebp), %eax
 8976 8007 83C004   		addl	$4, %eax
 8977 800a 8B00     		movl	(%eax), %eax
 8978 800c 890424   		movl	%eax, (%esp)
 8979 800f E8000000 		call	_strcmp
 8979      00
 8980 8014 85C0     		testl	%eax, %eax
 8981 8016 0F859301 		jne	L316
 8981      0000
3699:mtk_resgenerator.cpp ****     {
3700:mtk_resgenerator.cpp ****         /* Set program exit */
3701:mtk_resgenerator.cpp ****         atexit(resgen_on_exit);
 8983              	LM687:
 8984 801c C70424AC 		movl	$__Z14resgen_on_exitv, (%esp)
 8984      650000
 8985 8023 E8000000 		call	_atexit
 8985      00
3702:mtk_resgenerator.cpp **** 
GAS LISTING d:/MTK/MTK2503/MTK2503/11CW1418SP4_03_CORETEK03AE_11C_V1_GPRS_MMI/plutommi/Customer/ResGenerator/gcctmp/cc63daaa.s 			page 208


3703:mtk_resgenerator.cpp **** 
3704:mtk_resgenerator.cpp ****         RESGEN_LOG_V("MediaTek Resource Generate System 0.1");
 8987              	LM688:
 8988 8028 C7442408 		movl	$LC286, 8(%esp)
 8988      20770000 
 8989 8030 C7442404 		movl	$LC1, 4(%esp)
 8989      3E000000 
 8990 8038 C7042401 		movl	$1, (%esp)
 8990      000000
 8991 803f E8000000 		call	_reslog_adaptor_log
 8991      00
3705:mtk_resgenerator.cpp **** 
3706:mtk_resgenerator.cpp ****         if(!CreateDirectory("debug", 0))
 8993              	LM689:
 8994 8044 C7442404 		movl	$0, 4(%esp)
 8994      00000000 
 8995 804c C7042446 		movl	$LC287, (%esp)
 8995      770000
 8996 8053 E8000000 		call	_CreateDirectoryA@8
 8996      00
 8997 8058 83EC08   		subl	$8, %esp
 8998 805b 85C0     		testl	%eax, %eax
 8999 805d 7527     		jne	L318
3707:mtk_resgenerator.cpp ****         {
3708:mtk_resgenerator.cpp ****             RESGEN_LOG_V("'debug' directory already exists! ret=[%d]", GetLastError());
 9001              	LM690:
 9002 805f E8000000 		call	_GetLastError@0
 9002      00
 9003 8064 8944240C 		movl	%eax, 12(%esp)
 9004 8068 C7442408 		movl	$LC288, 8(%esp)
 9004      60770000 
 9005 8070 C7442404 		movl	$LC1, 4(%esp)
 9005      3E000000 
 9006 8078 C7042401 		movl	$1, (%esp)
 9006      000000
 9007 807f E8000000 		call	_reslog_adaptor_log
 9007      00
 9008 8084 EB1C     		jmp	L319
 9009              	L318:
3709:mtk_resgenerator.cpp ****         }
3710:mtk_resgenerator.cpp ****         else
3711:mtk_resgenerator.cpp ****         {
3712:mtk_resgenerator.cpp ****             RESGEN_LOG_V("'debug' directory is created!");            
 9011              	LM691:
 9012 8086 C7442408 		movl	$LC289, 8(%esp)
 9012      8B770000 
 9013 808e C7442404 		movl	$LC1, 4(%esp)
 9013      3E000000 
 9014 8096 C7042401 		movl	$1, (%esp)
 9014      000000
 9015 809d E8000000 		call	_reslog_adaptor_log
 9015      00
 9016              	L319:
3713:mtk_resgenerator.cpp ****         }
3714:mtk_resgenerator.cpp **** 
3715:mtk_resgenerator.cpp ****         if(argc==4 && strcmp(argv[3], "-r")==0)
 9018              	LM692:
GAS LISTING d:/MTK/MTK2503/MTK2503/11CW1418SP4_03_CORETEK03AE_11C_V1_GPRS_MMI/plutommi/Customer/ResGenerator/gcctmp/cc63daaa.s 			page 209


 9019 80a2 837D0804 		cmpl	$4, 8(%ebp)
 9020 80a6 7526     		jne	L320
 9021 80a8 C7442404 		movl	$LC290, 4(%esp)
 9021      A9770000 
 9022 80b0 8B450C   		movl	12(%ebp), %eax
 9023 80b3 83C00C   		addl	$12, %eax
 9024 80b6 8B00     		movl	(%eax), %eax
 9025 80b8 890424   		movl	%eax, (%esp)
 9026 80bb E8000000 		call	_strcmp
 9026      00
 9027 80c0 85C0     		testl	%eax, %eax
 9028 80c2 750A     		jne	L320
3716:mtk_resgenerator.cpp ****         {
3717:mtk_resgenerator.cpp ****             /* -r is mean: remake resource */
3718:mtk_resgenerator.cpp ****             g_is_log = MMI_FALSE;
 9030              	LM693:
 9031 80c4 C7050000 		movl	$0, _g_is_log
 9031      00000000 
 9031      0000
 9032              	L320:
3719:mtk_resgenerator.cpp ****         }
3720:mtk_resgenerator.cpp **** 
3721:mtk_resgenerator.cpp **** 
3722:mtk_resgenerator.cpp **** 
3723:mtk_resgenerator.cpp ****         /* ID Range Check */
3724:mtk_resgenerator.cpp ****         fprintf(stderr, "Resource ID range check old_last_menu=[%d], res_first=[%d] res_last=[%d].\
 9034              	LM694:
 9035 80ce C7442410 		movl	$44425, 16(%esp)
 9035      89AD0000 
 9036 80d6 C744240C 		movl	$3000, 12(%esp)
 9036      B80B0000 
 9037 80de C7442408 		movl	$1562, 8(%esp)
 9037      1A060000 
 9038 80e6 C7442404 		movl	$LC291, 4(%esp)
 9038      C0770000 
 9039 80ee A1000000 		movl	__imp___iob, %eax
 9039      00
 9040 80f3 83C040   		addl	$64, %eax
 9041 80f6 890424   		movl	%eax, (%esp)
 9042 80f9 E8000000 		call	_fprintf
 9042      00
3725:mtk_resgenerator.cpp ****         RESGEN_LOG_V("Resource ID range check old_last_menu=[%d], res_first=[%d] res_last=[%d].", M
 9044              	LM695:
 9045 80fe C7442414 		movl	$44425, 20(%esp)
 9045      89AD0000 
 9046 8106 C7442410 		movl	$3000, 16(%esp)
 9046      B80B0000 
 9047 810e C744240C 		movl	$1562, 12(%esp)
 9047      1A060000 
 9048 8116 C7442408 		movl	$LC292, 8(%esp)
 9048      20780000 
 9049 811e C7442404 		movl	$LC1, 4(%esp)
 9049      3E000000 
 9050 8126 C7042401 		movl	$1, (%esp)
 9050      000000
 9051 812d E8000000 		call	_reslog_adaptor_log
 9051      00
GAS LISTING d:/MTK/MTK2503/MTK2503/11CW1418SP4_03_CORETEK03AE_11C_V1_GPRS_MMI/plutommi/Customer/ResGenerator/gcctmp/cc63daaa.s 			page 210


3726:mtk_resgenerator.cpp ****         if (MENU_ITEM_END > RESOURCE_BASE_FIRST_VALUE)
3727:mtk_resgenerator.cpp ****         {
3728:mtk_resgenerator.cpp ****             fprintf(stderr, "Old menu ID more than RESOURCE_BASE_FIRST_VALUE, Please modify the num
3729:mtk_resgenerator.cpp ****             RESGEN_LOG_E("Old menu ID more than RESOURCE_BASE_FIRST_VALUE, Please modify the number
3730:mtk_resgenerator.cpp ****             exit(2);
3731:mtk_resgenerator.cpp ****         }
3732:mtk_resgenerator.cpp ****         if (RESOURCE_BASE_END_END > 0xFFFF)
3733:mtk_resgenerator.cpp ****         {
3734:mtk_resgenerator.cpp ****             fprintf(stderr, " RESOURCE_BASE total range overflow, more than 16bit. Please adjust th
3735:mtk_resgenerator.cpp ****             RESGEN_LOG_E(" RESOURCE_BASE total range overflow, more than 16bit, Please adjust the r
3736:mtk_resgenerator.cpp ****             exit(2);
3737:mtk_resgenerator.cpp ****         }
3738:mtk_resgenerator.cpp **** 
3739:mtk_resgenerator.cpp ****         TRACETIME;
3740:mtk_resgenerator.cpp **** 
3741:mtk_resgenerator.cpp ****         prepare3DMetaPopulation();
 9053              	LM696:
 9054 8132 E8F3EEFF 		call	__Z23prepare3DMetaPopulationv
 9054      FF
3742:mtk_resgenerator.cpp **** #ifndef __POPULATE_NO_STRING_DATA__
3743:mtk_resgenerator.cpp ****         InitStrPopulate();
3744:mtk_resgenerator.cpp **** #endif
3745:mtk_resgenerator.cpp ****         /* Resource population */
3746:mtk_resgenerator.cpp ****         RESGEN_LOG_V("Start resource population");
 9056              	LM697:
 9057 8137 C7442408 		movl	$LC297, 8(%esp)
 9057      6A780000 
 9058 813f C7442404 		movl	$LC1, 4(%esp)
 9058      3E000000 
 9059 8147 C7042401 		movl	$1, (%esp)
 9059      000000
 9060 814e E8000000 		call	_reslog_adaptor_log
 9060      00
3747:mtk_resgenerator.cpp **** 
3748:mtk_resgenerator.cpp **** #ifndef  __RESGEN_INTERNAL_OFFLINE__
3749:mtk_resgenerator.cpp ****         LegcayResPopController();
3750:mtk_resgenerator.cpp **** #else
3751:mtk_resgenerator.cpp ****         OfflineResPopController();
 9062              	LM698:
 9063 8153 E8BCE9FF 		call	__Z23OfflineResPopControllerv
 9063      FF
3752:mtk_resgenerator.cpp **** #endif
3753:mtk_resgenerator.cpp ****         /* Image resource generation */
3754:mtk_resgenerator.cpp **** #ifndef __POPULATE_NO_IMAGE_DATA__
3755:mtk_resgenerator.cpp **** 
3756:mtk_resgenerator.cpp ****         PopulateImageSearch();		
3757:mtk_resgenerator.cpp ****         GenerateImageResFile();
3758:mtk_resgenerator.cpp **** #ifdef __MMI_RESOURCE_IMAGE_COMPRESS__
3759:mtk_resgenerator.cpp ****         GenerateImageZipList();
3760:mtk_resgenerator.cpp **** #endif /* (__MMI_RESOURCE_IMAGE_COMPRESS__) */
3761:mtk_resgenerator.cpp **** 
3762:mtk_resgenerator.cpp ****         GenerateImageMapFile();
3763:mtk_resgenerator.cpp ****         GenerateImageMapSearchFile();
3764:mtk_resgenerator.cpp **** #endif //__POPULATE_NO_IMAGE_DATA__
3765:mtk_resgenerator.cpp **** 
3766:mtk_resgenerator.cpp ****         /* Audio resource generation */
3767:mtk_resgenerator.cpp ****         PopulateAudioSearch();
GAS LISTING d:/MTK/MTK2503/MTK2503/11CW1418SP4_03_CORETEK03AE_11C_V1_GPRS_MMI/plutommi/Customer/ResGenerator/gcctmp/cc63daaa.s 			page 211


 9065              	LM699:
 9066 8158 E8BF8EFF 		call	__Z19PopulateAudioSearchv
 9066      FF
3768:mtk_resgenerator.cpp ****         GenerateAudioResFile();
 9068              	LM700:
 9069 815d E8629FFF 		call	__Z20GenerateAudioResFilev
 9069      FF
3769:mtk_resgenerator.cpp **** #ifdef __MMI_RESOURCE_AUDIO_COMPRESS__
3770:mtk_resgenerator.cpp ****         GenerateAudioZipList();
3771:mtk_resgenerator.cpp **** #endif /* (__MMI_RESOURCE_AUDIO_COMPRESS__) */
3772:mtk_resgenerator.cpp ****         GenerateAudioMapFile();
 9071              	LM701:
 9072 8162 E8D7A7FF 		call	__Z20GenerateAudioMapFilev
 9072      FF
3773:mtk_resgenerator.cpp ****         GenerateAudioMapSearchFile();
 9074              	LM702:
 9075 8167 E846ADFF 		call	__Z26GenerateAudioMapSearchFilev
 9075      FF
3774:mtk_resgenerator.cpp **** 
3775:mtk_resgenerator.cpp ****         /* Menu resource generation */
3776:mtk_resgenerator.cpp ****         GenerateMenuFile(CurrMaxMenuItemIndex);
 9077              	LM703:
 9078 816c 0FB70500 		movzwl	_CurrMaxMenuItemIndex, %eax
 9078      000000
 9079 8173 890424   		movl	%eax, (%esp)
 9080 8176 E8E5C4FF 		call	__Z16GenerateMenuFilet
 9080      FF
3777:mtk_resgenerator.cpp **** 
3778:mtk_resgenerator.cpp ****         /* Font resource generation */
3779:mtk_resgenerator.cpp ****         PopulateFontSearch();
 9082              	LM704:
 9083 817b E85A8FFF 		call	__Z18PopulateFontSearchv
 9083      FF
3780:mtk_resgenerator.cpp ****         GenerateFontResFile();
 9085              	LM705:
 9086 8180 E865A1FF 		call	__Z19GenerateFontResFilev
 9086      FF
3781:mtk_resgenerator.cpp ****         GenerateFontMapFile();
 9088              	LM706:
 9089 8185 E82CA9FF 		call	__Z19GenerateFontMapFilev
 9089      FF
3782:mtk_resgenerator.cpp ****         GenerateFontMapSearchFile();
 9091              	LM707:
 9092 818a E865AEFF 		call	__Z25GenerateFontMapSearchFilev
 9092      FF
3783:mtk_resgenerator.cpp **** 
3784:mtk_resgenerator.cpp ****         /* ENFB resource generation */
3785:mtk_resgenerator.cpp ****         GenerateENFBAssociatedIDFile();
 9094              	LM708:
 9095 818f E8AE82FF 		call	__Z28GenerateENFBAssociatedIDFilev
 9095      FF
3786:mtk_resgenerator.cpp **** 
3787:mtk_resgenerator.cpp **** #ifndef __POPULATE_NO_STRING_DATA__
3788:mtk_resgenerator.cpp ****         /* String resource generation */
3789:mtk_resgenerator.cpp ****         if (MergeStrRes() == 0)
3790:mtk_resgenerator.cpp ****         {
3791:mtk_resgenerator.cpp ****             RESGEN_LOG_V("GenerateStrResFile(): REF_LIST.txt created successfully");
GAS LISTING d:/MTK/MTK2503/MTK2503/11CW1418SP4_03_CORETEK03AE_11C_V1_GPRS_MMI/plutommi/Customer/ResGenerator/gcctmp/cc63daaa.s 			page 212


3792:mtk_resgenerator.cpp ****             if (GenerateStrResFile() ==0){
3793:mtk_resgenerator.cpp ****                 RESGEN_LOG_V("GenerateStrResFile(): Output: CustStrMap.c CustStrRes.c");
3794:mtk_resgenerator.cpp ****             }else{
3795:mtk_resgenerator.cpp ****                 RESGEN_LOG_E("GenerateStrResFile(): Failed to generate: CustStrMap.c CustStrRes.c")
3796:mtk_resgenerator.cpp ****             }
3797:mtk_resgenerator.cpp **** 			
3798:mtk_resgenerator.cpp ****         }else{
3799:mtk_resgenerator.cpp ****             RESGEN_LOG_E("GenerateStrResFile(): REF_LIST.txt creation failure");
3800:mtk_resgenerator.cpp ****         }
3801:mtk_resgenerator.cpp **** #endif //__POPULATE_NO_STRING_DATA__
3802:mtk_resgenerator.cpp **** 
3803:mtk_resgenerator.cpp **** #ifndef __POPULATE_NO_IMAGE_DATA__
3804:mtk_resgenerator.cpp ****         /* Image resource files sepatation */
3805:mtk_resgenerator.cpp ****         if(!split_img_data_file())
3806:mtk_resgenerator.cpp ****         {
3807:mtk_resgenerator.cpp ****             RESGEN_LOG_E("mtk_resgenerator.exe split custimgdatahw.h failed.");
3808:mtk_resgenerator.cpp ****             fprintf(stderr, "mtk_resgenerator.exe split custimgdatahw.h failed.\n");
3809:mtk_resgenerator.cpp ****         }
3810:mtk_resgenerator.cpp **** 
3811:mtk_resgenerator.cpp ****         CATResourceGeneration();
3812:mtk_resgenerator.cpp **** #endif //__POPULATE_NO_IMAGE_DATA__
3813:mtk_resgenerator.cpp ****         PostRegenOperations()
 9097              	LM709:
 9098 8194 E88FF1FF 		call	__Z19PostRegenOperationsv
 9098      FF
3814:mtk_resgenerator.cpp ****         TRACETIME;
3815:mtk_resgenerator.cpp **** 
3816:mtk_resgenerator.cpp ****         g_error = 1;
 9100              	LM710:
 9101 8199 C7051000 		movl	$1, _g_error
 9101      00000100 
 9101      0000
3817:mtk_resgenerator.cpp ****         return 1;
 9103              	LM711:
 9104 81a3 C7853CF8 		movl	$1, -1988(%ebp)
 9104      FFFF0100 
 9104      0000
 9105 81ad EB26     		jmp	L274
 9106              	L316:
3818:mtk_resgenerator.cpp ****     }
3819:mtk_resgenerator.cpp **** 
3820:mtk_resgenerator.cpp ****     RESGEN_LOG_E("Usage: mtk_resgenerator.exe -g");
 9108              	LM712:
 9109 81af C7442408 		movl	$LC298, 8(%esp)
 9109      A0780000 
 9110 81b7 C7442404 		movl	$LC1, 4(%esp)
 9110      3E000000 
 9111 81bf C7042403 		movl	$3, (%esp)
 9111      000000
 9112 81c6 E8000000 		call	_reslog_adaptor_log
 9112      00
3821:mtk_resgenerator.cpp ****     return 0;
 9114              	LM713:
 9115 81cb C7853CF8 		movl	$0, -1988(%ebp)
 9115      FFFF0000 
 9115      0000
3822:mtk_resgenerator.cpp **** }
GAS LISTING d:/MTK/MTK2503/MTK2503/11CW1418SP4_03_CORETEK03AE_11C_V1_GPRS_MMI/plutommi/Customer/ResGenerator/gcctmp/cc63daaa.s 			page 213


 9117              	LM714:
 9118              	L274:
 9119              	LBE71:
 9120 81d5 8B853CF8 		movl	-1988(%ebp), %eax
 9120      FFFF
 9121 81db 8B7DFC   		movl	-4(%ebp), %edi
 9122 81de C9       		leave
 9123 81df C3       		ret
 9148              	Lscope36:
 9156              		.align 2
 9161              	__Z41__static_initialization_and_destruction_0ii:
 9163              	LM715:
 9164 81e0 55       		pushl	%ebp
 9165 81e1 89E5     		movl	%esp, %ebp
 9166 81e3 83EC08   		subl	$8, %esp
 9168              	Ltext1:
   1:d:/MTK/MTK2503/MTK2503/11CW1418SP4_03_CORETEK03AE_11C_V1_GPRS_MMI/Tools/MinGW/include/c++/3.3.1/iostream **** // Standard iostream objects -*- C++ -*-
   2:d:/MTK/MTK2503/MTK2503/11CW1418SP4_03_CORETEK03AE_11C_V1_GPRS_MMI/Tools/MinGW/include/c++/3.3.1/iostream **** 
   3:d:/MTK/MTK2503/MTK2503/11CW1418SP4_03_CORETEK03AE_11C_V1_GPRS_MMI/Tools/MinGW/include/c++/3.3.1/iostream **** // Copyright (C) 1997, 1998, 1999, 2001, 2002 Free Software Foundation, Inc.
   4:d:/MTK/MTK2503/MTK2503/11CW1418SP4_03_CORETEK03AE_11C_V1_GPRS_MMI/Tools/MinGW/include/c++/3.3.1/iostream **** //
   5:d:/MTK/MTK2503/MTK2503/11CW1418SP4_03_CORETEK03AE_11C_V1_GPRS_MMI/Tools/MinGW/include/c++/3.3.1/iostream **** // This file is part of the GNU ISO C++ Library.  This library is free
   6:d:/MTK/MTK2503/MTK2503/11CW1418SP4_03_CORETEK03AE_11C_V1_GPRS_MMI/Tools/MinGW/include/c++/3.3.1/iostream **** // software; you can redistribute it and/or modify it under the
   7:d:/MTK/MTK2503/MTK2503/11CW1418SP4_03_CORETEK03AE_11C_V1_GPRS_MMI/Tools/MinGW/include/c++/3.3.1/iostream **** // terms of the GNU General Public License as published by the
   8:d:/MTK/MTK2503/MTK2503/11CW1418SP4_03_CORETEK03AE_11C_V1_GPRS_MMI/Tools/MinGW/include/c++/3.3.1/iostream **** // Free Software Foundation; either version 2, or (at your option)
   9:d:/MTK/MTK2503/MTK2503/11CW1418SP4_03_CORETEK03AE_11C_V1_GPRS_MMI/Tools/MinGW/include/c++/3.3.1/iostream **** // any later version.
  10:d:/MTK/MTK2503/MTK2503/11CW1418SP4_03_CORETEK03AE_11C_V1_GPRS_MMI/Tools/MinGW/include/c++/3.3.1/iostream **** 
  11:d:/MTK/MTK2503/MTK2503/11CW1418SP4_03_CORETEK03AE_11C_V1_GPRS_MMI/Tools/MinGW/include/c++/3.3.1/iostream **** // This library is distributed in the hope that it will be useful,
  12:d:/MTK/MTK2503/MTK2503/11CW1418SP4_03_CORETEK03AE_11C_V1_GPRS_MMI/Tools/MinGW/include/c++/3.3.1/iostream **** // but WITHOUT ANY WARRANTY; without even the implied warranty of
  13:d:/MTK/MTK2503/MTK2503/11CW1418SP4_03_CORETEK03AE_11C_V1_GPRS_MMI/Tools/MinGW/include/c++/3.3.1/iostream **** // MERCHANTABILITY or FITNESS FOR A PARTICULAR PURPOSE.  See the
  14:d:/MTK/MTK2503/MTK2503/11CW1418SP4_03_CORETEK03AE_11C_V1_GPRS_MMI/Tools/MinGW/include/c++/3.3.1/iostream **** // GNU General Public License for more details.
  15:d:/MTK/MTK2503/MTK2503/11CW1418SP4_03_CORETEK03AE_11C_V1_GPRS_MMI/Tools/MinGW/include/c++/3.3.1/iostream **** 
  16:d:/MTK/MTK2503/MTK2503/11CW1418SP4_03_CORETEK03AE_11C_V1_GPRS_MMI/Tools/MinGW/include/c++/3.3.1/iostream **** // You should have received a copy of the GNU General Public License along
  17:d:/MTK/MTK2503/MTK2503/11CW1418SP4_03_CORETEK03AE_11C_V1_GPRS_MMI/Tools/MinGW/include/c++/3.3.1/iostream **** // with this library; see the file COPYING.  If not, write to the Free
  18:d:/MTK/MTK2503/MTK2503/11CW1418SP4_03_CORETEK03AE_11C_V1_GPRS_MMI/Tools/MinGW/include/c++/3.3.1/iostream **** // Software Foundation, 59 Temple Place - Suite 330, Boston, MA 02111-1307,
  19:d:/MTK/MTK2503/MTK2503/11CW1418SP4_03_CORETEK03AE_11C_V1_GPRS_MMI/Tools/MinGW/include/c++/3.3.1/iostream **** // USA.
  20:d:/MTK/MTK2503/MTK2503/11CW1418SP4_03_CORETEK03AE_11C_V1_GPRS_MMI/Tools/MinGW/include/c++/3.3.1/iostream **** 
  21:d:/MTK/MTK2503/MTK2503/11CW1418SP4_03_CORETEK03AE_11C_V1_GPRS_MMI/Tools/MinGW/include/c++/3.3.1/iostream **** // As a special exception, you may use this file as part of a free software
  22:d:/MTK/MTK2503/MTK2503/11CW1418SP4_03_CORETEK03AE_11C_V1_GPRS_MMI/Tools/MinGW/include/c++/3.3.1/iostream **** // library without restriction.  Specifically, if other files instantiate
  23:d:/MTK/MTK2503/MTK2503/11CW1418SP4_03_CORETEK03AE_11C_V1_GPRS_MMI/Tools/MinGW/include/c++/3.3.1/iostream **** // templates or use macros or inline functions from this file, or you compile
  24:d:/MTK/MTK2503/MTK2503/11CW1418SP4_03_CORETEK03AE_11C_V1_GPRS_MMI/Tools/MinGW/include/c++/3.3.1/iostream **** // this file and link it with other files to produce an executable, this
  25:d:/MTK/MTK2503/MTK2503/11CW1418SP4_03_CORETEK03AE_11C_V1_GPRS_MMI/Tools/MinGW/include/c++/3.3.1/iostream **** // file does not by itself cause the resulting executable to be covered by
  26:d:/MTK/MTK2503/MTK2503/11CW1418SP4_03_CORETEK03AE_11C_V1_GPRS_MMI/Tools/MinGW/include/c++/3.3.1/iostream **** // the GNU General Public License.  This exception does not however
  27:d:/MTK/MTK2503/MTK2503/11CW1418SP4_03_CORETEK03AE_11C_V1_GPRS_MMI/Tools/MinGW/include/c++/3.3.1/iostream **** // invalidate any other reasons why the executable file might be covered by
  28:d:/MTK/MTK2503/MTK2503/11CW1418SP4_03_CORETEK03AE_11C_V1_GPRS_MMI/Tools/MinGW/include/c++/3.3.1/iostream **** // the GNU General Public License.
  29:d:/MTK/MTK2503/MTK2503/11CW1418SP4_03_CORETEK03AE_11C_V1_GPRS_MMI/Tools/MinGW/include/c++/3.3.1/iostream **** 
  30:d:/MTK/MTK2503/MTK2503/11CW1418SP4_03_CORETEK03AE_11C_V1_GPRS_MMI/Tools/MinGW/include/c++/3.3.1/iostream **** //
  31:d:/MTK/MTK2503/MTK2503/11CW1418SP4_03_CORETEK03AE_11C_V1_GPRS_MMI/Tools/MinGW/include/c++/3.3.1/iostream **** // ISO C++ 14882: 27.3  Standard iostream objects
  32:d:/MTK/MTK2503/MTK2503/11CW1418SP4_03_CORETEK03AE_11C_V1_GPRS_MMI/Tools/MinGW/include/c++/3.3.1/iostream **** //
  33:d:/MTK/MTK2503/MTK2503/11CW1418SP4_03_CORETEK03AE_11C_V1_GPRS_MMI/Tools/MinGW/include/c++/3.3.1/iostream **** 
  34:d:/MTK/MTK2503/MTK2503/11CW1418SP4_03_CORETEK03AE_11C_V1_GPRS_MMI/Tools/MinGW/include/c++/3.3.1/iostream **** /** @file iostream
  35:d:/MTK/MTK2503/MTK2503/11CW1418SP4_03_CORETEK03AE_11C_V1_GPRS_MMI/Tools/MinGW/include/c++/3.3.1/iostream ****  *  This is a Standard C++ Library header.  You should @c #include this header
  36:d:/MTK/MTK2503/MTK2503/11CW1418SP4_03_CORETEK03AE_11C_V1_GPRS_MMI/Tools/MinGW/include/c++/3.3.1/iostream ****  *  in your programs, rather than any of the "st[dl]_*.h" implementation files.
  37:d:/MTK/MTK2503/MTK2503/11CW1418SP4_03_CORETEK03AE_11C_V1_GPRS_MMI/Tools/MinGW/include/c++/3.3.1/iostream ****  */
  38:d:/MTK/MTK2503/MTK2503/11CW1418SP4_03_CORETEK03AE_11C_V1_GPRS_MMI/Tools/MinGW/include/c++/3.3.1/iostream **** 
  39:d:/MTK/MTK2503/MTK2503/11CW1418SP4_03_CORETEK03AE_11C_V1_GPRS_MMI/Tools/MinGW/include/c++/3.3.1/iostream **** #ifndef _CPP_IOSTREAM
  40:d:/MTK/MTK2503/MTK2503/11CW1418SP4_03_CORETEK03AE_11C_V1_GPRS_MMI/Tools/MinGW/include/c++/3.3.1/iostream **** #define _CPP_IOSTREAM	1
  41:d:/MTK/MTK2503/MTK2503/11CW1418SP4_03_CORETEK03AE_11C_V1_GPRS_MMI/Tools/MinGW/include/c++/3.3.1/iostream **** 
GAS LISTING d:/MTK/MTK2503/MTK2503/11CW1418SP4_03_CORETEK03AE_11C_V1_GPRS_MMI/plutommi/Customer/ResGenerator/gcctmp/cc63daaa.s 			page 214


  42:d:/MTK/MTK2503/MTK2503/11CW1418SP4_03_CORETEK03AE_11C_V1_GPRS_MMI/Tools/MinGW/include/c++/3.3.1/iostream **** #pragma GCC system_header
  43:d:/MTK/MTK2503/MTK2503/11CW1418SP4_03_CORETEK03AE_11C_V1_GPRS_MMI/Tools/MinGW/include/c++/3.3.1/iostream **** 
  44:d:/MTK/MTK2503/MTK2503/11CW1418SP4_03_CORETEK03AE_11C_V1_GPRS_MMI/Tools/MinGW/include/c++/3.3.1/iostream **** #include <bits/c++config.h>
  45:d:/MTK/MTK2503/MTK2503/11CW1418SP4_03_CORETEK03AE_11C_V1_GPRS_MMI/Tools/MinGW/include/c++/3.3.1/iostream **** #include <ostream>
  46:d:/MTK/MTK2503/MTK2503/11CW1418SP4_03_CORETEK03AE_11C_V1_GPRS_MMI/Tools/MinGW/include/c++/3.3.1/iostream **** #include <istream>
  47:d:/MTK/MTK2503/MTK2503/11CW1418SP4_03_CORETEK03AE_11C_V1_GPRS_MMI/Tools/MinGW/include/c++/3.3.1/iostream **** 
  48:d:/MTK/MTK2503/MTK2503/11CW1418SP4_03_CORETEK03AE_11C_V1_GPRS_MMI/Tools/MinGW/include/c++/3.3.1/iostream **** namespace std 
  49:d:/MTK/MTK2503/MTK2503/11CW1418SP4_03_CORETEK03AE_11C_V1_GPRS_MMI/Tools/MinGW/include/c++/3.3.1/iostream **** {
  50:d:/MTK/MTK2503/MTK2503/11CW1418SP4_03_CORETEK03AE_11C_V1_GPRS_MMI/Tools/MinGW/include/c++/3.3.1/iostream ****   /**
  51:d:/MTK/MTK2503/MTK2503/11CW1418SP4_03_CORETEK03AE_11C_V1_GPRS_MMI/Tools/MinGW/include/c++/3.3.1/iostream ****    *  @name Standard Stream Objects
  52:d:/MTK/MTK2503/MTK2503/11CW1418SP4_03_CORETEK03AE_11C_V1_GPRS_MMI/Tools/MinGW/include/c++/3.3.1/iostream ****    *
  53:d:/MTK/MTK2503/MTK2503/11CW1418SP4_03_CORETEK03AE_11C_V1_GPRS_MMI/Tools/MinGW/include/c++/3.3.1/iostream ****    *  The &lt;iostream&gt; header declares the eight <em>standard stream
  54:d:/MTK/MTK2503/MTK2503/11CW1418SP4_03_CORETEK03AE_11C_V1_GPRS_MMI/Tools/MinGW/include/c++/3.3.1/iostream ****    *  objects</em>.  For other declarations, see
  55:d:/MTK/MTK2503/MTK2503/11CW1418SP4_03_CORETEK03AE_11C_V1_GPRS_MMI/Tools/MinGW/include/c++/3.3.1/iostream ****    *  http://gcc.gnu.org/onlinedocs/libstdc++/27_io/howto.html#10 and the
  56:d:/MTK/MTK2503/MTK2503/11CW1418SP4_03_CORETEK03AE_11C_V1_GPRS_MMI/Tools/MinGW/include/c++/3.3.1/iostream ****    *  @link s27_2_iosfwd I/O forward declarations @endlink
  57:d:/MTK/MTK2503/MTK2503/11CW1418SP4_03_CORETEK03AE_11C_V1_GPRS_MMI/Tools/MinGW/include/c++/3.3.1/iostream ****    *
  58:d:/MTK/MTK2503/MTK2503/11CW1418SP4_03_CORETEK03AE_11C_V1_GPRS_MMI/Tools/MinGW/include/c++/3.3.1/iostream ****    *  They are required by default to cooperate with the global C library's
  59:d:/MTK/MTK2503/MTK2503/11CW1418SP4_03_CORETEK03AE_11C_V1_GPRS_MMI/Tools/MinGW/include/c++/3.3.1/iostream ****    *  @c FILE streams, and to be available during program startup and
  60:d:/MTK/MTK2503/MTK2503/11CW1418SP4_03_CORETEK03AE_11C_V1_GPRS_MMI/Tools/MinGW/include/c++/3.3.1/iostream ****    *  termination.  For more information, see the HOWTO linked to above.
  61:d:/MTK/MTK2503/MTK2503/11CW1418SP4_03_CORETEK03AE_11C_V1_GPRS_MMI/Tools/MinGW/include/c++/3.3.1/iostream ****   */
  62:d:/MTK/MTK2503/MTK2503/11CW1418SP4_03_CORETEK03AE_11C_V1_GPRS_MMI/Tools/MinGW/include/c++/3.3.1/iostream ****   //@{
  63:d:/MTK/MTK2503/MTK2503/11CW1418SP4_03_CORETEK03AE_11C_V1_GPRS_MMI/Tools/MinGW/include/c++/3.3.1/iostream ****   extern istream cin;		///< Linked to standard input
  64:d:/MTK/MTK2503/MTK2503/11CW1418SP4_03_CORETEK03AE_11C_V1_GPRS_MMI/Tools/MinGW/include/c++/3.3.1/iostream ****   extern ostream cout;		///< Linked to standard output
  65:d:/MTK/MTK2503/MTK2503/11CW1418SP4_03_CORETEK03AE_11C_V1_GPRS_MMI/Tools/MinGW/include/c++/3.3.1/iostream ****   extern ostream cerr;		///< Linked to standard error (unbuffered)
  66:d:/MTK/MTK2503/MTK2503/11CW1418SP4_03_CORETEK03AE_11C_V1_GPRS_MMI/Tools/MinGW/include/c++/3.3.1/iostream ****   extern ostream clog;		///< Linked to standard error (buffered)
  67:d:/MTK/MTK2503/MTK2503/11CW1418SP4_03_CORETEK03AE_11C_V1_GPRS_MMI/Tools/MinGW/include/c++/3.3.1/iostream **** 
  68:d:/MTK/MTK2503/MTK2503/11CW1418SP4_03_CORETEK03AE_11C_V1_GPRS_MMI/Tools/MinGW/include/c++/3.3.1/iostream **** #ifdef _GLIBCPP_USE_WCHAR_T
  69:d:/MTK/MTK2503/MTK2503/11CW1418SP4_03_CORETEK03AE_11C_V1_GPRS_MMI/Tools/MinGW/include/c++/3.3.1/iostream ****   extern wistream wcin;		///< Linked to standard input
  70:d:/MTK/MTK2503/MTK2503/11CW1418SP4_03_CORETEK03AE_11C_V1_GPRS_MMI/Tools/MinGW/include/c++/3.3.1/iostream ****   extern wostream wcout;	///< Linked to standard output
  71:d:/MTK/MTK2503/MTK2503/11CW1418SP4_03_CORETEK03AE_11C_V1_GPRS_MMI/Tools/MinGW/include/c++/3.3.1/iostream ****   extern wostream wcerr;	///< Linked to standard error (unbuffered)
  72:d:/MTK/MTK2503/MTK2503/11CW1418SP4_03_CORETEK03AE_11C_V1_GPRS_MMI/Tools/MinGW/include/c++/3.3.1/iostream ****   extern wostream wclog;	///< Linked to standard error (buffered)
  73:d:/MTK/MTK2503/MTK2503/11CW1418SP4_03_CORETEK03AE_11C_V1_GPRS_MMI/Tools/MinGW/include/c++/3.3.1/iostream **** #endif
  74:d:/MTK/MTK2503/MTK2503/11CW1418SP4_03_CORETEK03AE_11C_V1_GPRS_MMI/Tools/MinGW/include/c++/3.3.1/iostream ****   //@}
  75:d:/MTK/MTK2503/MTK2503/11CW1418SP4_03_CORETEK03AE_11C_V1_GPRS_MMI/Tools/MinGW/include/c++/3.3.1/iostream **** 
  76:d:/MTK/MTK2503/MTK2503/11CW1418SP4_03_CORETEK03AE_11C_V1_GPRS_MMI/Tools/MinGW/include/c++/3.3.1/iostream ****   // For construction of filebuffers for cout, cin, cerr, clog et. al.
  77:d:/MTK/MTK2503/MTK2503/11CW1418SP4_03_CORETEK03AE_11C_V1_GPRS_MMI/Tools/MinGW/include/c++/3.3.1/iostream ****   static ios_base::Init __ioinit;
 9170              	LM716:
 9171 81e6 817D0CFF 		cmpl	$65535, 12(%ebp)
 9171      FF0000
 9172 81ed 7512     		jne	L324
 9173 81ef 837D0801 		cmpl	$1, 8(%ebp)
 9174 81f3 750C     		jne	L324
 9175 81f5 C7042408 		movl	$__ZSt8__ioinit, (%esp)
 9175      000000
 9176 81fc E8000000 		call	__ZNSt8ios_base4InitC1Ev
 9176      00
 9177              	L324:
 9178 8201 817D0CFF 		cmpl	$65535, 12(%ebp)
 9178      FF0000
 9179 8208 7512     		jne	L323
 9180 820a 837D0800 		cmpl	$0, 8(%ebp)
 9181 820e 750C     		jne	L323
 9182 8210 C7042408 		movl	$__ZSt8__ioinit, (%esp)
 9182      000000
 9183 8217 E8000000 		call	__ZNSt8ios_base4InitD1Ev
 9183      00
 9184              	L323:
GAS LISTING d:/MTK/MTK2503/MTK2503/11CW1418SP4_03_CORETEK03AE_11C_V1_GPRS_MMI/plutommi/Customer/ResGenerator/gcctmp/cc63daaa.s 			page 215


 9185 821c C9       		leave
 9186 821d C3       		ret
 9187              	Lscope37:
 9189              		.section	.text$_ZSt6strchrPci,"x"
 9190              		.linkonce discard
 9191              		.align 2
 9195              	.globl __ZSt6strchrPci
 9197              	__ZSt6strchrPci:
 9199              	Ltext2:
   1:d:/MTK/MTK2503/MTK2503/11CW1418SP4_03_CORETEK03AE_11C_V1_GPRS_MMI/Tools/MinGW/include/c++/3.3.1/cstring **** // -*- C++ -*- forwarding header.
   2:d:/MTK/MTK2503/MTK2503/11CW1418SP4_03_CORETEK03AE_11C_V1_GPRS_MMI/Tools/MinGW/include/c++/3.3.1/cstring **** 
   3:d:/MTK/MTK2503/MTK2503/11CW1418SP4_03_CORETEK03AE_11C_V1_GPRS_MMI/Tools/MinGW/include/c++/3.3.1/cstring **** // Copyright (C) 1997, 1998, 1999, 2000, 2001, 2002
   4:d:/MTK/MTK2503/MTK2503/11CW1418SP4_03_CORETEK03AE_11C_V1_GPRS_MMI/Tools/MinGW/include/c++/3.3.1/cstring **** // Free Software Foundation, Inc.
   5:d:/MTK/MTK2503/MTK2503/11CW1418SP4_03_CORETEK03AE_11C_V1_GPRS_MMI/Tools/MinGW/include/c++/3.3.1/cstring **** //
   6:d:/MTK/MTK2503/MTK2503/11CW1418SP4_03_CORETEK03AE_11C_V1_GPRS_MMI/Tools/MinGW/include/c++/3.3.1/cstring **** // This file is part of the GNU ISO C++ Library.  This library is free
   7:d:/MTK/MTK2503/MTK2503/11CW1418SP4_03_CORETEK03AE_11C_V1_GPRS_MMI/Tools/MinGW/include/c++/3.3.1/cstring **** // software; you can redistribute it and/or modify it under the
   8:d:/MTK/MTK2503/MTK2503/11CW1418SP4_03_CORETEK03AE_11C_V1_GPRS_MMI/Tools/MinGW/include/c++/3.3.1/cstring **** // terms of the GNU General Public License as published by the
   9:d:/MTK/MTK2503/MTK2503/11CW1418SP4_03_CORETEK03AE_11C_V1_GPRS_MMI/Tools/MinGW/include/c++/3.3.1/cstring **** // Free Software Foundation; either version 2, or (at your option)
  10:d:/MTK/MTK2503/MTK2503/11CW1418SP4_03_CORETEK03AE_11C_V1_GPRS_MMI/Tools/MinGW/include/c++/3.3.1/cstring **** // any later version.
  11:d:/MTK/MTK2503/MTK2503/11CW1418SP4_03_CORETEK03AE_11C_V1_GPRS_MMI/Tools/MinGW/include/c++/3.3.1/cstring **** 
  12:d:/MTK/MTK2503/MTK2503/11CW1418SP4_03_CORETEK03AE_11C_V1_GPRS_MMI/Tools/MinGW/include/c++/3.3.1/cstring **** // This library is distributed in the hope that it will be useful,
  13:d:/MTK/MTK2503/MTK2503/11CW1418SP4_03_CORETEK03AE_11C_V1_GPRS_MMI/Tools/MinGW/include/c++/3.3.1/cstring **** // but WITHOUT ANY WARRANTY; without even the implied warranty of
  14:d:/MTK/MTK2503/MTK2503/11CW1418SP4_03_CORETEK03AE_11C_V1_GPRS_MMI/Tools/MinGW/include/c++/3.3.1/cstring **** // MERCHANTABILITY or FITNESS FOR A PARTICULAR PURPOSE.  See the
  15:d:/MTK/MTK2503/MTK2503/11CW1418SP4_03_CORETEK03AE_11C_V1_GPRS_MMI/Tools/MinGW/include/c++/3.3.1/cstring **** // GNU General Public License for more details.
  16:d:/MTK/MTK2503/MTK2503/11CW1418SP4_03_CORETEK03AE_11C_V1_GPRS_MMI/Tools/MinGW/include/c++/3.3.1/cstring **** 
  17:d:/MTK/MTK2503/MTK2503/11CW1418SP4_03_CORETEK03AE_11C_V1_GPRS_MMI/Tools/MinGW/include/c++/3.3.1/cstring **** // You should have received a copy of the GNU General Public License along
  18:d:/MTK/MTK2503/MTK2503/11CW1418SP4_03_CORETEK03AE_11C_V1_GPRS_MMI/Tools/MinGW/include/c++/3.3.1/cstring **** // with this library; see the file COPYING.  If not, write to the Free
  19:d:/MTK/MTK2503/MTK2503/11CW1418SP4_03_CORETEK03AE_11C_V1_GPRS_MMI/Tools/MinGW/include/c++/3.3.1/cstring **** // Software Foundation, 59 Temple Place - Suite 330, Boston, MA 02111-1307,
  20:d:/MTK/MTK2503/MTK2503/11CW1418SP4_03_CORETEK03AE_11C_V1_GPRS_MMI/Tools/MinGW/include/c++/3.3.1/cstring **** // USA.
  21:d:/MTK/MTK2503/MTK2503/11CW1418SP4_03_CORETEK03AE_11C_V1_GPRS_MMI/Tools/MinGW/include/c++/3.3.1/cstring **** 
  22:d:/MTK/MTK2503/MTK2503/11CW1418SP4_03_CORETEK03AE_11C_V1_GPRS_MMI/Tools/MinGW/include/c++/3.3.1/cstring **** // As a special exception, you may use this file as part of a free software
  23:d:/MTK/MTK2503/MTK2503/11CW1418SP4_03_CORETEK03AE_11C_V1_GPRS_MMI/Tools/MinGW/include/c++/3.3.1/cstring **** // library without restriction.  Specifically, if other files instantiate
  24:d:/MTK/MTK2503/MTK2503/11CW1418SP4_03_CORETEK03AE_11C_V1_GPRS_MMI/Tools/MinGW/include/c++/3.3.1/cstring **** // templates or use macros or inline functions from this file, or you compile
  25:d:/MTK/MTK2503/MTK2503/11CW1418SP4_03_CORETEK03AE_11C_V1_GPRS_MMI/Tools/MinGW/include/c++/3.3.1/cstring **** // this file and link it with other files to produce an executable, this
  26:d:/MTK/MTK2503/MTK2503/11CW1418SP4_03_CORETEK03AE_11C_V1_GPRS_MMI/Tools/MinGW/include/c++/3.3.1/cstring **** // file does not by itself cause the resulting executable to be covered by
  27:d:/MTK/MTK2503/MTK2503/11CW1418SP4_03_CORETEK03AE_11C_V1_GPRS_MMI/Tools/MinGW/include/c++/3.3.1/cstring **** // the GNU General Public License.  This exception does not however
  28:d:/MTK/MTK2503/MTK2503/11CW1418SP4_03_CORETEK03AE_11C_V1_GPRS_MMI/Tools/MinGW/include/c++/3.3.1/cstring **** // invalidate any other reasons why the executable file might be covered by
  29:d:/MTK/MTK2503/MTK2503/11CW1418SP4_03_CORETEK03AE_11C_V1_GPRS_MMI/Tools/MinGW/include/c++/3.3.1/cstring **** // the GNU General Public License.
  30:d:/MTK/MTK2503/MTK2503/11CW1418SP4_03_CORETEK03AE_11C_V1_GPRS_MMI/Tools/MinGW/include/c++/3.3.1/cstring **** 
  31:d:/MTK/MTK2503/MTK2503/11CW1418SP4_03_CORETEK03AE_11C_V1_GPRS_MMI/Tools/MinGW/include/c++/3.3.1/cstring **** //
  32:d:/MTK/MTK2503/MTK2503/11CW1418SP4_03_CORETEK03AE_11C_V1_GPRS_MMI/Tools/MinGW/include/c++/3.3.1/cstring **** // ISO C++ 14882: 20.4.6  C library
  33:d:/MTK/MTK2503/MTK2503/11CW1418SP4_03_CORETEK03AE_11C_V1_GPRS_MMI/Tools/MinGW/include/c++/3.3.1/cstring **** //
  34:d:/MTK/MTK2503/MTK2503/11CW1418SP4_03_CORETEK03AE_11C_V1_GPRS_MMI/Tools/MinGW/include/c++/3.3.1/cstring **** 
  35:d:/MTK/MTK2503/MTK2503/11CW1418SP4_03_CORETEK03AE_11C_V1_GPRS_MMI/Tools/MinGW/include/c++/3.3.1/cstring **** /** @file cstring
  36:d:/MTK/MTK2503/MTK2503/11CW1418SP4_03_CORETEK03AE_11C_V1_GPRS_MMI/Tools/MinGW/include/c++/3.3.1/cstring ****  *  This is a Standard C++ Library file.  You should @c #include this file
  37:d:/MTK/MTK2503/MTK2503/11CW1418SP4_03_CORETEK03AE_11C_V1_GPRS_MMI/Tools/MinGW/include/c++/3.3.1/cstring ****  *  in your programs, rather than any of the "*.h" implementation files.
  38:d:/MTK/MTK2503/MTK2503/11CW1418SP4_03_CORETEK03AE_11C_V1_GPRS_MMI/Tools/MinGW/include/c++/3.3.1/cstring ****  *
  39:d:/MTK/MTK2503/MTK2503/11CW1418SP4_03_CORETEK03AE_11C_V1_GPRS_MMI/Tools/MinGW/include/c++/3.3.1/cstring ****  *  This is the C++ version of the Standard C Library header @c string.h,
  40:d:/MTK/MTK2503/MTK2503/11CW1418SP4_03_CORETEK03AE_11C_V1_GPRS_MMI/Tools/MinGW/include/c++/3.3.1/cstring ****  *  and its contents are (mostly) the same as that header, but are all
  41:d:/MTK/MTK2503/MTK2503/11CW1418SP4_03_CORETEK03AE_11C_V1_GPRS_MMI/Tools/MinGW/include/c++/3.3.1/cstring ****  *  contained in the namespace @c std.
  42:d:/MTK/MTK2503/MTK2503/11CW1418SP4_03_CORETEK03AE_11C_V1_GPRS_MMI/Tools/MinGW/include/c++/3.3.1/cstring ****  */
  43:d:/MTK/MTK2503/MTK2503/11CW1418SP4_03_CORETEK03AE_11C_V1_GPRS_MMI/Tools/MinGW/include/c++/3.3.1/cstring **** 
  44:d:/MTK/MTK2503/MTK2503/11CW1418SP4_03_CORETEK03AE_11C_V1_GPRS_MMI/Tools/MinGW/include/c++/3.3.1/cstring **** #ifndef _CPP_CSTRING
  45:d:/MTK/MTK2503/MTK2503/11CW1418SP4_03_CORETEK03AE_11C_V1_GPRS_MMI/Tools/MinGW/include/c++/3.3.1/cstring **** #define _CPP_CSTRING 1
  46:d:/MTK/MTK2503/MTK2503/11CW1418SP4_03_CORETEK03AE_11C_V1_GPRS_MMI/Tools/MinGW/include/c++/3.3.1/cstring **** 
  47:d:/MTK/MTK2503/MTK2503/11CW1418SP4_03_CORETEK03AE_11C_V1_GPRS_MMI/Tools/MinGW/include/c++/3.3.1/cstring **** #pragma GCC system_header
  48:d:/MTK/MTK2503/MTK2503/11CW1418SP4_03_CORETEK03AE_11C_V1_GPRS_MMI/Tools/MinGW/include/c++/3.3.1/cstring **** 
GAS LISTING d:/MTK/MTK2503/MTK2503/11CW1418SP4_03_CORETEK03AE_11C_V1_GPRS_MMI/plutommi/Customer/ResGenerator/gcctmp/cc63daaa.s 			page 216


  49:d:/MTK/MTK2503/MTK2503/11CW1418SP4_03_CORETEK03AE_11C_V1_GPRS_MMI/Tools/MinGW/include/c++/3.3.1/cstring **** #include <cstddef>
  50:d:/MTK/MTK2503/MTK2503/11CW1418SP4_03_CORETEK03AE_11C_V1_GPRS_MMI/Tools/MinGW/include/c++/3.3.1/cstring **** 
  51:d:/MTK/MTK2503/MTK2503/11CW1418SP4_03_CORETEK03AE_11C_V1_GPRS_MMI/Tools/MinGW/include/c++/3.3.1/cstring **** #include <string.h>
  52:d:/MTK/MTK2503/MTK2503/11CW1418SP4_03_CORETEK03AE_11C_V1_GPRS_MMI/Tools/MinGW/include/c++/3.3.1/cstring **** 
  53:d:/MTK/MTK2503/MTK2503/11CW1418SP4_03_CORETEK03AE_11C_V1_GPRS_MMI/Tools/MinGW/include/c++/3.3.1/cstring **** // Get rid of those macros defined in <string.h> in lieu of real functions.
  54:d:/MTK/MTK2503/MTK2503/11CW1418SP4_03_CORETEK03AE_11C_V1_GPRS_MMI/Tools/MinGW/include/c++/3.3.1/cstring **** #undef memcpy
  55:d:/MTK/MTK2503/MTK2503/11CW1418SP4_03_CORETEK03AE_11C_V1_GPRS_MMI/Tools/MinGW/include/c++/3.3.1/cstring **** #undef memmove
  56:d:/MTK/MTK2503/MTK2503/11CW1418SP4_03_CORETEK03AE_11C_V1_GPRS_MMI/Tools/MinGW/include/c++/3.3.1/cstring **** #undef strcpy
  57:d:/MTK/MTK2503/MTK2503/11CW1418SP4_03_CORETEK03AE_11C_V1_GPRS_MMI/Tools/MinGW/include/c++/3.3.1/cstring **** #undef strncpy
  58:d:/MTK/MTK2503/MTK2503/11CW1418SP4_03_CORETEK03AE_11C_V1_GPRS_MMI/Tools/MinGW/include/c++/3.3.1/cstring **** #undef strcat
  59:d:/MTK/MTK2503/MTK2503/11CW1418SP4_03_CORETEK03AE_11C_V1_GPRS_MMI/Tools/MinGW/include/c++/3.3.1/cstring **** #undef strncat
  60:d:/MTK/MTK2503/MTK2503/11CW1418SP4_03_CORETEK03AE_11C_V1_GPRS_MMI/Tools/MinGW/include/c++/3.3.1/cstring **** #undef memcmp
  61:d:/MTK/MTK2503/MTK2503/11CW1418SP4_03_CORETEK03AE_11C_V1_GPRS_MMI/Tools/MinGW/include/c++/3.3.1/cstring **** #undef strcmp
  62:d:/MTK/MTK2503/MTK2503/11CW1418SP4_03_CORETEK03AE_11C_V1_GPRS_MMI/Tools/MinGW/include/c++/3.3.1/cstring **** #undef strcoll
  63:d:/MTK/MTK2503/MTK2503/11CW1418SP4_03_CORETEK03AE_11C_V1_GPRS_MMI/Tools/MinGW/include/c++/3.3.1/cstring **** #undef strncmp
  64:d:/MTK/MTK2503/MTK2503/11CW1418SP4_03_CORETEK03AE_11C_V1_GPRS_MMI/Tools/MinGW/include/c++/3.3.1/cstring **** #undef strxfrm
  65:d:/MTK/MTK2503/MTK2503/11CW1418SP4_03_CORETEK03AE_11C_V1_GPRS_MMI/Tools/MinGW/include/c++/3.3.1/cstring **** #undef memchr
  66:d:/MTK/MTK2503/MTK2503/11CW1418SP4_03_CORETEK03AE_11C_V1_GPRS_MMI/Tools/MinGW/include/c++/3.3.1/cstring **** #undef strchr
  67:d:/MTK/MTK2503/MTK2503/11CW1418SP4_03_CORETEK03AE_11C_V1_GPRS_MMI/Tools/MinGW/include/c++/3.3.1/cstring **** #undef strcspn
  68:d:/MTK/MTK2503/MTK2503/11CW1418SP4_03_CORETEK03AE_11C_V1_GPRS_MMI/Tools/MinGW/include/c++/3.3.1/cstring **** #undef strpbrk
  69:d:/MTK/MTK2503/MTK2503/11CW1418SP4_03_CORETEK03AE_11C_V1_GPRS_MMI/Tools/MinGW/include/c++/3.3.1/cstring **** #undef strrchr
  70:d:/MTK/MTK2503/MTK2503/11CW1418SP4_03_CORETEK03AE_11C_V1_GPRS_MMI/Tools/MinGW/include/c++/3.3.1/cstring **** #undef strspn
  71:d:/MTK/MTK2503/MTK2503/11CW1418SP4_03_CORETEK03AE_11C_V1_GPRS_MMI/Tools/MinGW/include/c++/3.3.1/cstring **** #undef strstr
  72:d:/MTK/MTK2503/MTK2503/11CW1418SP4_03_CORETEK03AE_11C_V1_GPRS_MMI/Tools/MinGW/include/c++/3.3.1/cstring **** #undef strtok
  73:d:/MTK/MTK2503/MTK2503/11CW1418SP4_03_CORETEK03AE_11C_V1_GPRS_MMI/Tools/MinGW/include/c++/3.3.1/cstring **** #undef memset
  74:d:/MTK/MTK2503/MTK2503/11CW1418SP4_03_CORETEK03AE_11C_V1_GPRS_MMI/Tools/MinGW/include/c++/3.3.1/cstring **** #undef strerror
  75:d:/MTK/MTK2503/MTK2503/11CW1418SP4_03_CORETEK03AE_11C_V1_GPRS_MMI/Tools/MinGW/include/c++/3.3.1/cstring **** #undef strlen
  76:d:/MTK/MTK2503/MTK2503/11CW1418SP4_03_CORETEK03AE_11C_V1_GPRS_MMI/Tools/MinGW/include/c++/3.3.1/cstring **** 
  77:d:/MTK/MTK2503/MTK2503/11CW1418SP4_03_CORETEK03AE_11C_V1_GPRS_MMI/Tools/MinGW/include/c++/3.3.1/cstring **** namespace std 
  78:d:/MTK/MTK2503/MTK2503/11CW1418SP4_03_CORETEK03AE_11C_V1_GPRS_MMI/Tools/MinGW/include/c++/3.3.1/cstring **** {
  79:d:/MTK/MTK2503/MTK2503/11CW1418SP4_03_CORETEK03AE_11C_V1_GPRS_MMI/Tools/MinGW/include/c++/3.3.1/cstring ****   using ::memcpy;
  80:d:/MTK/MTK2503/MTK2503/11CW1418SP4_03_CORETEK03AE_11C_V1_GPRS_MMI/Tools/MinGW/include/c++/3.3.1/cstring ****   using ::memmove;
  81:d:/MTK/MTK2503/MTK2503/11CW1418SP4_03_CORETEK03AE_11C_V1_GPRS_MMI/Tools/MinGW/include/c++/3.3.1/cstring ****   using ::strcpy;
  82:d:/MTK/MTK2503/MTK2503/11CW1418SP4_03_CORETEK03AE_11C_V1_GPRS_MMI/Tools/MinGW/include/c++/3.3.1/cstring ****   using ::strncpy;
  83:d:/MTK/MTK2503/MTK2503/11CW1418SP4_03_CORETEK03AE_11C_V1_GPRS_MMI/Tools/MinGW/include/c++/3.3.1/cstring ****   using ::strcat;
  84:d:/MTK/MTK2503/MTK2503/11CW1418SP4_03_CORETEK03AE_11C_V1_GPRS_MMI/Tools/MinGW/include/c++/3.3.1/cstring ****   using ::strncat;
  85:d:/MTK/MTK2503/MTK2503/11CW1418SP4_03_CORETEK03AE_11C_V1_GPRS_MMI/Tools/MinGW/include/c++/3.3.1/cstring ****   using ::memcmp;
  86:d:/MTK/MTK2503/MTK2503/11CW1418SP4_03_CORETEK03AE_11C_V1_GPRS_MMI/Tools/MinGW/include/c++/3.3.1/cstring ****   using ::strcmp;
  87:d:/MTK/MTK2503/MTK2503/11CW1418SP4_03_CORETEK03AE_11C_V1_GPRS_MMI/Tools/MinGW/include/c++/3.3.1/cstring ****   using ::strcoll;
  88:d:/MTK/MTK2503/MTK2503/11CW1418SP4_03_CORETEK03AE_11C_V1_GPRS_MMI/Tools/MinGW/include/c++/3.3.1/cstring ****   using ::strncmp;
  89:d:/MTK/MTK2503/MTK2503/11CW1418SP4_03_CORETEK03AE_11C_V1_GPRS_MMI/Tools/MinGW/include/c++/3.3.1/cstring ****   using ::strxfrm;
  90:d:/MTK/MTK2503/MTK2503/11CW1418SP4_03_CORETEK03AE_11C_V1_GPRS_MMI/Tools/MinGW/include/c++/3.3.1/cstring ****   using ::strcspn;
  91:d:/MTK/MTK2503/MTK2503/11CW1418SP4_03_CORETEK03AE_11C_V1_GPRS_MMI/Tools/MinGW/include/c++/3.3.1/cstring ****   using ::strspn;
  92:d:/MTK/MTK2503/MTK2503/11CW1418SP4_03_CORETEK03AE_11C_V1_GPRS_MMI/Tools/MinGW/include/c++/3.3.1/cstring ****   using ::strtok;
  93:d:/MTK/MTK2503/MTK2503/11CW1418SP4_03_CORETEK03AE_11C_V1_GPRS_MMI/Tools/MinGW/include/c++/3.3.1/cstring ****   using ::memset;
  94:d:/MTK/MTK2503/MTK2503/11CW1418SP4_03_CORETEK03AE_11C_V1_GPRS_MMI/Tools/MinGW/include/c++/3.3.1/cstring ****   using ::strerror;
  95:d:/MTK/MTK2503/MTK2503/11CW1418SP4_03_CORETEK03AE_11C_V1_GPRS_MMI/Tools/MinGW/include/c++/3.3.1/cstring ****   using ::strlen;
  96:d:/MTK/MTK2503/MTK2503/11CW1418SP4_03_CORETEK03AE_11C_V1_GPRS_MMI/Tools/MinGW/include/c++/3.3.1/cstring **** 
  97:d:/MTK/MTK2503/MTK2503/11CW1418SP4_03_CORETEK03AE_11C_V1_GPRS_MMI/Tools/MinGW/include/c++/3.3.1/cstring ****   using ::memchr;
  98:d:/MTK/MTK2503/MTK2503/11CW1418SP4_03_CORETEK03AE_11C_V1_GPRS_MMI/Tools/MinGW/include/c++/3.3.1/cstring **** 
  99:d:/MTK/MTK2503/MTK2503/11CW1418SP4_03_CORETEK03AE_11C_V1_GPRS_MMI/Tools/MinGW/include/c++/3.3.1/cstring ****   inline void*
 100:d:/MTK/MTK2503/MTK2503/11CW1418SP4_03_CORETEK03AE_11C_V1_GPRS_MMI/Tools/MinGW/include/c++/3.3.1/cstring ****   memchr(void* __p, int __c, size_t __n)
 101:d:/MTK/MTK2503/MTK2503/11CW1418SP4_03_CORETEK03AE_11C_V1_GPRS_MMI/Tools/MinGW/include/c++/3.3.1/cstring ****   { return memchr(const_cast<const void*>(__p), __c, __n); }
 102:d:/MTK/MTK2503/MTK2503/11CW1418SP4_03_CORETEK03AE_11C_V1_GPRS_MMI/Tools/MinGW/include/c++/3.3.1/cstring **** 
 103:d:/MTK/MTK2503/MTK2503/11CW1418SP4_03_CORETEK03AE_11C_V1_GPRS_MMI/Tools/MinGW/include/c++/3.3.1/cstring ****   using ::strchr;
 104:d:/MTK/MTK2503/MTK2503/11CW1418SP4_03_CORETEK03AE_11C_V1_GPRS_MMI/Tools/MinGW/include/c++/3.3.1/cstring **** 
 105:d:/MTK/MTK2503/MTK2503/11CW1418SP4_03_CORETEK03AE_11C_V1_GPRS_MMI/Tools/MinGW/include/c++/3.3.1/cstring ****   inline char*
GAS LISTING d:/MTK/MTK2503/MTK2503/11CW1418SP4_03_CORETEK03AE_11C_V1_GPRS_MMI/plutommi/Customer/ResGenerator/gcctmp/cc63daaa.s 			page 217


 106:d:/MTK/MTK2503/MTK2503/11CW1418SP4_03_CORETEK03AE_11C_V1_GPRS_MMI/Tools/MinGW/include/c++/3.3.1/cstring ****   strchr(char* __s1, int __n)
 107:d:/MTK/MTK2503/MTK2503/11CW1418SP4_03_CORETEK03AE_11C_V1_GPRS_MMI/Tools/MinGW/include/c++/3.3.1/cstring ****   { return __builtin_strchr(const_cast<const char*>(__s1), __n); }
 9201              	LM717:
 9202 0000 55       		pushl	%ebp
 9203 0001 89E5     		movl	%esp, %ebp
 9204 0003 83EC08   		subl	$8, %esp
 9206              	LM718:
 9207              	LBB89:
 9208 0006 8B450C   		movl	12(%ebp), %eax
 9209 0009 89442404 		movl	%eax, 4(%esp)
 9210 000d 8B4508   		movl	8(%ebp), %eax
 9211 0010 890424   		movl	%eax, (%esp)
 9212 0013 E8000000 		call	_strchr
 9212      00
 9213 0018 C9       		leave
 9214 0019 C3       		ret
 9215              	LBE89:
 9216              	Lscope38:
 9218 001a 9090     		.section	.text$_ZSt6strstrPcPKc,"x"
 9219              		.linkonce discard
 9220              		.align 2
 9224              	.globl __ZSt6strstrPcPKc
 9226              	__ZSt6strstrPcPKc:
 108:d:/MTK/MTK2503/MTK2503/11CW1418SP4_03_CORETEK03AE_11C_V1_GPRS_MMI/Tools/MinGW/include/c++/3.3.1/cstring **** 
 109:d:/MTK/MTK2503/MTK2503/11CW1418SP4_03_CORETEK03AE_11C_V1_GPRS_MMI/Tools/MinGW/include/c++/3.3.1/cstring ****   using ::strpbrk;
 110:d:/MTK/MTK2503/MTK2503/11CW1418SP4_03_CORETEK03AE_11C_V1_GPRS_MMI/Tools/MinGW/include/c++/3.3.1/cstring **** 
 111:d:/MTK/MTK2503/MTK2503/11CW1418SP4_03_CORETEK03AE_11C_V1_GPRS_MMI/Tools/MinGW/include/c++/3.3.1/cstring ****   inline char*
 112:d:/MTK/MTK2503/MTK2503/11CW1418SP4_03_CORETEK03AE_11C_V1_GPRS_MMI/Tools/MinGW/include/c++/3.3.1/cstring ****   strpbrk(char* __s1, const char* __s2)
 113:d:/MTK/MTK2503/MTK2503/11CW1418SP4_03_CORETEK03AE_11C_V1_GPRS_MMI/Tools/MinGW/include/c++/3.3.1/cstring ****   { return __builtin_strpbrk(const_cast<const char*>(__s1), __s2); }
 114:d:/MTK/MTK2503/MTK2503/11CW1418SP4_03_CORETEK03AE_11C_V1_GPRS_MMI/Tools/MinGW/include/c++/3.3.1/cstring **** 
 115:d:/MTK/MTK2503/MTK2503/11CW1418SP4_03_CORETEK03AE_11C_V1_GPRS_MMI/Tools/MinGW/include/c++/3.3.1/cstring ****   using ::strrchr;
 116:d:/MTK/MTK2503/MTK2503/11CW1418SP4_03_CORETEK03AE_11C_V1_GPRS_MMI/Tools/MinGW/include/c++/3.3.1/cstring **** 
 117:d:/MTK/MTK2503/MTK2503/11CW1418SP4_03_CORETEK03AE_11C_V1_GPRS_MMI/Tools/MinGW/include/c++/3.3.1/cstring ****   inline char*
 118:d:/MTK/MTK2503/MTK2503/11CW1418SP4_03_CORETEK03AE_11C_V1_GPRS_MMI/Tools/MinGW/include/c++/3.3.1/cstring ****   strrchr(char* __s1, int __n)
 119:d:/MTK/MTK2503/MTK2503/11CW1418SP4_03_CORETEK03AE_11C_V1_GPRS_MMI/Tools/MinGW/include/c++/3.3.1/cstring ****   { return __builtin_strrchr(const_cast<const char*>(__s1), __n); }
 120:d:/MTK/MTK2503/MTK2503/11CW1418SP4_03_CORETEK03AE_11C_V1_GPRS_MMI/Tools/MinGW/include/c++/3.3.1/cstring **** 
 121:d:/MTK/MTK2503/MTK2503/11CW1418SP4_03_CORETEK03AE_11C_V1_GPRS_MMI/Tools/MinGW/include/c++/3.3.1/cstring ****   using ::strstr;
 122:d:/MTK/MTK2503/MTK2503/11CW1418SP4_03_CORETEK03AE_11C_V1_GPRS_MMI/Tools/MinGW/include/c++/3.3.1/cstring **** 
 123:d:/MTK/MTK2503/MTK2503/11CW1418SP4_03_CORETEK03AE_11C_V1_GPRS_MMI/Tools/MinGW/include/c++/3.3.1/cstring ****   inline char*
 124:d:/MTK/MTK2503/MTK2503/11CW1418SP4_03_CORETEK03AE_11C_V1_GPRS_MMI/Tools/MinGW/include/c++/3.3.1/cstring ****   strstr(char* __s1, const char* __s2)
 125:d:/MTK/MTK2503/MTK2503/11CW1418SP4_03_CORETEK03AE_11C_V1_GPRS_MMI/Tools/MinGW/include/c++/3.3.1/cstring ****   { return __builtin_strstr(const_cast<const char*>(__s1), __s2); }
 9228              	LM719:
 9229 0000 55       		pushl	%ebp
 9230 0001 89E5     		movl	%esp, %ebp
 9231 0003 83EC08   		subl	$8, %esp
 9233              	LM720:
 9234              	LBB90:
 9235 0006 8B450C   		movl	12(%ebp), %eax
 9236 0009 89442404 		movl	%eax, 4(%esp)
 9237 000d 8B4508   		movl	8(%ebp), %eax
 9238 0010 890424   		movl	%eax, (%esp)
 9239 0013 E8000000 		call	_strstr
 9239      00
 9240 0018 C9       		leave
 9241 0019 C3       		ret
 9242              	LBE90:
 9243              	Lscope39:
GAS LISTING d:/MTK/MTK2503/MTK2503/11CW1418SP4_03_CORETEK03AE_11C_V1_GPRS_MMI/plutommi/Customer/ResGenerator/gcctmp/cc63daaa.s 			page 218


 9245 001a 9090     		.section	.text$_ZN20OfflineResPopService21populateAudioResourceEPc,"x"
 9246              		.linkonce discard
 9247              		.align 2
 9251              	.globl __ZN20OfflineResPopService21populateAudioResourceEPc
 9253              	__ZN20OfflineResPopService21populateAudioResourceEPc:
 9255              	Ltext3:
 9257              	LM721:
 9258 0000 55       		pushl	%ebp
 9259 0001 89E5     		movl	%esp, %ebp
 9260 0003 57       		pushl	%edi
 9261 0004 56       		pushl	%esi
 9262 0005 53       		pushl	%ebx
 9263 0006 83EC6C   		subl	$108, %esp
 9264 0009 C745D400 		movl	$___gxx_personality_sj0, -44(%ebp)
 9264      000000
 9265 0010 C745D806 		movl	$LLSDA2168, -40(%ebp)
 9265      000000
 9266 0017 8D45DC   		leal	-36(%ebp), %eax
 9267 001a 8D55F4   		leal	-12(%ebp), %edx
 9268 001d 8910     		movl	%edx, (%eax)
 9269 001f BA690000 		movl	$L341, %edx
 9269      00
 9270 0024 895004   		movl	%edx, 4(%eax)
 9271 0027 896008   		movl	%esp, 8(%eax)
 9272 002a 8D45BC   		leal	-68(%ebp), %eax
 9273 002d 890424   		movl	%eax, (%esp)
 9274 0030 E8000000 		call	__Unwind_SjLj_Register
 9274      00
 9276              	LM722:
 9277              	LBB91:
 9278 0035 C704241C 		movl	$28, (%esp)
 9278      000000
 9279 003c C745C0FF 		movl	$-1, -64(%ebp)
 9279      FFFFFF
 9280 0043 E8000000 		call	__Znwj
 9280      00
 9281 0048 8945B8   		movl	%eax, -72(%ebp)
 9282 004b C645B701 		movb	$1, -73(%ebp)
 9283 004f 8B45B8   		movl	-72(%ebp), %eax
 9284 0052 890424   		movl	%eax, (%esp)
 9285 0055 C745C001 		movl	$1, -64(%ebp)
 9285      000000
 9286 005c E8000000 		call	__ZN13ResParamModelC1Ev
 9286      00
 9287 0061 8B55B8   		movl	-72(%ebp), %edx
 9288 0064 8955F0   		movl	%edx, -16(%ebp)
 9289 0067 EB38     		jmp	L330
 9290              	L341:
 9291 0069 8D6D0C   		leal	12(%ebp), %ebp
 9292 006c 8B45C4   		movl	-60(%ebp), %eax
 9293 006f 8945AC   		movl	%eax, -84(%ebp)
 9294              	L329:
 9295 0072 8B55AC   		movl	-84(%ebp), %edx
 9296 0075 8955B0   		movl	%edx, -80(%ebp)
 9297 0078 807DB700 		cmpb	$0, -73(%ebp)
 9298 007c 740B     		je	L332
 9299 007e 8B45B8   		movl	-72(%ebp), %eax
GAS LISTING d:/MTK/MTK2503/MTK2503/11CW1418SP4_03_CORETEK03AE_11C_V1_GPRS_MMI/plutommi/Customer/ResGenerator/gcctmp/cc63daaa.s 			page 219


 9300 0081 890424   		movl	%eax, (%esp)
 9301 0084 E8000000 		call	__ZdlPv
 9301      00
 9302              	L332:
 9303 0089 8B55B0   		movl	-80(%ebp), %edx
 9304 008c 8955AC   		movl	%edx, -84(%ebp)
 9305              	L333:
 9306 008f 8B45AC   		movl	-84(%ebp), %eax
 9307 0092 890424   		movl	%eax, (%esp)
 9308 0095 C745C0FF 		movl	$-1, -64(%ebp)
 9308      FFFFFF
 9309 009c E8000000 		call	__Unwind_SjLj_Resume
 9309      00
 9310              	L330:
 9312              	LM723:
 9313 00a1 C7042408 		movl	$8, (%esp)
 9313      000000
 9314 00a8 C745C0FF 		movl	$-1, -64(%ebp)
 9314      FFFFFF
 9315 00af E8000000 		call	__Znwj
 9315      00
 9316 00b4 8945A8   		movl	%eax, -88(%ebp)
 9317 00b7 8B55A8   		movl	-88(%ebp), %edx
 9318 00ba 891424   		movl	%edx, (%esp)
 9319 00bd E8000000 		call	__ZN21AudioParamTextFileDAOC1Ev
 9319      00
 9320 00c2 8B45A8   		movl	-88(%ebp), %eax
 9321 00c5 8945EC   		movl	%eax, -20(%ebp)
 9322              	L335:
 9324              	LM724:
 9325 00c8 C7042408 		movl	$8, (%esp)
 9325      000000
 9326 00cf E8000000 		call	__Znwj
 9326      00
 9327 00d4 8945A4   		movl	%eax, -92(%ebp)
 9328 00d7 8B55A4   		movl	-92(%ebp), %edx
 9329 00da 891424   		movl	%edx, (%esp)
 9330 00dd E8000000 		call	__ZN25OfflineResPopAudioAdaptorC1Ev
 9330      00
 9331 00e2 8B45A4   		movl	-92(%ebp), %eax
 9332 00e5 8945E8   		movl	%eax, -24(%ebp)
 9333              	L337:
 9335              	LM725:
 9336 00e8 8B45E8   		movl	-24(%ebp), %eax
 9337 00eb 89442410 		movl	%eax, 16(%esp)
 9338 00ef 8B45EC   		movl	-20(%ebp), %eax
 9339 00f2 8944240C 		movl	%eax, 12(%esp)
 9340 00f6 8B450C   		movl	12(%ebp), %eax
 9341 00f9 89442408 		movl	%eax, 8(%esp)
 9342 00fd 8B45F0   		movl	-16(%ebp), %eax
 9343 0100 89442404 		movl	%eax, 4(%esp)
 9344 0104 8B4508   		movl	8(%ebp), %eax
 9345 0107 890424   		movl	%eax, (%esp)
 9346 010a E8000000 		call	__ZN20OfflineResPopService16populateResourceEP13ResParamModelPcP16ParamTextFileDAOP19OfflineR
 9346      00
 9348              	LM726:
 9349 010f 8B45F0   		movl	-16(%ebp), %eax
GAS LISTING d:/MTK/MTK2503/MTK2503/11CW1418SP4_03_CORETEK03AE_11C_V1_GPRS_MMI/plutommi/Customer/ResGenerator/gcctmp/cc63daaa.s 			page 220


 9350 0112 8945A0   		movl	%eax, -96(%ebp)
 9351 0115 837DA000 		cmpl	$0, -96(%ebp)
 9352 0119 7416     		je	L340
 9353 011b 8B55A0   		movl	-96(%ebp), %edx
 9354 011e 891424   		movl	%edx, (%esp)
 9355 0121 E8000000 		call	__ZN13ResParamModelD1Ev
 9355      00
 9356 0126 8B45A0   		movl	-96(%ebp), %eax
 9357 0129 890424   		movl	%eax, (%esp)
 9358 012c E8000000 		call	__ZdlPv
 9358      00
 9359              	L340:
 9361              	LM727:
 9362 0131 8B45E8   		movl	-24(%ebp), %eax
 9363 0134 890424   		movl	%eax, (%esp)
 9364 0137 E8000000 		call	__ZdlPv
 9364      00
 9366              	LM728:
 9367 013c 8B45EC   		movl	-20(%ebp), %eax
 9368 013f 890424   		movl	%eax, (%esp)
 9369 0142 E8000000 		call	__ZdlPv
 9369      00
 9371              	LM729:
 9372              	L328:
 9373 0147 8D45BC   		leal	-68(%ebp), %eax
 9374 014a 890424   		movl	%eax, (%esp)
 9375 014d E8000000 		call	__Unwind_SjLj_Unregister
 9375      00
 9376 0152 83C46C   		addl	$108, %esp
 9377 0155 5B       		popl	%ebx
 9378 0156 5E       		popl	%esi
 9379 0157 5F       		popl	%edi
 9380 0158 5D       		popl	%ebp
 9381 0159 C3       		ret
 9382              	LBE91:
 9383              		.section	.gcc_except_table,""
 9384              	LLSDA2168:
 9385 0006 FF       		.byte	0xff
 9386 0007 FF       		.byte	0xff
 9387 0008 01       		.byte	0x1
 9388 0009 02       		.uleb128 LLSDACSE2168-LLSDACSB2168
 9389              	LLSDACSB2168:
 9390 000a 00       		.uleb128 0x0
 9391 000b 00       		.uleb128 0x0
 9392              	LLSDACSE2168:
 9393              		.section	.text$_ZN20OfflineResPopService21populateAudioResourceEPc,"x"
 9394              		.linkonce discard
 9400              	Lscope40:
 9402 015a 9090     		.text
 9403              	LC299:
 9404 821e 5B494D41 		.ascii "[IMAGE] File mode: %s, %s\0"
 9404      47455D20 
 9404      46696C65 
 9404      206D6F64 
 9404      653A2025 
 9405              	LC300:
 9406 8238 5B466F6E 		.ascii "[Font] File mode: %s, %s\0"
GAS LISTING d:/MTK/MTK2503/MTK2503/11CW1418SP4_03_CORETEK03AE_11C_V1_GPRS_MMI/plutommi/Customer/ResGenerator/gcctmp/cc63daaa.s 			page 221


 9406      745D2046 
 9406      696C6520 
 9406      6D6F6465 
 9406      3A202573 
 9407              	LC301:
 9408 8251 5B417564 		.ascii "[Audio] File mode: %s, %s\0"
 9408      696F5D20 
 9408      46696C65 
 9408      206D6F64 
 9408      653A2025 
 9409              		.section	.text$_ZN24BatchedResFileGenService16generateResourceEPc,"x"
 9410              		.linkonce discard
 9411              		.align 2
 9415              	.globl __ZN24BatchedResFileGenService16generateResourceEPc
 9417              	__ZN24BatchedResFileGenService16generateResourceEPc:
 9419              	LM730:
 9420 0000 55       		pushl	%ebp
 9421 0001 89E5     		movl	%esp, %ebp
 9422 0003 57       		pushl	%edi
 9423 0004 56       		pushl	%esi
 9424 0005 53       		pushl	%ebx
 9425 0006 81EC8C00 		subl	$140, %esp
 9425      0000
 9426 000c C745BC00 		movl	$___gxx_personality_sj0, -68(%ebp)
 9426      000000
 9427 0013 C745C00C 		movl	$LLSDA2169, -64(%ebp)
 9427      000000
 9428 001a 8D45C4   		leal	-60(%ebp), %eax
 9429 001d 8D55F4   		leal	-12(%ebp), %edx
 9430 0020 8910     		movl	%edx, (%eax)
 9431 0022 BA730000 		movl	$L366, %edx
 9431      00
 9432 0027 895004   		movl	%edx, 4(%eax)
 9433 002a 896008   		movl	%esp, 8(%eax)
 9434 002d 8D45A4   		leal	-92(%ebp), %eax
 9435 0030 890424   		movl	%eax, (%esp)
 9436 0033 E8000000 		call	__Unwind_SjLj_Register
 9436      00
 9438              	LM731:
 9439              	LBB92:
 9440 0038 C745F000 		movl	$0, -16(%ebp)
 9440      000000
 9442              	LM732:
 9443 003f C704240C 		movl	$12, (%esp)
 9443      000000
 9444 0046 C745A8FF 		movl	$-1, -88(%ebp)
 9444      FFFFFF
 9445 004d E8000000 		call	__Znwj
 9445      00
 9446 0052 89459C   		movl	%eax, -100(%ebp)
 9447 0055 C6459B01 		movb	$1, -101(%ebp)
 9448 0059 8B459C   		movl	-100(%ebp), %eax
 9449 005c 890424   		movl	%eax, (%esp)
 9450 005f C745A801 		movl	$1, -88(%ebp)
 9450      000000
 9451 0066 E8000000 		call	__ZN20ResFileGenParamModelC1Ev
 9451      00
GAS LISTING d:/MTK/MTK2503/MTK2503/11CW1418SP4_03_CORETEK03AE_11C_V1_GPRS_MMI/plutommi/Customer/ResGenerator/gcctmp/cc63daaa.s 			page 222


 9452 006b 8B559C   		movl	-100(%ebp), %edx
 9453 006e 8955EC   		movl	%edx, -20(%ebp)
 9454 0071 EB38     		jmp	L344
 9455              	L366:
 9456 0073 8D6D0C   		leal	12(%ebp), %ebp
 9457 0076 8B45AC   		movl	-84(%ebp), %eax
 9458 0079 894590   		movl	%eax, -112(%ebp)
 9459              	L343:
 9460 007c 8B5590   		movl	-112(%ebp), %edx
 9461 007f 895594   		movl	%edx, -108(%ebp)
 9462 0082 807D9B00 		cmpb	$0, -101(%ebp)
 9463 0086 740B     		je	L346
 9464 0088 8B459C   		movl	-100(%ebp), %eax
 9465 008b 890424   		movl	%eax, (%esp)
 9466 008e E8000000 		call	__ZdlPv
 9466      00
 9467              	L346:
 9468 0093 8B5594   		movl	-108(%ebp), %edx
 9469 0096 895590   		movl	%edx, -112(%ebp)
 9470              	L347:
 9471 0099 8B4590   		movl	-112(%ebp), %eax
 9472 009c 890424   		movl	%eax, (%esp)
 9473 009f C745A8FF 		movl	$-1, -88(%ebp)
 9473      FFFFFF
 9474 00a6 E8000000 		call	__Unwind_SjLj_Resume
 9474      00
 9475              	L344:
 9477              	LM733:
 9478 00ab 8B450C   		movl	12(%ebp), %eax
 9479 00ae 89442404 		movl	%eax, 4(%esp)
 9480 00b2 8B45EC   		movl	-20(%ebp), %eax
 9481 00b5 890424   		movl	%eax, (%esp)
 9482 00b8 C745A8FF 		movl	$-1, -88(%ebp)
 9482      FFFFFF
 9483 00bf E8000000 		call	__ZN20ResFileGenParamModel21setRepositoryFileNameEPc
 9483      00
 9485              	LM734:
 9486 00c4 C7042404 		movl	$4, (%esp)
 9486      000000
 9487 00cb E8000000 		call	__Znwj
 9487      00
 9488 00d0 89458C   		movl	%eax, -116(%ebp)
 9489 00d3 8B558C   		movl	-116(%ebp), %edx
 9490 00d6 891424   		movl	%edx, (%esp)
 9491 00d9 E8000000 		call	__ZN26ResFileGenParamTextFileDAOC1Ev
 9491      00
 9492 00de 8B458C   		movl	-116(%ebp), %eax
 9493 00e1 8945E8   		movl	%eax, -24(%ebp)
 9494              	L349:
 9496              	LM735:
 9497 00e4 8B45EC   		movl	-20(%ebp), %eax
 9498 00e7 8B10     		movl	(%eax), %edx
 9499 00e9 83C210   		addl	$16, %edx
 9500 00ec 8B45E8   		movl	-24(%ebp), %eax
 9501 00ef 89442404 		movl	%eax, 4(%esp)
 9502 00f3 8B45EC   		movl	-20(%ebp), %eax
 9503 00f6 890424   		movl	%eax, (%esp)
GAS LISTING d:/MTK/MTK2503/MTK2503/11CW1418SP4_03_CORETEK03AE_11C_V1_GPRS_MMI/plutommi/Customer/ResGenerator/gcctmp/cc63daaa.s 			page 223


 9504 00f9 8B02     		movl	(%edx), %eax
 9505 00fb FFD0     		call	*%eax
 9507              	LM736:
 9508 00fd 8B45EC   		movl	-20(%ebp), %eax
 9509 0100 8B10     		movl	(%eax), %edx
 9510 0102 83C204   		addl	$4, %edx
 9511 0105 8B45EC   		movl	-20(%ebp), %eax
 9512 0108 890424   		movl	%eax, (%esp)
 9513 010b 8B02     		movl	(%edx), %eax
 9514 010d FFD0     		call	*%eax
 9515 010f 8945E4   		movl	%eax, -28(%ebp)
 9517              	LM737:
 9518              	LBB93:
 9519 0112 C745E000 		movl	$0, -32(%ebp)
 9519      000000
 9520              	L351:
 9521 0119 8B45E4   		movl	-28(%ebp), %eax
 9522 011c 890424   		movl	%eax, (%esp)
 9523 011f E8000000 		call	__ZNKSt6vectorIP15ResFileGenParamSaIS1_EE4sizeEv
 9523      00
 9524 0124 3945E0   		cmpl	%eax, -32(%ebp)
 9525 0127 7205     		jb	L354
 9526 0129 E9000200 		jmp	L352
 9526      00
 9527              	L354:
 9529              	LM738:
 9530              	LBB94:
 9531              	LBB95:
 9532 012e 8B45E0   		movl	-32(%ebp), %eax
 9533 0131 89442404 		movl	%eax, 4(%esp)
 9534 0135 8B45E4   		movl	-28(%ebp), %eax
 9535 0138 890424   		movl	%eax, (%esp)
 9536 013b E8000000 		call	__ZNSt6vectorIP15ResFileGenParamSaIS1_EEixEj
 9536      00
 9537 0140 8B00     		movl	(%eax), %eax
 9538 0142 8945DC   		movl	%eax, -36(%ebp)
 9540              	LM739:
 9541              	LBB96:
 9542 0145 837DDC00 		cmpl	$0, -36(%ebp)
 9543 0149 0F84D501 		je	L353
 9543      0000
 9545              	LM740:
 9546              	LBB97:
 9547 014f 8B45DC   		movl	-36(%ebp), %eax
 9548 0152 890424   		movl	%eax, (%esp)
 9549 0155 C745A8FF 		movl	$-1, -88(%ebp)
 9549      FFFFFF
 9550 015c E8000000 		call	__ZN15ResFileGenParam10getSrcPathEv
 9550      00
 9551 0161 890424   		movl	%eax, (%esp)
 9552 0164 E8000000 		call	__ZNKSs4sizeEv
 9552      00
 9553 0169 40       		incl	%eax
 9554 016a 890424   		movl	%eax, (%esp)
 9555 016d E8000000 		call	__Znaj
 9555      00
 9556 0172 8945D8   		movl	%eax, -40(%ebp)
GAS LISTING d:/MTK/MTK2503/MTK2503/11CW1418SP4_03_CORETEK03AE_11C_V1_GPRS_MMI/plutommi/Customer/ResGenerator/gcctmp/cc63daaa.s 			page 224


 9558              	LM741:
 9559 0175 8B45DC   		movl	-36(%ebp), %eax
 9560 0178 890424   		movl	%eax, (%esp)
 9561 017b E8000000 		call	__ZN15ResFileGenParam10getSrcPathEv
 9561      00
 9562 0180 890424   		movl	%eax, (%esp)
 9563 0183 E8000000 		call	__ZNKSs5c_strEv
 9563      00
 9564 0188 89442404 		movl	%eax, 4(%esp)
 9565 018c 8B45D8   		movl	-40(%ebp), %eax
 9566 018f 890424   		movl	%eax, (%esp)
 9567 0192 E8000000 		call	_strcpy
 9567      00
 9569              	LM742:
 9570 0197 8B45DC   		movl	-36(%ebp), %eax
 9571 019a 890424   		movl	%eax, (%esp)
 9572 019d E8000000 		call	__ZN15ResFileGenParam11getDestPathEv
 9572      00
 9573 01a2 890424   		movl	%eax, (%esp)
 9574 01a5 E8000000 		call	__ZNKSs4sizeEv
 9574      00
 9575 01aa 40       		incl	%eax
 9576 01ab 890424   		movl	%eax, (%esp)
 9577 01ae E8000000 		call	__Znaj
 9577      00
 9578 01b3 8945D4   		movl	%eax, -44(%ebp)
 9580              	LM743:
 9581 01b6 8B45DC   		movl	-36(%ebp), %eax
 9582 01b9 890424   		movl	%eax, (%esp)
 9583 01bc E8000000 		call	__ZN15ResFileGenParam11getDestPathEv
 9583      00
 9584 01c1 890424   		movl	%eax, (%esp)
 9585 01c4 E8000000 		call	__ZNKSs5c_strEv
 9585      00
 9586 01c9 89442404 		movl	%eax, 4(%esp)
 9587 01cd 8B45D4   		movl	-44(%ebp), %eax
 9588 01d0 890424   		movl	%eax, (%esp)
 9589 01d3 E8000000 		call	_strcpy
 9589      00
 9591              	LM744:
 9592 01d8 8B45DC   		movl	-36(%ebp), %eax
 9593 01db 890424   		movl	%eax, (%esp)
 9594 01de E8000000 		call	__ZN15ResFileGenParam7getTypeEv
 9594      00
 9595 01e3 8945D0   		movl	%eax, -48(%ebp)
 9597              	LM745:
 9598 01e6 8B45D0   		movl	-48(%ebp), %eax
 9599 01e9 3B050000 		cmpl	__ZN15ResFileGenParam10IMAGE_TYPEE, %eax
 9599      0000
 9600 01ef 7557     		jne	L356
 9602              	LM746:
 9603 01f1 8B45D4   		movl	-44(%ebp), %eax
 9604 01f4 89442408 		movl	%eax, 8(%esp)
 9605 01f8 8B45D8   		movl	-40(%ebp), %eax
 9606 01fb 89442404 		movl	%eax, 4(%esp)
 9607 01ff 8B4508   		movl	8(%ebp), %eax
 9608 0202 890424   		movl	%eax, (%esp)
GAS LISTING d:/MTK/MTK2503/MTK2503/11CW1418SP4_03_CORETEK03AE_11C_V1_GPRS_MMI/plutommi/Customer/ResGenerator/gcctmp/cc63daaa.s 			page 225


 9609 0205 E8000000 		call	__ZN24BatchedResFileGenService16generateImageResEPcS0_
 9609      00
 9610 020a 85C0     		testl	%eax, %eax
 9611 020c 0F84FC00 		je	L358
 9611      0000
 9613              	LM747:
 9614 0212 8B45D4   		movl	-44(%ebp), %eax
 9615 0215 89442410 		movl	%eax, 16(%esp)
 9616 0219 8B45D8   		movl	-40(%ebp), %eax
 9617 021c 8944240C 		movl	%eax, 12(%esp)
 9618 0220 C7442408 		movl	$LC299, 8(%esp)
 9618      1E820000 
 9619 0228 C7442404 		movl	$LC1, 4(%esp)
 9619      3E000000 
 9620 0230 C7042403 		movl	$3, (%esp)
 9620      000000
 9621 0237 E8000000 		call	_reslog_adaptor_log
 9621      00
 9623              	LM748:
 9624 023c C745F0FF 		movl	$-1, -16(%ebp)
 9624      FFFFFF
 9625 0243 E9C60000 		jmp	L358
 9625      00
 9626              	L356:
 9628              	LM749:
 9629 0248 8B45D0   		movl	-48(%ebp), %eax
 9630 024b 3B050000 		cmpl	__ZN15ResFileGenParam9FONT_TYPEE, %eax
 9630      0000
 9631 0251 755B     		jne	L359
 9633              	LM750:
 9634 0253 8B45D4   		movl	-44(%ebp), %eax
 9635 0256 89442408 		movl	%eax, 8(%esp)
 9636 025a 8B45D8   		movl	-40(%ebp), %eax
 9637 025d 89442404 		movl	%eax, 4(%esp)
 9638 0261 8B4508   		movl	8(%ebp), %eax
 9639 0264 890424   		movl	%eax, (%esp)
 9640 0267 C745A8FF 		movl	$-1, -88(%ebp)
 9640      FFFFFF
 9641 026e E8000000 		call	__ZN24BatchedResFileGenService15generateFontResEPcS0_
 9641      00
 9642 0273 85C0     		testl	%eax, %eax
 9643 0275 0F849300 		je	L358
 9643      0000
 9645              	LM751:
 9646 027b 8B45D4   		movl	-44(%ebp), %eax
 9647 027e 89442410 		movl	%eax, 16(%esp)
 9648 0282 8B45D8   		movl	-40(%ebp), %eax
 9649 0285 8944240C 		movl	%eax, 12(%esp)
 9650 0289 C7442408 		movl	$LC300, 8(%esp)
 9650      38820000 
 9651 0291 C7442404 		movl	$LC1, 4(%esp)
 9651      3E000000 
 9652 0299 C7042403 		movl	$3, (%esp)
 9652      000000
 9653 02a0 E8000000 		call	_reslog_adaptor_log
 9653      00
 9655              	LM752:
GAS LISTING d:/MTK/MTK2503/MTK2503/11CW1418SP4_03_CORETEK03AE_11C_V1_GPRS_MMI/plutommi/Customer/ResGenerator/gcctmp/cc63daaa.s 			page 226


 9656 02a5 C745F0FF 		movl	$-1, -16(%ebp)
 9656      FFFFFF
 9657 02ac EB60     		jmp	L358
 9658              	L359:
 9660              	LM753:
 9661 02ae 8B45D0   		movl	-48(%ebp), %eax
 9662 02b1 3B050000 		cmpl	__ZN15ResFileGenParam10AUDIO_TYPEE, %eax
 9662      0000
 9663 02b7 7555     		jne	L358
 9665              	LM754:
 9666 02b9 8B45D4   		movl	-44(%ebp), %eax
 9667 02bc 89442408 		movl	%eax, 8(%esp)
 9668 02c0 8B45D8   		movl	-40(%ebp), %eax
 9669 02c3 89442404 		movl	%eax, 4(%esp)
 9670 02c7 8B4508   		movl	8(%ebp), %eax
 9671 02ca 890424   		movl	%eax, (%esp)
 9672 02cd C745A8FF 		movl	$-1, -88(%ebp)
 9672      FFFFFF
 9673 02d4 E8000000 		call	__ZN24BatchedResFileGenService16generateAudioResEPcS0_
 9673      00
 9674 02d9 85C0     		testl	%eax, %eax
 9675 02db 7431     		je	L358
 9677              	LM755:
 9678 02dd 8B45D4   		movl	-44(%ebp), %eax
 9679 02e0 89442410 		movl	%eax, 16(%esp)
 9680 02e4 8B45D8   		movl	-40(%ebp), %eax
 9681 02e7 8944240C 		movl	%eax, 12(%esp)
 9682 02eb C7442408 		movl	$LC301, 8(%esp)
 9682      51820000 
 9683 02f3 C7442404 		movl	$LC1, 4(%esp)
 9683      3E000000 
 9684 02fb C7042403 		movl	$3, (%esp)
 9684      000000
 9685 0302 E8000000 		call	_reslog_adaptor_log
 9685      00
 9687              	LM756:
 9688 0307 C745F0FF 		movl	$-1, -16(%ebp)
 9688      FFFFFF
 9689              	L358:
 9691              	LM757:
 9692 030e 8B45D8   		movl	-40(%ebp), %eax
 9693 0311 890424   		movl	%eax, (%esp)
 9694 0314 E8000000 		call	__ZdlPv
 9694      00
 9696              	LM758:
 9697 0319 8B45D4   		movl	-44(%ebp), %eax
 9698 031c 890424   		movl	%eax, (%esp)
 9699 031f E8000000 		call	__ZdlPv
 9699      00
 9701              	LM759:
 9702              	L353:
 9703 0324 8D45E0   		leal	-32(%ebp), %eax
 9704              	LBE97:
 9705              	LBE96:
 9706              	LBE95:
 9707              	LBE94:
 9708 0327 FF00     		incl	(%eax)
GAS LISTING d:/MTK/MTK2503/MTK2503/11CW1418SP4_03_CORETEK03AE_11C_V1_GPRS_MMI/plutommi/Customer/ResGenerator/gcctmp/cc63daaa.s 			page 227


 9709 0329 E9EBFDFF 		jmp	L351
 9709      FF
 9710              	L352:
 9712              	LM760:
 9713              	LBE93:
 9714 032e 8B45EC   		movl	-20(%ebp), %eax
 9715 0331 8B10     		movl	(%eax), %edx
 9716 0333 83C214   		addl	$20, %edx
 9717 0336 8B45EC   		movl	-20(%ebp), %eax
 9718 0339 890424   		movl	%eax, (%esp)
 9719 033c 8B02     		movl	(%edx), %eax
 9720 033e C745A8FF 		movl	$-1, -88(%ebp)
 9720      FFFFFF
 9721 0345 FFD0     		call	*%eax
 9723              	LM761:
 9724 0347 8B55EC   		movl	-20(%ebp), %edx
 9725 034a 895588   		movl	%edx, -120(%ebp)
 9726 034d 837D8800 		cmpl	$0, -120(%ebp)
 9727 0351 7416     		je	L365
 9728 0353 8B4588   		movl	-120(%ebp), %eax
 9729 0356 890424   		movl	%eax, (%esp)
 9730 0359 E8000000 		call	__ZN20ResFileGenParamModelD1Ev
 9730      00
 9731 035e 8B5588   		movl	-120(%ebp), %edx
 9732 0361 891424   		movl	%edx, (%esp)
 9733 0364 E8000000 		call	__ZdlPv
 9733      00
 9734              	L365:
 9736              	LM762:
 9737 0369 8B45E8   		movl	-24(%ebp), %eax
 9738 036c 890424   		movl	%eax, (%esp)
 9739 036f E8000000 		call	__ZdlPv
 9739      00
 9741              	LM763:
 9742 0374 8B45F0   		movl	-16(%ebp), %eax
 9743 0377 8945A0   		movl	%eax, -96(%ebp)
 9745              	LM764:
 9746              	L342:
 9747 037a 8D45A4   		leal	-92(%ebp), %eax
 9748 037d 890424   		movl	%eax, (%esp)
 9749 0380 E8000000 		call	__Unwind_SjLj_Unregister
 9749      00
 9750              	LBE92:
 9751 0385 8B45A0   		movl	-96(%ebp), %eax
 9752 0388 81C48C00 		addl	$140, %esp
 9752      0000
 9753 038e 5B       		popl	%ebx
 9754 038f 5E       		popl	%esi
 9755 0390 5F       		popl	%edi
 9756 0391 5D       		popl	%ebp
 9757 0392 C3       		ret
 9758              		.section	.gcc_except_table,""
 9759              	LLSDA2169:
 9760 000c FF       		.byte	0xff
 9761 000d FF       		.byte	0xff
 9762 000e 01       		.byte	0x1
 9763 000f 02       		.uleb128 LLSDACSE2169-LLSDACSB2169
GAS LISTING d:/MTK/MTK2503/MTK2503/11CW1418SP4_03_CORETEK03AE_11C_V1_GPRS_MMI/plutommi/Customer/ResGenerator/gcctmp/cc63daaa.s 			page 228


 9764              	LLSDACSB2169:
 9765 0010 00       		.uleb128 0x0
 9766 0011 00       		.uleb128 0x0
 9767              	LLSDACSE2169:
 9768 0012 0000     		.section	.text$_ZN24BatchedResFileGenService16generateResourceEPc,"x"
 9769              		.linkonce discard
 9787              	Lscope41:
 9789 0393 90       		.section	.text$_ZNKSt6vectorIP15ResFileGenParamSaIS1_EE4sizeEv,"x"
 9790              		.linkonce discard
 9791              		.align 2
 9794              	.globl __ZNKSt6vectorIP15ResFileGenParamSaIS1_EE4sizeEv
 9796              	__ZNKSt6vectorIP15ResFileGenParamSaIS1_EE4sizeEv:
 9798              	Ltext4:
   1:d:/MTK/MTK2503/MTK2503/11CW1418SP4_03_CORETEK03AE_11C_V1_GPRS_MMI/Tools/MinGW/include/c++/3.3.1/bits/stl_vector.h **** // Vector implementation -*- C++ -*-
   2:d:/MTK/MTK2503/MTK2503/11CW1418SP4_03_CORETEK03AE_11C_V1_GPRS_MMI/Tools/MinGW/include/c++/3.3.1/bits/stl_vector.h **** 
   3:d:/MTK/MTK2503/MTK2503/11CW1418SP4_03_CORETEK03AE_11C_V1_GPRS_MMI/Tools/MinGW/include/c++/3.3.1/bits/stl_vector.h **** // Copyright (C) 2001, 2002 Free Software Foundation, Inc.
   4:d:/MTK/MTK2503/MTK2503/11CW1418SP4_03_CORETEK03AE_11C_V1_GPRS_MMI/Tools/MinGW/include/c++/3.3.1/bits/stl_vector.h **** //
   5:d:/MTK/MTK2503/MTK2503/11CW1418SP4_03_CORETEK03AE_11C_V1_GPRS_MMI/Tools/MinGW/include/c++/3.3.1/bits/stl_vector.h **** // This file is part of the GNU ISO C++ Library.  This library is free
   6:d:/MTK/MTK2503/MTK2503/11CW1418SP4_03_CORETEK03AE_11C_V1_GPRS_MMI/Tools/MinGW/include/c++/3.3.1/bits/stl_vector.h **** // software; you can redistribute it and/or modify it under the
   7:d:/MTK/MTK2503/MTK2503/11CW1418SP4_03_CORETEK03AE_11C_V1_GPRS_MMI/Tools/MinGW/include/c++/3.3.1/bits/stl_vector.h **** // terms of the GNU General Public License as published by the
   8:d:/MTK/MTK2503/MTK2503/11CW1418SP4_03_CORETEK03AE_11C_V1_GPRS_MMI/Tools/MinGW/include/c++/3.3.1/bits/stl_vector.h **** // Free Software Foundation; either version 2, or (at your option)
   9:d:/MTK/MTK2503/MTK2503/11CW1418SP4_03_CORETEK03AE_11C_V1_GPRS_MMI/Tools/MinGW/include/c++/3.3.1/bits/stl_vector.h **** // any later version.
  10:d:/MTK/MTK2503/MTK2503/11CW1418SP4_03_CORETEK03AE_11C_V1_GPRS_MMI/Tools/MinGW/include/c++/3.3.1/bits/stl_vector.h **** 
  11:d:/MTK/MTK2503/MTK2503/11CW1418SP4_03_CORETEK03AE_11C_V1_GPRS_MMI/Tools/MinGW/include/c++/3.3.1/bits/stl_vector.h **** // This library is distributed in the hope that it will be useful,
  12:d:/MTK/MTK2503/MTK2503/11CW1418SP4_03_CORETEK03AE_11C_V1_GPRS_MMI/Tools/MinGW/include/c++/3.3.1/bits/stl_vector.h **** // but WITHOUT ANY WARRANTY; without even the implied warranty of
  13:d:/MTK/MTK2503/MTK2503/11CW1418SP4_03_CORETEK03AE_11C_V1_GPRS_MMI/Tools/MinGW/include/c++/3.3.1/bits/stl_vector.h **** // MERCHANTABILITY or FITNESS FOR A PARTICULAR PURPOSE.  See the
  14:d:/MTK/MTK2503/MTK2503/11CW1418SP4_03_CORETEK03AE_11C_V1_GPRS_MMI/Tools/MinGW/include/c++/3.3.1/bits/stl_vector.h **** // GNU General Public License for more details.
  15:d:/MTK/MTK2503/MTK2503/11CW1418SP4_03_CORETEK03AE_11C_V1_GPRS_MMI/Tools/MinGW/include/c++/3.3.1/bits/stl_vector.h **** 
  16:d:/MTK/MTK2503/MTK2503/11CW1418SP4_03_CORETEK03AE_11C_V1_GPRS_MMI/Tools/MinGW/include/c++/3.3.1/bits/stl_vector.h **** // You should have received a copy of the GNU General Public License along
  17:d:/MTK/MTK2503/MTK2503/11CW1418SP4_03_CORETEK03AE_11C_V1_GPRS_MMI/Tools/MinGW/include/c++/3.3.1/bits/stl_vector.h **** // with this library; see the file COPYING.  If not, write to the Free
  18:d:/MTK/MTK2503/MTK2503/11CW1418SP4_03_CORETEK03AE_11C_V1_GPRS_MMI/Tools/MinGW/include/c++/3.3.1/bits/stl_vector.h **** // Software Foundation, 59 Temple Place - Suite 330, Boston, MA 02111-1307,
  19:d:/MTK/MTK2503/MTK2503/11CW1418SP4_03_CORETEK03AE_11C_V1_GPRS_MMI/Tools/MinGW/include/c++/3.3.1/bits/stl_vector.h **** // USA.
  20:d:/MTK/MTK2503/MTK2503/11CW1418SP4_03_CORETEK03AE_11C_V1_GPRS_MMI/Tools/MinGW/include/c++/3.3.1/bits/stl_vector.h **** 
  21:d:/MTK/MTK2503/MTK2503/11CW1418SP4_03_CORETEK03AE_11C_V1_GPRS_MMI/Tools/MinGW/include/c++/3.3.1/bits/stl_vector.h **** // As a special exception, you may use this file as part of a free software
  22:d:/MTK/MTK2503/MTK2503/11CW1418SP4_03_CORETEK03AE_11C_V1_GPRS_MMI/Tools/MinGW/include/c++/3.3.1/bits/stl_vector.h **** // library without restriction.  Specifically, if other files instantiate
  23:d:/MTK/MTK2503/MTK2503/11CW1418SP4_03_CORETEK03AE_11C_V1_GPRS_MMI/Tools/MinGW/include/c++/3.3.1/bits/stl_vector.h **** // templates or use macros or inline functions from this file, or you compile
  24:d:/MTK/MTK2503/MTK2503/11CW1418SP4_03_CORETEK03AE_11C_V1_GPRS_MMI/Tools/MinGW/include/c++/3.3.1/bits/stl_vector.h **** // this file and link it with other files to produce an executable, this
  25:d:/MTK/MTK2503/MTK2503/11CW1418SP4_03_CORETEK03AE_11C_V1_GPRS_MMI/Tools/MinGW/include/c++/3.3.1/bits/stl_vector.h **** // file does not by itself cause the resulting executable to be covered by
  26:d:/MTK/MTK2503/MTK2503/11CW1418SP4_03_CORETEK03AE_11C_V1_GPRS_MMI/Tools/MinGW/include/c++/3.3.1/bits/stl_vector.h **** // the GNU General Public License.  This exception does not however
  27:d:/MTK/MTK2503/MTK2503/11CW1418SP4_03_CORETEK03AE_11C_V1_GPRS_MMI/Tools/MinGW/include/c++/3.3.1/bits/stl_vector.h **** // invalidate any other reasons why the executable file might be covered by
  28:d:/MTK/MTK2503/MTK2503/11CW1418SP4_03_CORETEK03AE_11C_V1_GPRS_MMI/Tools/MinGW/include/c++/3.3.1/bits/stl_vector.h **** // the GNU General Public License.
  29:d:/MTK/MTK2503/MTK2503/11CW1418SP4_03_CORETEK03AE_11C_V1_GPRS_MMI/Tools/MinGW/include/c++/3.3.1/bits/stl_vector.h **** 
  30:d:/MTK/MTK2503/MTK2503/11CW1418SP4_03_CORETEK03AE_11C_V1_GPRS_MMI/Tools/MinGW/include/c++/3.3.1/bits/stl_vector.h **** /*
  31:d:/MTK/MTK2503/MTK2503/11CW1418SP4_03_CORETEK03AE_11C_V1_GPRS_MMI/Tools/MinGW/include/c++/3.3.1/bits/stl_vector.h ****  *
  32:d:/MTK/MTK2503/MTK2503/11CW1418SP4_03_CORETEK03AE_11C_V1_GPRS_MMI/Tools/MinGW/include/c++/3.3.1/bits/stl_vector.h ****  * Copyright (c) 1994
  33:d:/MTK/MTK2503/MTK2503/11CW1418SP4_03_CORETEK03AE_11C_V1_GPRS_MMI/Tools/MinGW/include/c++/3.3.1/bits/stl_vector.h ****  * Hewlett-Packard Company
  34:d:/MTK/MTK2503/MTK2503/11CW1418SP4_03_CORETEK03AE_11C_V1_GPRS_MMI/Tools/MinGW/include/c++/3.3.1/bits/stl_vector.h ****  *
  35:d:/MTK/MTK2503/MTK2503/11CW1418SP4_03_CORETEK03AE_11C_V1_GPRS_MMI/Tools/MinGW/include/c++/3.3.1/bits/stl_vector.h ****  * Permission to use, copy, modify, distribute and sell this software
  36:d:/MTK/MTK2503/MTK2503/11CW1418SP4_03_CORETEK03AE_11C_V1_GPRS_MMI/Tools/MinGW/include/c++/3.3.1/bits/stl_vector.h ****  * and its documentation for any purpose is hereby granted without fee,
  37:d:/MTK/MTK2503/MTK2503/11CW1418SP4_03_CORETEK03AE_11C_V1_GPRS_MMI/Tools/MinGW/include/c++/3.3.1/bits/stl_vector.h ****  * provided that the above copyright notice appear in all copies and
  38:d:/MTK/MTK2503/MTK2503/11CW1418SP4_03_CORETEK03AE_11C_V1_GPRS_MMI/Tools/MinGW/include/c++/3.3.1/bits/stl_vector.h ****  * that both that copyright notice and this permission notice appear
  39:d:/MTK/MTK2503/MTK2503/11CW1418SP4_03_CORETEK03AE_11C_V1_GPRS_MMI/Tools/MinGW/include/c++/3.3.1/bits/stl_vector.h ****  * in supporting documentation.  Hewlett-Packard Company makes no
  40:d:/MTK/MTK2503/MTK2503/11CW1418SP4_03_CORETEK03AE_11C_V1_GPRS_MMI/Tools/MinGW/include/c++/3.3.1/bits/stl_vector.h ****  * representations about the suitability of this software for any
  41:d:/MTK/MTK2503/MTK2503/11CW1418SP4_03_CORETEK03AE_11C_V1_GPRS_MMI/Tools/MinGW/include/c++/3.3.1/bits/stl_vector.h ****  * purpose.  It is provided "as is" without express or implied warranty.
  42:d:/MTK/MTK2503/MTK2503/11CW1418SP4_03_CORETEK03AE_11C_V1_GPRS_MMI/Tools/MinGW/include/c++/3.3.1/bits/stl_vector.h ****  *
  43:d:/MTK/MTK2503/MTK2503/11CW1418SP4_03_CORETEK03AE_11C_V1_GPRS_MMI/Tools/MinGW/include/c++/3.3.1/bits/stl_vector.h ****  *
  44:d:/MTK/MTK2503/MTK2503/11CW1418SP4_03_CORETEK03AE_11C_V1_GPRS_MMI/Tools/MinGW/include/c++/3.3.1/bits/stl_vector.h ****  * Copyright (c) 1996
GAS LISTING d:/MTK/MTK2503/MTK2503/11CW1418SP4_03_CORETEK03AE_11C_V1_GPRS_MMI/plutommi/Customer/ResGenerator/gcctmp/cc63daaa.s 			page 229


  45:d:/MTK/MTK2503/MTK2503/11CW1418SP4_03_CORETEK03AE_11C_V1_GPRS_MMI/Tools/MinGW/include/c++/3.3.1/bits/stl_vector.h ****  * Silicon Graphics Computer Systems, Inc.
  46:d:/MTK/MTK2503/MTK2503/11CW1418SP4_03_CORETEK03AE_11C_V1_GPRS_MMI/Tools/MinGW/include/c++/3.3.1/bits/stl_vector.h ****  *
  47:d:/MTK/MTK2503/MTK2503/11CW1418SP4_03_CORETEK03AE_11C_V1_GPRS_MMI/Tools/MinGW/include/c++/3.3.1/bits/stl_vector.h ****  * Permission to use, copy, modify, distribute and sell this software
  48:d:/MTK/MTK2503/MTK2503/11CW1418SP4_03_CORETEK03AE_11C_V1_GPRS_MMI/Tools/MinGW/include/c++/3.3.1/bits/stl_vector.h ****  * and its documentation for any purpose is hereby granted without fee,
  49:d:/MTK/MTK2503/MTK2503/11CW1418SP4_03_CORETEK03AE_11C_V1_GPRS_MMI/Tools/MinGW/include/c++/3.3.1/bits/stl_vector.h ****  * provided that the above copyright notice appear in all copies and
  50:d:/MTK/MTK2503/MTK2503/11CW1418SP4_03_CORETEK03AE_11C_V1_GPRS_MMI/Tools/MinGW/include/c++/3.3.1/bits/stl_vector.h ****  * that both that copyright notice and this permission notice appear
  51:d:/MTK/MTK2503/MTK2503/11CW1418SP4_03_CORETEK03AE_11C_V1_GPRS_MMI/Tools/MinGW/include/c++/3.3.1/bits/stl_vector.h ****  * in supporting documentation.  Silicon Graphics makes no
  52:d:/MTK/MTK2503/MTK2503/11CW1418SP4_03_CORETEK03AE_11C_V1_GPRS_MMI/Tools/MinGW/include/c++/3.3.1/bits/stl_vector.h ****  * representations about the suitability of this  software for any
  53:d:/MTK/MTK2503/MTK2503/11CW1418SP4_03_CORETEK03AE_11C_V1_GPRS_MMI/Tools/MinGW/include/c++/3.3.1/bits/stl_vector.h ****  * purpose.  It is provided "as is" without express or implied warranty.
  54:d:/MTK/MTK2503/MTK2503/11CW1418SP4_03_CORETEK03AE_11C_V1_GPRS_MMI/Tools/MinGW/include/c++/3.3.1/bits/stl_vector.h ****  */
  55:d:/MTK/MTK2503/MTK2503/11CW1418SP4_03_CORETEK03AE_11C_V1_GPRS_MMI/Tools/MinGW/include/c++/3.3.1/bits/stl_vector.h **** 
  56:d:/MTK/MTK2503/MTK2503/11CW1418SP4_03_CORETEK03AE_11C_V1_GPRS_MMI/Tools/MinGW/include/c++/3.3.1/bits/stl_vector.h **** /** @file stl_vector.h
  57:d:/MTK/MTK2503/MTK2503/11CW1418SP4_03_CORETEK03AE_11C_V1_GPRS_MMI/Tools/MinGW/include/c++/3.3.1/bits/stl_vector.h ****  *  This is an internal header file, included by other library headers.
  58:d:/MTK/MTK2503/MTK2503/11CW1418SP4_03_CORETEK03AE_11C_V1_GPRS_MMI/Tools/MinGW/include/c++/3.3.1/bits/stl_vector.h ****  *  You should not attempt to use it directly.
  59:d:/MTK/MTK2503/MTK2503/11CW1418SP4_03_CORETEK03AE_11C_V1_GPRS_MMI/Tools/MinGW/include/c++/3.3.1/bits/stl_vector.h ****  */
  60:d:/MTK/MTK2503/MTK2503/11CW1418SP4_03_CORETEK03AE_11C_V1_GPRS_MMI/Tools/MinGW/include/c++/3.3.1/bits/stl_vector.h **** 
  61:d:/MTK/MTK2503/MTK2503/11CW1418SP4_03_CORETEK03AE_11C_V1_GPRS_MMI/Tools/MinGW/include/c++/3.3.1/bits/stl_vector.h **** #ifndef __GLIBCPP_INTERNAL_VECTOR_H
  62:d:/MTK/MTK2503/MTK2503/11CW1418SP4_03_CORETEK03AE_11C_V1_GPRS_MMI/Tools/MinGW/include/c++/3.3.1/bits/stl_vector.h **** #define __GLIBCPP_INTERNAL_VECTOR_H
  63:d:/MTK/MTK2503/MTK2503/11CW1418SP4_03_CORETEK03AE_11C_V1_GPRS_MMI/Tools/MinGW/include/c++/3.3.1/bits/stl_vector.h **** 
  64:d:/MTK/MTK2503/MTK2503/11CW1418SP4_03_CORETEK03AE_11C_V1_GPRS_MMI/Tools/MinGW/include/c++/3.3.1/bits/stl_vector.h **** #include <bits/stl_iterator_base_funcs.h>
  65:d:/MTK/MTK2503/MTK2503/11CW1418SP4_03_CORETEK03AE_11C_V1_GPRS_MMI/Tools/MinGW/include/c++/3.3.1/bits/stl_vector.h **** #include <bits/functexcept.h>
  66:d:/MTK/MTK2503/MTK2503/11CW1418SP4_03_CORETEK03AE_11C_V1_GPRS_MMI/Tools/MinGW/include/c++/3.3.1/bits/stl_vector.h **** #include <bits/concept_check.h>
  67:d:/MTK/MTK2503/MTK2503/11CW1418SP4_03_CORETEK03AE_11C_V1_GPRS_MMI/Tools/MinGW/include/c++/3.3.1/bits/stl_vector.h **** 
  68:d:/MTK/MTK2503/MTK2503/11CW1418SP4_03_CORETEK03AE_11C_V1_GPRS_MMI/Tools/MinGW/include/c++/3.3.1/bits/stl_vector.h **** namespace std
  69:d:/MTK/MTK2503/MTK2503/11CW1418SP4_03_CORETEK03AE_11C_V1_GPRS_MMI/Tools/MinGW/include/c++/3.3.1/bits/stl_vector.h **** {
  70:d:/MTK/MTK2503/MTK2503/11CW1418SP4_03_CORETEK03AE_11C_V1_GPRS_MMI/Tools/MinGW/include/c++/3.3.1/bits/stl_vector.h ****   /// @if maint Primary default version.  @endif
  71:d:/MTK/MTK2503/MTK2503/11CW1418SP4_03_CORETEK03AE_11C_V1_GPRS_MMI/Tools/MinGW/include/c++/3.3.1/bits/stl_vector.h ****   /**
  72:d:/MTK/MTK2503/MTK2503/11CW1418SP4_03_CORETEK03AE_11C_V1_GPRS_MMI/Tools/MinGW/include/c++/3.3.1/bits/stl_vector.h ****    *  @if maint
  73:d:/MTK/MTK2503/MTK2503/11CW1418SP4_03_CORETEK03AE_11C_V1_GPRS_MMI/Tools/MinGW/include/c++/3.3.1/bits/stl_vector.h ****    *  See bits/stl_deque.h's _Deque_alloc_base for an explanation.
  74:d:/MTK/MTK2503/MTK2503/11CW1418SP4_03_CORETEK03AE_11C_V1_GPRS_MMI/Tools/MinGW/include/c++/3.3.1/bits/stl_vector.h ****    *  @endif
  75:d:/MTK/MTK2503/MTK2503/11CW1418SP4_03_CORETEK03AE_11C_V1_GPRS_MMI/Tools/MinGW/include/c++/3.3.1/bits/stl_vector.h ****   */
  76:d:/MTK/MTK2503/MTK2503/11CW1418SP4_03_CORETEK03AE_11C_V1_GPRS_MMI/Tools/MinGW/include/c++/3.3.1/bits/stl_vector.h ****   template<typename _Tp, typename _Allocator, bool _IsStatic>
  77:d:/MTK/MTK2503/MTK2503/11CW1418SP4_03_CORETEK03AE_11C_V1_GPRS_MMI/Tools/MinGW/include/c++/3.3.1/bits/stl_vector.h ****     class _Vector_alloc_base
  78:d:/MTK/MTK2503/MTK2503/11CW1418SP4_03_CORETEK03AE_11C_V1_GPRS_MMI/Tools/MinGW/include/c++/3.3.1/bits/stl_vector.h ****     {
  79:d:/MTK/MTK2503/MTK2503/11CW1418SP4_03_CORETEK03AE_11C_V1_GPRS_MMI/Tools/MinGW/include/c++/3.3.1/bits/stl_vector.h ****     public:
  80:d:/MTK/MTK2503/MTK2503/11CW1418SP4_03_CORETEK03AE_11C_V1_GPRS_MMI/Tools/MinGW/include/c++/3.3.1/bits/stl_vector.h ****       typedef typename _Alloc_traits<_Tp, _Allocator>::allocator_type
  81:d:/MTK/MTK2503/MTK2503/11CW1418SP4_03_CORETEK03AE_11C_V1_GPRS_MMI/Tools/MinGW/include/c++/3.3.1/bits/stl_vector.h ****       allocator_type;
  82:d:/MTK/MTK2503/MTK2503/11CW1418SP4_03_CORETEK03AE_11C_V1_GPRS_MMI/Tools/MinGW/include/c++/3.3.1/bits/stl_vector.h **** 
  83:d:/MTK/MTK2503/MTK2503/11CW1418SP4_03_CORETEK03AE_11C_V1_GPRS_MMI/Tools/MinGW/include/c++/3.3.1/bits/stl_vector.h ****       allocator_type
  84:d:/MTK/MTK2503/MTK2503/11CW1418SP4_03_CORETEK03AE_11C_V1_GPRS_MMI/Tools/MinGW/include/c++/3.3.1/bits/stl_vector.h ****       get_allocator() const { return _M_data_allocator; }
  85:d:/MTK/MTK2503/MTK2503/11CW1418SP4_03_CORETEK03AE_11C_V1_GPRS_MMI/Tools/MinGW/include/c++/3.3.1/bits/stl_vector.h ****   
  86:d:/MTK/MTK2503/MTK2503/11CW1418SP4_03_CORETEK03AE_11C_V1_GPRS_MMI/Tools/MinGW/include/c++/3.3.1/bits/stl_vector.h ****       _Vector_alloc_base(const allocator_type& __a)
  87:d:/MTK/MTK2503/MTK2503/11CW1418SP4_03_CORETEK03AE_11C_V1_GPRS_MMI/Tools/MinGW/include/c++/3.3.1/bits/stl_vector.h ****       : _M_data_allocator(__a), _M_start(0), _M_finish(0), _M_end_of_storage(0)
  88:d:/MTK/MTK2503/MTK2503/11CW1418SP4_03_CORETEK03AE_11C_V1_GPRS_MMI/Tools/MinGW/include/c++/3.3.1/bits/stl_vector.h ****       { }
  89:d:/MTK/MTK2503/MTK2503/11CW1418SP4_03_CORETEK03AE_11C_V1_GPRS_MMI/Tools/MinGW/include/c++/3.3.1/bits/stl_vector.h ****   
  90:d:/MTK/MTK2503/MTK2503/11CW1418SP4_03_CORETEK03AE_11C_V1_GPRS_MMI/Tools/MinGW/include/c++/3.3.1/bits/stl_vector.h ****     protected:
  91:d:/MTK/MTK2503/MTK2503/11CW1418SP4_03_CORETEK03AE_11C_V1_GPRS_MMI/Tools/MinGW/include/c++/3.3.1/bits/stl_vector.h ****       allocator_type _M_data_allocator;
  92:d:/MTK/MTK2503/MTK2503/11CW1418SP4_03_CORETEK03AE_11C_V1_GPRS_MMI/Tools/MinGW/include/c++/3.3.1/bits/stl_vector.h ****       _Tp*           _M_start;
  93:d:/MTK/MTK2503/MTK2503/11CW1418SP4_03_CORETEK03AE_11C_V1_GPRS_MMI/Tools/MinGW/include/c++/3.3.1/bits/stl_vector.h ****       _Tp*           _M_finish;
  94:d:/MTK/MTK2503/MTK2503/11CW1418SP4_03_CORETEK03AE_11C_V1_GPRS_MMI/Tools/MinGW/include/c++/3.3.1/bits/stl_vector.h ****       _Tp*           _M_end_of_storage;
  95:d:/MTK/MTK2503/MTK2503/11CW1418SP4_03_CORETEK03AE_11C_V1_GPRS_MMI/Tools/MinGW/include/c++/3.3.1/bits/stl_vector.h ****   
  96:d:/MTK/MTK2503/MTK2503/11CW1418SP4_03_CORETEK03AE_11C_V1_GPRS_MMI/Tools/MinGW/include/c++/3.3.1/bits/stl_vector.h ****       _Tp*
  97:d:/MTK/MTK2503/MTK2503/11CW1418SP4_03_CORETEK03AE_11C_V1_GPRS_MMI/Tools/MinGW/include/c++/3.3.1/bits/stl_vector.h ****       _M_allocate(size_t __n) { return _M_data_allocator.allocate(__n); }
  98:d:/MTK/MTK2503/MTK2503/11CW1418SP4_03_CORETEK03AE_11C_V1_GPRS_MMI/Tools/MinGW/include/c++/3.3.1/bits/stl_vector.h ****   
  99:d:/MTK/MTK2503/MTK2503/11CW1418SP4_03_CORETEK03AE_11C_V1_GPRS_MMI/Tools/MinGW/include/c++/3.3.1/bits/stl_vector.h ****       void
 100:d:/MTK/MTK2503/MTK2503/11CW1418SP4_03_CORETEK03AE_11C_V1_GPRS_MMI/Tools/MinGW/include/c++/3.3.1/bits/stl_vector.h ****       _M_deallocate(_Tp* __p, size_t __n)
 101:d:/MTK/MTK2503/MTK2503/11CW1418SP4_03_CORETEK03AE_11C_V1_GPRS_MMI/Tools/MinGW/include/c++/3.3.1/bits/stl_vector.h ****       { if (__p) _M_data_allocator.deallocate(__p, __n); }
GAS LISTING d:/MTK/MTK2503/MTK2503/11CW1418SP4_03_CORETEK03AE_11C_V1_GPRS_MMI/plutommi/Customer/ResGenerator/gcctmp/cc63daaa.s 			page 230


 102:d:/MTK/MTK2503/MTK2503/11CW1418SP4_03_CORETEK03AE_11C_V1_GPRS_MMI/Tools/MinGW/include/c++/3.3.1/bits/stl_vector.h ****     };
 103:d:/MTK/MTK2503/MTK2503/11CW1418SP4_03_CORETEK03AE_11C_V1_GPRS_MMI/Tools/MinGW/include/c++/3.3.1/bits/stl_vector.h ****   
 104:d:/MTK/MTK2503/MTK2503/11CW1418SP4_03_CORETEK03AE_11C_V1_GPRS_MMI/Tools/MinGW/include/c++/3.3.1/bits/stl_vector.h ****   /// @if maint Specialization for instanceless allocators.  @endif
 105:d:/MTK/MTK2503/MTK2503/11CW1418SP4_03_CORETEK03AE_11C_V1_GPRS_MMI/Tools/MinGW/include/c++/3.3.1/bits/stl_vector.h ****   template<typename _Tp, typename _Allocator>
 106:d:/MTK/MTK2503/MTK2503/11CW1418SP4_03_CORETEK03AE_11C_V1_GPRS_MMI/Tools/MinGW/include/c++/3.3.1/bits/stl_vector.h ****     class _Vector_alloc_base<_Tp, _Allocator, true>
 107:d:/MTK/MTK2503/MTK2503/11CW1418SP4_03_CORETEK03AE_11C_V1_GPRS_MMI/Tools/MinGW/include/c++/3.3.1/bits/stl_vector.h ****     {
 108:d:/MTK/MTK2503/MTK2503/11CW1418SP4_03_CORETEK03AE_11C_V1_GPRS_MMI/Tools/MinGW/include/c++/3.3.1/bits/stl_vector.h ****     public:
 109:d:/MTK/MTK2503/MTK2503/11CW1418SP4_03_CORETEK03AE_11C_V1_GPRS_MMI/Tools/MinGW/include/c++/3.3.1/bits/stl_vector.h ****       typedef typename _Alloc_traits<_Tp, _Allocator>::allocator_type
 110:d:/MTK/MTK2503/MTK2503/11CW1418SP4_03_CORETEK03AE_11C_V1_GPRS_MMI/Tools/MinGW/include/c++/3.3.1/bits/stl_vector.h ****              allocator_type;
 111:d:/MTK/MTK2503/MTK2503/11CW1418SP4_03_CORETEK03AE_11C_V1_GPRS_MMI/Tools/MinGW/include/c++/3.3.1/bits/stl_vector.h ****   
 112:d:/MTK/MTK2503/MTK2503/11CW1418SP4_03_CORETEK03AE_11C_V1_GPRS_MMI/Tools/MinGW/include/c++/3.3.1/bits/stl_vector.h ****       allocator_type
 113:d:/MTK/MTK2503/MTK2503/11CW1418SP4_03_CORETEK03AE_11C_V1_GPRS_MMI/Tools/MinGW/include/c++/3.3.1/bits/stl_vector.h ****       get_allocator() const { return allocator_type(); }
 114:d:/MTK/MTK2503/MTK2503/11CW1418SP4_03_CORETEK03AE_11C_V1_GPRS_MMI/Tools/MinGW/include/c++/3.3.1/bits/stl_vector.h ****       
 115:d:/MTK/MTK2503/MTK2503/11CW1418SP4_03_CORETEK03AE_11C_V1_GPRS_MMI/Tools/MinGW/include/c++/3.3.1/bits/stl_vector.h ****       _Vector_alloc_base(const allocator_type&)
 116:d:/MTK/MTK2503/MTK2503/11CW1418SP4_03_CORETEK03AE_11C_V1_GPRS_MMI/Tools/MinGW/include/c++/3.3.1/bits/stl_vector.h ****       : _M_start(0), _M_finish(0), _M_end_of_storage(0)
 117:d:/MTK/MTK2503/MTK2503/11CW1418SP4_03_CORETEK03AE_11C_V1_GPRS_MMI/Tools/MinGW/include/c++/3.3.1/bits/stl_vector.h ****       { }
 118:d:/MTK/MTK2503/MTK2503/11CW1418SP4_03_CORETEK03AE_11C_V1_GPRS_MMI/Tools/MinGW/include/c++/3.3.1/bits/stl_vector.h ****   
 119:d:/MTK/MTK2503/MTK2503/11CW1418SP4_03_CORETEK03AE_11C_V1_GPRS_MMI/Tools/MinGW/include/c++/3.3.1/bits/stl_vector.h ****     protected:
 120:d:/MTK/MTK2503/MTK2503/11CW1418SP4_03_CORETEK03AE_11C_V1_GPRS_MMI/Tools/MinGW/include/c++/3.3.1/bits/stl_vector.h ****       _Tp* _M_start;
 121:d:/MTK/MTK2503/MTK2503/11CW1418SP4_03_CORETEK03AE_11C_V1_GPRS_MMI/Tools/MinGW/include/c++/3.3.1/bits/stl_vector.h ****       _Tp* _M_finish;
 122:d:/MTK/MTK2503/MTK2503/11CW1418SP4_03_CORETEK03AE_11C_V1_GPRS_MMI/Tools/MinGW/include/c++/3.3.1/bits/stl_vector.h ****       _Tp* _M_end_of_storage;
 123:d:/MTK/MTK2503/MTK2503/11CW1418SP4_03_CORETEK03AE_11C_V1_GPRS_MMI/Tools/MinGW/include/c++/3.3.1/bits/stl_vector.h ****   
 124:d:/MTK/MTK2503/MTK2503/11CW1418SP4_03_CORETEK03AE_11C_V1_GPRS_MMI/Tools/MinGW/include/c++/3.3.1/bits/stl_vector.h ****       typedef typename _Alloc_traits<_Tp, _Allocator>::_Alloc_type _Alloc_type;
 125:d:/MTK/MTK2503/MTK2503/11CW1418SP4_03_CORETEK03AE_11C_V1_GPRS_MMI/Tools/MinGW/include/c++/3.3.1/bits/stl_vector.h ****       
 126:d:/MTK/MTK2503/MTK2503/11CW1418SP4_03_CORETEK03AE_11C_V1_GPRS_MMI/Tools/MinGW/include/c++/3.3.1/bits/stl_vector.h ****       _Tp*
 127:d:/MTK/MTK2503/MTK2503/11CW1418SP4_03_CORETEK03AE_11C_V1_GPRS_MMI/Tools/MinGW/include/c++/3.3.1/bits/stl_vector.h ****       _M_allocate(size_t __n) { return _Alloc_type::allocate(__n); }
 128:d:/MTK/MTK2503/MTK2503/11CW1418SP4_03_CORETEK03AE_11C_V1_GPRS_MMI/Tools/MinGW/include/c++/3.3.1/bits/stl_vector.h ****   
 129:d:/MTK/MTK2503/MTK2503/11CW1418SP4_03_CORETEK03AE_11C_V1_GPRS_MMI/Tools/MinGW/include/c++/3.3.1/bits/stl_vector.h ****       void
 130:d:/MTK/MTK2503/MTK2503/11CW1418SP4_03_CORETEK03AE_11C_V1_GPRS_MMI/Tools/MinGW/include/c++/3.3.1/bits/stl_vector.h ****       _M_deallocate(_Tp* __p, size_t __n) { _Alloc_type::deallocate(__p, __n);}
 131:d:/MTK/MTK2503/MTK2503/11CW1418SP4_03_CORETEK03AE_11C_V1_GPRS_MMI/Tools/MinGW/include/c++/3.3.1/bits/stl_vector.h ****     };
 132:d:/MTK/MTK2503/MTK2503/11CW1418SP4_03_CORETEK03AE_11C_V1_GPRS_MMI/Tools/MinGW/include/c++/3.3.1/bits/stl_vector.h ****   
 133:d:/MTK/MTK2503/MTK2503/11CW1418SP4_03_CORETEK03AE_11C_V1_GPRS_MMI/Tools/MinGW/include/c++/3.3.1/bits/stl_vector.h ****   
 134:d:/MTK/MTK2503/MTK2503/11CW1418SP4_03_CORETEK03AE_11C_V1_GPRS_MMI/Tools/MinGW/include/c++/3.3.1/bits/stl_vector.h ****   /**
 135:d:/MTK/MTK2503/MTK2503/11CW1418SP4_03_CORETEK03AE_11C_V1_GPRS_MMI/Tools/MinGW/include/c++/3.3.1/bits/stl_vector.h ****    *  @if maint
 136:d:/MTK/MTK2503/MTK2503/11CW1418SP4_03_CORETEK03AE_11C_V1_GPRS_MMI/Tools/MinGW/include/c++/3.3.1/bits/stl_vector.h ****    *  See bits/stl_deque.h's _Deque_base for an explanation.
 137:d:/MTK/MTK2503/MTK2503/11CW1418SP4_03_CORETEK03AE_11C_V1_GPRS_MMI/Tools/MinGW/include/c++/3.3.1/bits/stl_vector.h ****    *  @endif
 138:d:/MTK/MTK2503/MTK2503/11CW1418SP4_03_CORETEK03AE_11C_V1_GPRS_MMI/Tools/MinGW/include/c++/3.3.1/bits/stl_vector.h ****   */
 139:d:/MTK/MTK2503/MTK2503/11CW1418SP4_03_CORETEK03AE_11C_V1_GPRS_MMI/Tools/MinGW/include/c++/3.3.1/bits/stl_vector.h ****   template<typename _Tp, typename _Alloc>
 140:d:/MTK/MTK2503/MTK2503/11CW1418SP4_03_CORETEK03AE_11C_V1_GPRS_MMI/Tools/MinGW/include/c++/3.3.1/bits/stl_vector.h ****     struct _Vector_base
 141:d:/MTK/MTK2503/MTK2503/11CW1418SP4_03_CORETEK03AE_11C_V1_GPRS_MMI/Tools/MinGW/include/c++/3.3.1/bits/stl_vector.h ****     : public _Vector_alloc_base<_Tp, _Alloc,
 142:d:/MTK/MTK2503/MTK2503/11CW1418SP4_03_CORETEK03AE_11C_V1_GPRS_MMI/Tools/MinGW/include/c++/3.3.1/bits/stl_vector.h ****                                 _Alloc_traits<_Tp, _Alloc>::_S_instanceless>
 143:d:/MTK/MTK2503/MTK2503/11CW1418SP4_03_CORETEK03AE_11C_V1_GPRS_MMI/Tools/MinGW/include/c++/3.3.1/bits/stl_vector.h ****     {
 144:d:/MTK/MTK2503/MTK2503/11CW1418SP4_03_CORETEK03AE_11C_V1_GPRS_MMI/Tools/MinGW/include/c++/3.3.1/bits/stl_vector.h ****     public:
 145:d:/MTK/MTK2503/MTK2503/11CW1418SP4_03_CORETEK03AE_11C_V1_GPRS_MMI/Tools/MinGW/include/c++/3.3.1/bits/stl_vector.h ****       typedef _Vector_alloc_base<_Tp, _Alloc,
 146:d:/MTK/MTK2503/MTK2503/11CW1418SP4_03_CORETEK03AE_11C_V1_GPRS_MMI/Tools/MinGW/include/c++/3.3.1/bits/stl_vector.h **** 				 _Alloc_traits<_Tp, _Alloc>::_S_instanceless>
 147:d:/MTK/MTK2503/MTK2503/11CW1418SP4_03_CORETEK03AE_11C_V1_GPRS_MMI/Tools/MinGW/include/c++/3.3.1/bits/stl_vector.h ****          _Base;
 148:d:/MTK/MTK2503/MTK2503/11CW1418SP4_03_CORETEK03AE_11C_V1_GPRS_MMI/Tools/MinGW/include/c++/3.3.1/bits/stl_vector.h ****       typedef typename _Base::allocator_type allocator_type;
 149:d:/MTK/MTK2503/MTK2503/11CW1418SP4_03_CORETEK03AE_11C_V1_GPRS_MMI/Tools/MinGW/include/c++/3.3.1/bits/stl_vector.h **** 
 150:d:/MTK/MTK2503/MTK2503/11CW1418SP4_03_CORETEK03AE_11C_V1_GPRS_MMI/Tools/MinGW/include/c++/3.3.1/bits/stl_vector.h ****       _Vector_base(const allocator_type& __a)
 151:d:/MTK/MTK2503/MTK2503/11CW1418SP4_03_CORETEK03AE_11C_V1_GPRS_MMI/Tools/MinGW/include/c++/3.3.1/bits/stl_vector.h ****       : _Base(__a) { }
 152:d:/MTK/MTK2503/MTK2503/11CW1418SP4_03_CORETEK03AE_11C_V1_GPRS_MMI/Tools/MinGW/include/c++/3.3.1/bits/stl_vector.h ****       
 153:d:/MTK/MTK2503/MTK2503/11CW1418SP4_03_CORETEK03AE_11C_V1_GPRS_MMI/Tools/MinGW/include/c++/3.3.1/bits/stl_vector.h ****       _Vector_base(size_t __n, const allocator_type& __a)
 154:d:/MTK/MTK2503/MTK2503/11CW1418SP4_03_CORETEK03AE_11C_V1_GPRS_MMI/Tools/MinGW/include/c++/3.3.1/bits/stl_vector.h ****       : _Base(__a)
 155:d:/MTK/MTK2503/MTK2503/11CW1418SP4_03_CORETEK03AE_11C_V1_GPRS_MMI/Tools/MinGW/include/c++/3.3.1/bits/stl_vector.h ****       {
 156:d:/MTK/MTK2503/MTK2503/11CW1418SP4_03_CORETEK03AE_11C_V1_GPRS_MMI/Tools/MinGW/include/c++/3.3.1/bits/stl_vector.h **** 	_M_start = _M_allocate(__n);
 157:d:/MTK/MTK2503/MTK2503/11CW1418SP4_03_CORETEK03AE_11C_V1_GPRS_MMI/Tools/MinGW/include/c++/3.3.1/bits/stl_vector.h **** 	_M_finish = _M_start;
 158:d:/MTK/MTK2503/MTK2503/11CW1418SP4_03_CORETEK03AE_11C_V1_GPRS_MMI/Tools/MinGW/include/c++/3.3.1/bits/stl_vector.h **** 	_M_end_of_storage = _M_start + __n;
GAS LISTING d:/MTK/MTK2503/MTK2503/11CW1418SP4_03_CORETEK03AE_11C_V1_GPRS_MMI/plutommi/Customer/ResGenerator/gcctmp/cc63daaa.s 			page 231


 159:d:/MTK/MTK2503/MTK2503/11CW1418SP4_03_CORETEK03AE_11C_V1_GPRS_MMI/Tools/MinGW/include/c++/3.3.1/bits/stl_vector.h ****       }
 160:d:/MTK/MTK2503/MTK2503/11CW1418SP4_03_CORETEK03AE_11C_V1_GPRS_MMI/Tools/MinGW/include/c++/3.3.1/bits/stl_vector.h ****       
 161:d:/MTK/MTK2503/MTK2503/11CW1418SP4_03_CORETEK03AE_11C_V1_GPRS_MMI/Tools/MinGW/include/c++/3.3.1/bits/stl_vector.h ****       ~_Vector_base() 
 162:d:/MTK/MTK2503/MTK2503/11CW1418SP4_03_CORETEK03AE_11C_V1_GPRS_MMI/Tools/MinGW/include/c++/3.3.1/bits/stl_vector.h ****       { _M_deallocate(_M_start, _M_end_of_storage - _M_start); }
 163:d:/MTK/MTK2503/MTK2503/11CW1418SP4_03_CORETEK03AE_11C_V1_GPRS_MMI/Tools/MinGW/include/c++/3.3.1/bits/stl_vector.h ****     };
 164:d:/MTK/MTK2503/MTK2503/11CW1418SP4_03_CORETEK03AE_11C_V1_GPRS_MMI/Tools/MinGW/include/c++/3.3.1/bits/stl_vector.h ****   
 165:d:/MTK/MTK2503/MTK2503/11CW1418SP4_03_CORETEK03AE_11C_V1_GPRS_MMI/Tools/MinGW/include/c++/3.3.1/bits/stl_vector.h ****   
 166:d:/MTK/MTK2503/MTK2503/11CW1418SP4_03_CORETEK03AE_11C_V1_GPRS_MMI/Tools/MinGW/include/c++/3.3.1/bits/stl_vector.h ****   /**
 167:d:/MTK/MTK2503/MTK2503/11CW1418SP4_03_CORETEK03AE_11C_V1_GPRS_MMI/Tools/MinGW/include/c++/3.3.1/bits/stl_vector.h ****    *  @brief  A standard container which offers fixed time access to individual
 168:d:/MTK/MTK2503/MTK2503/11CW1418SP4_03_CORETEK03AE_11C_V1_GPRS_MMI/Tools/MinGW/include/c++/3.3.1/bits/stl_vector.h ****    *  elements in any order.
 169:d:/MTK/MTK2503/MTK2503/11CW1418SP4_03_CORETEK03AE_11C_V1_GPRS_MMI/Tools/MinGW/include/c++/3.3.1/bits/stl_vector.h ****    *
 170:d:/MTK/MTK2503/MTK2503/11CW1418SP4_03_CORETEK03AE_11C_V1_GPRS_MMI/Tools/MinGW/include/c++/3.3.1/bits/stl_vector.h ****    *  @ingroup Containers
 171:d:/MTK/MTK2503/MTK2503/11CW1418SP4_03_CORETEK03AE_11C_V1_GPRS_MMI/Tools/MinGW/include/c++/3.3.1/bits/stl_vector.h ****    *  @ingroup Sequences
 172:d:/MTK/MTK2503/MTK2503/11CW1418SP4_03_CORETEK03AE_11C_V1_GPRS_MMI/Tools/MinGW/include/c++/3.3.1/bits/stl_vector.h ****    *
 173:d:/MTK/MTK2503/MTK2503/11CW1418SP4_03_CORETEK03AE_11C_V1_GPRS_MMI/Tools/MinGW/include/c++/3.3.1/bits/stl_vector.h ****    *  Meets the requirements of a <a href="tables.html#65">container</a>, a
 174:d:/MTK/MTK2503/MTK2503/11CW1418SP4_03_CORETEK03AE_11C_V1_GPRS_MMI/Tools/MinGW/include/c++/3.3.1/bits/stl_vector.h ****    *  <a href="tables.html#66">reversible container</a>, and a
 175:d:/MTK/MTK2503/MTK2503/11CW1418SP4_03_CORETEK03AE_11C_V1_GPRS_MMI/Tools/MinGW/include/c++/3.3.1/bits/stl_vector.h ****    *  <a href="tables.html#67">sequence</a>, including the
 176:d:/MTK/MTK2503/MTK2503/11CW1418SP4_03_CORETEK03AE_11C_V1_GPRS_MMI/Tools/MinGW/include/c++/3.3.1/bits/stl_vector.h ****    *  <a href="tables.html#68">optional sequence requirements</a> with the
 177:d:/MTK/MTK2503/MTK2503/11CW1418SP4_03_CORETEK03AE_11C_V1_GPRS_MMI/Tools/MinGW/include/c++/3.3.1/bits/stl_vector.h ****    *  %exception of @c push_front and @c pop_front.
 178:d:/MTK/MTK2503/MTK2503/11CW1418SP4_03_CORETEK03AE_11C_V1_GPRS_MMI/Tools/MinGW/include/c++/3.3.1/bits/stl_vector.h ****    *
 179:d:/MTK/MTK2503/MTK2503/11CW1418SP4_03_CORETEK03AE_11C_V1_GPRS_MMI/Tools/MinGW/include/c++/3.3.1/bits/stl_vector.h ****    *  In some terminology a %vector can be described as a dynamic C-style array,
 180:d:/MTK/MTK2503/MTK2503/11CW1418SP4_03_CORETEK03AE_11C_V1_GPRS_MMI/Tools/MinGW/include/c++/3.3.1/bits/stl_vector.h ****    *  it offers fast and efficient access to individual elements in any order
 181:d:/MTK/MTK2503/MTK2503/11CW1418SP4_03_CORETEK03AE_11C_V1_GPRS_MMI/Tools/MinGW/include/c++/3.3.1/bits/stl_vector.h ****    *  and saves the user from worrying about memory and size allocation.
 182:d:/MTK/MTK2503/MTK2503/11CW1418SP4_03_CORETEK03AE_11C_V1_GPRS_MMI/Tools/MinGW/include/c++/3.3.1/bits/stl_vector.h ****    *  Subscripting ( @c [] ) access is also provided as with C-style arrays.
 183:d:/MTK/MTK2503/MTK2503/11CW1418SP4_03_CORETEK03AE_11C_V1_GPRS_MMI/Tools/MinGW/include/c++/3.3.1/bits/stl_vector.h ****   */
 184:d:/MTK/MTK2503/MTK2503/11CW1418SP4_03_CORETEK03AE_11C_V1_GPRS_MMI/Tools/MinGW/include/c++/3.3.1/bits/stl_vector.h ****   template<typename _Tp, typename _Alloc = allocator<_Tp> >
 185:d:/MTK/MTK2503/MTK2503/11CW1418SP4_03_CORETEK03AE_11C_V1_GPRS_MMI/Tools/MinGW/include/c++/3.3.1/bits/stl_vector.h ****     class vector : protected _Vector_base<_Tp, _Alloc>
 186:d:/MTK/MTK2503/MTK2503/11CW1418SP4_03_CORETEK03AE_11C_V1_GPRS_MMI/Tools/MinGW/include/c++/3.3.1/bits/stl_vector.h ****     {
 187:d:/MTK/MTK2503/MTK2503/11CW1418SP4_03_CORETEK03AE_11C_V1_GPRS_MMI/Tools/MinGW/include/c++/3.3.1/bits/stl_vector.h ****       // Concept requirements.
 188:d:/MTK/MTK2503/MTK2503/11CW1418SP4_03_CORETEK03AE_11C_V1_GPRS_MMI/Tools/MinGW/include/c++/3.3.1/bits/stl_vector.h ****       __glibcpp_class_requires(_Tp, _SGIAssignableConcept)
 189:d:/MTK/MTK2503/MTK2503/11CW1418SP4_03_CORETEK03AE_11C_V1_GPRS_MMI/Tools/MinGW/include/c++/3.3.1/bits/stl_vector.h ****   
 190:d:/MTK/MTK2503/MTK2503/11CW1418SP4_03_CORETEK03AE_11C_V1_GPRS_MMI/Tools/MinGW/include/c++/3.3.1/bits/stl_vector.h ****       typedef _Vector_base<_Tp, _Alloc>                     _Base;
 191:d:/MTK/MTK2503/MTK2503/11CW1418SP4_03_CORETEK03AE_11C_V1_GPRS_MMI/Tools/MinGW/include/c++/3.3.1/bits/stl_vector.h ****       typedef vector<_Tp, _Alloc>                           vector_type;
 192:d:/MTK/MTK2503/MTK2503/11CW1418SP4_03_CORETEK03AE_11C_V1_GPRS_MMI/Tools/MinGW/include/c++/3.3.1/bits/stl_vector.h ****   
 193:d:/MTK/MTK2503/MTK2503/11CW1418SP4_03_CORETEK03AE_11C_V1_GPRS_MMI/Tools/MinGW/include/c++/3.3.1/bits/stl_vector.h ****     public:
 194:d:/MTK/MTK2503/MTK2503/11CW1418SP4_03_CORETEK03AE_11C_V1_GPRS_MMI/Tools/MinGW/include/c++/3.3.1/bits/stl_vector.h ****       typedef _Tp 						value_type;
 195:d:/MTK/MTK2503/MTK2503/11CW1418SP4_03_CORETEK03AE_11C_V1_GPRS_MMI/Tools/MinGW/include/c++/3.3.1/bits/stl_vector.h ****       typedef value_type* 					pointer;
 196:d:/MTK/MTK2503/MTK2503/11CW1418SP4_03_CORETEK03AE_11C_V1_GPRS_MMI/Tools/MinGW/include/c++/3.3.1/bits/stl_vector.h ****       typedef const value_type* 				const_pointer;
 197:d:/MTK/MTK2503/MTK2503/11CW1418SP4_03_CORETEK03AE_11C_V1_GPRS_MMI/Tools/MinGW/include/c++/3.3.1/bits/stl_vector.h ****       typedef __gnu_cxx::__normal_iterator<pointer, vector_type> iterator;
 198:d:/MTK/MTK2503/MTK2503/11CW1418SP4_03_CORETEK03AE_11C_V1_GPRS_MMI/Tools/MinGW/include/c++/3.3.1/bits/stl_vector.h ****       typedef __gnu_cxx::__normal_iterator<const_pointer, vector_type>
 199:d:/MTK/MTK2503/MTK2503/11CW1418SP4_03_CORETEK03AE_11C_V1_GPRS_MMI/Tools/MinGW/include/c++/3.3.1/bits/stl_vector.h ****       const_iterator;
 200:d:/MTK/MTK2503/MTK2503/11CW1418SP4_03_CORETEK03AE_11C_V1_GPRS_MMI/Tools/MinGW/include/c++/3.3.1/bits/stl_vector.h ****       typedef std::reverse_iterator<const_iterator>    	const_reverse_iterator;
 201:d:/MTK/MTK2503/MTK2503/11CW1418SP4_03_CORETEK03AE_11C_V1_GPRS_MMI/Tools/MinGW/include/c++/3.3.1/bits/stl_vector.h ****       typedef std::reverse_iterator<iterator>                reverse_iterator;
 202:d:/MTK/MTK2503/MTK2503/11CW1418SP4_03_CORETEK03AE_11C_V1_GPRS_MMI/Tools/MinGW/include/c++/3.3.1/bits/stl_vector.h ****       typedef value_type& 					reference;
 203:d:/MTK/MTK2503/MTK2503/11CW1418SP4_03_CORETEK03AE_11C_V1_GPRS_MMI/Tools/MinGW/include/c++/3.3.1/bits/stl_vector.h ****       typedef const value_type& 				const_reference;
 204:d:/MTK/MTK2503/MTK2503/11CW1418SP4_03_CORETEK03AE_11C_V1_GPRS_MMI/Tools/MinGW/include/c++/3.3.1/bits/stl_vector.h ****       typedef size_t 					size_type;
 205:d:/MTK/MTK2503/MTK2503/11CW1418SP4_03_CORETEK03AE_11C_V1_GPRS_MMI/Tools/MinGW/include/c++/3.3.1/bits/stl_vector.h ****       typedef ptrdiff_t 					difference_type;
 206:d:/MTK/MTK2503/MTK2503/11CW1418SP4_03_CORETEK03AE_11C_V1_GPRS_MMI/Tools/MinGW/include/c++/3.3.1/bits/stl_vector.h ****       typedef typename _Base::allocator_type                allocator_type;
 207:d:/MTK/MTK2503/MTK2503/11CW1418SP4_03_CORETEK03AE_11C_V1_GPRS_MMI/Tools/MinGW/include/c++/3.3.1/bits/stl_vector.h ****       
 208:d:/MTK/MTK2503/MTK2503/11CW1418SP4_03_CORETEK03AE_11C_V1_GPRS_MMI/Tools/MinGW/include/c++/3.3.1/bits/stl_vector.h ****     protected:
 209:d:/MTK/MTK2503/MTK2503/11CW1418SP4_03_CORETEK03AE_11C_V1_GPRS_MMI/Tools/MinGW/include/c++/3.3.1/bits/stl_vector.h ****       /** @if maint
 210:d:/MTK/MTK2503/MTK2503/11CW1418SP4_03_CORETEK03AE_11C_V1_GPRS_MMI/Tools/MinGW/include/c++/3.3.1/bits/stl_vector.h ****        *  These two functions and three data members are all from the
 211:d:/MTK/MTK2503/MTK2503/11CW1418SP4_03_CORETEK03AE_11C_V1_GPRS_MMI/Tools/MinGW/include/c++/3.3.1/bits/stl_vector.h ****        *  top-most base class, which varies depending on the type of
 212:d:/MTK/MTK2503/MTK2503/11CW1418SP4_03_CORETEK03AE_11C_V1_GPRS_MMI/Tools/MinGW/include/c++/3.3.1/bits/stl_vector.h ****        *  %allocator.  They should be pretty self-explanatory, as
 213:d:/MTK/MTK2503/MTK2503/11CW1418SP4_03_CORETEK03AE_11C_V1_GPRS_MMI/Tools/MinGW/include/c++/3.3.1/bits/stl_vector.h ****        *  %vector uses a simple contiguous allocation scheme.  @endif
 214:d:/MTK/MTK2503/MTK2503/11CW1418SP4_03_CORETEK03AE_11C_V1_GPRS_MMI/Tools/MinGW/include/c++/3.3.1/bits/stl_vector.h ****        */
 215:d:/MTK/MTK2503/MTK2503/11CW1418SP4_03_CORETEK03AE_11C_V1_GPRS_MMI/Tools/MinGW/include/c++/3.3.1/bits/stl_vector.h ****       using _Base::_M_allocate;
GAS LISTING d:/MTK/MTK2503/MTK2503/11CW1418SP4_03_CORETEK03AE_11C_V1_GPRS_MMI/plutommi/Customer/ResGenerator/gcctmp/cc63daaa.s 			page 232


 216:d:/MTK/MTK2503/MTK2503/11CW1418SP4_03_CORETEK03AE_11C_V1_GPRS_MMI/Tools/MinGW/include/c++/3.3.1/bits/stl_vector.h ****       using _Base::_M_deallocate;
 217:d:/MTK/MTK2503/MTK2503/11CW1418SP4_03_CORETEK03AE_11C_V1_GPRS_MMI/Tools/MinGW/include/c++/3.3.1/bits/stl_vector.h ****       using _Base::_M_start;
 218:d:/MTK/MTK2503/MTK2503/11CW1418SP4_03_CORETEK03AE_11C_V1_GPRS_MMI/Tools/MinGW/include/c++/3.3.1/bits/stl_vector.h ****       using _Base::_M_finish;
 219:d:/MTK/MTK2503/MTK2503/11CW1418SP4_03_CORETEK03AE_11C_V1_GPRS_MMI/Tools/MinGW/include/c++/3.3.1/bits/stl_vector.h ****       using _Base::_M_end_of_storage;
 220:d:/MTK/MTK2503/MTK2503/11CW1418SP4_03_CORETEK03AE_11C_V1_GPRS_MMI/Tools/MinGW/include/c++/3.3.1/bits/stl_vector.h ****       
 221:d:/MTK/MTK2503/MTK2503/11CW1418SP4_03_CORETEK03AE_11C_V1_GPRS_MMI/Tools/MinGW/include/c++/3.3.1/bits/stl_vector.h ****     public:
 222:d:/MTK/MTK2503/MTK2503/11CW1418SP4_03_CORETEK03AE_11C_V1_GPRS_MMI/Tools/MinGW/include/c++/3.3.1/bits/stl_vector.h ****       // [23.2.4.1] construct/copy/destroy
 223:d:/MTK/MTK2503/MTK2503/11CW1418SP4_03_CORETEK03AE_11C_V1_GPRS_MMI/Tools/MinGW/include/c++/3.3.1/bits/stl_vector.h ****       // (assign() and get_allocator() are also listed in this section)
 224:d:/MTK/MTK2503/MTK2503/11CW1418SP4_03_CORETEK03AE_11C_V1_GPRS_MMI/Tools/MinGW/include/c++/3.3.1/bits/stl_vector.h ****       /**
 225:d:/MTK/MTK2503/MTK2503/11CW1418SP4_03_CORETEK03AE_11C_V1_GPRS_MMI/Tools/MinGW/include/c++/3.3.1/bits/stl_vector.h ****        *  @brief  Default constructor creates no elements.
 226:d:/MTK/MTK2503/MTK2503/11CW1418SP4_03_CORETEK03AE_11C_V1_GPRS_MMI/Tools/MinGW/include/c++/3.3.1/bits/stl_vector.h ****        */
 227:d:/MTK/MTK2503/MTK2503/11CW1418SP4_03_CORETEK03AE_11C_V1_GPRS_MMI/Tools/MinGW/include/c++/3.3.1/bits/stl_vector.h ****       explicit
 228:d:/MTK/MTK2503/MTK2503/11CW1418SP4_03_CORETEK03AE_11C_V1_GPRS_MMI/Tools/MinGW/include/c++/3.3.1/bits/stl_vector.h ****       vector(const allocator_type& __a = allocator_type())
 229:d:/MTK/MTK2503/MTK2503/11CW1418SP4_03_CORETEK03AE_11C_V1_GPRS_MMI/Tools/MinGW/include/c++/3.3.1/bits/stl_vector.h ****       : _Base(__a) { }
 230:d:/MTK/MTK2503/MTK2503/11CW1418SP4_03_CORETEK03AE_11C_V1_GPRS_MMI/Tools/MinGW/include/c++/3.3.1/bits/stl_vector.h ****   
 231:d:/MTK/MTK2503/MTK2503/11CW1418SP4_03_CORETEK03AE_11C_V1_GPRS_MMI/Tools/MinGW/include/c++/3.3.1/bits/stl_vector.h ****       /**
 232:d:/MTK/MTK2503/MTK2503/11CW1418SP4_03_CORETEK03AE_11C_V1_GPRS_MMI/Tools/MinGW/include/c++/3.3.1/bits/stl_vector.h ****        *  @brief  Create a %vector with copies of an exemplar element.
 233:d:/MTK/MTK2503/MTK2503/11CW1418SP4_03_CORETEK03AE_11C_V1_GPRS_MMI/Tools/MinGW/include/c++/3.3.1/bits/stl_vector.h ****        *  @param  n  The number of elements to initially create.
 234:d:/MTK/MTK2503/MTK2503/11CW1418SP4_03_CORETEK03AE_11C_V1_GPRS_MMI/Tools/MinGW/include/c++/3.3.1/bits/stl_vector.h ****        *  @param  value  An element to copy.
 235:d:/MTK/MTK2503/MTK2503/11CW1418SP4_03_CORETEK03AE_11C_V1_GPRS_MMI/Tools/MinGW/include/c++/3.3.1/bits/stl_vector.h ****        * 
 236:d:/MTK/MTK2503/MTK2503/11CW1418SP4_03_CORETEK03AE_11C_V1_GPRS_MMI/Tools/MinGW/include/c++/3.3.1/bits/stl_vector.h ****        *  This constructor fills the %vector with @a n copies of @a value.
 237:d:/MTK/MTK2503/MTK2503/11CW1418SP4_03_CORETEK03AE_11C_V1_GPRS_MMI/Tools/MinGW/include/c++/3.3.1/bits/stl_vector.h ****        */
 238:d:/MTK/MTK2503/MTK2503/11CW1418SP4_03_CORETEK03AE_11C_V1_GPRS_MMI/Tools/MinGW/include/c++/3.3.1/bits/stl_vector.h ****       vector(size_type __n, const value_type& __value,
 239:d:/MTK/MTK2503/MTK2503/11CW1418SP4_03_CORETEK03AE_11C_V1_GPRS_MMI/Tools/MinGW/include/c++/3.3.1/bits/stl_vector.h **** 	     const allocator_type& __a = allocator_type())
 240:d:/MTK/MTK2503/MTK2503/11CW1418SP4_03_CORETEK03AE_11C_V1_GPRS_MMI/Tools/MinGW/include/c++/3.3.1/bits/stl_vector.h ****       : _Base(__n, __a)
 241:d:/MTK/MTK2503/MTK2503/11CW1418SP4_03_CORETEK03AE_11C_V1_GPRS_MMI/Tools/MinGW/include/c++/3.3.1/bits/stl_vector.h ****       { _M_finish = uninitialized_fill_n(_M_start, __n, __value); }
 242:d:/MTK/MTK2503/MTK2503/11CW1418SP4_03_CORETEK03AE_11C_V1_GPRS_MMI/Tools/MinGW/include/c++/3.3.1/bits/stl_vector.h ****   
 243:d:/MTK/MTK2503/MTK2503/11CW1418SP4_03_CORETEK03AE_11C_V1_GPRS_MMI/Tools/MinGW/include/c++/3.3.1/bits/stl_vector.h ****       /**
 244:d:/MTK/MTK2503/MTK2503/11CW1418SP4_03_CORETEK03AE_11C_V1_GPRS_MMI/Tools/MinGW/include/c++/3.3.1/bits/stl_vector.h ****        *  @brief  Create a %vector with default elements.
 245:d:/MTK/MTK2503/MTK2503/11CW1418SP4_03_CORETEK03AE_11C_V1_GPRS_MMI/Tools/MinGW/include/c++/3.3.1/bits/stl_vector.h ****        *  @param  n  The number of elements to initially create.
 246:d:/MTK/MTK2503/MTK2503/11CW1418SP4_03_CORETEK03AE_11C_V1_GPRS_MMI/Tools/MinGW/include/c++/3.3.1/bits/stl_vector.h ****        * 
 247:d:/MTK/MTK2503/MTK2503/11CW1418SP4_03_CORETEK03AE_11C_V1_GPRS_MMI/Tools/MinGW/include/c++/3.3.1/bits/stl_vector.h ****        *  This constructor fills the %vector with @a n copies of a
 248:d:/MTK/MTK2503/MTK2503/11CW1418SP4_03_CORETEK03AE_11C_V1_GPRS_MMI/Tools/MinGW/include/c++/3.3.1/bits/stl_vector.h ****        *  default-constructed element.
 249:d:/MTK/MTK2503/MTK2503/11CW1418SP4_03_CORETEK03AE_11C_V1_GPRS_MMI/Tools/MinGW/include/c++/3.3.1/bits/stl_vector.h ****        */
 250:d:/MTK/MTK2503/MTK2503/11CW1418SP4_03_CORETEK03AE_11C_V1_GPRS_MMI/Tools/MinGW/include/c++/3.3.1/bits/stl_vector.h ****       explicit
 251:d:/MTK/MTK2503/MTK2503/11CW1418SP4_03_CORETEK03AE_11C_V1_GPRS_MMI/Tools/MinGW/include/c++/3.3.1/bits/stl_vector.h ****       vector(size_type __n)
 252:d:/MTK/MTK2503/MTK2503/11CW1418SP4_03_CORETEK03AE_11C_V1_GPRS_MMI/Tools/MinGW/include/c++/3.3.1/bits/stl_vector.h ****       : _Base(__n, allocator_type())
 253:d:/MTK/MTK2503/MTK2503/11CW1418SP4_03_CORETEK03AE_11C_V1_GPRS_MMI/Tools/MinGW/include/c++/3.3.1/bits/stl_vector.h ****       { _M_finish = uninitialized_fill_n(_M_start, __n, value_type()); }
 254:d:/MTK/MTK2503/MTK2503/11CW1418SP4_03_CORETEK03AE_11C_V1_GPRS_MMI/Tools/MinGW/include/c++/3.3.1/bits/stl_vector.h ****       
 255:d:/MTK/MTK2503/MTK2503/11CW1418SP4_03_CORETEK03AE_11C_V1_GPRS_MMI/Tools/MinGW/include/c++/3.3.1/bits/stl_vector.h ****       /**
 256:d:/MTK/MTK2503/MTK2503/11CW1418SP4_03_CORETEK03AE_11C_V1_GPRS_MMI/Tools/MinGW/include/c++/3.3.1/bits/stl_vector.h ****        *  @brief  %Vector copy constructor.
 257:d:/MTK/MTK2503/MTK2503/11CW1418SP4_03_CORETEK03AE_11C_V1_GPRS_MMI/Tools/MinGW/include/c++/3.3.1/bits/stl_vector.h ****        *  @param  x  A %vector of identical element and allocator types.
 258:d:/MTK/MTK2503/MTK2503/11CW1418SP4_03_CORETEK03AE_11C_V1_GPRS_MMI/Tools/MinGW/include/c++/3.3.1/bits/stl_vector.h ****        * 
 259:d:/MTK/MTK2503/MTK2503/11CW1418SP4_03_CORETEK03AE_11C_V1_GPRS_MMI/Tools/MinGW/include/c++/3.3.1/bits/stl_vector.h ****        *  The newly-created %vector uses a copy of the allocation
 260:d:/MTK/MTK2503/MTK2503/11CW1418SP4_03_CORETEK03AE_11C_V1_GPRS_MMI/Tools/MinGW/include/c++/3.3.1/bits/stl_vector.h ****        *  object used by @a x.  All the elements of @a x are copied,
 261:d:/MTK/MTK2503/MTK2503/11CW1418SP4_03_CORETEK03AE_11C_V1_GPRS_MMI/Tools/MinGW/include/c++/3.3.1/bits/stl_vector.h ****        *  but any extra memory in
 262:d:/MTK/MTK2503/MTK2503/11CW1418SP4_03_CORETEK03AE_11C_V1_GPRS_MMI/Tools/MinGW/include/c++/3.3.1/bits/stl_vector.h ****        *  @a x (for fast expansion) will not be copied.
 263:d:/MTK/MTK2503/MTK2503/11CW1418SP4_03_CORETEK03AE_11C_V1_GPRS_MMI/Tools/MinGW/include/c++/3.3.1/bits/stl_vector.h ****        */
 264:d:/MTK/MTK2503/MTK2503/11CW1418SP4_03_CORETEK03AE_11C_V1_GPRS_MMI/Tools/MinGW/include/c++/3.3.1/bits/stl_vector.h ****       vector(const vector& __x)
 265:d:/MTK/MTK2503/MTK2503/11CW1418SP4_03_CORETEK03AE_11C_V1_GPRS_MMI/Tools/MinGW/include/c++/3.3.1/bits/stl_vector.h ****       : _Base(__x.size(), __x.get_allocator())
 266:d:/MTK/MTK2503/MTK2503/11CW1418SP4_03_CORETEK03AE_11C_V1_GPRS_MMI/Tools/MinGW/include/c++/3.3.1/bits/stl_vector.h ****       { _M_finish = uninitialized_copy(__x.begin(), __x.end(), _M_start); }
 267:d:/MTK/MTK2503/MTK2503/11CW1418SP4_03_CORETEK03AE_11C_V1_GPRS_MMI/Tools/MinGW/include/c++/3.3.1/bits/stl_vector.h ****   
 268:d:/MTK/MTK2503/MTK2503/11CW1418SP4_03_CORETEK03AE_11C_V1_GPRS_MMI/Tools/MinGW/include/c++/3.3.1/bits/stl_vector.h ****       /**
 269:d:/MTK/MTK2503/MTK2503/11CW1418SP4_03_CORETEK03AE_11C_V1_GPRS_MMI/Tools/MinGW/include/c++/3.3.1/bits/stl_vector.h ****        *  @brief  Builds a %vector from a range.
 270:d:/MTK/MTK2503/MTK2503/11CW1418SP4_03_CORETEK03AE_11C_V1_GPRS_MMI/Tools/MinGW/include/c++/3.3.1/bits/stl_vector.h ****        *  @param  first  An input iterator.
 271:d:/MTK/MTK2503/MTK2503/11CW1418SP4_03_CORETEK03AE_11C_V1_GPRS_MMI/Tools/MinGW/include/c++/3.3.1/bits/stl_vector.h ****        *  @param  last  An input iterator.
 272:d:/MTK/MTK2503/MTK2503/11CW1418SP4_03_CORETEK03AE_11C_V1_GPRS_MMI/Tools/MinGW/include/c++/3.3.1/bits/stl_vector.h ****        * 
GAS LISTING d:/MTK/MTK2503/MTK2503/11CW1418SP4_03_CORETEK03AE_11C_V1_GPRS_MMI/plutommi/Customer/ResGenerator/gcctmp/cc63daaa.s 			page 233


 273:d:/MTK/MTK2503/MTK2503/11CW1418SP4_03_CORETEK03AE_11C_V1_GPRS_MMI/Tools/MinGW/include/c++/3.3.1/bits/stl_vector.h ****        *  Create a %vector consisting of copies of the elements from
 274:d:/MTK/MTK2503/MTK2503/11CW1418SP4_03_CORETEK03AE_11C_V1_GPRS_MMI/Tools/MinGW/include/c++/3.3.1/bits/stl_vector.h ****        *  [first,last).
 275:d:/MTK/MTK2503/MTK2503/11CW1418SP4_03_CORETEK03AE_11C_V1_GPRS_MMI/Tools/MinGW/include/c++/3.3.1/bits/stl_vector.h ****        *
 276:d:/MTK/MTK2503/MTK2503/11CW1418SP4_03_CORETEK03AE_11C_V1_GPRS_MMI/Tools/MinGW/include/c++/3.3.1/bits/stl_vector.h ****        *  If the iterators are forward, bidirectional, or random-access, then
 277:d:/MTK/MTK2503/MTK2503/11CW1418SP4_03_CORETEK03AE_11C_V1_GPRS_MMI/Tools/MinGW/include/c++/3.3.1/bits/stl_vector.h ****        *  this will call the elements' copy constructor N times (where N is
 278:d:/MTK/MTK2503/MTK2503/11CW1418SP4_03_CORETEK03AE_11C_V1_GPRS_MMI/Tools/MinGW/include/c++/3.3.1/bits/stl_vector.h ****        *  distance(first,last)) and do no memory reallocation.  But if only
 279:d:/MTK/MTK2503/MTK2503/11CW1418SP4_03_CORETEK03AE_11C_V1_GPRS_MMI/Tools/MinGW/include/c++/3.3.1/bits/stl_vector.h ****        *  input iterators are used, then this will do at most 2N calls to the
 280:d:/MTK/MTK2503/MTK2503/11CW1418SP4_03_CORETEK03AE_11C_V1_GPRS_MMI/Tools/MinGW/include/c++/3.3.1/bits/stl_vector.h ****        *  copy constructor, and logN memory reallocations.
 281:d:/MTK/MTK2503/MTK2503/11CW1418SP4_03_CORETEK03AE_11C_V1_GPRS_MMI/Tools/MinGW/include/c++/3.3.1/bits/stl_vector.h ****        */
 282:d:/MTK/MTK2503/MTK2503/11CW1418SP4_03_CORETEK03AE_11C_V1_GPRS_MMI/Tools/MinGW/include/c++/3.3.1/bits/stl_vector.h ****       template<typename _InputIterator>
 283:d:/MTK/MTK2503/MTK2503/11CW1418SP4_03_CORETEK03AE_11C_V1_GPRS_MMI/Tools/MinGW/include/c++/3.3.1/bits/stl_vector.h ****         vector(_InputIterator __first, _InputIterator __last,
 284:d:/MTK/MTK2503/MTK2503/11CW1418SP4_03_CORETEK03AE_11C_V1_GPRS_MMI/Tools/MinGW/include/c++/3.3.1/bits/stl_vector.h **** 	       const allocator_type& __a = allocator_type())
 285:d:/MTK/MTK2503/MTK2503/11CW1418SP4_03_CORETEK03AE_11C_V1_GPRS_MMI/Tools/MinGW/include/c++/3.3.1/bits/stl_vector.h **** 	: _Base(__a)
 286:d:/MTK/MTK2503/MTK2503/11CW1418SP4_03_CORETEK03AE_11C_V1_GPRS_MMI/Tools/MinGW/include/c++/3.3.1/bits/stl_vector.h ****         {
 287:d:/MTK/MTK2503/MTK2503/11CW1418SP4_03_CORETEK03AE_11C_V1_GPRS_MMI/Tools/MinGW/include/c++/3.3.1/bits/stl_vector.h **** 	  // Check whether it's an integral type.  If so, it's not an iterator.
 288:d:/MTK/MTK2503/MTK2503/11CW1418SP4_03_CORETEK03AE_11C_V1_GPRS_MMI/Tools/MinGW/include/c++/3.3.1/bits/stl_vector.h **** 	  typedef typename _Is_integer<_InputIterator>::_Integral _Integral;
 289:d:/MTK/MTK2503/MTK2503/11CW1418SP4_03_CORETEK03AE_11C_V1_GPRS_MMI/Tools/MinGW/include/c++/3.3.1/bits/stl_vector.h **** 	  _M_initialize_dispatch(__first, __last, _Integral());
 290:d:/MTK/MTK2503/MTK2503/11CW1418SP4_03_CORETEK03AE_11C_V1_GPRS_MMI/Tools/MinGW/include/c++/3.3.1/bits/stl_vector.h **** 	}
 291:d:/MTK/MTK2503/MTK2503/11CW1418SP4_03_CORETEK03AE_11C_V1_GPRS_MMI/Tools/MinGW/include/c++/3.3.1/bits/stl_vector.h ****       
 292:d:/MTK/MTK2503/MTK2503/11CW1418SP4_03_CORETEK03AE_11C_V1_GPRS_MMI/Tools/MinGW/include/c++/3.3.1/bits/stl_vector.h ****       /**
 293:d:/MTK/MTK2503/MTK2503/11CW1418SP4_03_CORETEK03AE_11C_V1_GPRS_MMI/Tools/MinGW/include/c++/3.3.1/bits/stl_vector.h ****        *  The dtor only erases the elements, and note that if the elements
 294:d:/MTK/MTK2503/MTK2503/11CW1418SP4_03_CORETEK03AE_11C_V1_GPRS_MMI/Tools/MinGW/include/c++/3.3.1/bits/stl_vector.h ****        *  themselves are pointers, the pointed-to memory is not touched in any
 295:d:/MTK/MTK2503/MTK2503/11CW1418SP4_03_CORETEK03AE_11C_V1_GPRS_MMI/Tools/MinGW/include/c++/3.3.1/bits/stl_vector.h ****        *  way.  Managing the pointer is the user's responsibilty.
 296:d:/MTK/MTK2503/MTK2503/11CW1418SP4_03_CORETEK03AE_11C_V1_GPRS_MMI/Tools/MinGW/include/c++/3.3.1/bits/stl_vector.h ****        */
 297:d:/MTK/MTK2503/MTK2503/11CW1418SP4_03_CORETEK03AE_11C_V1_GPRS_MMI/Tools/MinGW/include/c++/3.3.1/bits/stl_vector.h ****       ~vector() { _Destroy(_M_start, _M_finish); }
 298:d:/MTK/MTK2503/MTK2503/11CW1418SP4_03_CORETEK03AE_11C_V1_GPRS_MMI/Tools/MinGW/include/c++/3.3.1/bits/stl_vector.h ****   
 299:d:/MTK/MTK2503/MTK2503/11CW1418SP4_03_CORETEK03AE_11C_V1_GPRS_MMI/Tools/MinGW/include/c++/3.3.1/bits/stl_vector.h ****       /**
 300:d:/MTK/MTK2503/MTK2503/11CW1418SP4_03_CORETEK03AE_11C_V1_GPRS_MMI/Tools/MinGW/include/c++/3.3.1/bits/stl_vector.h ****        *  @brief  %Vector assignment operator.
 301:d:/MTK/MTK2503/MTK2503/11CW1418SP4_03_CORETEK03AE_11C_V1_GPRS_MMI/Tools/MinGW/include/c++/3.3.1/bits/stl_vector.h ****        *  @param  x  A %vector of identical element and allocator types.
 302:d:/MTK/MTK2503/MTK2503/11CW1418SP4_03_CORETEK03AE_11C_V1_GPRS_MMI/Tools/MinGW/include/c++/3.3.1/bits/stl_vector.h ****        * 
 303:d:/MTK/MTK2503/MTK2503/11CW1418SP4_03_CORETEK03AE_11C_V1_GPRS_MMI/Tools/MinGW/include/c++/3.3.1/bits/stl_vector.h ****        *  All the elements of @a x are copied, but any extra memory in
 304:d:/MTK/MTK2503/MTK2503/11CW1418SP4_03_CORETEK03AE_11C_V1_GPRS_MMI/Tools/MinGW/include/c++/3.3.1/bits/stl_vector.h ****        *  @a x (for fast expansion) will not be copied.  Unlike the
 305:d:/MTK/MTK2503/MTK2503/11CW1418SP4_03_CORETEK03AE_11C_V1_GPRS_MMI/Tools/MinGW/include/c++/3.3.1/bits/stl_vector.h ****        *  copy constructor, the allocator object is not copied.
 306:d:/MTK/MTK2503/MTK2503/11CW1418SP4_03_CORETEK03AE_11C_V1_GPRS_MMI/Tools/MinGW/include/c++/3.3.1/bits/stl_vector.h ****        */
 307:d:/MTK/MTK2503/MTK2503/11CW1418SP4_03_CORETEK03AE_11C_V1_GPRS_MMI/Tools/MinGW/include/c++/3.3.1/bits/stl_vector.h ****       vector&
 308:d:/MTK/MTK2503/MTK2503/11CW1418SP4_03_CORETEK03AE_11C_V1_GPRS_MMI/Tools/MinGW/include/c++/3.3.1/bits/stl_vector.h ****       operator=(const vector& __x);
 309:d:/MTK/MTK2503/MTK2503/11CW1418SP4_03_CORETEK03AE_11C_V1_GPRS_MMI/Tools/MinGW/include/c++/3.3.1/bits/stl_vector.h ****   
 310:d:/MTK/MTK2503/MTK2503/11CW1418SP4_03_CORETEK03AE_11C_V1_GPRS_MMI/Tools/MinGW/include/c++/3.3.1/bits/stl_vector.h ****       /**
 311:d:/MTK/MTK2503/MTK2503/11CW1418SP4_03_CORETEK03AE_11C_V1_GPRS_MMI/Tools/MinGW/include/c++/3.3.1/bits/stl_vector.h ****        *  @brief  Assigns a given value to a %vector.
 312:d:/MTK/MTK2503/MTK2503/11CW1418SP4_03_CORETEK03AE_11C_V1_GPRS_MMI/Tools/MinGW/include/c++/3.3.1/bits/stl_vector.h ****        *  @param  n  Number of elements to be assigned.
 313:d:/MTK/MTK2503/MTK2503/11CW1418SP4_03_CORETEK03AE_11C_V1_GPRS_MMI/Tools/MinGW/include/c++/3.3.1/bits/stl_vector.h ****        *  @param  val  Value to be assigned.
 314:d:/MTK/MTK2503/MTK2503/11CW1418SP4_03_CORETEK03AE_11C_V1_GPRS_MMI/Tools/MinGW/include/c++/3.3.1/bits/stl_vector.h ****        *
 315:d:/MTK/MTK2503/MTK2503/11CW1418SP4_03_CORETEK03AE_11C_V1_GPRS_MMI/Tools/MinGW/include/c++/3.3.1/bits/stl_vector.h ****        *  This function fills a %vector with @a n copies of the given
 316:d:/MTK/MTK2503/MTK2503/11CW1418SP4_03_CORETEK03AE_11C_V1_GPRS_MMI/Tools/MinGW/include/c++/3.3.1/bits/stl_vector.h ****        *  value.  Note that the assignment completely changes the
 317:d:/MTK/MTK2503/MTK2503/11CW1418SP4_03_CORETEK03AE_11C_V1_GPRS_MMI/Tools/MinGW/include/c++/3.3.1/bits/stl_vector.h ****        *  %vector and that the resulting %vector's size is the same as
 318:d:/MTK/MTK2503/MTK2503/11CW1418SP4_03_CORETEK03AE_11C_V1_GPRS_MMI/Tools/MinGW/include/c++/3.3.1/bits/stl_vector.h ****        *  the number of elements assigned.  Old data may be lost.
 319:d:/MTK/MTK2503/MTK2503/11CW1418SP4_03_CORETEK03AE_11C_V1_GPRS_MMI/Tools/MinGW/include/c++/3.3.1/bits/stl_vector.h ****        */
 320:d:/MTK/MTK2503/MTK2503/11CW1418SP4_03_CORETEK03AE_11C_V1_GPRS_MMI/Tools/MinGW/include/c++/3.3.1/bits/stl_vector.h ****       void
 321:d:/MTK/MTK2503/MTK2503/11CW1418SP4_03_CORETEK03AE_11C_V1_GPRS_MMI/Tools/MinGW/include/c++/3.3.1/bits/stl_vector.h ****       assign(size_type __n, const value_type& __val) 
 322:d:/MTK/MTK2503/MTK2503/11CW1418SP4_03_CORETEK03AE_11C_V1_GPRS_MMI/Tools/MinGW/include/c++/3.3.1/bits/stl_vector.h ****       { _M_fill_assign(__n, __val); }
 323:d:/MTK/MTK2503/MTK2503/11CW1418SP4_03_CORETEK03AE_11C_V1_GPRS_MMI/Tools/MinGW/include/c++/3.3.1/bits/stl_vector.h ****   
 324:d:/MTK/MTK2503/MTK2503/11CW1418SP4_03_CORETEK03AE_11C_V1_GPRS_MMI/Tools/MinGW/include/c++/3.3.1/bits/stl_vector.h ****       /**
 325:d:/MTK/MTK2503/MTK2503/11CW1418SP4_03_CORETEK03AE_11C_V1_GPRS_MMI/Tools/MinGW/include/c++/3.3.1/bits/stl_vector.h ****        *  @brief  Assigns a range to a %vector.
 326:d:/MTK/MTK2503/MTK2503/11CW1418SP4_03_CORETEK03AE_11C_V1_GPRS_MMI/Tools/MinGW/include/c++/3.3.1/bits/stl_vector.h ****        *  @param  first  An input iterator.
 327:d:/MTK/MTK2503/MTK2503/11CW1418SP4_03_CORETEK03AE_11C_V1_GPRS_MMI/Tools/MinGW/include/c++/3.3.1/bits/stl_vector.h ****        *  @param  last   An input iterator.
 328:d:/MTK/MTK2503/MTK2503/11CW1418SP4_03_CORETEK03AE_11C_V1_GPRS_MMI/Tools/MinGW/include/c++/3.3.1/bits/stl_vector.h ****        *
 329:d:/MTK/MTK2503/MTK2503/11CW1418SP4_03_CORETEK03AE_11C_V1_GPRS_MMI/Tools/MinGW/include/c++/3.3.1/bits/stl_vector.h ****        *  This function fills a %vector with copies of the elements in the
GAS LISTING d:/MTK/MTK2503/MTK2503/11CW1418SP4_03_CORETEK03AE_11C_V1_GPRS_MMI/plutommi/Customer/ResGenerator/gcctmp/cc63daaa.s 			page 234


 330:d:/MTK/MTK2503/MTK2503/11CW1418SP4_03_CORETEK03AE_11C_V1_GPRS_MMI/Tools/MinGW/include/c++/3.3.1/bits/stl_vector.h ****        *  range [first,last).
 331:d:/MTK/MTK2503/MTK2503/11CW1418SP4_03_CORETEK03AE_11C_V1_GPRS_MMI/Tools/MinGW/include/c++/3.3.1/bits/stl_vector.h ****        *
 332:d:/MTK/MTK2503/MTK2503/11CW1418SP4_03_CORETEK03AE_11C_V1_GPRS_MMI/Tools/MinGW/include/c++/3.3.1/bits/stl_vector.h ****        *  Note that the assignment completely changes the %vector and
 333:d:/MTK/MTK2503/MTK2503/11CW1418SP4_03_CORETEK03AE_11C_V1_GPRS_MMI/Tools/MinGW/include/c++/3.3.1/bits/stl_vector.h ****        *  that the resulting %vector's size is the same as the number
 334:d:/MTK/MTK2503/MTK2503/11CW1418SP4_03_CORETEK03AE_11C_V1_GPRS_MMI/Tools/MinGW/include/c++/3.3.1/bits/stl_vector.h ****        *  of elements assigned.  Old data may be lost.
 335:d:/MTK/MTK2503/MTK2503/11CW1418SP4_03_CORETEK03AE_11C_V1_GPRS_MMI/Tools/MinGW/include/c++/3.3.1/bits/stl_vector.h ****        */
 336:d:/MTK/MTK2503/MTK2503/11CW1418SP4_03_CORETEK03AE_11C_V1_GPRS_MMI/Tools/MinGW/include/c++/3.3.1/bits/stl_vector.h ****       template<typename _InputIterator>
 337:d:/MTK/MTK2503/MTK2503/11CW1418SP4_03_CORETEK03AE_11C_V1_GPRS_MMI/Tools/MinGW/include/c++/3.3.1/bits/stl_vector.h ****         void
 338:d:/MTK/MTK2503/MTK2503/11CW1418SP4_03_CORETEK03AE_11C_V1_GPRS_MMI/Tools/MinGW/include/c++/3.3.1/bits/stl_vector.h ****         assign(_InputIterator __first, _InputIterator __last)
 339:d:/MTK/MTK2503/MTK2503/11CW1418SP4_03_CORETEK03AE_11C_V1_GPRS_MMI/Tools/MinGW/include/c++/3.3.1/bits/stl_vector.h ****         {
 340:d:/MTK/MTK2503/MTK2503/11CW1418SP4_03_CORETEK03AE_11C_V1_GPRS_MMI/Tools/MinGW/include/c++/3.3.1/bits/stl_vector.h **** 	  // Check whether it's an integral type.  If so, it's not an iterator.
 341:d:/MTK/MTK2503/MTK2503/11CW1418SP4_03_CORETEK03AE_11C_V1_GPRS_MMI/Tools/MinGW/include/c++/3.3.1/bits/stl_vector.h **** 	  typedef typename _Is_integer<_InputIterator>::_Integral _Integral;
 342:d:/MTK/MTK2503/MTK2503/11CW1418SP4_03_CORETEK03AE_11C_V1_GPRS_MMI/Tools/MinGW/include/c++/3.3.1/bits/stl_vector.h **** 	  _M_assign_dispatch(__first, __last, _Integral());
 343:d:/MTK/MTK2503/MTK2503/11CW1418SP4_03_CORETEK03AE_11C_V1_GPRS_MMI/Tools/MinGW/include/c++/3.3.1/bits/stl_vector.h **** 	}
 344:d:/MTK/MTK2503/MTK2503/11CW1418SP4_03_CORETEK03AE_11C_V1_GPRS_MMI/Tools/MinGW/include/c++/3.3.1/bits/stl_vector.h ****   
 345:d:/MTK/MTK2503/MTK2503/11CW1418SP4_03_CORETEK03AE_11C_V1_GPRS_MMI/Tools/MinGW/include/c++/3.3.1/bits/stl_vector.h ****       /// Get a copy of the memory allocation object.
 346:d:/MTK/MTK2503/MTK2503/11CW1418SP4_03_CORETEK03AE_11C_V1_GPRS_MMI/Tools/MinGW/include/c++/3.3.1/bits/stl_vector.h ****       allocator_type
 347:d:/MTK/MTK2503/MTK2503/11CW1418SP4_03_CORETEK03AE_11C_V1_GPRS_MMI/Tools/MinGW/include/c++/3.3.1/bits/stl_vector.h ****       get_allocator() const { return _Base::get_allocator(); }
 348:d:/MTK/MTK2503/MTK2503/11CW1418SP4_03_CORETEK03AE_11C_V1_GPRS_MMI/Tools/MinGW/include/c++/3.3.1/bits/stl_vector.h ****       
 349:d:/MTK/MTK2503/MTK2503/11CW1418SP4_03_CORETEK03AE_11C_V1_GPRS_MMI/Tools/MinGW/include/c++/3.3.1/bits/stl_vector.h ****       // iterators
 350:d:/MTK/MTK2503/MTK2503/11CW1418SP4_03_CORETEK03AE_11C_V1_GPRS_MMI/Tools/MinGW/include/c++/3.3.1/bits/stl_vector.h ****       /**
 351:d:/MTK/MTK2503/MTK2503/11CW1418SP4_03_CORETEK03AE_11C_V1_GPRS_MMI/Tools/MinGW/include/c++/3.3.1/bits/stl_vector.h ****        *  Returns a read/write iterator that points to the first element in the
 352:d:/MTK/MTK2503/MTK2503/11CW1418SP4_03_CORETEK03AE_11C_V1_GPRS_MMI/Tools/MinGW/include/c++/3.3.1/bits/stl_vector.h ****        *  %vector.  Iteration is done in ordinary element order.
 353:d:/MTK/MTK2503/MTK2503/11CW1418SP4_03_CORETEK03AE_11C_V1_GPRS_MMI/Tools/MinGW/include/c++/3.3.1/bits/stl_vector.h ****        */
 354:d:/MTK/MTK2503/MTK2503/11CW1418SP4_03_CORETEK03AE_11C_V1_GPRS_MMI/Tools/MinGW/include/c++/3.3.1/bits/stl_vector.h ****       iterator
 355:d:/MTK/MTK2503/MTK2503/11CW1418SP4_03_CORETEK03AE_11C_V1_GPRS_MMI/Tools/MinGW/include/c++/3.3.1/bits/stl_vector.h ****       begin() { return iterator (_M_start); }
 356:d:/MTK/MTK2503/MTK2503/11CW1418SP4_03_CORETEK03AE_11C_V1_GPRS_MMI/Tools/MinGW/include/c++/3.3.1/bits/stl_vector.h ****       
 357:d:/MTK/MTK2503/MTK2503/11CW1418SP4_03_CORETEK03AE_11C_V1_GPRS_MMI/Tools/MinGW/include/c++/3.3.1/bits/stl_vector.h ****       /**
 358:d:/MTK/MTK2503/MTK2503/11CW1418SP4_03_CORETEK03AE_11C_V1_GPRS_MMI/Tools/MinGW/include/c++/3.3.1/bits/stl_vector.h ****        *  Returns a read-only (constant) iterator that points to the
 359:d:/MTK/MTK2503/MTK2503/11CW1418SP4_03_CORETEK03AE_11C_V1_GPRS_MMI/Tools/MinGW/include/c++/3.3.1/bits/stl_vector.h ****        *  first element in the %vector.  Iteration is done in ordinary
 360:d:/MTK/MTK2503/MTK2503/11CW1418SP4_03_CORETEK03AE_11C_V1_GPRS_MMI/Tools/MinGW/include/c++/3.3.1/bits/stl_vector.h ****        *  element order.
 361:d:/MTK/MTK2503/MTK2503/11CW1418SP4_03_CORETEK03AE_11C_V1_GPRS_MMI/Tools/MinGW/include/c++/3.3.1/bits/stl_vector.h ****        */
 362:d:/MTK/MTK2503/MTK2503/11CW1418SP4_03_CORETEK03AE_11C_V1_GPRS_MMI/Tools/MinGW/include/c++/3.3.1/bits/stl_vector.h ****       const_iterator
 363:d:/MTK/MTK2503/MTK2503/11CW1418SP4_03_CORETEK03AE_11C_V1_GPRS_MMI/Tools/MinGW/include/c++/3.3.1/bits/stl_vector.h ****       begin() const { return const_iterator (_M_start); }
 364:d:/MTK/MTK2503/MTK2503/11CW1418SP4_03_CORETEK03AE_11C_V1_GPRS_MMI/Tools/MinGW/include/c++/3.3.1/bits/stl_vector.h ****       
 365:d:/MTK/MTK2503/MTK2503/11CW1418SP4_03_CORETEK03AE_11C_V1_GPRS_MMI/Tools/MinGW/include/c++/3.3.1/bits/stl_vector.h ****       /**
 366:d:/MTK/MTK2503/MTK2503/11CW1418SP4_03_CORETEK03AE_11C_V1_GPRS_MMI/Tools/MinGW/include/c++/3.3.1/bits/stl_vector.h ****        *  Returns a read/write iterator that points one past the last
 367:d:/MTK/MTK2503/MTK2503/11CW1418SP4_03_CORETEK03AE_11C_V1_GPRS_MMI/Tools/MinGW/include/c++/3.3.1/bits/stl_vector.h ****        *  element in the %vector.  Iteration is done in ordinary
 368:d:/MTK/MTK2503/MTK2503/11CW1418SP4_03_CORETEK03AE_11C_V1_GPRS_MMI/Tools/MinGW/include/c++/3.3.1/bits/stl_vector.h ****        *  element order.
 369:d:/MTK/MTK2503/MTK2503/11CW1418SP4_03_CORETEK03AE_11C_V1_GPRS_MMI/Tools/MinGW/include/c++/3.3.1/bits/stl_vector.h ****        */
 370:d:/MTK/MTK2503/MTK2503/11CW1418SP4_03_CORETEK03AE_11C_V1_GPRS_MMI/Tools/MinGW/include/c++/3.3.1/bits/stl_vector.h ****       iterator
 371:d:/MTK/MTK2503/MTK2503/11CW1418SP4_03_CORETEK03AE_11C_V1_GPRS_MMI/Tools/MinGW/include/c++/3.3.1/bits/stl_vector.h ****       end() { return iterator (_M_finish); }
 372:d:/MTK/MTK2503/MTK2503/11CW1418SP4_03_CORETEK03AE_11C_V1_GPRS_MMI/Tools/MinGW/include/c++/3.3.1/bits/stl_vector.h ****       
 373:d:/MTK/MTK2503/MTK2503/11CW1418SP4_03_CORETEK03AE_11C_V1_GPRS_MMI/Tools/MinGW/include/c++/3.3.1/bits/stl_vector.h ****       /**
 374:d:/MTK/MTK2503/MTK2503/11CW1418SP4_03_CORETEK03AE_11C_V1_GPRS_MMI/Tools/MinGW/include/c++/3.3.1/bits/stl_vector.h ****        *  Returns a read-only (constant) iterator that points one past the last
 375:d:/MTK/MTK2503/MTK2503/11CW1418SP4_03_CORETEK03AE_11C_V1_GPRS_MMI/Tools/MinGW/include/c++/3.3.1/bits/stl_vector.h ****        *  element in the %vector.  Iteration is done in ordinary element order.
 376:d:/MTK/MTK2503/MTK2503/11CW1418SP4_03_CORETEK03AE_11C_V1_GPRS_MMI/Tools/MinGW/include/c++/3.3.1/bits/stl_vector.h ****        */
 377:d:/MTK/MTK2503/MTK2503/11CW1418SP4_03_CORETEK03AE_11C_V1_GPRS_MMI/Tools/MinGW/include/c++/3.3.1/bits/stl_vector.h ****       const_iterator
 378:d:/MTK/MTK2503/MTK2503/11CW1418SP4_03_CORETEK03AE_11C_V1_GPRS_MMI/Tools/MinGW/include/c++/3.3.1/bits/stl_vector.h ****       end() const { return const_iterator (_M_finish); }
 379:d:/MTK/MTK2503/MTK2503/11CW1418SP4_03_CORETEK03AE_11C_V1_GPRS_MMI/Tools/MinGW/include/c++/3.3.1/bits/stl_vector.h ****       
 380:d:/MTK/MTK2503/MTK2503/11CW1418SP4_03_CORETEK03AE_11C_V1_GPRS_MMI/Tools/MinGW/include/c++/3.3.1/bits/stl_vector.h ****       /**
 381:d:/MTK/MTK2503/MTK2503/11CW1418SP4_03_CORETEK03AE_11C_V1_GPRS_MMI/Tools/MinGW/include/c++/3.3.1/bits/stl_vector.h ****        *  Returns a read/write reverse iterator that points to the
 382:d:/MTK/MTK2503/MTK2503/11CW1418SP4_03_CORETEK03AE_11C_V1_GPRS_MMI/Tools/MinGW/include/c++/3.3.1/bits/stl_vector.h ****        *  last element in the %vector.  Iteration is done in reverse
 383:d:/MTK/MTK2503/MTK2503/11CW1418SP4_03_CORETEK03AE_11C_V1_GPRS_MMI/Tools/MinGW/include/c++/3.3.1/bits/stl_vector.h ****        *  element order.
 384:d:/MTK/MTK2503/MTK2503/11CW1418SP4_03_CORETEK03AE_11C_V1_GPRS_MMI/Tools/MinGW/include/c++/3.3.1/bits/stl_vector.h ****        */
 385:d:/MTK/MTK2503/MTK2503/11CW1418SP4_03_CORETEK03AE_11C_V1_GPRS_MMI/Tools/MinGW/include/c++/3.3.1/bits/stl_vector.h ****       reverse_iterator
 386:d:/MTK/MTK2503/MTK2503/11CW1418SP4_03_CORETEK03AE_11C_V1_GPRS_MMI/Tools/MinGW/include/c++/3.3.1/bits/stl_vector.h ****       rbegin() { return reverse_iterator(end()); }
GAS LISTING d:/MTK/MTK2503/MTK2503/11CW1418SP4_03_CORETEK03AE_11C_V1_GPRS_MMI/plutommi/Customer/ResGenerator/gcctmp/cc63daaa.s 			page 235


 387:d:/MTK/MTK2503/MTK2503/11CW1418SP4_03_CORETEK03AE_11C_V1_GPRS_MMI/Tools/MinGW/include/c++/3.3.1/bits/stl_vector.h ****       
 388:d:/MTK/MTK2503/MTK2503/11CW1418SP4_03_CORETEK03AE_11C_V1_GPRS_MMI/Tools/MinGW/include/c++/3.3.1/bits/stl_vector.h ****       /**
 389:d:/MTK/MTK2503/MTK2503/11CW1418SP4_03_CORETEK03AE_11C_V1_GPRS_MMI/Tools/MinGW/include/c++/3.3.1/bits/stl_vector.h ****        *  Returns a read-only (constant) reverse iterator that points
 390:d:/MTK/MTK2503/MTK2503/11CW1418SP4_03_CORETEK03AE_11C_V1_GPRS_MMI/Tools/MinGW/include/c++/3.3.1/bits/stl_vector.h ****        *  to the last element in the %vector.  Iteration is done in
 391:d:/MTK/MTK2503/MTK2503/11CW1418SP4_03_CORETEK03AE_11C_V1_GPRS_MMI/Tools/MinGW/include/c++/3.3.1/bits/stl_vector.h ****        *  reverse element order.
 392:d:/MTK/MTK2503/MTK2503/11CW1418SP4_03_CORETEK03AE_11C_V1_GPRS_MMI/Tools/MinGW/include/c++/3.3.1/bits/stl_vector.h ****        */
 393:d:/MTK/MTK2503/MTK2503/11CW1418SP4_03_CORETEK03AE_11C_V1_GPRS_MMI/Tools/MinGW/include/c++/3.3.1/bits/stl_vector.h ****       const_reverse_iterator
 394:d:/MTK/MTK2503/MTK2503/11CW1418SP4_03_CORETEK03AE_11C_V1_GPRS_MMI/Tools/MinGW/include/c++/3.3.1/bits/stl_vector.h ****       rbegin() const { return const_reverse_iterator(end()); }
 395:d:/MTK/MTK2503/MTK2503/11CW1418SP4_03_CORETEK03AE_11C_V1_GPRS_MMI/Tools/MinGW/include/c++/3.3.1/bits/stl_vector.h ****       
 396:d:/MTK/MTK2503/MTK2503/11CW1418SP4_03_CORETEK03AE_11C_V1_GPRS_MMI/Tools/MinGW/include/c++/3.3.1/bits/stl_vector.h ****       /**
 397:d:/MTK/MTK2503/MTK2503/11CW1418SP4_03_CORETEK03AE_11C_V1_GPRS_MMI/Tools/MinGW/include/c++/3.3.1/bits/stl_vector.h ****        *  Returns a read/write reverse iterator that points to one before the
 398:d:/MTK/MTK2503/MTK2503/11CW1418SP4_03_CORETEK03AE_11C_V1_GPRS_MMI/Tools/MinGW/include/c++/3.3.1/bits/stl_vector.h ****        *  first element in the %vector.  Iteration is done in reverse element
 399:d:/MTK/MTK2503/MTK2503/11CW1418SP4_03_CORETEK03AE_11C_V1_GPRS_MMI/Tools/MinGW/include/c++/3.3.1/bits/stl_vector.h ****        *  order.
 400:d:/MTK/MTK2503/MTK2503/11CW1418SP4_03_CORETEK03AE_11C_V1_GPRS_MMI/Tools/MinGW/include/c++/3.3.1/bits/stl_vector.h ****        */
 401:d:/MTK/MTK2503/MTK2503/11CW1418SP4_03_CORETEK03AE_11C_V1_GPRS_MMI/Tools/MinGW/include/c++/3.3.1/bits/stl_vector.h ****       reverse_iterator
 402:d:/MTK/MTK2503/MTK2503/11CW1418SP4_03_CORETEK03AE_11C_V1_GPRS_MMI/Tools/MinGW/include/c++/3.3.1/bits/stl_vector.h ****       rend() { return reverse_iterator(begin()); }
 403:d:/MTK/MTK2503/MTK2503/11CW1418SP4_03_CORETEK03AE_11C_V1_GPRS_MMI/Tools/MinGW/include/c++/3.3.1/bits/stl_vector.h ****       
 404:d:/MTK/MTK2503/MTK2503/11CW1418SP4_03_CORETEK03AE_11C_V1_GPRS_MMI/Tools/MinGW/include/c++/3.3.1/bits/stl_vector.h ****       /**
 405:d:/MTK/MTK2503/MTK2503/11CW1418SP4_03_CORETEK03AE_11C_V1_GPRS_MMI/Tools/MinGW/include/c++/3.3.1/bits/stl_vector.h ****        *  Returns a read-only (constant) reverse iterator that points
 406:d:/MTK/MTK2503/MTK2503/11CW1418SP4_03_CORETEK03AE_11C_V1_GPRS_MMI/Tools/MinGW/include/c++/3.3.1/bits/stl_vector.h ****        *  to one before the first element in the %vector.  Iteration
 407:d:/MTK/MTK2503/MTK2503/11CW1418SP4_03_CORETEK03AE_11C_V1_GPRS_MMI/Tools/MinGW/include/c++/3.3.1/bits/stl_vector.h ****        *  is done in reverse element order.
 408:d:/MTK/MTK2503/MTK2503/11CW1418SP4_03_CORETEK03AE_11C_V1_GPRS_MMI/Tools/MinGW/include/c++/3.3.1/bits/stl_vector.h ****        */
 409:d:/MTK/MTK2503/MTK2503/11CW1418SP4_03_CORETEK03AE_11C_V1_GPRS_MMI/Tools/MinGW/include/c++/3.3.1/bits/stl_vector.h ****       const_reverse_iterator
 410:d:/MTK/MTK2503/MTK2503/11CW1418SP4_03_CORETEK03AE_11C_V1_GPRS_MMI/Tools/MinGW/include/c++/3.3.1/bits/stl_vector.h ****       rend() const { return const_reverse_iterator(begin()); }
 411:d:/MTK/MTK2503/MTK2503/11CW1418SP4_03_CORETEK03AE_11C_V1_GPRS_MMI/Tools/MinGW/include/c++/3.3.1/bits/stl_vector.h ****   
 412:d:/MTK/MTK2503/MTK2503/11CW1418SP4_03_CORETEK03AE_11C_V1_GPRS_MMI/Tools/MinGW/include/c++/3.3.1/bits/stl_vector.h ****       // [23.2.4.2] capacity
 413:d:/MTK/MTK2503/MTK2503/11CW1418SP4_03_CORETEK03AE_11C_V1_GPRS_MMI/Tools/MinGW/include/c++/3.3.1/bits/stl_vector.h ****       /**  Returns the number of elements in the %vector.  */
 414:d:/MTK/MTK2503/MTK2503/11CW1418SP4_03_CORETEK03AE_11C_V1_GPRS_MMI/Tools/MinGW/include/c++/3.3.1/bits/stl_vector.h ****       size_type
 415:d:/MTK/MTK2503/MTK2503/11CW1418SP4_03_CORETEK03AE_11C_V1_GPRS_MMI/Tools/MinGW/include/c++/3.3.1/bits/stl_vector.h ****       size() const { return size_type(end() - begin()); }
 9800              	LM765:
 9801 0000 55       		pushl	%ebp
 9802 0001 89E5     		movl	%esp, %ebp
 9803 0003 53       		pushl	%ebx
 9804 0004 83EC14   		subl	$20, %esp
 9806              	LM766:
 9807              	LBB98:
 9808 0007 8B4508   		movl	8(%ebp), %eax
 9809 000a 890424   		movl	%eax, (%esp)
 9810 000d E8000000 		call	__ZNKSt6vectorIP15ResFileGenParamSaIS1_EE5beginEv
 9810      00
 9811 0012 8945F8   		movl	%eax, -8(%ebp)
 9812 0015 8D5DF8   		leal	-8(%ebp), %ebx
 9813 0018 8B4508   		movl	8(%ebp), %eax
 9814 001b 890424   		movl	%eax, (%esp)
 9815 001e E8000000 		call	__ZNKSt6vectorIP15ResFileGenParamSaIS1_EE3endEv
 9815      00
 9816 0023 8945F4   		movl	%eax, -12(%ebp)
 9817 0026 8D45F4   		leal	-12(%ebp), %eax
 9818 0029 895C2404 		movl	%ebx, 4(%esp)
 9819 002d 890424   		movl	%eax, (%esp)
 9820 0030 E8000000 		call	__ZN9__gnu_cxxmiIPKP15ResFileGenParamS4_St6vectorIS2_SaIS2_EEEENS_17__normal_iteratorIT_T1_E1
 9820      00
 9821 0035 83C414   		addl	$20, %esp
 9822 0038 5B       		popl	%ebx
 9823 0039 5D       		popl	%ebp
 9824 003a C3       		ret
 9825              	LBE98:
GAS LISTING d:/MTK/MTK2503/MTK2503/11CW1418SP4_03_CORETEK03AE_11C_V1_GPRS_MMI/plutommi/Customer/ResGenerator/gcctmp/cc63daaa.s 			page 236


 9826              	Lscope42:
 9828 003b 90       		.section	.text$_ZNSt6vectorIP15ResFileGenParamSaIS1_EEixEj,"x"
 9829              		.linkonce discard
 9830              		.align 2
 9834              	.globl __ZNSt6vectorIP15ResFileGenParamSaIS1_EEixEj
 9836              	__ZNSt6vectorIP15ResFileGenParamSaIS1_EEixEj:
 416:d:/MTK/MTK2503/MTK2503/11CW1418SP4_03_CORETEK03AE_11C_V1_GPRS_MMI/Tools/MinGW/include/c++/3.3.1/bits/stl_vector.h ****       
 417:d:/MTK/MTK2503/MTK2503/11CW1418SP4_03_CORETEK03AE_11C_V1_GPRS_MMI/Tools/MinGW/include/c++/3.3.1/bits/stl_vector.h ****       /**  Returns the size() of the largest possible %vector.  */
 418:d:/MTK/MTK2503/MTK2503/11CW1418SP4_03_CORETEK03AE_11C_V1_GPRS_MMI/Tools/MinGW/include/c++/3.3.1/bits/stl_vector.h ****       size_type
 419:d:/MTK/MTK2503/MTK2503/11CW1418SP4_03_CORETEK03AE_11C_V1_GPRS_MMI/Tools/MinGW/include/c++/3.3.1/bits/stl_vector.h ****       max_size() const { return size_type(-1) / sizeof(value_type); }
 420:d:/MTK/MTK2503/MTK2503/11CW1418SP4_03_CORETEK03AE_11C_V1_GPRS_MMI/Tools/MinGW/include/c++/3.3.1/bits/stl_vector.h ****       
 421:d:/MTK/MTK2503/MTK2503/11CW1418SP4_03_CORETEK03AE_11C_V1_GPRS_MMI/Tools/MinGW/include/c++/3.3.1/bits/stl_vector.h ****       /**
 422:d:/MTK/MTK2503/MTK2503/11CW1418SP4_03_CORETEK03AE_11C_V1_GPRS_MMI/Tools/MinGW/include/c++/3.3.1/bits/stl_vector.h ****        *  @brief  Resizes the %vector to the specified number of elements.
 423:d:/MTK/MTK2503/MTK2503/11CW1418SP4_03_CORETEK03AE_11C_V1_GPRS_MMI/Tools/MinGW/include/c++/3.3.1/bits/stl_vector.h ****        *  @param  new_size  Number of elements the %vector should contain.
 424:d:/MTK/MTK2503/MTK2503/11CW1418SP4_03_CORETEK03AE_11C_V1_GPRS_MMI/Tools/MinGW/include/c++/3.3.1/bits/stl_vector.h ****        *  @param  x  Data with which new elements should be populated.
 425:d:/MTK/MTK2503/MTK2503/11CW1418SP4_03_CORETEK03AE_11C_V1_GPRS_MMI/Tools/MinGW/include/c++/3.3.1/bits/stl_vector.h ****        *
 426:d:/MTK/MTK2503/MTK2503/11CW1418SP4_03_CORETEK03AE_11C_V1_GPRS_MMI/Tools/MinGW/include/c++/3.3.1/bits/stl_vector.h ****        *  This function will %resize the %vector to the specified
 427:d:/MTK/MTK2503/MTK2503/11CW1418SP4_03_CORETEK03AE_11C_V1_GPRS_MMI/Tools/MinGW/include/c++/3.3.1/bits/stl_vector.h ****        *  number of elements.  If the number is smaller than the
 428:d:/MTK/MTK2503/MTK2503/11CW1418SP4_03_CORETEK03AE_11C_V1_GPRS_MMI/Tools/MinGW/include/c++/3.3.1/bits/stl_vector.h ****        *  %vector's current size the %vector is truncated, otherwise
 429:d:/MTK/MTK2503/MTK2503/11CW1418SP4_03_CORETEK03AE_11C_V1_GPRS_MMI/Tools/MinGW/include/c++/3.3.1/bits/stl_vector.h ****        *  the %vector is extended and new elements are populated with
 430:d:/MTK/MTK2503/MTK2503/11CW1418SP4_03_CORETEK03AE_11C_V1_GPRS_MMI/Tools/MinGW/include/c++/3.3.1/bits/stl_vector.h ****        *  given data.
 431:d:/MTK/MTK2503/MTK2503/11CW1418SP4_03_CORETEK03AE_11C_V1_GPRS_MMI/Tools/MinGW/include/c++/3.3.1/bits/stl_vector.h ****        */
 432:d:/MTK/MTK2503/MTK2503/11CW1418SP4_03_CORETEK03AE_11C_V1_GPRS_MMI/Tools/MinGW/include/c++/3.3.1/bits/stl_vector.h ****       void
 433:d:/MTK/MTK2503/MTK2503/11CW1418SP4_03_CORETEK03AE_11C_V1_GPRS_MMI/Tools/MinGW/include/c++/3.3.1/bits/stl_vector.h ****       resize(size_type __new_size, const value_type& __x)
 434:d:/MTK/MTK2503/MTK2503/11CW1418SP4_03_CORETEK03AE_11C_V1_GPRS_MMI/Tools/MinGW/include/c++/3.3.1/bits/stl_vector.h ****       {
 435:d:/MTK/MTK2503/MTK2503/11CW1418SP4_03_CORETEK03AE_11C_V1_GPRS_MMI/Tools/MinGW/include/c++/3.3.1/bits/stl_vector.h **** 	if (__new_size < size())
 436:d:/MTK/MTK2503/MTK2503/11CW1418SP4_03_CORETEK03AE_11C_V1_GPRS_MMI/Tools/MinGW/include/c++/3.3.1/bits/stl_vector.h **** 	  erase(begin() + __new_size, end());
 437:d:/MTK/MTK2503/MTK2503/11CW1418SP4_03_CORETEK03AE_11C_V1_GPRS_MMI/Tools/MinGW/include/c++/3.3.1/bits/stl_vector.h **** 	else
 438:d:/MTK/MTK2503/MTK2503/11CW1418SP4_03_CORETEK03AE_11C_V1_GPRS_MMI/Tools/MinGW/include/c++/3.3.1/bits/stl_vector.h **** 	  insert(end(), __new_size - size(), __x);
 439:d:/MTK/MTK2503/MTK2503/11CW1418SP4_03_CORETEK03AE_11C_V1_GPRS_MMI/Tools/MinGW/include/c++/3.3.1/bits/stl_vector.h ****       }
 440:d:/MTK/MTK2503/MTK2503/11CW1418SP4_03_CORETEK03AE_11C_V1_GPRS_MMI/Tools/MinGW/include/c++/3.3.1/bits/stl_vector.h ****       
 441:d:/MTK/MTK2503/MTK2503/11CW1418SP4_03_CORETEK03AE_11C_V1_GPRS_MMI/Tools/MinGW/include/c++/3.3.1/bits/stl_vector.h ****       /**
 442:d:/MTK/MTK2503/MTK2503/11CW1418SP4_03_CORETEK03AE_11C_V1_GPRS_MMI/Tools/MinGW/include/c++/3.3.1/bits/stl_vector.h ****        *  @brief  Resizes the %vector to the specified number of elements.
 443:d:/MTK/MTK2503/MTK2503/11CW1418SP4_03_CORETEK03AE_11C_V1_GPRS_MMI/Tools/MinGW/include/c++/3.3.1/bits/stl_vector.h ****        *  @param  new_size  Number of elements the %vector should contain.
 444:d:/MTK/MTK2503/MTK2503/11CW1418SP4_03_CORETEK03AE_11C_V1_GPRS_MMI/Tools/MinGW/include/c++/3.3.1/bits/stl_vector.h ****        *
 445:d:/MTK/MTK2503/MTK2503/11CW1418SP4_03_CORETEK03AE_11C_V1_GPRS_MMI/Tools/MinGW/include/c++/3.3.1/bits/stl_vector.h ****        *  This function will resize the %vector to the specified
 446:d:/MTK/MTK2503/MTK2503/11CW1418SP4_03_CORETEK03AE_11C_V1_GPRS_MMI/Tools/MinGW/include/c++/3.3.1/bits/stl_vector.h ****        *  number of elements.  If the number is smaller than the
 447:d:/MTK/MTK2503/MTK2503/11CW1418SP4_03_CORETEK03AE_11C_V1_GPRS_MMI/Tools/MinGW/include/c++/3.3.1/bits/stl_vector.h ****        *  %vector's current size the %vector is truncated, otherwise
 448:d:/MTK/MTK2503/MTK2503/11CW1418SP4_03_CORETEK03AE_11C_V1_GPRS_MMI/Tools/MinGW/include/c++/3.3.1/bits/stl_vector.h ****        *  the %vector is extended and new elements are
 449:d:/MTK/MTK2503/MTK2503/11CW1418SP4_03_CORETEK03AE_11C_V1_GPRS_MMI/Tools/MinGW/include/c++/3.3.1/bits/stl_vector.h ****        *  default-constructed.
 450:d:/MTK/MTK2503/MTK2503/11CW1418SP4_03_CORETEK03AE_11C_V1_GPRS_MMI/Tools/MinGW/include/c++/3.3.1/bits/stl_vector.h ****        */
 451:d:/MTK/MTK2503/MTK2503/11CW1418SP4_03_CORETEK03AE_11C_V1_GPRS_MMI/Tools/MinGW/include/c++/3.3.1/bits/stl_vector.h ****       void
 452:d:/MTK/MTK2503/MTK2503/11CW1418SP4_03_CORETEK03AE_11C_V1_GPRS_MMI/Tools/MinGW/include/c++/3.3.1/bits/stl_vector.h ****       resize(size_type __new_size) { resize(__new_size, value_type()); }
 453:d:/MTK/MTK2503/MTK2503/11CW1418SP4_03_CORETEK03AE_11C_V1_GPRS_MMI/Tools/MinGW/include/c++/3.3.1/bits/stl_vector.h ****       
 454:d:/MTK/MTK2503/MTK2503/11CW1418SP4_03_CORETEK03AE_11C_V1_GPRS_MMI/Tools/MinGW/include/c++/3.3.1/bits/stl_vector.h ****       /**
 455:d:/MTK/MTK2503/MTK2503/11CW1418SP4_03_CORETEK03AE_11C_V1_GPRS_MMI/Tools/MinGW/include/c++/3.3.1/bits/stl_vector.h ****        *  Returns the total number of elements that the %vector can hold before
 456:d:/MTK/MTK2503/MTK2503/11CW1418SP4_03_CORETEK03AE_11C_V1_GPRS_MMI/Tools/MinGW/include/c++/3.3.1/bits/stl_vector.h ****        *  needing to allocate more memory.
 457:d:/MTK/MTK2503/MTK2503/11CW1418SP4_03_CORETEK03AE_11C_V1_GPRS_MMI/Tools/MinGW/include/c++/3.3.1/bits/stl_vector.h ****        */
 458:d:/MTK/MTK2503/MTK2503/11CW1418SP4_03_CORETEK03AE_11C_V1_GPRS_MMI/Tools/MinGW/include/c++/3.3.1/bits/stl_vector.h ****       size_type
 459:d:/MTK/MTK2503/MTK2503/11CW1418SP4_03_CORETEK03AE_11C_V1_GPRS_MMI/Tools/MinGW/include/c++/3.3.1/bits/stl_vector.h ****       capacity() const
 460:d:/MTK/MTK2503/MTK2503/11CW1418SP4_03_CORETEK03AE_11C_V1_GPRS_MMI/Tools/MinGW/include/c++/3.3.1/bits/stl_vector.h ****       { return size_type(const_iterator(_M_end_of_storage) - begin()); }
 461:d:/MTK/MTK2503/MTK2503/11CW1418SP4_03_CORETEK03AE_11C_V1_GPRS_MMI/Tools/MinGW/include/c++/3.3.1/bits/stl_vector.h ****       
 462:d:/MTK/MTK2503/MTK2503/11CW1418SP4_03_CORETEK03AE_11C_V1_GPRS_MMI/Tools/MinGW/include/c++/3.3.1/bits/stl_vector.h ****       /**
 463:d:/MTK/MTK2503/MTK2503/11CW1418SP4_03_CORETEK03AE_11C_V1_GPRS_MMI/Tools/MinGW/include/c++/3.3.1/bits/stl_vector.h ****        *  Returns true if the %vector is empty.  (Thus begin() would
 464:d:/MTK/MTK2503/MTK2503/11CW1418SP4_03_CORETEK03AE_11C_V1_GPRS_MMI/Tools/MinGW/include/c++/3.3.1/bits/stl_vector.h ****        *  equal end().)
 465:d:/MTK/MTK2503/MTK2503/11CW1418SP4_03_CORETEK03AE_11C_V1_GPRS_MMI/Tools/MinGW/include/c++/3.3.1/bits/stl_vector.h ****        */
 466:d:/MTK/MTK2503/MTK2503/11CW1418SP4_03_CORETEK03AE_11C_V1_GPRS_MMI/Tools/MinGW/include/c++/3.3.1/bits/stl_vector.h ****       bool
GAS LISTING d:/MTK/MTK2503/MTK2503/11CW1418SP4_03_CORETEK03AE_11C_V1_GPRS_MMI/plutommi/Customer/ResGenerator/gcctmp/cc63daaa.s 			page 237


 467:d:/MTK/MTK2503/MTK2503/11CW1418SP4_03_CORETEK03AE_11C_V1_GPRS_MMI/Tools/MinGW/include/c++/3.3.1/bits/stl_vector.h ****       empty() const { return begin() == end(); }
 468:d:/MTK/MTK2503/MTK2503/11CW1418SP4_03_CORETEK03AE_11C_V1_GPRS_MMI/Tools/MinGW/include/c++/3.3.1/bits/stl_vector.h ****       
 469:d:/MTK/MTK2503/MTK2503/11CW1418SP4_03_CORETEK03AE_11C_V1_GPRS_MMI/Tools/MinGW/include/c++/3.3.1/bits/stl_vector.h ****       /**
 470:d:/MTK/MTK2503/MTK2503/11CW1418SP4_03_CORETEK03AE_11C_V1_GPRS_MMI/Tools/MinGW/include/c++/3.3.1/bits/stl_vector.h ****        *  @brief  Attempt to preallocate enough memory for specified number of
 471:d:/MTK/MTK2503/MTK2503/11CW1418SP4_03_CORETEK03AE_11C_V1_GPRS_MMI/Tools/MinGW/include/c++/3.3.1/bits/stl_vector.h ****        *          elements.
 472:d:/MTK/MTK2503/MTK2503/11CW1418SP4_03_CORETEK03AE_11C_V1_GPRS_MMI/Tools/MinGW/include/c++/3.3.1/bits/stl_vector.h ****        *  @param  n  Number of elements required.
 473:d:/MTK/MTK2503/MTK2503/11CW1418SP4_03_CORETEK03AE_11C_V1_GPRS_MMI/Tools/MinGW/include/c++/3.3.1/bits/stl_vector.h ****        *  @throw  std::length_error  If @a n exceeds @c max_size().
 474:d:/MTK/MTK2503/MTK2503/11CW1418SP4_03_CORETEK03AE_11C_V1_GPRS_MMI/Tools/MinGW/include/c++/3.3.1/bits/stl_vector.h ****        *
 475:d:/MTK/MTK2503/MTK2503/11CW1418SP4_03_CORETEK03AE_11C_V1_GPRS_MMI/Tools/MinGW/include/c++/3.3.1/bits/stl_vector.h ****        *  This function attempts to reserve enough memory for the
 476:d:/MTK/MTK2503/MTK2503/11CW1418SP4_03_CORETEK03AE_11C_V1_GPRS_MMI/Tools/MinGW/include/c++/3.3.1/bits/stl_vector.h ****        *  %vector to hold the specified number of elements.  If the
 477:d:/MTK/MTK2503/MTK2503/11CW1418SP4_03_CORETEK03AE_11C_V1_GPRS_MMI/Tools/MinGW/include/c++/3.3.1/bits/stl_vector.h ****        *  number requested is more than max_size(), length_error is
 478:d:/MTK/MTK2503/MTK2503/11CW1418SP4_03_CORETEK03AE_11C_V1_GPRS_MMI/Tools/MinGW/include/c++/3.3.1/bits/stl_vector.h ****        *  thrown.
 479:d:/MTK/MTK2503/MTK2503/11CW1418SP4_03_CORETEK03AE_11C_V1_GPRS_MMI/Tools/MinGW/include/c++/3.3.1/bits/stl_vector.h ****        *
 480:d:/MTK/MTK2503/MTK2503/11CW1418SP4_03_CORETEK03AE_11C_V1_GPRS_MMI/Tools/MinGW/include/c++/3.3.1/bits/stl_vector.h ****        *  The advantage of this function is that if optimal code is a
 481:d:/MTK/MTK2503/MTK2503/11CW1418SP4_03_CORETEK03AE_11C_V1_GPRS_MMI/Tools/MinGW/include/c++/3.3.1/bits/stl_vector.h ****        *  necessity and the user can determine the number of elements
 482:d:/MTK/MTK2503/MTK2503/11CW1418SP4_03_CORETEK03AE_11C_V1_GPRS_MMI/Tools/MinGW/include/c++/3.3.1/bits/stl_vector.h ****        *  that will be required, the user can reserve the memory in
 483:d:/MTK/MTK2503/MTK2503/11CW1418SP4_03_CORETEK03AE_11C_V1_GPRS_MMI/Tools/MinGW/include/c++/3.3.1/bits/stl_vector.h ****        *  %advance, and thus prevent a possible reallocation of memory
 484:d:/MTK/MTK2503/MTK2503/11CW1418SP4_03_CORETEK03AE_11C_V1_GPRS_MMI/Tools/MinGW/include/c++/3.3.1/bits/stl_vector.h ****        *  and copying of %vector data.
 485:d:/MTK/MTK2503/MTK2503/11CW1418SP4_03_CORETEK03AE_11C_V1_GPRS_MMI/Tools/MinGW/include/c++/3.3.1/bits/stl_vector.h ****        */
 486:d:/MTK/MTK2503/MTK2503/11CW1418SP4_03_CORETEK03AE_11C_V1_GPRS_MMI/Tools/MinGW/include/c++/3.3.1/bits/stl_vector.h ****       void
 487:d:/MTK/MTK2503/MTK2503/11CW1418SP4_03_CORETEK03AE_11C_V1_GPRS_MMI/Tools/MinGW/include/c++/3.3.1/bits/stl_vector.h ****       reserve(size_type __n);
 488:d:/MTK/MTK2503/MTK2503/11CW1418SP4_03_CORETEK03AE_11C_V1_GPRS_MMI/Tools/MinGW/include/c++/3.3.1/bits/stl_vector.h ****       
 489:d:/MTK/MTK2503/MTK2503/11CW1418SP4_03_CORETEK03AE_11C_V1_GPRS_MMI/Tools/MinGW/include/c++/3.3.1/bits/stl_vector.h ****       // element access
 490:d:/MTK/MTK2503/MTK2503/11CW1418SP4_03_CORETEK03AE_11C_V1_GPRS_MMI/Tools/MinGW/include/c++/3.3.1/bits/stl_vector.h ****       /**
 491:d:/MTK/MTK2503/MTK2503/11CW1418SP4_03_CORETEK03AE_11C_V1_GPRS_MMI/Tools/MinGW/include/c++/3.3.1/bits/stl_vector.h ****        *  @brief  Subscript access to the data contained in the %vector.
 492:d:/MTK/MTK2503/MTK2503/11CW1418SP4_03_CORETEK03AE_11C_V1_GPRS_MMI/Tools/MinGW/include/c++/3.3.1/bits/stl_vector.h ****        *  @param  n  The index of the element for which data should be accessed.
 493:d:/MTK/MTK2503/MTK2503/11CW1418SP4_03_CORETEK03AE_11C_V1_GPRS_MMI/Tools/MinGW/include/c++/3.3.1/bits/stl_vector.h ****        *  @return  Read/write reference to data.
 494:d:/MTK/MTK2503/MTK2503/11CW1418SP4_03_CORETEK03AE_11C_V1_GPRS_MMI/Tools/MinGW/include/c++/3.3.1/bits/stl_vector.h ****        *
 495:d:/MTK/MTK2503/MTK2503/11CW1418SP4_03_CORETEK03AE_11C_V1_GPRS_MMI/Tools/MinGW/include/c++/3.3.1/bits/stl_vector.h ****        *  This operator allows for easy, array-style, data access.
 496:d:/MTK/MTK2503/MTK2503/11CW1418SP4_03_CORETEK03AE_11C_V1_GPRS_MMI/Tools/MinGW/include/c++/3.3.1/bits/stl_vector.h ****        *  Note that data access with this operator is unchecked and
 497:d:/MTK/MTK2503/MTK2503/11CW1418SP4_03_CORETEK03AE_11C_V1_GPRS_MMI/Tools/MinGW/include/c++/3.3.1/bits/stl_vector.h ****        *  out_of_range lookups are not defined. (For checked lookups
 498:d:/MTK/MTK2503/MTK2503/11CW1418SP4_03_CORETEK03AE_11C_V1_GPRS_MMI/Tools/MinGW/include/c++/3.3.1/bits/stl_vector.h ****        *  see at().)
 499:d:/MTK/MTK2503/MTK2503/11CW1418SP4_03_CORETEK03AE_11C_V1_GPRS_MMI/Tools/MinGW/include/c++/3.3.1/bits/stl_vector.h ****        */
 500:d:/MTK/MTK2503/MTK2503/11CW1418SP4_03_CORETEK03AE_11C_V1_GPRS_MMI/Tools/MinGW/include/c++/3.3.1/bits/stl_vector.h ****       reference
 501:d:/MTK/MTK2503/MTK2503/11CW1418SP4_03_CORETEK03AE_11C_V1_GPRS_MMI/Tools/MinGW/include/c++/3.3.1/bits/stl_vector.h ****       operator[](size_type __n) { return *(begin() + __n); }
 9838              	LM767:
 9839 0000 55       		pushl	%ebp
 9840 0001 89E5     		movl	%esp, %ebp
 9841 0003 83EC18   		subl	$24, %esp
 9843              	LM768:
 9844              	LBB99:
 9845 0006 8B4508   		movl	8(%ebp), %eax
 9846 0009 890424   		movl	%eax, (%esp)
 9847 000c E8000000 		call	__ZNSt6vectorIP15ResFileGenParamSaIS1_EE5beginEv
 9847      00
 9848 0011 8945F8   		movl	%eax, -8(%ebp)
 9849 0014 8D55F8   		leal	-8(%ebp), %edx
 9850 0017 8B450C   		movl	12(%ebp), %eax
 9851 001a 8945F4   		movl	%eax, -12(%ebp)
 9852 001d 8D45F4   		leal	-12(%ebp), %eax
 9853 0020 89442404 		movl	%eax, 4(%esp)
 9854 0024 891424   		movl	%edx, (%esp)
 9855 0027 E8000000 		call	__ZNK9__gnu_cxx17__normal_iteratorIPP15ResFileGenParamSt6vectorIS2_SaIS2_EEEplERKi
 9855      00
 9856 002c 8945FC   		movl	%eax, -4(%ebp)
 9857 002f 8D45FC   		leal	-4(%ebp), %eax
 9858 0032 890424   		movl	%eax, (%esp)
GAS LISTING d:/MTK/MTK2503/MTK2503/11CW1418SP4_03_CORETEK03AE_11C_V1_GPRS_MMI/plutommi/Customer/ResGenerator/gcctmp/cc63daaa.s 			page 238


 9859 0035 E8000000 		call	__ZNK9__gnu_cxx17__normal_iteratorIPP15ResFileGenParamSt6vectorIS2_SaIS2_EEEdeEv
 9859      00
 9860 003a C9       		leave
 9861 003b C3       		ret
 9862              	LBE99:
 9863              	Lscope43:
 9865              		.text
 9866              	LC302:
 9867 826b 424D5000 		.ascii "BMP\0"
 9868              	LC303:
 9869 826f 50424D00 		.ascii "PBM\0"
 9870              	LC304:
 9871 8273 4A504700 		.ascii "JPG\0"
 9872              	LC305:
 9873 8277 47494600 		.ascii "GIF\0"
 9874              	LC306:
 9875 827b 41424D00 		.ascii "ABM\0"
 9876              	LC307:
 9877 827f 41564900 		.ascii "AVI\0"
 9878              	LC308:
 9879 8283 33475000 		.ascii "3GP\0"
 9880              	LC309:
 9881 8287 4D503400 		.ascii "MP4\0"
 9882              	LC310:
 9883 828b 525600   		.ascii "RV\0"
 9884              	LC311:
 9885 828e 524D00   		.ascii "RM\0"
 9886              	LC312:
 9887 8291 524D5642 		.ascii "RMVB\0"
 9887      00
 9888              	LC313:
 9889 8296 504E4700 		.ascii "PNG\0"
 9890              	LC314:
 9891 829a 50504E00 		.ascii "PPN\0"
 9892              	LC315:
 9893 829e 4D334400 		.ascii "M3D\0"
 9894              	LC316:
 9895 82a2 434D5000 		.ascii "CMP\0"
 9896              	LC317:
 9897 82a6 56495300 		.ascii "VIS\0"
 9898              	LC318:
 9899 82aa 53564700 		.ascii "SVG\0"
 9900              	LC319:
 9901 82ae 54544600 		.ascii "TTF\0"
 9902              	LC320:
 9903 82b2 53544600 		.ascii "STF\0"
 9904              	LC321:
 9905 82b6 43434300 		.ascii "CCC\0"
 9906              	LC322:
 9907 82ba 4B545800 		.ascii "KTX\0"
 9908 82be 89F6     		.align 32
 9909              	_image_resource_info:
 9910 82c0 6B820000 		.long	LC302
 9911 82c4 01       		.byte	1
 9912 82c5 000000   		.space 3
 9913 82c8 6F820000 		.long	LC303
 9914 82cc 04       		.byte	4
GAS LISTING d:/MTK/MTK2503/MTK2503/11CW1418SP4_03_CORETEK03AE_11C_V1_GPRS_MMI/plutommi/Customer/ResGenerator/gcctmp/cc63daaa.s 			page 239


 9915 82cd 000000   		.space 3
 9916 82d0 73820000 		.long	LC304
 9917 82d4 09       		.byte	9
 9918 82d5 000000   		.space 3
 9919 82d8 77820000 		.long	LC305
 9920 82dc 03       		.byte	3
 9921 82dd 000000   		.space 3
 9922 82e0 7B820000 		.long	LC306
 9923 82e4 28       		.byte	40
 9924 82e5 000000   		.space 3
 9925 82e8 7F820000 		.long	LC307
 9926 82ec 0C       		.byte	12
 9927 82ed 000000   		.space 3
 9928 82f0 83820000 		.long	LC308
 9929 82f4 0E       		.byte	14
 9930 82f5 000000   		.space 3
 9931 82f8 87820000 		.long	LC309
 9932 82fc 10       		.byte	16
 9933 82fd 000000   		.space 3
 9934 8300 8B820000 		.long	LC310
 9935 8304 4A       		.byte	74
 9936 8305 000000   		.space 3
 9937 8308 8E820000 		.long	LC311
 9938 830c 4C       		.byte	76
 9939 830d 000000   		.space 3
 9940 8310 91820000 		.long	LC312
 9941 8314 4E       		.byte	78
 9942 8315 000000   		.space 3
 9943 8318 96820000 		.long	LC313
 9944 831c 13       		.byte	19
 9945 831d 000000   		.space 3
 9946 8320 9A820000 		.long	LC314
 9947 8324 48       		.byte	72
 9948 8325 000000   		.space 3
 9949 8328 9E820000 		.long	LC315
 9950 832c 19       		.byte	25
 9951 832d 000000   		.space 3
 9952 8330 A2820000 		.long	LC316
 9953 8334 1D       		.byte	29
 9954 8335 000000   		.space 3
 9955 8338 A6820000 		.long	LC317
 9956 833c 31       		.byte	49
 9957 833d 000000   		.space 3
 9958 8340 AA820000 		.long	LC318
 9959 8344 1B       		.byte	27
 9960 8345 000000   		.space 3
 9961 8348 AE820000 		.long	LC319
 9962 834c 49       		.byte	73
 9963 834d 000000   		.space 3
 9964 8350 B2820000 		.long	LC320
 9965 8354 49       		.byte	73
 9966 8355 000000   		.space 3
 9967 8358 B6820000 		.long	LC321
 9968 835c 49       		.byte	73
 9969 835d 000000   		.space 3
 9970 8360 BA820000 		.long	LC322
 9971 8364 43       		.byte	67
GAS LISTING d:/MTK/MTK2503/MTK2503/11CW1418SP4_03_CORETEK03AE_11C_V1_GPRS_MMI/plutommi/Customer/ResGenerator/gcctmp/cc63daaa.s 			page 240


 9972 8365 000000   		.space 3
 9973              	_HEADER:
 9974 8368 5F5F616C 		.ascii "__align(4)\0"
 9974      69676E28 
 9974      342900
 9975              	_REP_HEADER:
 9976 8373 65787465 		.ascii "extern \0"
 9976      726E2000 
 9977              	.globl __ZNSt15basic_streambufIcSt11char_traitsIcEE13_S_pback_sizeE
 9978              		.section	.rdata$_ZNSt15basic_streambufIcSt11char_traitsIcEE13_S_pback_sizeE,""
 9979              		.linkonce same_size
 9980              		.align 4
 9981              	__ZNSt15basic_streambufIcSt11char_traitsIcEE13_S_pback_sizeE:
 9982 0000 01000000 		.long	1
 9983              		.section	.text$_ZN21AudioParamTextFileDAOC1Ev,"x"
 9984              		.linkonce discard
 9985              		.align 2
 9988              	.globl __ZN21AudioParamTextFileDAOC1Ev
 9990              	__ZN21AudioParamTextFileDAOC1Ev:
 9992              	Ltext5:
 9994              	LM769:
 9995 0000 55       		pushl	%ebp
 9996 0001 89E5     		movl	%esp, %ebp
 9997 0003 83EC08   		subl	$8, %esp
 9999              	LM770:
 10000              	LBB100:
 10001 0006 8B4508   		movl	8(%ebp), %eax
 10002 0009 890424   		movl	%eax, (%esp)
 10003 000c E8000000 		call	__ZN16ParamTextFileDAOC2Ev
 10003      00
 10004 0011 8B4508   		movl	8(%ebp), %eax
 10005 0014 C7000800 		movl	$__ZTV21AudioParamTextFileDAO+8, (%eax)
 10005      0000
 10006 001a C9       		leave
 10007 001b C3       		ret
 10008              	L370:
 10009              	L369:
 10010              	LBE100:
 10011              	Lscope44:
 10013              		.section	.text$_ZN26ResFileGenParamTextFileDAOC1Ev,"x"
 10014              		.linkonce discard
 10015              		.align 2
 10018              	.globl __ZN26ResFileGenParamTextFileDAOC1Ev
 10020              	__ZN26ResFileGenParamTextFileDAOC1Ev:
 10022              	LM771:
 10023 0000 55       		pushl	%ebp
 10024 0001 89E5     		movl	%esp, %ebp
 10026              	LM772:
 10027              	LBB101:
 10028 0003 8B4508   		movl	8(%ebp), %eax
 10029 0006 C7000800 		movl	$__ZTV26ResFileGenParamTextFileDAO+8, (%eax)
 10029      0000
 10030 000c 5D       		popl	%ebp
 10031 000d C3       		ret
 10032              	L373:
 10033              	L372:
 10034              	LBE101:
GAS LISTING d:/MTK/MTK2503/MTK2503/11CW1418SP4_03_CORETEK03AE_11C_V1_GPRS_MMI/plutommi/Customer/ResGenerator/gcctmp/cc63daaa.s 			page 241


 10035              	Lscope45:
 10037 000e 9090     		.section	.text$_ZN25OfflineResPopAudioAdaptorC1Ev,"x"
 10038              		.linkonce discard
 10039              		.align 2
 10042              	.globl __ZN25OfflineResPopAudioAdaptorC1Ev
 10044              	__ZN25OfflineResPopAudioAdaptorC1Ev:
 10046              	LM773:
 10047 0000 55       		pushl	%ebp
 10048 0001 89E5     		movl	%esp, %ebp
 10049 0003 83EC08   		subl	$8, %esp
 10051              	LM774:
 10052              	LBB102:
 10053 0006 8B4508   		movl	8(%ebp), %eax
 10054 0009 890424   		movl	%eax, (%esp)
 10055 000c E8000000 		call	__ZN20OfflineResPopAdaptorC2Ev
 10055      00
 10056 0011 8B4508   		movl	8(%ebp), %eax
 10057 0014 C7000800 		movl	$__ZTV25OfflineResPopAudioAdaptor+8, (%eax)
 10057      0000
 10058 001a C9       		leave
 10059 001b C3       		ret
 10060              	L376:
 10061              	L375:
 10062              	LBE102:
 10063              	Lscope46:
 10065              		.section	.text$_ZN20OfflineResPopService16populateResourceEP13ResParamModelPcP16ParamTextFileDAOP1
 10066              		.linkonce discard
 10067              		.align 2
 10074              	.globl __ZN20OfflineResPopService16populateResourceEP13ResParamModelPcP16ParamTextFileDAOP19Offline
 10076              	__ZN20OfflineResPopService16populateResourceEP13ResParamModelPcP16ParamTextFileDAOP19OfflineResPopu
 10078              	LM775:
 10079 0000 55       		pushl	%ebp
 10080 0001 89E5     		movl	%esp, %ebp
 10081 0003 83EC08   		subl	$8, %esp
 10083              	LM776:
 10084              	LBB103:
 10085 0006 8B4510   		movl	16(%ebp), %eax
 10086 0009 89442404 		movl	%eax, 4(%esp)
 10087 000d 8B450C   		movl	12(%ebp), %eax
 10088 0010 890424   		movl	%eax, (%esp)
 10089 0013 E8000000 		call	__ZN13ResParamModel21setRepositoryFileNameEPc
 10089      00
 10091              	LM777:
 10092 0018 8B450C   		movl	12(%ebp), %eax
 10093 001b 8B10     		movl	(%eax), %edx
 10094 001d 83C218   		addl	$24, %edx
 10095 0020 8B4514   		movl	20(%ebp), %eax
 10096 0023 89442404 		movl	%eax, 4(%esp)
 10097 0027 8B450C   		movl	12(%ebp), %eax
 10098 002a 890424   		movl	%eax, (%esp)
 10099 002d 8B02     		movl	(%edx), %eax
 10100 002f FFD0     		call	*%eax
 10102              	LM778:
 10103 0031 8B4518   		movl	24(%ebp), %eax
 10104 0034 8B10     		movl	(%eax), %edx
 10105 0036 83C204   		addl	$4, %edx
 10106 0039 8B450C   		movl	12(%ebp), %eax
GAS LISTING d:/MTK/MTK2503/MTK2503/11CW1418SP4_03_CORETEK03AE_11C_V1_GPRS_MMI/plutommi/Customer/ResGenerator/gcctmp/cc63daaa.s 			page 242


 10107 003c 89442404 		movl	%eax, 4(%esp)
 10108 0040 8B4518   		movl	24(%ebp), %eax
 10109 0043 890424   		movl	%eax, (%esp)
 10110 0046 8B02     		movl	(%edx), %eax
 10111 0048 FFD0     		call	*%eax
 10113              	LM779:
 10114 004a 8B4518   		movl	24(%ebp), %eax
 10115 004d 8B10     		movl	(%eax), %edx
 10116 004f 8B4518   		movl	24(%ebp), %eax
 10117 0052 890424   		movl	%eax, (%esp)
 10118 0055 8B02     		movl	(%edx), %eax
 10119 0057 FFD0     		call	*%eax
 10121              	LM780:
 10122 0059 C9       		leave
 10123 005a C3       		ret
 10124              	LBE103:
 10125              	Lscope47:
 10127 005b 90       		.section	.text$_ZN24BatchedResFileGenService16generateImageResEPcS0_,"x"
 10128              		.linkonce discard
 10129              		.align 2
 10134              	.globl __ZN24BatchedResFileGenService16generateImageResEPcS0_
 10136              	__ZN24BatchedResFileGenService16generateImageResEPcS0_:
 10138              	LM781:
 10139 0000 55       		pushl	%ebp
 10140 0001 89E5     		movl	%esp, %ebp
 10141 0003 81EC5804 		subl	$1112, %esp
 10141      0000
 10143              	LM782:
 10144              	LBB104:
 10145 0009 C745F400 		movl	$0, -12(%ebp)
 10145      000000
 10147              	LM783:
 10148 0010 C7442408 		movl	$512, 8(%esp)
 10148      00020000 
 10149 0018 8B450C   		movl	12(%ebp), %eax
 10150 001b 89442404 		movl	%eax, 4(%esp)
 10151 001f 8D85E8FD 		leal	-536(%ebp), %eax
 10151      FFFF
 10152 0025 890424   		movl	%eax, (%esp)
 10153 0028 E8000000 		call	_strncpy
 10153      00
 10155              	LM784:
 10156 002d C7442404 		movl	$512, 4(%esp)
 10156      00020000 
 10157 0035 8D85E8FD 		leal	-536(%ebp), %eax
 10157      FFFF
 10158 003b 890424   		movl	%eax, (%esp)
 10159 003e E8000000 		call	_str_upper
 10159      00
 10161              	LM785:
 10162 0043 8B4510   		movl	16(%ebp), %eax
 10163 0046 89442404 		movl	%eax, 4(%esp)
 10164 004a 8B4508   		movl	8(%ebp), %eax
 10165 004d 890424   		movl	%eax, (%esp)
 10166 0050 E8000000 		call	__ZN24BatchedResFileGenService17initResFileOutputEPc
 10166      00
 10167 0055 85C0     		testl	%eax, %eax
GAS LISTING d:/MTK/MTK2503/MTK2503/11CW1418SP4_03_CORETEK03AE_11C_V1_GPRS_MMI/plutommi/Customer/ResGenerator/gcctmp/cc63daaa.s 			page 243


 10168 0057 7407     		je	L380
 10170              	LM786:
 10171 0059 C745F4FF 		movl	$-1, -12(%ebp)
 10171      FFFFFF
 10172              	L380:
 10174              	LM787:
 10175 0060 8D85C8FB 		leal	-1080(%ebp), %eax
 10175      FFFF
 10176 0066 890424   		movl	%eax, (%esp)
 10177 0069 E8000000 		call	_initImageProcessData
 10177      00
 10179              	LM788:
 10180 006e 8D85C4FB 		leal	-1084(%ebp), %eax
 10180      FFFF
 10181 0074 890424   		movl	%eax, (%esp)
 10182 0077 E8000000 		call	_ImageOutStreamInit
 10182      00
 10184              	LM789:
 10185 007c 8B85C4FB 		movl	-1084(%ebp), %eax
 10185      FFFF
 10186 0082 8985CCFD 		movl	%eax, -564(%ebp)
 10186      FFFF
 10188              	LM790:
 10189              	LBB105:
 10190 0088 8D85C8FB 		leal	-1080(%ebp), %eax
 10190      FFFF
 10191 008e 8944240C 		movl	%eax, 12(%esp)
 10192 0092 C7442408 		movl	$0, 8(%esp)
 10192      00000000 
 10193 009a C7442404 		movl	$0, 4(%esp)
 10193      00000000 
 10194 00a2 8D85E8FD 		leal	-536(%ebp), %eax
 10194      FFFF
 10195 00a8 890424   		movl	%eax, (%esp)
 10196 00ab E8000000 		call	_Iload
 10196      00
 10197 00b0 83F801   		cmpl	$1, %eax
 10198 00b3 0F85B100 		jne	L381
 10198      0000
 10200              	LM791:
 10201              	LBB106:
 10202 00b9 C785C0FB 		movl	$LC269, -1088(%ebp)
 10202      FFFFB473 
 10202      0000
 10204              	LM792:
 10205 00c3 C785BCFB 		movl	$0, -1092(%ebp)
 10205      FFFF0000 
 10205      0000
 10207              	LM793:
 10208 00cd C7442404 		movl	$LC270, 4(%esp)
 10208      BF730000 
 10209 00d5 8B85C0FB 		movl	-1088(%ebp), %eax
 10209      FFFF
 10210 00db 890424   		movl	%eax, (%esp)
 10211 00de E8000000 		call	_fopen
 10211      00
 10212 00e3 8985BCFB 		movl	%eax, -1092(%ebp)
GAS LISTING d:/MTK/MTK2503/MTK2503/11CW1418SP4_03_CORETEK03AE_11C_V1_GPRS_MMI/plutommi/Customer/ResGenerator/gcctmp/cc63daaa.s 			page 244


 10212      FFFF
 10214              	LM794:
 10215              	L382:
 10216 00e9 83BDBCFB 		cmpl	$0, -1092(%ebp)
 10216      FFFF00
 10217 00f0 7402     		je	L384
 10218 00f2 EB2D     		jmp	L383
 10219              	L384:
 10221              	LM795:
 10222 00f4 C7042432 		movl	$50, (%esp)
 10222      000000
 10223 00fb E8000000 		call	_Sleep@4
 10223      00
 10224 0100 83EC04   		subl	$4, %esp
 10226              	LM796:
 10227 0103 C7442404 		movl	$LC270, 4(%esp)
 10227      BF730000 
 10228 010b 8B85C0FB 		movl	-1088(%ebp), %eax
 10228      FFFF
 10229 0111 890424   		movl	%eax, (%esp)
 10230 0114 E8000000 		call	_fopen
 10230      00
 10231 0119 8985BCFB 		movl	%eax, -1092(%ebp)
 10231      FFFF
 10232 011f EBC8     		jmp	L382
 10233              	L383:
 10235              	LM797:
 10236 0121 8B85BCFB 		movl	-1092(%ebp), %eax
 10236      FFFF
 10237 0127 89442404 		movl	%eax, 4(%esp)
 10238 012b 8B85C4FB 		movl	-1084(%ebp), %eax
 10238      FFFF
 10239 0131 890424   		movl	%eax, (%esp)
 10240 0134 E8000000 		call	_ImageOutStreamOutputFile
 10240      00
 10242              	LM798:
 10243 0139 8D85C4FB 		leal	-1084(%ebp), %eax
 10243      FFFF
 10244 013f 890424   		movl	%eax, (%esp)
 10245 0142 E8000000 		call	_ImageOutStreamDeinit
 10245      00
 10247              	LM799:
 10248 0147 83BDBCFB 		cmpl	$0, -1092(%ebp)
 10248      FFFF00
 10249 014e 742F     		je	L387
 10250 0150 8B85BCFB 		movl	-1092(%ebp), %eax
 10250      FFFF
 10251 0156 890424   		movl	%eax, (%esp)
 10252 0159 E8000000 		call	_fclose
 10252      00
 10253 015e C785BCFB 		movl	$0, -1092(%ebp)
 10253      FFFF0000 
 10253      0000
 10254              	LBE106:
 10255 0168 EB15     		jmp	L387
 10256              	L381:
 10258              	LM800:
GAS LISTING d:/MTK/MTK2503/MTK2503/11CW1418SP4_03_CORETEK03AE_11C_V1_GPRS_MMI/plutommi/Customer/ResGenerator/gcctmp/cc63daaa.s 			page 245


 10259 016a C745F4FF 		movl	$-1, -12(%ebp)
 10259      FFFFFF
 10261              	LM801:
 10262 0171 8D85C4FB 		leal	-1084(%ebp), %eax
 10262      FFFF
 10263 0177 890424   		movl	%eax, (%esp)
 10264 017a E8000000 		call	_ImageOutStreamDeinit
 10264      00
 10265              	L387:
 10267              	LM802:
 10268              	LBE105:
 10269 017f 8B4508   		movl	8(%ebp), %eax
 10270 0182 890424   		movl	%eax, (%esp)
 10271 0185 E8000000 		call	__ZN24BatchedResFileGenService19deInitResFileOutputEv
 10271      00
 10272 018a 85C0     		testl	%eax, %eax
 10273 018c 7407     		je	L388
 10275              	LM803:
 10276 018e C745F4FF 		movl	$-1, -12(%ebp)
 10276      FFFFFF
 10277              	L388:
 10279              	LM804:
 10280 0195 8B45F4   		movl	-12(%ebp), %eax
 10282              	LM805:
 10283 0198 C9       		leave
 10284 0199 C3       		ret
 10285              	LBE104:
 10297              	Lscope48:
 10299 019a 9090     		.section	.text$_ZN24BatchedResFileGenService15generateFontResEPcS0_,"x"
 10300              		.linkonce discard
 10301              		.align 2
 10306              	.globl __ZN24BatchedResFileGenService15generateFontResEPcS0_
 10308              	__ZN24BatchedResFileGenService15generateFontResEPcS0_:
 10310              	LM806:
 10311 0000 55       		pushl	%ebp
 10312 0001 89E5     		movl	%esp, %ebp
 10313 0003 81EC2802 		subl	$552, %esp
 10313      0000
 10315              	LM807:
 10316              	LBB107:
 10317 0009 C745F400 		movl	$0, -12(%ebp)
 10317      000000
 10319              	LM808:
 10320 0010 C7442408 		movl	$512, 8(%esp)
 10320      00020000 
 10321 0018 8B450C   		movl	12(%ebp), %eax
 10322 001b 89442404 		movl	%eax, 4(%esp)
 10323 001f 8D85E8FD 		leal	-536(%ebp), %eax
 10323      FFFF
 10324 0025 890424   		movl	%eax, (%esp)
 10325 0028 E8000000 		call	_strncpy
 10325      00
 10327              	LM809:
 10328 002d C7442404 		movl	$512, 4(%esp)
 10328      00020000 
 10329 0035 8D85E8FD 		leal	-536(%ebp), %eax
 10329      FFFF
GAS LISTING d:/MTK/MTK2503/MTK2503/11CW1418SP4_03_CORETEK03AE_11C_V1_GPRS_MMI/plutommi/Customer/ResGenerator/gcctmp/cc63daaa.s 			page 246


 10330 003b 890424   		movl	%eax, (%esp)
 10331 003e E8000000 		call	_str_upper
 10331      00
 10333              	LM810:
 10334 0043 8B4510   		movl	16(%ebp), %eax
 10335 0046 89442404 		movl	%eax, 4(%esp)
 10336 004a 8B4508   		movl	8(%ebp), %eax
 10337 004d 890424   		movl	%eax, (%esp)
 10338 0050 E8000000 		call	__ZN24BatchedResFileGenService17initResFileOutputEPc
 10338      00
 10339 0055 85C0     		testl	%eax, %eax
 10340 0057 7407     		je	L390
 10342              	LM811:
 10343 0059 C745F4FF 		movl	$-1, -12(%ebp)
 10343      FFFFFF
 10344              	L390:
 10346              	LM812:
 10347 0060 8D45F2   		leal	-14(%ebp), %eax
 10348 0063 89442404 		movl	%eax, 4(%esp)
 10349 0067 8D85E8FD 		leal	-536(%ebp), %eax
 10349      FFFF
 10350 006d 890424   		movl	%eax, (%esp)
 10351 0070 E8000000 		call	_Fload
 10351      00
 10352 0075 83F801   		cmpl	$1, %eax
 10353 0078 7407     		je	L391
 10355              	LM813:
 10356 007a C745F4FF 		movl	$-1, -12(%ebp)
 10356      FFFFFF
 10357              	L391:
 10359              	LM814:
 10360 0081 8B4508   		movl	8(%ebp), %eax
 10361 0084 890424   		movl	%eax, (%esp)
 10362 0087 E8000000 		call	__ZN24BatchedResFileGenService19deInitResFileOutputEv
 10362      00
 10363 008c 85C0     		testl	%eax, %eax
 10364 008e 7407     		je	L392
 10366              	LM815:
 10367 0090 C745F4FF 		movl	$-1, -12(%ebp)
 10367      FFFFFF
 10368              	L392:
 10370              	LM816:
 10371 0097 8B45F4   		movl	-12(%ebp), %eax
 10373              	LM817:
 10374 009a C9       		leave
 10375 009b C3       		ret
 10376              	LBE107:
 10382              	Lscope49:
 10384              		.section	.text$_ZN24BatchedResFileGenService16generateAudioResEPcS0_,"x"
 10385              		.linkonce discard
 10386              		.align 2
 10391              	.globl __ZN24BatchedResFileGenService16generateAudioResEPcS0_
 10393              	__ZN24BatchedResFileGenService16generateAudioResEPcS0_:
 10395              	LM818:
 10396 0000 55       		pushl	%ebp
 10397 0001 89E5     		movl	%esp, %ebp
 10398 0003 81EC2802 		subl	$552, %esp
GAS LISTING d:/MTK/MTK2503/MTK2503/11CW1418SP4_03_CORETEK03AE_11C_V1_GPRS_MMI/plutommi/Customer/ResGenerator/gcctmp/cc63daaa.s 			page 247


 10398      0000
 10400              	LM819:
 10401              	LBB108:
 10402 0009 C745F400 		movl	$0, -12(%ebp)
 10402      000000
 10404              	LM820:
 10405 0010 C7442408 		movl	$512, 8(%esp)
 10405      00020000 
 10406 0018 8B450C   		movl	12(%ebp), %eax
 10407 001b 89442404 		movl	%eax, 4(%esp)
 10408 001f 8D85E8FD 		leal	-536(%ebp), %eax
 10408      FFFF
 10409 0025 890424   		movl	%eax, (%esp)
 10410 0028 E8000000 		call	_strncpy
 10410      00
 10412              	LM821:
 10413 002d C7442404 		movl	$512, 4(%esp)
 10413      00020000 
 10414 0035 8D85E8FD 		leal	-536(%ebp), %eax
 10414      FFFF
 10415 003b 890424   		movl	%eax, (%esp)
 10416 003e E8000000 		call	_str_upper
 10416      00
 10418              	LM822:
 10419 0043 8B4510   		movl	16(%ebp), %eax
 10420 0046 89442404 		movl	%eax, 4(%esp)
 10421 004a 8B4508   		movl	8(%ebp), %eax
 10422 004d 890424   		movl	%eax, (%esp)
 10423 0050 E8000000 		call	__ZN24BatchedResFileGenService17initResFileOutputEPc
 10423      00
 10424 0055 85C0     		testl	%eax, %eax
 10425 0057 7407     		je	L394
 10427              	LM823:
 10428 0059 C745F4FF 		movl	$-1, -12(%ebp)
 10428      FFFFFF
 10429              	L394:
 10431              	LM824:
 10432 0060 8D45F2   		leal	-14(%ebp), %eax
 10433 0063 89442404 		movl	%eax, 4(%esp)
 10434 0067 8D85E8FD 		leal	-536(%ebp), %eax
 10434      FFFF
 10435 006d 890424   		movl	%eax, (%esp)
 10436 0070 E8000000 		call	_Aload
 10436      00
 10437 0075 83F801   		cmpl	$1, %eax
 10438 0078 7407     		je	L395
 10440              	LM825:
 10441 007a C745F4FF 		movl	$-1, -12(%ebp)
 10441      FFFFFF
 10442              	L395:
 10444              	LM826:
 10445 0081 8B4508   		movl	8(%ebp), %eax
 10446 0084 890424   		movl	%eax, (%esp)
 10447 0087 E8000000 		call	__ZN24BatchedResFileGenService19deInitResFileOutputEv
 10447      00
 10448 008c 85C0     		testl	%eax, %eax
 10449 008e 7407     		je	L396
GAS LISTING d:/MTK/MTK2503/MTK2503/11CW1418SP4_03_CORETEK03AE_11C_V1_GPRS_MMI/plutommi/Customer/ResGenerator/gcctmp/cc63daaa.s 			page 248


 10451              	LM827:
 10452 0090 C745F4FF 		movl	$-1, -12(%ebp)
 10452      FFFFFF
 10453              	L396:
 10455              	LM828:
 10456 0097 8B45F4   		movl	-12(%ebp), %eax
 10458              	LM829:
 10459 009a C9       		leave
 10460 009b C3       		ret
 10461              	LBE108:
 10467              	Lscope50:
 10469              		.section	.text$_ZNKSt6vectorIP15ResFileGenParamSaIS1_EE5beginEv,"x"
 10470              		.linkonce discard
 10471              		.align 2
 10474              	.globl __ZNKSt6vectorIP15ResFileGenParamSaIS1_EE5beginEv
 10476              	__ZNKSt6vectorIP15ResFileGenParamSaIS1_EE5beginEv:
 10478              	Ltext6:
 10480              	LM830:
 10481 0000 55       		pushl	%ebp
 10482 0001 89E5     		movl	%esp, %ebp
 10483 0003 83EC18   		subl	$24, %esp
 10485              	LM831:
 10486              	LBB109:
 10487 0006 8B4508   		movl	8(%ebp), %eax
 10488 0009 8B00     		movl	(%eax), %eax
 10489 000b 8945F8   		movl	%eax, -8(%ebp)
 10490 000e 8D45F8   		leal	-8(%ebp), %eax
 10491 0011 89442404 		movl	%eax, 4(%esp)
 10492 0015 8D45FC   		leal	-4(%ebp), %eax
 10493 0018 890424   		movl	%eax, (%esp)
 10494 001b E8000000 		call	__ZN9__gnu_cxx17__normal_iteratorIPKP15ResFileGenParamSt6vectorIS2_SaIS2_EEEC1ERKS4_
 10494      00
 10495 0020 8B45FC   		movl	-4(%ebp), %eax
 10496 0023 C9       		leave
 10497 0024 C3       		ret
 10498              	LBE109:
 10499              	Lscope51:
 10501 0025 909090   		.section	.text$_ZN9__gnu_cxx17__normal_iteratorIPKP15ResFileGenParamSt6vectorIS2_SaIS2_EEEC1ERKS4_
 10502              		.linkonce discard
 10503              		.align 2
 10507              	.globl __ZN9__gnu_cxx17__normal_iteratorIPKP15ResFileGenParamSt6vectorIS2_SaIS2_EEEC1ERKS4_
 10509              	__ZN9__gnu_cxx17__normal_iteratorIPKP15ResFileGenParamSt6vectorIS2_SaIS2_EEEC1ERKS4_:
 10511              	Ltext7:
   1:d:/MTK/MTK2503/MTK2503/11CW1418SP4_03_CORETEK03AE_11C_V1_GPRS_MMI/Tools/MinGW/include/c++/3.3.1/bits/stl_iterator.h **** // Iterators -*- C++ -*-
   2:d:/MTK/MTK2503/MTK2503/11CW1418SP4_03_CORETEK03AE_11C_V1_GPRS_MMI/Tools/MinGW/include/c++/3.3.1/bits/stl_iterator.h **** 
   3:d:/MTK/MTK2503/MTK2503/11CW1418SP4_03_CORETEK03AE_11C_V1_GPRS_MMI/Tools/MinGW/include/c++/3.3.1/bits/stl_iterator.h **** // Copyright (C) 2001, 2002 Free Software Foundation, Inc.
   4:d:/MTK/MTK2503/MTK2503/11CW1418SP4_03_CORETEK03AE_11C_V1_GPRS_MMI/Tools/MinGW/include/c++/3.3.1/bits/stl_iterator.h **** //
   5:d:/MTK/MTK2503/MTK2503/11CW1418SP4_03_CORETEK03AE_11C_V1_GPRS_MMI/Tools/MinGW/include/c++/3.3.1/bits/stl_iterator.h **** // This file is part of the GNU ISO C++ Library.  This library is free
   6:d:/MTK/MTK2503/MTK2503/11CW1418SP4_03_CORETEK03AE_11C_V1_GPRS_MMI/Tools/MinGW/include/c++/3.3.1/bits/stl_iterator.h **** // software; you can redistribute it and/or modify it under the
   7:d:/MTK/MTK2503/MTK2503/11CW1418SP4_03_CORETEK03AE_11C_V1_GPRS_MMI/Tools/MinGW/include/c++/3.3.1/bits/stl_iterator.h **** // terms of the GNU General Public License as published by the
   8:d:/MTK/MTK2503/MTK2503/11CW1418SP4_03_CORETEK03AE_11C_V1_GPRS_MMI/Tools/MinGW/include/c++/3.3.1/bits/stl_iterator.h **** // Free Software Foundation; either version 2, or (at your option)
   9:d:/MTK/MTK2503/MTK2503/11CW1418SP4_03_CORETEK03AE_11C_V1_GPRS_MMI/Tools/MinGW/include/c++/3.3.1/bits/stl_iterator.h **** // any later version.
  10:d:/MTK/MTK2503/MTK2503/11CW1418SP4_03_CORETEK03AE_11C_V1_GPRS_MMI/Tools/MinGW/include/c++/3.3.1/bits/stl_iterator.h **** 
  11:d:/MTK/MTK2503/MTK2503/11CW1418SP4_03_CORETEK03AE_11C_V1_GPRS_MMI/Tools/MinGW/include/c++/3.3.1/bits/stl_iterator.h **** // This library is distributed in the hope that it will be useful,
  12:d:/MTK/MTK2503/MTK2503/11CW1418SP4_03_CORETEK03AE_11C_V1_GPRS_MMI/Tools/MinGW/include/c++/3.3.1/bits/stl_iterator.h **** // but WITHOUT ANY WARRANTY; without even the implied warranty of
  13:d:/MTK/MTK2503/MTK2503/11CW1418SP4_03_CORETEK03AE_11C_V1_GPRS_MMI/Tools/MinGW/include/c++/3.3.1/bits/stl_iterator.h **** // MERCHANTABILITY or FITNESS FOR A PARTICULAR PURPOSE.  See the
  14:d:/MTK/MTK2503/MTK2503/11CW1418SP4_03_CORETEK03AE_11C_V1_GPRS_MMI/Tools/MinGW/include/c++/3.3.1/bits/stl_iterator.h **** // GNU General Public License for more details.
GAS LISTING d:/MTK/MTK2503/MTK2503/11CW1418SP4_03_CORETEK03AE_11C_V1_GPRS_MMI/plutommi/Customer/ResGenerator/gcctmp/cc63daaa.s 			page 249


  15:d:/MTK/MTK2503/MTK2503/11CW1418SP4_03_CORETEK03AE_11C_V1_GPRS_MMI/Tools/MinGW/include/c++/3.3.1/bits/stl_iterator.h **** 
  16:d:/MTK/MTK2503/MTK2503/11CW1418SP4_03_CORETEK03AE_11C_V1_GPRS_MMI/Tools/MinGW/include/c++/3.3.1/bits/stl_iterator.h **** // You should have received a copy of the GNU General Public License along
  17:d:/MTK/MTK2503/MTK2503/11CW1418SP4_03_CORETEK03AE_11C_V1_GPRS_MMI/Tools/MinGW/include/c++/3.3.1/bits/stl_iterator.h **** // with this library; see the file COPYING.  If not, write to the Free
  18:d:/MTK/MTK2503/MTK2503/11CW1418SP4_03_CORETEK03AE_11C_V1_GPRS_MMI/Tools/MinGW/include/c++/3.3.1/bits/stl_iterator.h **** // Software Foundation, 59 Temple Place - Suite 330, Boston, MA 02111-1307,
  19:d:/MTK/MTK2503/MTK2503/11CW1418SP4_03_CORETEK03AE_11C_V1_GPRS_MMI/Tools/MinGW/include/c++/3.3.1/bits/stl_iterator.h **** // USA.
  20:d:/MTK/MTK2503/MTK2503/11CW1418SP4_03_CORETEK03AE_11C_V1_GPRS_MMI/Tools/MinGW/include/c++/3.3.1/bits/stl_iterator.h **** 
  21:d:/MTK/MTK2503/MTK2503/11CW1418SP4_03_CORETEK03AE_11C_V1_GPRS_MMI/Tools/MinGW/include/c++/3.3.1/bits/stl_iterator.h **** // As a special exception, you may use this file as part of a free software
  22:d:/MTK/MTK2503/MTK2503/11CW1418SP4_03_CORETEK03AE_11C_V1_GPRS_MMI/Tools/MinGW/include/c++/3.3.1/bits/stl_iterator.h **** // library without restriction.  Specifically, if other files instantiate
  23:d:/MTK/MTK2503/MTK2503/11CW1418SP4_03_CORETEK03AE_11C_V1_GPRS_MMI/Tools/MinGW/include/c++/3.3.1/bits/stl_iterator.h **** // templates or use macros or inline functions from this file, or you compile
  24:d:/MTK/MTK2503/MTK2503/11CW1418SP4_03_CORETEK03AE_11C_V1_GPRS_MMI/Tools/MinGW/include/c++/3.3.1/bits/stl_iterator.h **** // this file and link it with other files to produce an executable, this
  25:d:/MTK/MTK2503/MTK2503/11CW1418SP4_03_CORETEK03AE_11C_V1_GPRS_MMI/Tools/MinGW/include/c++/3.3.1/bits/stl_iterator.h **** // file does not by itself cause the resulting executable to be covered by
  26:d:/MTK/MTK2503/MTK2503/11CW1418SP4_03_CORETEK03AE_11C_V1_GPRS_MMI/Tools/MinGW/include/c++/3.3.1/bits/stl_iterator.h **** // the GNU General Public License.  This exception does not however
  27:d:/MTK/MTK2503/MTK2503/11CW1418SP4_03_CORETEK03AE_11C_V1_GPRS_MMI/Tools/MinGW/include/c++/3.3.1/bits/stl_iterator.h **** // invalidate any other reasons why the executable file might be covered by
  28:d:/MTK/MTK2503/MTK2503/11CW1418SP4_03_CORETEK03AE_11C_V1_GPRS_MMI/Tools/MinGW/include/c++/3.3.1/bits/stl_iterator.h **** // the GNU General Public License.
  29:d:/MTK/MTK2503/MTK2503/11CW1418SP4_03_CORETEK03AE_11C_V1_GPRS_MMI/Tools/MinGW/include/c++/3.3.1/bits/stl_iterator.h **** 
  30:d:/MTK/MTK2503/MTK2503/11CW1418SP4_03_CORETEK03AE_11C_V1_GPRS_MMI/Tools/MinGW/include/c++/3.3.1/bits/stl_iterator.h **** /*
  31:d:/MTK/MTK2503/MTK2503/11CW1418SP4_03_CORETEK03AE_11C_V1_GPRS_MMI/Tools/MinGW/include/c++/3.3.1/bits/stl_iterator.h ****  *
  32:d:/MTK/MTK2503/MTK2503/11CW1418SP4_03_CORETEK03AE_11C_V1_GPRS_MMI/Tools/MinGW/include/c++/3.3.1/bits/stl_iterator.h ****  * Copyright (c) 1994
  33:d:/MTK/MTK2503/MTK2503/11CW1418SP4_03_CORETEK03AE_11C_V1_GPRS_MMI/Tools/MinGW/include/c++/3.3.1/bits/stl_iterator.h ****  * Hewlett-Packard Company
  34:d:/MTK/MTK2503/MTK2503/11CW1418SP4_03_CORETEK03AE_11C_V1_GPRS_MMI/Tools/MinGW/include/c++/3.3.1/bits/stl_iterator.h ****  *
  35:d:/MTK/MTK2503/MTK2503/11CW1418SP4_03_CORETEK03AE_11C_V1_GPRS_MMI/Tools/MinGW/include/c++/3.3.1/bits/stl_iterator.h ****  * Permission to use, copy, modify, distribute and sell this software
  36:d:/MTK/MTK2503/MTK2503/11CW1418SP4_03_CORETEK03AE_11C_V1_GPRS_MMI/Tools/MinGW/include/c++/3.3.1/bits/stl_iterator.h ****  * and its documentation for any purpose is hereby granted without fee,
  37:d:/MTK/MTK2503/MTK2503/11CW1418SP4_03_CORETEK03AE_11C_V1_GPRS_MMI/Tools/MinGW/include/c++/3.3.1/bits/stl_iterator.h ****  * provided that the above copyright notice appear in all copies and
  38:d:/MTK/MTK2503/MTK2503/11CW1418SP4_03_CORETEK03AE_11C_V1_GPRS_MMI/Tools/MinGW/include/c++/3.3.1/bits/stl_iterator.h ****  * that both that copyright notice and this permission notice appear
  39:d:/MTK/MTK2503/MTK2503/11CW1418SP4_03_CORETEK03AE_11C_V1_GPRS_MMI/Tools/MinGW/include/c++/3.3.1/bits/stl_iterator.h ****  * in supporting documentation.  Hewlett-Packard Company makes no
  40:d:/MTK/MTK2503/MTK2503/11CW1418SP4_03_CORETEK03AE_11C_V1_GPRS_MMI/Tools/MinGW/include/c++/3.3.1/bits/stl_iterator.h ****  * representations about the suitability of this software for any
  41:d:/MTK/MTK2503/MTK2503/11CW1418SP4_03_CORETEK03AE_11C_V1_GPRS_MMI/Tools/MinGW/include/c++/3.3.1/bits/stl_iterator.h ****  * purpose.  It is provided "as is" without express or implied warranty.
  42:d:/MTK/MTK2503/MTK2503/11CW1418SP4_03_CORETEK03AE_11C_V1_GPRS_MMI/Tools/MinGW/include/c++/3.3.1/bits/stl_iterator.h ****  *
  43:d:/MTK/MTK2503/MTK2503/11CW1418SP4_03_CORETEK03AE_11C_V1_GPRS_MMI/Tools/MinGW/include/c++/3.3.1/bits/stl_iterator.h ****  *
  44:d:/MTK/MTK2503/MTK2503/11CW1418SP4_03_CORETEK03AE_11C_V1_GPRS_MMI/Tools/MinGW/include/c++/3.3.1/bits/stl_iterator.h ****  * Copyright (c) 1996-1998
  45:d:/MTK/MTK2503/MTK2503/11CW1418SP4_03_CORETEK03AE_11C_V1_GPRS_MMI/Tools/MinGW/include/c++/3.3.1/bits/stl_iterator.h ****  * Silicon Graphics Computer Systems, Inc.
  46:d:/MTK/MTK2503/MTK2503/11CW1418SP4_03_CORETEK03AE_11C_V1_GPRS_MMI/Tools/MinGW/include/c++/3.3.1/bits/stl_iterator.h ****  *
  47:d:/MTK/MTK2503/MTK2503/11CW1418SP4_03_CORETEK03AE_11C_V1_GPRS_MMI/Tools/MinGW/include/c++/3.3.1/bits/stl_iterator.h ****  * Permission to use, copy, modify, distribute and sell this software
  48:d:/MTK/MTK2503/MTK2503/11CW1418SP4_03_CORETEK03AE_11C_V1_GPRS_MMI/Tools/MinGW/include/c++/3.3.1/bits/stl_iterator.h ****  * and its documentation for any purpose is hereby granted without fee,
  49:d:/MTK/MTK2503/MTK2503/11CW1418SP4_03_CORETEK03AE_11C_V1_GPRS_MMI/Tools/MinGW/include/c++/3.3.1/bits/stl_iterator.h ****  * provided that the above copyright notice appear in all copies and
  50:d:/MTK/MTK2503/MTK2503/11CW1418SP4_03_CORETEK03AE_11C_V1_GPRS_MMI/Tools/MinGW/include/c++/3.3.1/bits/stl_iterator.h ****  * that both that copyright notice and this permission notice appear
  51:d:/MTK/MTK2503/MTK2503/11CW1418SP4_03_CORETEK03AE_11C_V1_GPRS_MMI/Tools/MinGW/include/c++/3.3.1/bits/stl_iterator.h ****  * in supporting documentation.  Silicon Graphics makes no
  52:d:/MTK/MTK2503/MTK2503/11CW1418SP4_03_CORETEK03AE_11C_V1_GPRS_MMI/Tools/MinGW/include/c++/3.3.1/bits/stl_iterator.h ****  * representations about the suitability of this software for any
  53:d:/MTK/MTK2503/MTK2503/11CW1418SP4_03_CORETEK03AE_11C_V1_GPRS_MMI/Tools/MinGW/include/c++/3.3.1/bits/stl_iterator.h ****  * purpose.  It is provided "as is" without express or implied warranty.
  54:d:/MTK/MTK2503/MTK2503/11CW1418SP4_03_CORETEK03AE_11C_V1_GPRS_MMI/Tools/MinGW/include/c++/3.3.1/bits/stl_iterator.h ****  */
  55:d:/MTK/MTK2503/MTK2503/11CW1418SP4_03_CORETEK03AE_11C_V1_GPRS_MMI/Tools/MinGW/include/c++/3.3.1/bits/stl_iterator.h **** 
  56:d:/MTK/MTK2503/MTK2503/11CW1418SP4_03_CORETEK03AE_11C_V1_GPRS_MMI/Tools/MinGW/include/c++/3.3.1/bits/stl_iterator.h **** /** @file stl_iterator.h
  57:d:/MTK/MTK2503/MTK2503/11CW1418SP4_03_CORETEK03AE_11C_V1_GPRS_MMI/Tools/MinGW/include/c++/3.3.1/bits/stl_iterator.h ****  *  This is an internal header file, included by other library headers.
  58:d:/MTK/MTK2503/MTK2503/11CW1418SP4_03_CORETEK03AE_11C_V1_GPRS_MMI/Tools/MinGW/include/c++/3.3.1/bits/stl_iterator.h ****  *  You should not attempt to use it directly.
  59:d:/MTK/MTK2503/MTK2503/11CW1418SP4_03_CORETEK03AE_11C_V1_GPRS_MMI/Tools/MinGW/include/c++/3.3.1/bits/stl_iterator.h ****  *
  60:d:/MTK/MTK2503/MTK2503/11CW1418SP4_03_CORETEK03AE_11C_V1_GPRS_MMI/Tools/MinGW/include/c++/3.3.1/bits/stl_iterator.h ****  *  This file implements reverse_iterator, back_insert_iterator,
  61:d:/MTK/MTK2503/MTK2503/11CW1418SP4_03_CORETEK03AE_11C_V1_GPRS_MMI/Tools/MinGW/include/c++/3.3.1/bits/stl_iterator.h ****  *  front_insert_iterator, insert_iterator, __normal_iterator, and their
  62:d:/MTK/MTK2503/MTK2503/11CW1418SP4_03_CORETEK03AE_11C_V1_GPRS_MMI/Tools/MinGW/include/c++/3.3.1/bits/stl_iterator.h ****  *  supporting functions and overloaded operators.
  63:d:/MTK/MTK2503/MTK2503/11CW1418SP4_03_CORETEK03AE_11C_V1_GPRS_MMI/Tools/MinGW/include/c++/3.3.1/bits/stl_iterator.h ****  */
  64:d:/MTK/MTK2503/MTK2503/11CW1418SP4_03_CORETEK03AE_11C_V1_GPRS_MMI/Tools/MinGW/include/c++/3.3.1/bits/stl_iterator.h **** 
  65:d:/MTK/MTK2503/MTK2503/11CW1418SP4_03_CORETEK03AE_11C_V1_GPRS_MMI/Tools/MinGW/include/c++/3.3.1/bits/stl_iterator.h **** #ifndef __GLIBCPP_INTERNAL_ITERATOR_H
  66:d:/MTK/MTK2503/MTK2503/11CW1418SP4_03_CORETEK03AE_11C_V1_GPRS_MMI/Tools/MinGW/include/c++/3.3.1/bits/stl_iterator.h **** #define __GLIBCPP_INTERNAL_ITERATOR_H
  67:d:/MTK/MTK2503/MTK2503/11CW1418SP4_03_CORETEK03AE_11C_V1_GPRS_MMI/Tools/MinGW/include/c++/3.3.1/bits/stl_iterator.h **** 
  68:d:/MTK/MTK2503/MTK2503/11CW1418SP4_03_CORETEK03AE_11C_V1_GPRS_MMI/Tools/MinGW/include/c++/3.3.1/bits/stl_iterator.h **** namespace std
  69:d:/MTK/MTK2503/MTK2503/11CW1418SP4_03_CORETEK03AE_11C_V1_GPRS_MMI/Tools/MinGW/include/c++/3.3.1/bits/stl_iterator.h **** {
  70:d:/MTK/MTK2503/MTK2503/11CW1418SP4_03_CORETEK03AE_11C_V1_GPRS_MMI/Tools/MinGW/include/c++/3.3.1/bits/stl_iterator.h ****   // 24.4.1 Reverse iterators
  71:d:/MTK/MTK2503/MTK2503/11CW1418SP4_03_CORETEK03AE_11C_V1_GPRS_MMI/Tools/MinGW/include/c++/3.3.1/bits/stl_iterator.h ****   /**
GAS LISTING d:/MTK/MTK2503/MTK2503/11CW1418SP4_03_CORETEK03AE_11C_V1_GPRS_MMI/plutommi/Customer/ResGenerator/gcctmp/cc63daaa.s 			page 250


  72:d:/MTK/MTK2503/MTK2503/11CW1418SP4_03_CORETEK03AE_11C_V1_GPRS_MMI/Tools/MinGW/include/c++/3.3.1/bits/stl_iterator.h ****    *  "Bidirectional and random access iterators have corresponding reverse
  73:d:/MTK/MTK2503/MTK2503/11CW1418SP4_03_CORETEK03AE_11C_V1_GPRS_MMI/Tools/MinGW/include/c++/3.3.1/bits/stl_iterator.h ****    *  %iterator adaptors that iterate through the data structure in the
  74:d:/MTK/MTK2503/MTK2503/11CW1418SP4_03_CORETEK03AE_11C_V1_GPRS_MMI/Tools/MinGW/include/c++/3.3.1/bits/stl_iterator.h ****    *  opposite direction.  They have the same signatures as the corresponding
  75:d:/MTK/MTK2503/MTK2503/11CW1418SP4_03_CORETEK03AE_11C_V1_GPRS_MMI/Tools/MinGW/include/c++/3.3.1/bits/stl_iterator.h ****    *  iterators.  The fundamental relation between a reverse %iterator and its
  76:d:/MTK/MTK2503/MTK2503/11CW1418SP4_03_CORETEK03AE_11C_V1_GPRS_MMI/Tools/MinGW/include/c++/3.3.1/bits/stl_iterator.h ****    *  corresponding %iterator @c i is established by the identity:
  77:d:/MTK/MTK2503/MTK2503/11CW1418SP4_03_CORETEK03AE_11C_V1_GPRS_MMI/Tools/MinGW/include/c++/3.3.1/bits/stl_iterator.h ****    *  @code
  78:d:/MTK/MTK2503/MTK2503/11CW1418SP4_03_CORETEK03AE_11C_V1_GPRS_MMI/Tools/MinGW/include/c++/3.3.1/bits/stl_iterator.h ****    *      &*(reverse_iterator(i)) == &*(i - 1)
  79:d:/MTK/MTK2503/MTK2503/11CW1418SP4_03_CORETEK03AE_11C_V1_GPRS_MMI/Tools/MinGW/include/c++/3.3.1/bits/stl_iterator.h ****    *  @endcode
  80:d:/MTK/MTK2503/MTK2503/11CW1418SP4_03_CORETEK03AE_11C_V1_GPRS_MMI/Tools/MinGW/include/c++/3.3.1/bits/stl_iterator.h ****    *
  81:d:/MTK/MTK2503/MTK2503/11CW1418SP4_03_CORETEK03AE_11C_V1_GPRS_MMI/Tools/MinGW/include/c++/3.3.1/bits/stl_iterator.h ****    *  This mapping is dictated by the fact that while there is always a
  82:d:/MTK/MTK2503/MTK2503/11CW1418SP4_03_CORETEK03AE_11C_V1_GPRS_MMI/Tools/MinGW/include/c++/3.3.1/bits/stl_iterator.h ****    *  pointer past the end of an array, there might not be a valid pointer
  83:d:/MTK/MTK2503/MTK2503/11CW1418SP4_03_CORETEK03AE_11C_V1_GPRS_MMI/Tools/MinGW/include/c++/3.3.1/bits/stl_iterator.h ****    *  before the beginning of an array." [24.4.1]/1,2
  84:d:/MTK/MTK2503/MTK2503/11CW1418SP4_03_CORETEK03AE_11C_V1_GPRS_MMI/Tools/MinGW/include/c++/3.3.1/bits/stl_iterator.h ****    *
  85:d:/MTK/MTK2503/MTK2503/11CW1418SP4_03_CORETEK03AE_11C_V1_GPRS_MMI/Tools/MinGW/include/c++/3.3.1/bits/stl_iterator.h ****    *  Reverse iterators can be tricky and surprising at first.  Their
  86:d:/MTK/MTK2503/MTK2503/11CW1418SP4_03_CORETEK03AE_11C_V1_GPRS_MMI/Tools/MinGW/include/c++/3.3.1/bits/stl_iterator.h ****    *  semantics make sense, however, and the trickiness is a side effect of
  87:d:/MTK/MTK2503/MTK2503/11CW1418SP4_03_CORETEK03AE_11C_V1_GPRS_MMI/Tools/MinGW/include/c++/3.3.1/bits/stl_iterator.h ****    *  the requirement that the iterators must be safe.
  88:d:/MTK/MTK2503/MTK2503/11CW1418SP4_03_CORETEK03AE_11C_V1_GPRS_MMI/Tools/MinGW/include/c++/3.3.1/bits/stl_iterator.h ****   */
  89:d:/MTK/MTK2503/MTK2503/11CW1418SP4_03_CORETEK03AE_11C_V1_GPRS_MMI/Tools/MinGW/include/c++/3.3.1/bits/stl_iterator.h ****   template<typename _Iterator>
  90:d:/MTK/MTK2503/MTK2503/11CW1418SP4_03_CORETEK03AE_11C_V1_GPRS_MMI/Tools/MinGW/include/c++/3.3.1/bits/stl_iterator.h ****     class reverse_iterator 
  91:d:/MTK/MTK2503/MTK2503/11CW1418SP4_03_CORETEK03AE_11C_V1_GPRS_MMI/Tools/MinGW/include/c++/3.3.1/bits/stl_iterator.h ****     : public iterator<typename iterator_traits<_Iterator>::iterator_category,
  92:d:/MTK/MTK2503/MTK2503/11CW1418SP4_03_CORETEK03AE_11C_V1_GPRS_MMI/Tools/MinGW/include/c++/3.3.1/bits/stl_iterator.h **** 		      typename iterator_traits<_Iterator>::value_type,
  93:d:/MTK/MTK2503/MTK2503/11CW1418SP4_03_CORETEK03AE_11C_V1_GPRS_MMI/Tools/MinGW/include/c++/3.3.1/bits/stl_iterator.h **** 		      typename iterator_traits<_Iterator>::difference_type,
  94:d:/MTK/MTK2503/MTK2503/11CW1418SP4_03_CORETEK03AE_11C_V1_GPRS_MMI/Tools/MinGW/include/c++/3.3.1/bits/stl_iterator.h **** 		      typename iterator_traits<_Iterator>::pointer,
  95:d:/MTK/MTK2503/MTK2503/11CW1418SP4_03_CORETEK03AE_11C_V1_GPRS_MMI/Tools/MinGW/include/c++/3.3.1/bits/stl_iterator.h ****                       typename iterator_traits<_Iterator>::reference>
  96:d:/MTK/MTK2503/MTK2503/11CW1418SP4_03_CORETEK03AE_11C_V1_GPRS_MMI/Tools/MinGW/include/c++/3.3.1/bits/stl_iterator.h ****     {
  97:d:/MTK/MTK2503/MTK2503/11CW1418SP4_03_CORETEK03AE_11C_V1_GPRS_MMI/Tools/MinGW/include/c++/3.3.1/bits/stl_iterator.h ****     protected:
  98:d:/MTK/MTK2503/MTK2503/11CW1418SP4_03_CORETEK03AE_11C_V1_GPRS_MMI/Tools/MinGW/include/c++/3.3.1/bits/stl_iterator.h ****       _Iterator current;
  99:d:/MTK/MTK2503/MTK2503/11CW1418SP4_03_CORETEK03AE_11C_V1_GPRS_MMI/Tools/MinGW/include/c++/3.3.1/bits/stl_iterator.h **** 
 100:d:/MTK/MTK2503/MTK2503/11CW1418SP4_03_CORETEK03AE_11C_V1_GPRS_MMI/Tools/MinGW/include/c++/3.3.1/bits/stl_iterator.h ****     public:
 101:d:/MTK/MTK2503/MTK2503/11CW1418SP4_03_CORETEK03AE_11C_V1_GPRS_MMI/Tools/MinGW/include/c++/3.3.1/bits/stl_iterator.h ****       typedef _Iterator 				       iterator_type;
 102:d:/MTK/MTK2503/MTK2503/11CW1418SP4_03_CORETEK03AE_11C_V1_GPRS_MMI/Tools/MinGW/include/c++/3.3.1/bits/stl_iterator.h ****       typedef typename iterator_traits<_Iterator>::difference_type 	
 103:d:/MTK/MTK2503/MTK2503/11CW1418SP4_03_CORETEK03AE_11C_V1_GPRS_MMI/Tools/MinGW/include/c++/3.3.1/bits/stl_iterator.h ****       							       difference_type;
 104:d:/MTK/MTK2503/MTK2503/11CW1418SP4_03_CORETEK03AE_11C_V1_GPRS_MMI/Tools/MinGW/include/c++/3.3.1/bits/stl_iterator.h ****       typedef typename iterator_traits<_Iterator>::reference   reference;
 105:d:/MTK/MTK2503/MTK2503/11CW1418SP4_03_CORETEK03AE_11C_V1_GPRS_MMI/Tools/MinGW/include/c++/3.3.1/bits/stl_iterator.h ****       typedef typename iterator_traits<_Iterator>::pointer     pointer;
 106:d:/MTK/MTK2503/MTK2503/11CW1418SP4_03_CORETEK03AE_11C_V1_GPRS_MMI/Tools/MinGW/include/c++/3.3.1/bits/stl_iterator.h **** 
 107:d:/MTK/MTK2503/MTK2503/11CW1418SP4_03_CORETEK03AE_11C_V1_GPRS_MMI/Tools/MinGW/include/c++/3.3.1/bits/stl_iterator.h ****     public:
 108:d:/MTK/MTK2503/MTK2503/11CW1418SP4_03_CORETEK03AE_11C_V1_GPRS_MMI/Tools/MinGW/include/c++/3.3.1/bits/stl_iterator.h ****       /**
 109:d:/MTK/MTK2503/MTK2503/11CW1418SP4_03_CORETEK03AE_11C_V1_GPRS_MMI/Tools/MinGW/include/c++/3.3.1/bits/stl_iterator.h ****        *  The default constructor default-initializes member @p current.
 110:d:/MTK/MTK2503/MTK2503/11CW1418SP4_03_CORETEK03AE_11C_V1_GPRS_MMI/Tools/MinGW/include/c++/3.3.1/bits/stl_iterator.h ****        *  If it is a pointer, that means it is zero-initialized.
 111:d:/MTK/MTK2503/MTK2503/11CW1418SP4_03_CORETEK03AE_11C_V1_GPRS_MMI/Tools/MinGW/include/c++/3.3.1/bits/stl_iterator.h ****       */
 112:d:/MTK/MTK2503/MTK2503/11CW1418SP4_03_CORETEK03AE_11C_V1_GPRS_MMI/Tools/MinGW/include/c++/3.3.1/bits/stl_iterator.h ****       // _GLIBCPP_RESOLVE_LIB_DEFECTS
 113:d:/MTK/MTK2503/MTK2503/11CW1418SP4_03_CORETEK03AE_11C_V1_GPRS_MMI/Tools/MinGW/include/c++/3.3.1/bits/stl_iterator.h ****       // 235 No specification of default ctor for reverse_iterator
 114:d:/MTK/MTK2503/MTK2503/11CW1418SP4_03_CORETEK03AE_11C_V1_GPRS_MMI/Tools/MinGW/include/c++/3.3.1/bits/stl_iterator.h ****       reverse_iterator() : current() { }
 115:d:/MTK/MTK2503/MTK2503/11CW1418SP4_03_CORETEK03AE_11C_V1_GPRS_MMI/Tools/MinGW/include/c++/3.3.1/bits/stl_iterator.h **** 
 116:d:/MTK/MTK2503/MTK2503/11CW1418SP4_03_CORETEK03AE_11C_V1_GPRS_MMI/Tools/MinGW/include/c++/3.3.1/bits/stl_iterator.h ****       /**
 117:d:/MTK/MTK2503/MTK2503/11CW1418SP4_03_CORETEK03AE_11C_V1_GPRS_MMI/Tools/MinGW/include/c++/3.3.1/bits/stl_iterator.h ****        *  This %iterator will move in the opposite direction that @p x does.
 118:d:/MTK/MTK2503/MTK2503/11CW1418SP4_03_CORETEK03AE_11C_V1_GPRS_MMI/Tools/MinGW/include/c++/3.3.1/bits/stl_iterator.h ****       */
 119:d:/MTK/MTK2503/MTK2503/11CW1418SP4_03_CORETEK03AE_11C_V1_GPRS_MMI/Tools/MinGW/include/c++/3.3.1/bits/stl_iterator.h ****       explicit 
 120:d:/MTK/MTK2503/MTK2503/11CW1418SP4_03_CORETEK03AE_11C_V1_GPRS_MMI/Tools/MinGW/include/c++/3.3.1/bits/stl_iterator.h ****       reverse_iterator(iterator_type __x) : current(__x) { }
 121:d:/MTK/MTK2503/MTK2503/11CW1418SP4_03_CORETEK03AE_11C_V1_GPRS_MMI/Tools/MinGW/include/c++/3.3.1/bits/stl_iterator.h **** 
 122:d:/MTK/MTK2503/MTK2503/11CW1418SP4_03_CORETEK03AE_11C_V1_GPRS_MMI/Tools/MinGW/include/c++/3.3.1/bits/stl_iterator.h ****       /**
 123:d:/MTK/MTK2503/MTK2503/11CW1418SP4_03_CORETEK03AE_11C_V1_GPRS_MMI/Tools/MinGW/include/c++/3.3.1/bits/stl_iterator.h ****        *  The copy constructor is normal.
 124:d:/MTK/MTK2503/MTK2503/11CW1418SP4_03_CORETEK03AE_11C_V1_GPRS_MMI/Tools/MinGW/include/c++/3.3.1/bits/stl_iterator.h ****       */
 125:d:/MTK/MTK2503/MTK2503/11CW1418SP4_03_CORETEK03AE_11C_V1_GPRS_MMI/Tools/MinGW/include/c++/3.3.1/bits/stl_iterator.h ****       reverse_iterator(const reverse_iterator& __x) 
 126:d:/MTK/MTK2503/MTK2503/11CW1418SP4_03_CORETEK03AE_11C_V1_GPRS_MMI/Tools/MinGW/include/c++/3.3.1/bits/stl_iterator.h ****       : current(__x.current) { }
 127:d:/MTK/MTK2503/MTK2503/11CW1418SP4_03_CORETEK03AE_11C_V1_GPRS_MMI/Tools/MinGW/include/c++/3.3.1/bits/stl_iterator.h **** 
 128:d:/MTK/MTK2503/MTK2503/11CW1418SP4_03_CORETEK03AE_11C_V1_GPRS_MMI/Tools/MinGW/include/c++/3.3.1/bits/stl_iterator.h ****       /**
GAS LISTING d:/MTK/MTK2503/MTK2503/11CW1418SP4_03_CORETEK03AE_11C_V1_GPRS_MMI/plutommi/Customer/ResGenerator/gcctmp/cc63daaa.s 			page 251


 129:d:/MTK/MTK2503/MTK2503/11CW1418SP4_03_CORETEK03AE_11C_V1_GPRS_MMI/Tools/MinGW/include/c++/3.3.1/bits/stl_iterator.h ****        *  A reverse_iterator across other types can be copied in the normal
 130:d:/MTK/MTK2503/MTK2503/11CW1418SP4_03_CORETEK03AE_11C_V1_GPRS_MMI/Tools/MinGW/include/c++/3.3.1/bits/stl_iterator.h ****        *  fashion.
 131:d:/MTK/MTK2503/MTK2503/11CW1418SP4_03_CORETEK03AE_11C_V1_GPRS_MMI/Tools/MinGW/include/c++/3.3.1/bits/stl_iterator.h ****       */
 132:d:/MTK/MTK2503/MTK2503/11CW1418SP4_03_CORETEK03AE_11C_V1_GPRS_MMI/Tools/MinGW/include/c++/3.3.1/bits/stl_iterator.h ****       template<typename _Iter>
 133:d:/MTK/MTK2503/MTK2503/11CW1418SP4_03_CORETEK03AE_11C_V1_GPRS_MMI/Tools/MinGW/include/c++/3.3.1/bits/stl_iterator.h ****         reverse_iterator(const reverse_iterator<_Iter>& __x)
 134:d:/MTK/MTK2503/MTK2503/11CW1418SP4_03_CORETEK03AE_11C_V1_GPRS_MMI/Tools/MinGW/include/c++/3.3.1/bits/stl_iterator.h **** 	: current(__x.base()) { }
 135:d:/MTK/MTK2503/MTK2503/11CW1418SP4_03_CORETEK03AE_11C_V1_GPRS_MMI/Tools/MinGW/include/c++/3.3.1/bits/stl_iterator.h ****     
 136:d:/MTK/MTK2503/MTK2503/11CW1418SP4_03_CORETEK03AE_11C_V1_GPRS_MMI/Tools/MinGW/include/c++/3.3.1/bits/stl_iterator.h ****       /**
 137:d:/MTK/MTK2503/MTK2503/11CW1418SP4_03_CORETEK03AE_11C_V1_GPRS_MMI/Tools/MinGW/include/c++/3.3.1/bits/stl_iterator.h ****        *  @return  @c current, the %iterator used for underlying work.
 138:d:/MTK/MTK2503/MTK2503/11CW1418SP4_03_CORETEK03AE_11C_V1_GPRS_MMI/Tools/MinGW/include/c++/3.3.1/bits/stl_iterator.h ****       */
 139:d:/MTK/MTK2503/MTK2503/11CW1418SP4_03_CORETEK03AE_11C_V1_GPRS_MMI/Tools/MinGW/include/c++/3.3.1/bits/stl_iterator.h ****       iterator_type 
 140:d:/MTK/MTK2503/MTK2503/11CW1418SP4_03_CORETEK03AE_11C_V1_GPRS_MMI/Tools/MinGW/include/c++/3.3.1/bits/stl_iterator.h ****       base() const { return current; }
 141:d:/MTK/MTK2503/MTK2503/11CW1418SP4_03_CORETEK03AE_11C_V1_GPRS_MMI/Tools/MinGW/include/c++/3.3.1/bits/stl_iterator.h **** 
 142:d:/MTK/MTK2503/MTK2503/11CW1418SP4_03_CORETEK03AE_11C_V1_GPRS_MMI/Tools/MinGW/include/c++/3.3.1/bits/stl_iterator.h ****       /**
 143:d:/MTK/MTK2503/MTK2503/11CW1418SP4_03_CORETEK03AE_11C_V1_GPRS_MMI/Tools/MinGW/include/c++/3.3.1/bits/stl_iterator.h ****        *  @return  TODO
 144:d:/MTK/MTK2503/MTK2503/11CW1418SP4_03_CORETEK03AE_11C_V1_GPRS_MMI/Tools/MinGW/include/c++/3.3.1/bits/stl_iterator.h ****        *
 145:d:/MTK/MTK2503/MTK2503/11CW1418SP4_03_CORETEK03AE_11C_V1_GPRS_MMI/Tools/MinGW/include/c++/3.3.1/bits/stl_iterator.h ****        *  @doctodo
 146:d:/MTK/MTK2503/MTK2503/11CW1418SP4_03_CORETEK03AE_11C_V1_GPRS_MMI/Tools/MinGW/include/c++/3.3.1/bits/stl_iterator.h ****       */
 147:d:/MTK/MTK2503/MTK2503/11CW1418SP4_03_CORETEK03AE_11C_V1_GPRS_MMI/Tools/MinGW/include/c++/3.3.1/bits/stl_iterator.h ****       reference 
 148:d:/MTK/MTK2503/MTK2503/11CW1418SP4_03_CORETEK03AE_11C_V1_GPRS_MMI/Tools/MinGW/include/c++/3.3.1/bits/stl_iterator.h ****       operator*() const 
 149:d:/MTK/MTK2503/MTK2503/11CW1418SP4_03_CORETEK03AE_11C_V1_GPRS_MMI/Tools/MinGW/include/c++/3.3.1/bits/stl_iterator.h ****       {
 150:d:/MTK/MTK2503/MTK2503/11CW1418SP4_03_CORETEK03AE_11C_V1_GPRS_MMI/Tools/MinGW/include/c++/3.3.1/bits/stl_iterator.h **** 	_Iterator __tmp = current;
 151:d:/MTK/MTK2503/MTK2503/11CW1418SP4_03_CORETEK03AE_11C_V1_GPRS_MMI/Tools/MinGW/include/c++/3.3.1/bits/stl_iterator.h **** 	return *--__tmp;
 152:d:/MTK/MTK2503/MTK2503/11CW1418SP4_03_CORETEK03AE_11C_V1_GPRS_MMI/Tools/MinGW/include/c++/3.3.1/bits/stl_iterator.h ****       }
 153:d:/MTK/MTK2503/MTK2503/11CW1418SP4_03_CORETEK03AE_11C_V1_GPRS_MMI/Tools/MinGW/include/c++/3.3.1/bits/stl_iterator.h **** 
 154:d:/MTK/MTK2503/MTK2503/11CW1418SP4_03_CORETEK03AE_11C_V1_GPRS_MMI/Tools/MinGW/include/c++/3.3.1/bits/stl_iterator.h ****       /**
 155:d:/MTK/MTK2503/MTK2503/11CW1418SP4_03_CORETEK03AE_11C_V1_GPRS_MMI/Tools/MinGW/include/c++/3.3.1/bits/stl_iterator.h ****        *  @return  TODO
 156:d:/MTK/MTK2503/MTK2503/11CW1418SP4_03_CORETEK03AE_11C_V1_GPRS_MMI/Tools/MinGW/include/c++/3.3.1/bits/stl_iterator.h ****        *
 157:d:/MTK/MTK2503/MTK2503/11CW1418SP4_03_CORETEK03AE_11C_V1_GPRS_MMI/Tools/MinGW/include/c++/3.3.1/bits/stl_iterator.h ****        *  @doctodo
 158:d:/MTK/MTK2503/MTK2503/11CW1418SP4_03_CORETEK03AE_11C_V1_GPRS_MMI/Tools/MinGW/include/c++/3.3.1/bits/stl_iterator.h ****       */
 159:d:/MTK/MTK2503/MTK2503/11CW1418SP4_03_CORETEK03AE_11C_V1_GPRS_MMI/Tools/MinGW/include/c++/3.3.1/bits/stl_iterator.h ****       pointer 
 160:d:/MTK/MTK2503/MTK2503/11CW1418SP4_03_CORETEK03AE_11C_V1_GPRS_MMI/Tools/MinGW/include/c++/3.3.1/bits/stl_iterator.h ****       operator->() const { return &(operator*()); }
 161:d:/MTK/MTK2503/MTK2503/11CW1418SP4_03_CORETEK03AE_11C_V1_GPRS_MMI/Tools/MinGW/include/c++/3.3.1/bits/stl_iterator.h **** 
 162:d:/MTK/MTK2503/MTK2503/11CW1418SP4_03_CORETEK03AE_11C_V1_GPRS_MMI/Tools/MinGW/include/c++/3.3.1/bits/stl_iterator.h ****       /**
 163:d:/MTK/MTK2503/MTK2503/11CW1418SP4_03_CORETEK03AE_11C_V1_GPRS_MMI/Tools/MinGW/include/c++/3.3.1/bits/stl_iterator.h ****        *  @return  TODO
 164:d:/MTK/MTK2503/MTK2503/11CW1418SP4_03_CORETEK03AE_11C_V1_GPRS_MMI/Tools/MinGW/include/c++/3.3.1/bits/stl_iterator.h ****        *
 165:d:/MTK/MTK2503/MTK2503/11CW1418SP4_03_CORETEK03AE_11C_V1_GPRS_MMI/Tools/MinGW/include/c++/3.3.1/bits/stl_iterator.h ****        *  @doctodo
 166:d:/MTK/MTK2503/MTK2503/11CW1418SP4_03_CORETEK03AE_11C_V1_GPRS_MMI/Tools/MinGW/include/c++/3.3.1/bits/stl_iterator.h ****       */
 167:d:/MTK/MTK2503/MTK2503/11CW1418SP4_03_CORETEK03AE_11C_V1_GPRS_MMI/Tools/MinGW/include/c++/3.3.1/bits/stl_iterator.h ****       reverse_iterator& 
 168:d:/MTK/MTK2503/MTK2503/11CW1418SP4_03_CORETEK03AE_11C_V1_GPRS_MMI/Tools/MinGW/include/c++/3.3.1/bits/stl_iterator.h ****       operator++() 
 169:d:/MTK/MTK2503/MTK2503/11CW1418SP4_03_CORETEK03AE_11C_V1_GPRS_MMI/Tools/MinGW/include/c++/3.3.1/bits/stl_iterator.h ****       {
 170:d:/MTK/MTK2503/MTK2503/11CW1418SP4_03_CORETEK03AE_11C_V1_GPRS_MMI/Tools/MinGW/include/c++/3.3.1/bits/stl_iterator.h **** 	--current;
 171:d:/MTK/MTK2503/MTK2503/11CW1418SP4_03_CORETEK03AE_11C_V1_GPRS_MMI/Tools/MinGW/include/c++/3.3.1/bits/stl_iterator.h **** 	return *this;
 172:d:/MTK/MTK2503/MTK2503/11CW1418SP4_03_CORETEK03AE_11C_V1_GPRS_MMI/Tools/MinGW/include/c++/3.3.1/bits/stl_iterator.h ****       }
 173:d:/MTK/MTK2503/MTK2503/11CW1418SP4_03_CORETEK03AE_11C_V1_GPRS_MMI/Tools/MinGW/include/c++/3.3.1/bits/stl_iterator.h **** 
 174:d:/MTK/MTK2503/MTK2503/11CW1418SP4_03_CORETEK03AE_11C_V1_GPRS_MMI/Tools/MinGW/include/c++/3.3.1/bits/stl_iterator.h ****       /**
 175:d:/MTK/MTK2503/MTK2503/11CW1418SP4_03_CORETEK03AE_11C_V1_GPRS_MMI/Tools/MinGW/include/c++/3.3.1/bits/stl_iterator.h ****        *  @return  TODO
 176:d:/MTK/MTK2503/MTK2503/11CW1418SP4_03_CORETEK03AE_11C_V1_GPRS_MMI/Tools/MinGW/include/c++/3.3.1/bits/stl_iterator.h ****        *
 177:d:/MTK/MTK2503/MTK2503/11CW1418SP4_03_CORETEK03AE_11C_V1_GPRS_MMI/Tools/MinGW/include/c++/3.3.1/bits/stl_iterator.h ****        *  @doctodo
 178:d:/MTK/MTK2503/MTK2503/11CW1418SP4_03_CORETEK03AE_11C_V1_GPRS_MMI/Tools/MinGW/include/c++/3.3.1/bits/stl_iterator.h ****       */
 179:d:/MTK/MTK2503/MTK2503/11CW1418SP4_03_CORETEK03AE_11C_V1_GPRS_MMI/Tools/MinGW/include/c++/3.3.1/bits/stl_iterator.h ****       reverse_iterator 
 180:d:/MTK/MTK2503/MTK2503/11CW1418SP4_03_CORETEK03AE_11C_V1_GPRS_MMI/Tools/MinGW/include/c++/3.3.1/bits/stl_iterator.h ****       operator++(int) 
 181:d:/MTK/MTK2503/MTK2503/11CW1418SP4_03_CORETEK03AE_11C_V1_GPRS_MMI/Tools/MinGW/include/c++/3.3.1/bits/stl_iterator.h ****       {
 182:d:/MTK/MTK2503/MTK2503/11CW1418SP4_03_CORETEK03AE_11C_V1_GPRS_MMI/Tools/MinGW/include/c++/3.3.1/bits/stl_iterator.h **** 	reverse_iterator __tmp = *this;
 183:d:/MTK/MTK2503/MTK2503/11CW1418SP4_03_CORETEK03AE_11C_V1_GPRS_MMI/Tools/MinGW/include/c++/3.3.1/bits/stl_iterator.h **** 	--current;
 184:d:/MTK/MTK2503/MTK2503/11CW1418SP4_03_CORETEK03AE_11C_V1_GPRS_MMI/Tools/MinGW/include/c++/3.3.1/bits/stl_iterator.h **** 	return __tmp;
 185:d:/MTK/MTK2503/MTK2503/11CW1418SP4_03_CORETEK03AE_11C_V1_GPRS_MMI/Tools/MinGW/include/c++/3.3.1/bits/stl_iterator.h ****       }
GAS LISTING d:/MTK/MTK2503/MTK2503/11CW1418SP4_03_CORETEK03AE_11C_V1_GPRS_MMI/plutommi/Customer/ResGenerator/gcctmp/cc63daaa.s 			page 252


 186:d:/MTK/MTK2503/MTK2503/11CW1418SP4_03_CORETEK03AE_11C_V1_GPRS_MMI/Tools/MinGW/include/c++/3.3.1/bits/stl_iterator.h **** 
 187:d:/MTK/MTK2503/MTK2503/11CW1418SP4_03_CORETEK03AE_11C_V1_GPRS_MMI/Tools/MinGW/include/c++/3.3.1/bits/stl_iterator.h ****       /**
 188:d:/MTK/MTK2503/MTK2503/11CW1418SP4_03_CORETEK03AE_11C_V1_GPRS_MMI/Tools/MinGW/include/c++/3.3.1/bits/stl_iterator.h ****        *  @return  TODO
 189:d:/MTK/MTK2503/MTK2503/11CW1418SP4_03_CORETEK03AE_11C_V1_GPRS_MMI/Tools/MinGW/include/c++/3.3.1/bits/stl_iterator.h ****        *
 190:d:/MTK/MTK2503/MTK2503/11CW1418SP4_03_CORETEK03AE_11C_V1_GPRS_MMI/Tools/MinGW/include/c++/3.3.1/bits/stl_iterator.h ****        *  @doctodo
 191:d:/MTK/MTK2503/MTK2503/11CW1418SP4_03_CORETEK03AE_11C_V1_GPRS_MMI/Tools/MinGW/include/c++/3.3.1/bits/stl_iterator.h ****       */
 192:d:/MTK/MTK2503/MTK2503/11CW1418SP4_03_CORETEK03AE_11C_V1_GPRS_MMI/Tools/MinGW/include/c++/3.3.1/bits/stl_iterator.h ****       reverse_iterator& 
 193:d:/MTK/MTK2503/MTK2503/11CW1418SP4_03_CORETEK03AE_11C_V1_GPRS_MMI/Tools/MinGW/include/c++/3.3.1/bits/stl_iterator.h ****       operator--() 
 194:d:/MTK/MTK2503/MTK2503/11CW1418SP4_03_CORETEK03AE_11C_V1_GPRS_MMI/Tools/MinGW/include/c++/3.3.1/bits/stl_iterator.h ****       {
 195:d:/MTK/MTK2503/MTK2503/11CW1418SP4_03_CORETEK03AE_11C_V1_GPRS_MMI/Tools/MinGW/include/c++/3.3.1/bits/stl_iterator.h **** 	++current;
 196:d:/MTK/MTK2503/MTK2503/11CW1418SP4_03_CORETEK03AE_11C_V1_GPRS_MMI/Tools/MinGW/include/c++/3.3.1/bits/stl_iterator.h **** 	return *this;
 197:d:/MTK/MTK2503/MTK2503/11CW1418SP4_03_CORETEK03AE_11C_V1_GPRS_MMI/Tools/MinGW/include/c++/3.3.1/bits/stl_iterator.h ****       }
 198:d:/MTK/MTK2503/MTK2503/11CW1418SP4_03_CORETEK03AE_11C_V1_GPRS_MMI/Tools/MinGW/include/c++/3.3.1/bits/stl_iterator.h **** 
 199:d:/MTK/MTK2503/MTK2503/11CW1418SP4_03_CORETEK03AE_11C_V1_GPRS_MMI/Tools/MinGW/include/c++/3.3.1/bits/stl_iterator.h ****       /**
 200:d:/MTK/MTK2503/MTK2503/11CW1418SP4_03_CORETEK03AE_11C_V1_GPRS_MMI/Tools/MinGW/include/c++/3.3.1/bits/stl_iterator.h ****        *  @return  TODO
 201:d:/MTK/MTK2503/MTK2503/11CW1418SP4_03_CORETEK03AE_11C_V1_GPRS_MMI/Tools/MinGW/include/c++/3.3.1/bits/stl_iterator.h ****        *
 202:d:/MTK/MTK2503/MTK2503/11CW1418SP4_03_CORETEK03AE_11C_V1_GPRS_MMI/Tools/MinGW/include/c++/3.3.1/bits/stl_iterator.h ****        *  @doctodo
 203:d:/MTK/MTK2503/MTK2503/11CW1418SP4_03_CORETEK03AE_11C_V1_GPRS_MMI/Tools/MinGW/include/c++/3.3.1/bits/stl_iterator.h ****       */
 204:d:/MTK/MTK2503/MTK2503/11CW1418SP4_03_CORETEK03AE_11C_V1_GPRS_MMI/Tools/MinGW/include/c++/3.3.1/bits/stl_iterator.h ****       reverse_iterator operator--(int) 
 205:d:/MTK/MTK2503/MTK2503/11CW1418SP4_03_CORETEK03AE_11C_V1_GPRS_MMI/Tools/MinGW/include/c++/3.3.1/bits/stl_iterator.h ****       {
 206:d:/MTK/MTK2503/MTK2503/11CW1418SP4_03_CORETEK03AE_11C_V1_GPRS_MMI/Tools/MinGW/include/c++/3.3.1/bits/stl_iterator.h **** 	reverse_iterator __tmp = *this;
 207:d:/MTK/MTK2503/MTK2503/11CW1418SP4_03_CORETEK03AE_11C_V1_GPRS_MMI/Tools/MinGW/include/c++/3.3.1/bits/stl_iterator.h **** 	++current;
 208:d:/MTK/MTK2503/MTK2503/11CW1418SP4_03_CORETEK03AE_11C_V1_GPRS_MMI/Tools/MinGW/include/c++/3.3.1/bits/stl_iterator.h **** 	return __tmp;
 209:d:/MTK/MTK2503/MTK2503/11CW1418SP4_03_CORETEK03AE_11C_V1_GPRS_MMI/Tools/MinGW/include/c++/3.3.1/bits/stl_iterator.h ****       }
 210:d:/MTK/MTK2503/MTK2503/11CW1418SP4_03_CORETEK03AE_11C_V1_GPRS_MMI/Tools/MinGW/include/c++/3.3.1/bits/stl_iterator.h ****       
 211:d:/MTK/MTK2503/MTK2503/11CW1418SP4_03_CORETEK03AE_11C_V1_GPRS_MMI/Tools/MinGW/include/c++/3.3.1/bits/stl_iterator.h ****       /**
 212:d:/MTK/MTK2503/MTK2503/11CW1418SP4_03_CORETEK03AE_11C_V1_GPRS_MMI/Tools/MinGW/include/c++/3.3.1/bits/stl_iterator.h ****        *  @return  TODO
 213:d:/MTK/MTK2503/MTK2503/11CW1418SP4_03_CORETEK03AE_11C_V1_GPRS_MMI/Tools/MinGW/include/c++/3.3.1/bits/stl_iterator.h ****        *
 214:d:/MTK/MTK2503/MTK2503/11CW1418SP4_03_CORETEK03AE_11C_V1_GPRS_MMI/Tools/MinGW/include/c++/3.3.1/bits/stl_iterator.h ****        *  @doctodo
 215:d:/MTK/MTK2503/MTK2503/11CW1418SP4_03_CORETEK03AE_11C_V1_GPRS_MMI/Tools/MinGW/include/c++/3.3.1/bits/stl_iterator.h ****       */
 216:d:/MTK/MTK2503/MTK2503/11CW1418SP4_03_CORETEK03AE_11C_V1_GPRS_MMI/Tools/MinGW/include/c++/3.3.1/bits/stl_iterator.h ****       reverse_iterator 
 217:d:/MTK/MTK2503/MTK2503/11CW1418SP4_03_CORETEK03AE_11C_V1_GPRS_MMI/Tools/MinGW/include/c++/3.3.1/bits/stl_iterator.h ****       operator+(difference_type __n) const 
 218:d:/MTK/MTK2503/MTK2503/11CW1418SP4_03_CORETEK03AE_11C_V1_GPRS_MMI/Tools/MinGW/include/c++/3.3.1/bits/stl_iterator.h ****       { return reverse_iterator(current - __n); }
 219:d:/MTK/MTK2503/MTK2503/11CW1418SP4_03_CORETEK03AE_11C_V1_GPRS_MMI/Tools/MinGW/include/c++/3.3.1/bits/stl_iterator.h **** 
 220:d:/MTK/MTK2503/MTK2503/11CW1418SP4_03_CORETEK03AE_11C_V1_GPRS_MMI/Tools/MinGW/include/c++/3.3.1/bits/stl_iterator.h ****       /**
 221:d:/MTK/MTK2503/MTK2503/11CW1418SP4_03_CORETEK03AE_11C_V1_GPRS_MMI/Tools/MinGW/include/c++/3.3.1/bits/stl_iterator.h ****        *  @return  TODO
 222:d:/MTK/MTK2503/MTK2503/11CW1418SP4_03_CORETEK03AE_11C_V1_GPRS_MMI/Tools/MinGW/include/c++/3.3.1/bits/stl_iterator.h ****        *
 223:d:/MTK/MTK2503/MTK2503/11CW1418SP4_03_CORETEK03AE_11C_V1_GPRS_MMI/Tools/MinGW/include/c++/3.3.1/bits/stl_iterator.h ****        *  @doctodo
 224:d:/MTK/MTK2503/MTK2503/11CW1418SP4_03_CORETEK03AE_11C_V1_GPRS_MMI/Tools/MinGW/include/c++/3.3.1/bits/stl_iterator.h ****       */
 225:d:/MTK/MTK2503/MTK2503/11CW1418SP4_03_CORETEK03AE_11C_V1_GPRS_MMI/Tools/MinGW/include/c++/3.3.1/bits/stl_iterator.h ****       reverse_iterator& 
 226:d:/MTK/MTK2503/MTK2503/11CW1418SP4_03_CORETEK03AE_11C_V1_GPRS_MMI/Tools/MinGW/include/c++/3.3.1/bits/stl_iterator.h ****       operator+=(difference_type __n) 
 227:d:/MTK/MTK2503/MTK2503/11CW1418SP4_03_CORETEK03AE_11C_V1_GPRS_MMI/Tools/MinGW/include/c++/3.3.1/bits/stl_iterator.h ****       {
 228:d:/MTK/MTK2503/MTK2503/11CW1418SP4_03_CORETEK03AE_11C_V1_GPRS_MMI/Tools/MinGW/include/c++/3.3.1/bits/stl_iterator.h **** 	current -= __n;
 229:d:/MTK/MTK2503/MTK2503/11CW1418SP4_03_CORETEK03AE_11C_V1_GPRS_MMI/Tools/MinGW/include/c++/3.3.1/bits/stl_iterator.h **** 	return *this;
 230:d:/MTK/MTK2503/MTK2503/11CW1418SP4_03_CORETEK03AE_11C_V1_GPRS_MMI/Tools/MinGW/include/c++/3.3.1/bits/stl_iterator.h ****       }
 231:d:/MTK/MTK2503/MTK2503/11CW1418SP4_03_CORETEK03AE_11C_V1_GPRS_MMI/Tools/MinGW/include/c++/3.3.1/bits/stl_iterator.h **** 
 232:d:/MTK/MTK2503/MTK2503/11CW1418SP4_03_CORETEK03AE_11C_V1_GPRS_MMI/Tools/MinGW/include/c++/3.3.1/bits/stl_iterator.h ****       /**
 233:d:/MTK/MTK2503/MTK2503/11CW1418SP4_03_CORETEK03AE_11C_V1_GPRS_MMI/Tools/MinGW/include/c++/3.3.1/bits/stl_iterator.h ****        *  @return  TODO
 234:d:/MTK/MTK2503/MTK2503/11CW1418SP4_03_CORETEK03AE_11C_V1_GPRS_MMI/Tools/MinGW/include/c++/3.3.1/bits/stl_iterator.h ****        *
 235:d:/MTK/MTK2503/MTK2503/11CW1418SP4_03_CORETEK03AE_11C_V1_GPRS_MMI/Tools/MinGW/include/c++/3.3.1/bits/stl_iterator.h ****        *  @doctodo
 236:d:/MTK/MTK2503/MTK2503/11CW1418SP4_03_CORETEK03AE_11C_V1_GPRS_MMI/Tools/MinGW/include/c++/3.3.1/bits/stl_iterator.h ****       */
 237:d:/MTK/MTK2503/MTK2503/11CW1418SP4_03_CORETEK03AE_11C_V1_GPRS_MMI/Tools/MinGW/include/c++/3.3.1/bits/stl_iterator.h ****       reverse_iterator 
 238:d:/MTK/MTK2503/MTK2503/11CW1418SP4_03_CORETEK03AE_11C_V1_GPRS_MMI/Tools/MinGW/include/c++/3.3.1/bits/stl_iterator.h ****       operator-(difference_type __n) const 
 239:d:/MTK/MTK2503/MTK2503/11CW1418SP4_03_CORETEK03AE_11C_V1_GPRS_MMI/Tools/MinGW/include/c++/3.3.1/bits/stl_iterator.h ****       { return reverse_iterator(current + __n); }
 240:d:/MTK/MTK2503/MTK2503/11CW1418SP4_03_CORETEK03AE_11C_V1_GPRS_MMI/Tools/MinGW/include/c++/3.3.1/bits/stl_iterator.h **** 
 241:d:/MTK/MTK2503/MTK2503/11CW1418SP4_03_CORETEK03AE_11C_V1_GPRS_MMI/Tools/MinGW/include/c++/3.3.1/bits/stl_iterator.h ****       /**
 242:d:/MTK/MTK2503/MTK2503/11CW1418SP4_03_CORETEK03AE_11C_V1_GPRS_MMI/Tools/MinGW/include/c++/3.3.1/bits/stl_iterator.h ****        *  @return  TODO
GAS LISTING d:/MTK/MTK2503/MTK2503/11CW1418SP4_03_CORETEK03AE_11C_V1_GPRS_MMI/plutommi/Customer/ResGenerator/gcctmp/cc63daaa.s 			page 253


 243:d:/MTK/MTK2503/MTK2503/11CW1418SP4_03_CORETEK03AE_11C_V1_GPRS_MMI/Tools/MinGW/include/c++/3.3.1/bits/stl_iterator.h ****        *
 244:d:/MTK/MTK2503/MTK2503/11CW1418SP4_03_CORETEK03AE_11C_V1_GPRS_MMI/Tools/MinGW/include/c++/3.3.1/bits/stl_iterator.h ****        *  @doctodo
 245:d:/MTK/MTK2503/MTK2503/11CW1418SP4_03_CORETEK03AE_11C_V1_GPRS_MMI/Tools/MinGW/include/c++/3.3.1/bits/stl_iterator.h ****       */
 246:d:/MTK/MTK2503/MTK2503/11CW1418SP4_03_CORETEK03AE_11C_V1_GPRS_MMI/Tools/MinGW/include/c++/3.3.1/bits/stl_iterator.h ****       reverse_iterator& 
 247:d:/MTK/MTK2503/MTK2503/11CW1418SP4_03_CORETEK03AE_11C_V1_GPRS_MMI/Tools/MinGW/include/c++/3.3.1/bits/stl_iterator.h ****       operator-=(difference_type __n) 
 248:d:/MTK/MTK2503/MTK2503/11CW1418SP4_03_CORETEK03AE_11C_V1_GPRS_MMI/Tools/MinGW/include/c++/3.3.1/bits/stl_iterator.h ****       {
 249:d:/MTK/MTK2503/MTK2503/11CW1418SP4_03_CORETEK03AE_11C_V1_GPRS_MMI/Tools/MinGW/include/c++/3.3.1/bits/stl_iterator.h **** 	current += __n;
 250:d:/MTK/MTK2503/MTK2503/11CW1418SP4_03_CORETEK03AE_11C_V1_GPRS_MMI/Tools/MinGW/include/c++/3.3.1/bits/stl_iterator.h **** 	return *this;
 251:d:/MTK/MTK2503/MTK2503/11CW1418SP4_03_CORETEK03AE_11C_V1_GPRS_MMI/Tools/MinGW/include/c++/3.3.1/bits/stl_iterator.h ****       }
 252:d:/MTK/MTK2503/MTK2503/11CW1418SP4_03_CORETEK03AE_11C_V1_GPRS_MMI/Tools/MinGW/include/c++/3.3.1/bits/stl_iterator.h **** 
 253:d:/MTK/MTK2503/MTK2503/11CW1418SP4_03_CORETEK03AE_11C_V1_GPRS_MMI/Tools/MinGW/include/c++/3.3.1/bits/stl_iterator.h ****       /**
 254:d:/MTK/MTK2503/MTK2503/11CW1418SP4_03_CORETEK03AE_11C_V1_GPRS_MMI/Tools/MinGW/include/c++/3.3.1/bits/stl_iterator.h ****        *  @return  TODO
 255:d:/MTK/MTK2503/MTK2503/11CW1418SP4_03_CORETEK03AE_11C_V1_GPRS_MMI/Tools/MinGW/include/c++/3.3.1/bits/stl_iterator.h ****        *
 256:d:/MTK/MTK2503/MTK2503/11CW1418SP4_03_CORETEK03AE_11C_V1_GPRS_MMI/Tools/MinGW/include/c++/3.3.1/bits/stl_iterator.h ****        *  @doctodo
 257:d:/MTK/MTK2503/MTK2503/11CW1418SP4_03_CORETEK03AE_11C_V1_GPRS_MMI/Tools/MinGW/include/c++/3.3.1/bits/stl_iterator.h ****       */
 258:d:/MTK/MTK2503/MTK2503/11CW1418SP4_03_CORETEK03AE_11C_V1_GPRS_MMI/Tools/MinGW/include/c++/3.3.1/bits/stl_iterator.h ****       reference 
 259:d:/MTK/MTK2503/MTK2503/11CW1418SP4_03_CORETEK03AE_11C_V1_GPRS_MMI/Tools/MinGW/include/c++/3.3.1/bits/stl_iterator.h ****       operator[](difference_type __n) const { return *(*this + __n); }  
 260:d:/MTK/MTK2503/MTK2503/11CW1418SP4_03_CORETEK03AE_11C_V1_GPRS_MMI/Tools/MinGW/include/c++/3.3.1/bits/stl_iterator.h ****     }; 
 261:d:/MTK/MTK2503/MTK2503/11CW1418SP4_03_CORETEK03AE_11C_V1_GPRS_MMI/Tools/MinGW/include/c++/3.3.1/bits/stl_iterator.h ****  
 262:d:/MTK/MTK2503/MTK2503/11CW1418SP4_03_CORETEK03AE_11C_V1_GPRS_MMI/Tools/MinGW/include/c++/3.3.1/bits/stl_iterator.h ****   //@{
 263:d:/MTK/MTK2503/MTK2503/11CW1418SP4_03_CORETEK03AE_11C_V1_GPRS_MMI/Tools/MinGW/include/c++/3.3.1/bits/stl_iterator.h ****   /**
 264:d:/MTK/MTK2503/MTK2503/11CW1418SP4_03_CORETEK03AE_11C_V1_GPRS_MMI/Tools/MinGW/include/c++/3.3.1/bits/stl_iterator.h ****    *  @param  x  A %reverse_iterator.
 265:d:/MTK/MTK2503/MTK2503/11CW1418SP4_03_CORETEK03AE_11C_V1_GPRS_MMI/Tools/MinGW/include/c++/3.3.1/bits/stl_iterator.h ****    *  @param  y  A %reverse_iterator.
 266:d:/MTK/MTK2503/MTK2503/11CW1418SP4_03_CORETEK03AE_11C_V1_GPRS_MMI/Tools/MinGW/include/c++/3.3.1/bits/stl_iterator.h ****    *  @return  A simple bool.
 267:d:/MTK/MTK2503/MTK2503/11CW1418SP4_03_CORETEK03AE_11C_V1_GPRS_MMI/Tools/MinGW/include/c++/3.3.1/bits/stl_iterator.h ****    *
 268:d:/MTK/MTK2503/MTK2503/11CW1418SP4_03_CORETEK03AE_11C_V1_GPRS_MMI/Tools/MinGW/include/c++/3.3.1/bits/stl_iterator.h ****    *  Reverse iterators forward many operations to their underlying base()
 269:d:/MTK/MTK2503/MTK2503/11CW1418SP4_03_CORETEK03AE_11C_V1_GPRS_MMI/Tools/MinGW/include/c++/3.3.1/bits/stl_iterator.h ****    *  iterators.  Others are implemented in terms of one another.
 270:d:/MTK/MTK2503/MTK2503/11CW1418SP4_03_CORETEK03AE_11C_V1_GPRS_MMI/Tools/MinGW/include/c++/3.3.1/bits/stl_iterator.h ****    *
 271:d:/MTK/MTK2503/MTK2503/11CW1418SP4_03_CORETEK03AE_11C_V1_GPRS_MMI/Tools/MinGW/include/c++/3.3.1/bits/stl_iterator.h ****   */
 272:d:/MTK/MTK2503/MTK2503/11CW1418SP4_03_CORETEK03AE_11C_V1_GPRS_MMI/Tools/MinGW/include/c++/3.3.1/bits/stl_iterator.h ****   template<typename _Iterator>
 273:d:/MTK/MTK2503/MTK2503/11CW1418SP4_03_CORETEK03AE_11C_V1_GPRS_MMI/Tools/MinGW/include/c++/3.3.1/bits/stl_iterator.h ****     inline bool 
 274:d:/MTK/MTK2503/MTK2503/11CW1418SP4_03_CORETEK03AE_11C_V1_GPRS_MMI/Tools/MinGW/include/c++/3.3.1/bits/stl_iterator.h ****     operator==(const reverse_iterator<_Iterator>& __x, 
 275:d:/MTK/MTK2503/MTK2503/11CW1418SP4_03_CORETEK03AE_11C_V1_GPRS_MMI/Tools/MinGW/include/c++/3.3.1/bits/stl_iterator.h **** 	       const reverse_iterator<_Iterator>& __y) 
 276:d:/MTK/MTK2503/MTK2503/11CW1418SP4_03_CORETEK03AE_11C_V1_GPRS_MMI/Tools/MinGW/include/c++/3.3.1/bits/stl_iterator.h ****     { return __x.base() == __y.base(); }
 277:d:/MTK/MTK2503/MTK2503/11CW1418SP4_03_CORETEK03AE_11C_V1_GPRS_MMI/Tools/MinGW/include/c++/3.3.1/bits/stl_iterator.h **** 
 278:d:/MTK/MTK2503/MTK2503/11CW1418SP4_03_CORETEK03AE_11C_V1_GPRS_MMI/Tools/MinGW/include/c++/3.3.1/bits/stl_iterator.h ****   template<typename _Iterator>
 279:d:/MTK/MTK2503/MTK2503/11CW1418SP4_03_CORETEK03AE_11C_V1_GPRS_MMI/Tools/MinGW/include/c++/3.3.1/bits/stl_iterator.h ****     inline bool 
 280:d:/MTK/MTK2503/MTK2503/11CW1418SP4_03_CORETEK03AE_11C_V1_GPRS_MMI/Tools/MinGW/include/c++/3.3.1/bits/stl_iterator.h ****     operator<(const reverse_iterator<_Iterator>& __x, 
 281:d:/MTK/MTK2503/MTK2503/11CW1418SP4_03_CORETEK03AE_11C_V1_GPRS_MMI/Tools/MinGW/include/c++/3.3.1/bits/stl_iterator.h **** 	      const reverse_iterator<_Iterator>& __y) 
 282:d:/MTK/MTK2503/MTK2503/11CW1418SP4_03_CORETEK03AE_11C_V1_GPRS_MMI/Tools/MinGW/include/c++/3.3.1/bits/stl_iterator.h ****     { return __y.base() < __x.base(); }
 283:d:/MTK/MTK2503/MTK2503/11CW1418SP4_03_CORETEK03AE_11C_V1_GPRS_MMI/Tools/MinGW/include/c++/3.3.1/bits/stl_iterator.h **** 
 284:d:/MTK/MTK2503/MTK2503/11CW1418SP4_03_CORETEK03AE_11C_V1_GPRS_MMI/Tools/MinGW/include/c++/3.3.1/bits/stl_iterator.h ****   template<typename _Iterator>
 285:d:/MTK/MTK2503/MTK2503/11CW1418SP4_03_CORETEK03AE_11C_V1_GPRS_MMI/Tools/MinGW/include/c++/3.3.1/bits/stl_iterator.h ****     inline bool 
 286:d:/MTK/MTK2503/MTK2503/11CW1418SP4_03_CORETEK03AE_11C_V1_GPRS_MMI/Tools/MinGW/include/c++/3.3.1/bits/stl_iterator.h ****     operator!=(const reverse_iterator<_Iterator>& __x, 
 287:d:/MTK/MTK2503/MTK2503/11CW1418SP4_03_CORETEK03AE_11C_V1_GPRS_MMI/Tools/MinGW/include/c++/3.3.1/bits/stl_iterator.h **** 	       const reverse_iterator<_Iterator>& __y) 
 288:d:/MTK/MTK2503/MTK2503/11CW1418SP4_03_CORETEK03AE_11C_V1_GPRS_MMI/Tools/MinGW/include/c++/3.3.1/bits/stl_iterator.h ****     { return !(__x == __y); }
 289:d:/MTK/MTK2503/MTK2503/11CW1418SP4_03_CORETEK03AE_11C_V1_GPRS_MMI/Tools/MinGW/include/c++/3.3.1/bits/stl_iterator.h **** 
 290:d:/MTK/MTK2503/MTK2503/11CW1418SP4_03_CORETEK03AE_11C_V1_GPRS_MMI/Tools/MinGW/include/c++/3.3.1/bits/stl_iterator.h ****   template<typename _Iterator>
 291:d:/MTK/MTK2503/MTK2503/11CW1418SP4_03_CORETEK03AE_11C_V1_GPRS_MMI/Tools/MinGW/include/c++/3.3.1/bits/stl_iterator.h ****     inline bool 
 292:d:/MTK/MTK2503/MTK2503/11CW1418SP4_03_CORETEK03AE_11C_V1_GPRS_MMI/Tools/MinGW/include/c++/3.3.1/bits/stl_iterator.h ****     operator>(const reverse_iterator<_Iterator>& __x, 
 293:d:/MTK/MTK2503/MTK2503/11CW1418SP4_03_CORETEK03AE_11C_V1_GPRS_MMI/Tools/MinGW/include/c++/3.3.1/bits/stl_iterator.h **** 	      const reverse_iterator<_Iterator>& __y) 
 294:d:/MTK/MTK2503/MTK2503/11CW1418SP4_03_CORETEK03AE_11C_V1_GPRS_MMI/Tools/MinGW/include/c++/3.3.1/bits/stl_iterator.h ****     { return __y < __x; }
 295:d:/MTK/MTK2503/MTK2503/11CW1418SP4_03_CORETEK03AE_11C_V1_GPRS_MMI/Tools/MinGW/include/c++/3.3.1/bits/stl_iterator.h **** 
 296:d:/MTK/MTK2503/MTK2503/11CW1418SP4_03_CORETEK03AE_11C_V1_GPRS_MMI/Tools/MinGW/include/c++/3.3.1/bits/stl_iterator.h ****   template<typename _Iterator>
 297:d:/MTK/MTK2503/MTK2503/11CW1418SP4_03_CORETEK03AE_11C_V1_GPRS_MMI/Tools/MinGW/include/c++/3.3.1/bits/stl_iterator.h ****     inline bool 
 298:d:/MTK/MTK2503/MTK2503/11CW1418SP4_03_CORETEK03AE_11C_V1_GPRS_MMI/Tools/MinGW/include/c++/3.3.1/bits/stl_iterator.h ****     operator<=(const reverse_iterator<_Iterator>& __x, 
 299:d:/MTK/MTK2503/MTK2503/11CW1418SP4_03_CORETEK03AE_11C_V1_GPRS_MMI/Tools/MinGW/include/c++/3.3.1/bits/stl_iterator.h **** 		const reverse_iterator<_Iterator>& __y) 
GAS LISTING d:/MTK/MTK2503/MTK2503/11CW1418SP4_03_CORETEK03AE_11C_V1_GPRS_MMI/plutommi/Customer/ResGenerator/gcctmp/cc63daaa.s 			page 254


 300:d:/MTK/MTK2503/MTK2503/11CW1418SP4_03_CORETEK03AE_11C_V1_GPRS_MMI/Tools/MinGW/include/c++/3.3.1/bits/stl_iterator.h ****     { return !(__y < __x); }
 301:d:/MTK/MTK2503/MTK2503/11CW1418SP4_03_CORETEK03AE_11C_V1_GPRS_MMI/Tools/MinGW/include/c++/3.3.1/bits/stl_iterator.h **** 
 302:d:/MTK/MTK2503/MTK2503/11CW1418SP4_03_CORETEK03AE_11C_V1_GPRS_MMI/Tools/MinGW/include/c++/3.3.1/bits/stl_iterator.h ****   template<typename _Iterator>
 303:d:/MTK/MTK2503/MTK2503/11CW1418SP4_03_CORETEK03AE_11C_V1_GPRS_MMI/Tools/MinGW/include/c++/3.3.1/bits/stl_iterator.h ****     inline bool 
 304:d:/MTK/MTK2503/MTK2503/11CW1418SP4_03_CORETEK03AE_11C_V1_GPRS_MMI/Tools/MinGW/include/c++/3.3.1/bits/stl_iterator.h ****     operator>=(const reverse_iterator<_Iterator>& __x, 
 305:d:/MTK/MTK2503/MTK2503/11CW1418SP4_03_CORETEK03AE_11C_V1_GPRS_MMI/Tools/MinGW/include/c++/3.3.1/bits/stl_iterator.h **** 	       const reverse_iterator<_Iterator>& __y) 
 306:d:/MTK/MTK2503/MTK2503/11CW1418SP4_03_CORETEK03AE_11C_V1_GPRS_MMI/Tools/MinGW/include/c++/3.3.1/bits/stl_iterator.h ****     { return !(__x < __y); }
 307:d:/MTK/MTK2503/MTK2503/11CW1418SP4_03_CORETEK03AE_11C_V1_GPRS_MMI/Tools/MinGW/include/c++/3.3.1/bits/stl_iterator.h **** 
 308:d:/MTK/MTK2503/MTK2503/11CW1418SP4_03_CORETEK03AE_11C_V1_GPRS_MMI/Tools/MinGW/include/c++/3.3.1/bits/stl_iterator.h ****   template<typename _Iterator>
 309:d:/MTK/MTK2503/MTK2503/11CW1418SP4_03_CORETEK03AE_11C_V1_GPRS_MMI/Tools/MinGW/include/c++/3.3.1/bits/stl_iterator.h ****     inline typename reverse_iterator<_Iterator>::difference_type
 310:d:/MTK/MTK2503/MTK2503/11CW1418SP4_03_CORETEK03AE_11C_V1_GPRS_MMI/Tools/MinGW/include/c++/3.3.1/bits/stl_iterator.h ****     operator-(const reverse_iterator<_Iterator>& __x, 
 311:d:/MTK/MTK2503/MTK2503/11CW1418SP4_03_CORETEK03AE_11C_V1_GPRS_MMI/Tools/MinGW/include/c++/3.3.1/bits/stl_iterator.h **** 	      const reverse_iterator<_Iterator>& __y) 
 312:d:/MTK/MTK2503/MTK2503/11CW1418SP4_03_CORETEK03AE_11C_V1_GPRS_MMI/Tools/MinGW/include/c++/3.3.1/bits/stl_iterator.h ****     { return __y.base() - __x.base(); }
 313:d:/MTK/MTK2503/MTK2503/11CW1418SP4_03_CORETEK03AE_11C_V1_GPRS_MMI/Tools/MinGW/include/c++/3.3.1/bits/stl_iterator.h **** 
 314:d:/MTK/MTK2503/MTK2503/11CW1418SP4_03_CORETEK03AE_11C_V1_GPRS_MMI/Tools/MinGW/include/c++/3.3.1/bits/stl_iterator.h ****   template<typename _Iterator>
 315:d:/MTK/MTK2503/MTK2503/11CW1418SP4_03_CORETEK03AE_11C_V1_GPRS_MMI/Tools/MinGW/include/c++/3.3.1/bits/stl_iterator.h ****     inline reverse_iterator<_Iterator> 
 316:d:/MTK/MTK2503/MTK2503/11CW1418SP4_03_CORETEK03AE_11C_V1_GPRS_MMI/Tools/MinGW/include/c++/3.3.1/bits/stl_iterator.h ****     operator+(typename reverse_iterator<_Iterator>::difference_type __n,
 317:d:/MTK/MTK2503/MTK2503/11CW1418SP4_03_CORETEK03AE_11C_V1_GPRS_MMI/Tools/MinGW/include/c++/3.3.1/bits/stl_iterator.h **** 	      const reverse_iterator<_Iterator>& __x) 
 318:d:/MTK/MTK2503/MTK2503/11CW1418SP4_03_CORETEK03AE_11C_V1_GPRS_MMI/Tools/MinGW/include/c++/3.3.1/bits/stl_iterator.h ****     { return reverse_iterator<_Iterator>(__x.base() - __n); }
 319:d:/MTK/MTK2503/MTK2503/11CW1418SP4_03_CORETEK03AE_11C_V1_GPRS_MMI/Tools/MinGW/include/c++/3.3.1/bits/stl_iterator.h ****   //@}
 320:d:/MTK/MTK2503/MTK2503/11CW1418SP4_03_CORETEK03AE_11C_V1_GPRS_MMI/Tools/MinGW/include/c++/3.3.1/bits/stl_iterator.h **** 
 321:d:/MTK/MTK2503/MTK2503/11CW1418SP4_03_CORETEK03AE_11C_V1_GPRS_MMI/Tools/MinGW/include/c++/3.3.1/bits/stl_iterator.h ****   // 24.4.2.2.1 back_insert_iterator
 322:d:/MTK/MTK2503/MTK2503/11CW1418SP4_03_CORETEK03AE_11C_V1_GPRS_MMI/Tools/MinGW/include/c++/3.3.1/bits/stl_iterator.h ****   /**
 323:d:/MTK/MTK2503/MTK2503/11CW1418SP4_03_CORETEK03AE_11C_V1_GPRS_MMI/Tools/MinGW/include/c++/3.3.1/bits/stl_iterator.h ****    *  @brief  Turns assignment into insertion.
 324:d:/MTK/MTK2503/MTK2503/11CW1418SP4_03_CORETEK03AE_11C_V1_GPRS_MMI/Tools/MinGW/include/c++/3.3.1/bits/stl_iterator.h ****    *
 325:d:/MTK/MTK2503/MTK2503/11CW1418SP4_03_CORETEK03AE_11C_V1_GPRS_MMI/Tools/MinGW/include/c++/3.3.1/bits/stl_iterator.h ****    *  These are output iterators, constructed from a container-of-T.
 326:d:/MTK/MTK2503/MTK2503/11CW1418SP4_03_CORETEK03AE_11C_V1_GPRS_MMI/Tools/MinGW/include/c++/3.3.1/bits/stl_iterator.h ****    *  Assigning a T to the iterator appends it to the container using
 327:d:/MTK/MTK2503/MTK2503/11CW1418SP4_03_CORETEK03AE_11C_V1_GPRS_MMI/Tools/MinGW/include/c++/3.3.1/bits/stl_iterator.h ****    *  push_back.
 328:d:/MTK/MTK2503/MTK2503/11CW1418SP4_03_CORETEK03AE_11C_V1_GPRS_MMI/Tools/MinGW/include/c++/3.3.1/bits/stl_iterator.h ****    *
 329:d:/MTK/MTK2503/MTK2503/11CW1418SP4_03_CORETEK03AE_11C_V1_GPRS_MMI/Tools/MinGW/include/c++/3.3.1/bits/stl_iterator.h ****    *  Tip:  Using the back_inserter function to create these iterators can
 330:d:/MTK/MTK2503/MTK2503/11CW1418SP4_03_CORETEK03AE_11C_V1_GPRS_MMI/Tools/MinGW/include/c++/3.3.1/bits/stl_iterator.h ****    *  save typing.
 331:d:/MTK/MTK2503/MTK2503/11CW1418SP4_03_CORETEK03AE_11C_V1_GPRS_MMI/Tools/MinGW/include/c++/3.3.1/bits/stl_iterator.h ****   */
 332:d:/MTK/MTK2503/MTK2503/11CW1418SP4_03_CORETEK03AE_11C_V1_GPRS_MMI/Tools/MinGW/include/c++/3.3.1/bits/stl_iterator.h ****   template<typename _Container>
 333:d:/MTK/MTK2503/MTK2503/11CW1418SP4_03_CORETEK03AE_11C_V1_GPRS_MMI/Tools/MinGW/include/c++/3.3.1/bits/stl_iterator.h ****     class back_insert_iterator 
 334:d:/MTK/MTK2503/MTK2503/11CW1418SP4_03_CORETEK03AE_11C_V1_GPRS_MMI/Tools/MinGW/include/c++/3.3.1/bits/stl_iterator.h ****     : public iterator<output_iterator_tag, void, void, void, void>
 335:d:/MTK/MTK2503/MTK2503/11CW1418SP4_03_CORETEK03AE_11C_V1_GPRS_MMI/Tools/MinGW/include/c++/3.3.1/bits/stl_iterator.h ****     {
 336:d:/MTK/MTK2503/MTK2503/11CW1418SP4_03_CORETEK03AE_11C_V1_GPRS_MMI/Tools/MinGW/include/c++/3.3.1/bits/stl_iterator.h ****     protected:
 337:d:/MTK/MTK2503/MTK2503/11CW1418SP4_03_CORETEK03AE_11C_V1_GPRS_MMI/Tools/MinGW/include/c++/3.3.1/bits/stl_iterator.h ****       _Container* container;
 338:d:/MTK/MTK2503/MTK2503/11CW1418SP4_03_CORETEK03AE_11C_V1_GPRS_MMI/Tools/MinGW/include/c++/3.3.1/bits/stl_iterator.h **** 
 339:d:/MTK/MTK2503/MTK2503/11CW1418SP4_03_CORETEK03AE_11C_V1_GPRS_MMI/Tools/MinGW/include/c++/3.3.1/bits/stl_iterator.h ****     public:
 340:d:/MTK/MTK2503/MTK2503/11CW1418SP4_03_CORETEK03AE_11C_V1_GPRS_MMI/Tools/MinGW/include/c++/3.3.1/bits/stl_iterator.h ****       /// A nested typedef for the type of whatever container you used.
 341:d:/MTK/MTK2503/MTK2503/11CW1418SP4_03_CORETEK03AE_11C_V1_GPRS_MMI/Tools/MinGW/include/c++/3.3.1/bits/stl_iterator.h ****       typedef _Container          container_type;
 342:d:/MTK/MTK2503/MTK2503/11CW1418SP4_03_CORETEK03AE_11C_V1_GPRS_MMI/Tools/MinGW/include/c++/3.3.1/bits/stl_iterator.h ****       
 343:d:/MTK/MTK2503/MTK2503/11CW1418SP4_03_CORETEK03AE_11C_V1_GPRS_MMI/Tools/MinGW/include/c++/3.3.1/bits/stl_iterator.h ****       /// The only way to create this %iterator is with a container.
 344:d:/MTK/MTK2503/MTK2503/11CW1418SP4_03_CORETEK03AE_11C_V1_GPRS_MMI/Tools/MinGW/include/c++/3.3.1/bits/stl_iterator.h ****       explicit 
 345:d:/MTK/MTK2503/MTK2503/11CW1418SP4_03_CORETEK03AE_11C_V1_GPRS_MMI/Tools/MinGW/include/c++/3.3.1/bits/stl_iterator.h ****       back_insert_iterator(_Container& __x) : container(&__x) { }
 346:d:/MTK/MTK2503/MTK2503/11CW1418SP4_03_CORETEK03AE_11C_V1_GPRS_MMI/Tools/MinGW/include/c++/3.3.1/bits/stl_iterator.h **** 
 347:d:/MTK/MTK2503/MTK2503/11CW1418SP4_03_CORETEK03AE_11C_V1_GPRS_MMI/Tools/MinGW/include/c++/3.3.1/bits/stl_iterator.h ****       /**
 348:d:/MTK/MTK2503/MTK2503/11CW1418SP4_03_CORETEK03AE_11C_V1_GPRS_MMI/Tools/MinGW/include/c++/3.3.1/bits/stl_iterator.h ****        *  @param  value  An instance of whatever type
 349:d:/MTK/MTK2503/MTK2503/11CW1418SP4_03_CORETEK03AE_11C_V1_GPRS_MMI/Tools/MinGW/include/c++/3.3.1/bits/stl_iterator.h ****        *                 container_type::const_reference is; presumably a
 350:d:/MTK/MTK2503/MTK2503/11CW1418SP4_03_CORETEK03AE_11C_V1_GPRS_MMI/Tools/MinGW/include/c++/3.3.1/bits/stl_iterator.h ****        *                 reference-to-const T for container<T>.
 351:d:/MTK/MTK2503/MTK2503/11CW1418SP4_03_CORETEK03AE_11C_V1_GPRS_MMI/Tools/MinGW/include/c++/3.3.1/bits/stl_iterator.h ****        *  @return  This %iterator, for chained operations.
 352:d:/MTK/MTK2503/MTK2503/11CW1418SP4_03_CORETEK03AE_11C_V1_GPRS_MMI/Tools/MinGW/include/c++/3.3.1/bits/stl_iterator.h ****        *
 353:d:/MTK/MTK2503/MTK2503/11CW1418SP4_03_CORETEK03AE_11C_V1_GPRS_MMI/Tools/MinGW/include/c++/3.3.1/bits/stl_iterator.h ****        *  This kind of %iterator doesn't really have a "position" in the
 354:d:/MTK/MTK2503/MTK2503/11CW1418SP4_03_CORETEK03AE_11C_V1_GPRS_MMI/Tools/MinGW/include/c++/3.3.1/bits/stl_iterator.h ****        *  container (you can think of the position as being permanently at
 355:d:/MTK/MTK2503/MTK2503/11CW1418SP4_03_CORETEK03AE_11C_V1_GPRS_MMI/Tools/MinGW/include/c++/3.3.1/bits/stl_iterator.h ****        *  the end, if you like).  Assigning a value to the %iterator will
 356:d:/MTK/MTK2503/MTK2503/11CW1418SP4_03_CORETEK03AE_11C_V1_GPRS_MMI/Tools/MinGW/include/c++/3.3.1/bits/stl_iterator.h ****        *  always append the value to the end of the container.
GAS LISTING d:/MTK/MTK2503/MTK2503/11CW1418SP4_03_CORETEK03AE_11C_V1_GPRS_MMI/plutommi/Customer/ResGenerator/gcctmp/cc63daaa.s 			page 255


 357:d:/MTK/MTK2503/MTK2503/11CW1418SP4_03_CORETEK03AE_11C_V1_GPRS_MMI/Tools/MinGW/include/c++/3.3.1/bits/stl_iterator.h ****       */
 358:d:/MTK/MTK2503/MTK2503/11CW1418SP4_03_CORETEK03AE_11C_V1_GPRS_MMI/Tools/MinGW/include/c++/3.3.1/bits/stl_iterator.h ****       back_insert_iterator&
 359:d:/MTK/MTK2503/MTK2503/11CW1418SP4_03_CORETEK03AE_11C_V1_GPRS_MMI/Tools/MinGW/include/c++/3.3.1/bits/stl_iterator.h ****       operator=(typename _Container::const_reference __value) 
 360:d:/MTK/MTK2503/MTK2503/11CW1418SP4_03_CORETEK03AE_11C_V1_GPRS_MMI/Tools/MinGW/include/c++/3.3.1/bits/stl_iterator.h ****       { 
 361:d:/MTK/MTK2503/MTK2503/11CW1418SP4_03_CORETEK03AE_11C_V1_GPRS_MMI/Tools/MinGW/include/c++/3.3.1/bits/stl_iterator.h **** 	container->push_back(__value);
 362:d:/MTK/MTK2503/MTK2503/11CW1418SP4_03_CORETEK03AE_11C_V1_GPRS_MMI/Tools/MinGW/include/c++/3.3.1/bits/stl_iterator.h **** 	return *this;
 363:d:/MTK/MTK2503/MTK2503/11CW1418SP4_03_CORETEK03AE_11C_V1_GPRS_MMI/Tools/MinGW/include/c++/3.3.1/bits/stl_iterator.h ****       }
 364:d:/MTK/MTK2503/MTK2503/11CW1418SP4_03_CORETEK03AE_11C_V1_GPRS_MMI/Tools/MinGW/include/c++/3.3.1/bits/stl_iterator.h **** 
 365:d:/MTK/MTK2503/MTK2503/11CW1418SP4_03_CORETEK03AE_11C_V1_GPRS_MMI/Tools/MinGW/include/c++/3.3.1/bits/stl_iterator.h ****       /// Simply returns *this.
 366:d:/MTK/MTK2503/MTK2503/11CW1418SP4_03_CORETEK03AE_11C_V1_GPRS_MMI/Tools/MinGW/include/c++/3.3.1/bits/stl_iterator.h ****       back_insert_iterator& 
 367:d:/MTK/MTK2503/MTK2503/11CW1418SP4_03_CORETEK03AE_11C_V1_GPRS_MMI/Tools/MinGW/include/c++/3.3.1/bits/stl_iterator.h ****       operator*() { return *this; }
 368:d:/MTK/MTK2503/MTK2503/11CW1418SP4_03_CORETEK03AE_11C_V1_GPRS_MMI/Tools/MinGW/include/c++/3.3.1/bits/stl_iterator.h **** 
 369:d:/MTK/MTK2503/MTK2503/11CW1418SP4_03_CORETEK03AE_11C_V1_GPRS_MMI/Tools/MinGW/include/c++/3.3.1/bits/stl_iterator.h ****       /// Simply returns *this.  (This %iterator does not "move".)
 370:d:/MTK/MTK2503/MTK2503/11CW1418SP4_03_CORETEK03AE_11C_V1_GPRS_MMI/Tools/MinGW/include/c++/3.3.1/bits/stl_iterator.h ****       back_insert_iterator& 
 371:d:/MTK/MTK2503/MTK2503/11CW1418SP4_03_CORETEK03AE_11C_V1_GPRS_MMI/Tools/MinGW/include/c++/3.3.1/bits/stl_iterator.h ****       operator++() { return *this; }
 372:d:/MTK/MTK2503/MTK2503/11CW1418SP4_03_CORETEK03AE_11C_V1_GPRS_MMI/Tools/MinGW/include/c++/3.3.1/bits/stl_iterator.h **** 
 373:d:/MTK/MTK2503/MTK2503/11CW1418SP4_03_CORETEK03AE_11C_V1_GPRS_MMI/Tools/MinGW/include/c++/3.3.1/bits/stl_iterator.h ****       /// Simply returns *this.  (This %iterator does not "move".)
 374:d:/MTK/MTK2503/MTK2503/11CW1418SP4_03_CORETEK03AE_11C_V1_GPRS_MMI/Tools/MinGW/include/c++/3.3.1/bits/stl_iterator.h ****       back_insert_iterator
 375:d:/MTK/MTK2503/MTK2503/11CW1418SP4_03_CORETEK03AE_11C_V1_GPRS_MMI/Tools/MinGW/include/c++/3.3.1/bits/stl_iterator.h ****       operator++(int) { return *this; }
 376:d:/MTK/MTK2503/MTK2503/11CW1418SP4_03_CORETEK03AE_11C_V1_GPRS_MMI/Tools/MinGW/include/c++/3.3.1/bits/stl_iterator.h ****     };
 377:d:/MTK/MTK2503/MTK2503/11CW1418SP4_03_CORETEK03AE_11C_V1_GPRS_MMI/Tools/MinGW/include/c++/3.3.1/bits/stl_iterator.h **** 
 378:d:/MTK/MTK2503/MTK2503/11CW1418SP4_03_CORETEK03AE_11C_V1_GPRS_MMI/Tools/MinGW/include/c++/3.3.1/bits/stl_iterator.h ****   /**
 379:d:/MTK/MTK2503/MTK2503/11CW1418SP4_03_CORETEK03AE_11C_V1_GPRS_MMI/Tools/MinGW/include/c++/3.3.1/bits/stl_iterator.h ****    *  @param  x  A container of arbitrary type.
 380:d:/MTK/MTK2503/MTK2503/11CW1418SP4_03_CORETEK03AE_11C_V1_GPRS_MMI/Tools/MinGW/include/c++/3.3.1/bits/stl_iterator.h ****    *  @return  An instance of back_insert_iterator working on @p x.
 381:d:/MTK/MTK2503/MTK2503/11CW1418SP4_03_CORETEK03AE_11C_V1_GPRS_MMI/Tools/MinGW/include/c++/3.3.1/bits/stl_iterator.h ****    *
 382:d:/MTK/MTK2503/MTK2503/11CW1418SP4_03_CORETEK03AE_11C_V1_GPRS_MMI/Tools/MinGW/include/c++/3.3.1/bits/stl_iterator.h ****    *  This wrapper function helps in creating back_insert_iterator instances.
 383:d:/MTK/MTK2503/MTK2503/11CW1418SP4_03_CORETEK03AE_11C_V1_GPRS_MMI/Tools/MinGW/include/c++/3.3.1/bits/stl_iterator.h ****    *  Typing the name of the %iterator requires knowing the precise full
 384:d:/MTK/MTK2503/MTK2503/11CW1418SP4_03_CORETEK03AE_11C_V1_GPRS_MMI/Tools/MinGW/include/c++/3.3.1/bits/stl_iterator.h ****    *  type of the container, which can be tedious and impedes generic
 385:d:/MTK/MTK2503/MTK2503/11CW1418SP4_03_CORETEK03AE_11C_V1_GPRS_MMI/Tools/MinGW/include/c++/3.3.1/bits/stl_iterator.h ****    *  programming.  Using this function lets you take advantage of automatic
 386:d:/MTK/MTK2503/MTK2503/11CW1418SP4_03_CORETEK03AE_11C_V1_GPRS_MMI/Tools/MinGW/include/c++/3.3.1/bits/stl_iterator.h ****    *  template parameter deduction, making the compiler match the correct
 387:d:/MTK/MTK2503/MTK2503/11CW1418SP4_03_CORETEK03AE_11C_V1_GPRS_MMI/Tools/MinGW/include/c++/3.3.1/bits/stl_iterator.h ****    *  types for you.
 388:d:/MTK/MTK2503/MTK2503/11CW1418SP4_03_CORETEK03AE_11C_V1_GPRS_MMI/Tools/MinGW/include/c++/3.3.1/bits/stl_iterator.h ****   */
 389:d:/MTK/MTK2503/MTK2503/11CW1418SP4_03_CORETEK03AE_11C_V1_GPRS_MMI/Tools/MinGW/include/c++/3.3.1/bits/stl_iterator.h ****   template<typename _Container>
 390:d:/MTK/MTK2503/MTK2503/11CW1418SP4_03_CORETEK03AE_11C_V1_GPRS_MMI/Tools/MinGW/include/c++/3.3.1/bits/stl_iterator.h ****     inline back_insert_iterator<_Container> 
 391:d:/MTK/MTK2503/MTK2503/11CW1418SP4_03_CORETEK03AE_11C_V1_GPRS_MMI/Tools/MinGW/include/c++/3.3.1/bits/stl_iterator.h ****     back_inserter(_Container& __x) 
 392:d:/MTK/MTK2503/MTK2503/11CW1418SP4_03_CORETEK03AE_11C_V1_GPRS_MMI/Tools/MinGW/include/c++/3.3.1/bits/stl_iterator.h ****     { return back_insert_iterator<_Container>(__x); }
 393:d:/MTK/MTK2503/MTK2503/11CW1418SP4_03_CORETEK03AE_11C_V1_GPRS_MMI/Tools/MinGW/include/c++/3.3.1/bits/stl_iterator.h **** 
 394:d:/MTK/MTK2503/MTK2503/11CW1418SP4_03_CORETEK03AE_11C_V1_GPRS_MMI/Tools/MinGW/include/c++/3.3.1/bits/stl_iterator.h ****   /**
 395:d:/MTK/MTK2503/MTK2503/11CW1418SP4_03_CORETEK03AE_11C_V1_GPRS_MMI/Tools/MinGW/include/c++/3.3.1/bits/stl_iterator.h ****    *  @brief  Turns assignment into insertion.
 396:d:/MTK/MTK2503/MTK2503/11CW1418SP4_03_CORETEK03AE_11C_V1_GPRS_MMI/Tools/MinGW/include/c++/3.3.1/bits/stl_iterator.h ****    *
 397:d:/MTK/MTK2503/MTK2503/11CW1418SP4_03_CORETEK03AE_11C_V1_GPRS_MMI/Tools/MinGW/include/c++/3.3.1/bits/stl_iterator.h ****    *  These are output iterators, constructed from a container-of-T.
 398:d:/MTK/MTK2503/MTK2503/11CW1418SP4_03_CORETEK03AE_11C_V1_GPRS_MMI/Tools/MinGW/include/c++/3.3.1/bits/stl_iterator.h ****    *  Assigning a T to the iterator prepends it to the container using
 399:d:/MTK/MTK2503/MTK2503/11CW1418SP4_03_CORETEK03AE_11C_V1_GPRS_MMI/Tools/MinGW/include/c++/3.3.1/bits/stl_iterator.h ****    *  push_front.
 400:d:/MTK/MTK2503/MTK2503/11CW1418SP4_03_CORETEK03AE_11C_V1_GPRS_MMI/Tools/MinGW/include/c++/3.3.1/bits/stl_iterator.h ****    *
 401:d:/MTK/MTK2503/MTK2503/11CW1418SP4_03_CORETEK03AE_11C_V1_GPRS_MMI/Tools/MinGW/include/c++/3.3.1/bits/stl_iterator.h ****    *  Tip:  Using the front_inserter function to create these iterators can
 402:d:/MTK/MTK2503/MTK2503/11CW1418SP4_03_CORETEK03AE_11C_V1_GPRS_MMI/Tools/MinGW/include/c++/3.3.1/bits/stl_iterator.h ****    *  save typing.
 403:d:/MTK/MTK2503/MTK2503/11CW1418SP4_03_CORETEK03AE_11C_V1_GPRS_MMI/Tools/MinGW/include/c++/3.3.1/bits/stl_iterator.h ****   */
 404:d:/MTK/MTK2503/MTK2503/11CW1418SP4_03_CORETEK03AE_11C_V1_GPRS_MMI/Tools/MinGW/include/c++/3.3.1/bits/stl_iterator.h ****   template<typename _Container>
 405:d:/MTK/MTK2503/MTK2503/11CW1418SP4_03_CORETEK03AE_11C_V1_GPRS_MMI/Tools/MinGW/include/c++/3.3.1/bits/stl_iterator.h ****     class front_insert_iterator 
 406:d:/MTK/MTK2503/MTK2503/11CW1418SP4_03_CORETEK03AE_11C_V1_GPRS_MMI/Tools/MinGW/include/c++/3.3.1/bits/stl_iterator.h ****     : public iterator<output_iterator_tag, void, void, void, void>
 407:d:/MTK/MTK2503/MTK2503/11CW1418SP4_03_CORETEK03AE_11C_V1_GPRS_MMI/Tools/MinGW/include/c++/3.3.1/bits/stl_iterator.h ****     {
 408:d:/MTK/MTK2503/MTK2503/11CW1418SP4_03_CORETEK03AE_11C_V1_GPRS_MMI/Tools/MinGW/include/c++/3.3.1/bits/stl_iterator.h ****     protected:
 409:d:/MTK/MTK2503/MTK2503/11CW1418SP4_03_CORETEK03AE_11C_V1_GPRS_MMI/Tools/MinGW/include/c++/3.3.1/bits/stl_iterator.h ****       _Container* container;
 410:d:/MTK/MTK2503/MTK2503/11CW1418SP4_03_CORETEK03AE_11C_V1_GPRS_MMI/Tools/MinGW/include/c++/3.3.1/bits/stl_iterator.h **** 
 411:d:/MTK/MTK2503/MTK2503/11CW1418SP4_03_CORETEK03AE_11C_V1_GPRS_MMI/Tools/MinGW/include/c++/3.3.1/bits/stl_iterator.h ****     public:
 412:d:/MTK/MTK2503/MTK2503/11CW1418SP4_03_CORETEK03AE_11C_V1_GPRS_MMI/Tools/MinGW/include/c++/3.3.1/bits/stl_iterator.h ****       /// A nested typedef for the type of whatever container you used.
 413:d:/MTK/MTK2503/MTK2503/11CW1418SP4_03_CORETEK03AE_11C_V1_GPRS_MMI/Tools/MinGW/include/c++/3.3.1/bits/stl_iterator.h ****       typedef _Container          container_type;
GAS LISTING d:/MTK/MTK2503/MTK2503/11CW1418SP4_03_CORETEK03AE_11C_V1_GPRS_MMI/plutommi/Customer/ResGenerator/gcctmp/cc63daaa.s 			page 256


 414:d:/MTK/MTK2503/MTK2503/11CW1418SP4_03_CORETEK03AE_11C_V1_GPRS_MMI/Tools/MinGW/include/c++/3.3.1/bits/stl_iterator.h **** 
 415:d:/MTK/MTK2503/MTK2503/11CW1418SP4_03_CORETEK03AE_11C_V1_GPRS_MMI/Tools/MinGW/include/c++/3.3.1/bits/stl_iterator.h ****       /// The only way to create this %iterator is with a container.
 416:d:/MTK/MTK2503/MTK2503/11CW1418SP4_03_CORETEK03AE_11C_V1_GPRS_MMI/Tools/MinGW/include/c++/3.3.1/bits/stl_iterator.h ****       explicit front_insert_iterator(_Container& __x) : container(&__x) { }
 417:d:/MTK/MTK2503/MTK2503/11CW1418SP4_03_CORETEK03AE_11C_V1_GPRS_MMI/Tools/MinGW/include/c++/3.3.1/bits/stl_iterator.h **** 
 418:d:/MTK/MTK2503/MTK2503/11CW1418SP4_03_CORETEK03AE_11C_V1_GPRS_MMI/Tools/MinGW/include/c++/3.3.1/bits/stl_iterator.h ****       /**
 419:d:/MTK/MTK2503/MTK2503/11CW1418SP4_03_CORETEK03AE_11C_V1_GPRS_MMI/Tools/MinGW/include/c++/3.3.1/bits/stl_iterator.h ****        *  @param  value  An instance of whatever type
 420:d:/MTK/MTK2503/MTK2503/11CW1418SP4_03_CORETEK03AE_11C_V1_GPRS_MMI/Tools/MinGW/include/c++/3.3.1/bits/stl_iterator.h ****        *                 container_type::const_reference is; presumably a
 421:d:/MTK/MTK2503/MTK2503/11CW1418SP4_03_CORETEK03AE_11C_V1_GPRS_MMI/Tools/MinGW/include/c++/3.3.1/bits/stl_iterator.h ****        *                 reference-to-const T for container<T>.
 422:d:/MTK/MTK2503/MTK2503/11CW1418SP4_03_CORETEK03AE_11C_V1_GPRS_MMI/Tools/MinGW/include/c++/3.3.1/bits/stl_iterator.h ****        *  @return  This %iterator, for chained operations.
 423:d:/MTK/MTK2503/MTK2503/11CW1418SP4_03_CORETEK03AE_11C_V1_GPRS_MMI/Tools/MinGW/include/c++/3.3.1/bits/stl_iterator.h ****        *
 424:d:/MTK/MTK2503/MTK2503/11CW1418SP4_03_CORETEK03AE_11C_V1_GPRS_MMI/Tools/MinGW/include/c++/3.3.1/bits/stl_iterator.h ****        *  This kind of %iterator doesn't really have a "position" in the
 425:d:/MTK/MTK2503/MTK2503/11CW1418SP4_03_CORETEK03AE_11C_V1_GPRS_MMI/Tools/MinGW/include/c++/3.3.1/bits/stl_iterator.h ****        *  container (you can think of the position as being permanently at
 426:d:/MTK/MTK2503/MTK2503/11CW1418SP4_03_CORETEK03AE_11C_V1_GPRS_MMI/Tools/MinGW/include/c++/3.3.1/bits/stl_iterator.h ****        *  the front, if you like).  Assigning a value to the %iterator will
 427:d:/MTK/MTK2503/MTK2503/11CW1418SP4_03_CORETEK03AE_11C_V1_GPRS_MMI/Tools/MinGW/include/c++/3.3.1/bits/stl_iterator.h ****        *  always prepend the value to the front of the container.
 428:d:/MTK/MTK2503/MTK2503/11CW1418SP4_03_CORETEK03AE_11C_V1_GPRS_MMI/Tools/MinGW/include/c++/3.3.1/bits/stl_iterator.h ****       */
 429:d:/MTK/MTK2503/MTK2503/11CW1418SP4_03_CORETEK03AE_11C_V1_GPRS_MMI/Tools/MinGW/include/c++/3.3.1/bits/stl_iterator.h ****       front_insert_iterator&
 430:d:/MTK/MTK2503/MTK2503/11CW1418SP4_03_CORETEK03AE_11C_V1_GPRS_MMI/Tools/MinGW/include/c++/3.3.1/bits/stl_iterator.h ****       operator=(typename _Container::const_reference __value) 
 431:d:/MTK/MTK2503/MTK2503/11CW1418SP4_03_CORETEK03AE_11C_V1_GPRS_MMI/Tools/MinGW/include/c++/3.3.1/bits/stl_iterator.h ****       { 
 432:d:/MTK/MTK2503/MTK2503/11CW1418SP4_03_CORETEK03AE_11C_V1_GPRS_MMI/Tools/MinGW/include/c++/3.3.1/bits/stl_iterator.h **** 	container->push_front(__value);
 433:d:/MTK/MTK2503/MTK2503/11CW1418SP4_03_CORETEK03AE_11C_V1_GPRS_MMI/Tools/MinGW/include/c++/3.3.1/bits/stl_iterator.h **** 	return *this;
 434:d:/MTK/MTK2503/MTK2503/11CW1418SP4_03_CORETEK03AE_11C_V1_GPRS_MMI/Tools/MinGW/include/c++/3.3.1/bits/stl_iterator.h ****       }
 435:d:/MTK/MTK2503/MTK2503/11CW1418SP4_03_CORETEK03AE_11C_V1_GPRS_MMI/Tools/MinGW/include/c++/3.3.1/bits/stl_iterator.h **** 
 436:d:/MTK/MTK2503/MTK2503/11CW1418SP4_03_CORETEK03AE_11C_V1_GPRS_MMI/Tools/MinGW/include/c++/3.3.1/bits/stl_iterator.h ****       /// Simply returns *this.
 437:d:/MTK/MTK2503/MTK2503/11CW1418SP4_03_CORETEK03AE_11C_V1_GPRS_MMI/Tools/MinGW/include/c++/3.3.1/bits/stl_iterator.h ****       front_insert_iterator& 
 438:d:/MTK/MTK2503/MTK2503/11CW1418SP4_03_CORETEK03AE_11C_V1_GPRS_MMI/Tools/MinGW/include/c++/3.3.1/bits/stl_iterator.h ****       operator*() { return *this; }
 439:d:/MTK/MTK2503/MTK2503/11CW1418SP4_03_CORETEK03AE_11C_V1_GPRS_MMI/Tools/MinGW/include/c++/3.3.1/bits/stl_iterator.h **** 
 440:d:/MTK/MTK2503/MTK2503/11CW1418SP4_03_CORETEK03AE_11C_V1_GPRS_MMI/Tools/MinGW/include/c++/3.3.1/bits/stl_iterator.h ****       /// Simply returns *this.  (This %iterator does not "move".)
 441:d:/MTK/MTK2503/MTK2503/11CW1418SP4_03_CORETEK03AE_11C_V1_GPRS_MMI/Tools/MinGW/include/c++/3.3.1/bits/stl_iterator.h ****       front_insert_iterator& 
 442:d:/MTK/MTK2503/MTK2503/11CW1418SP4_03_CORETEK03AE_11C_V1_GPRS_MMI/Tools/MinGW/include/c++/3.3.1/bits/stl_iterator.h ****       operator++() { return *this; }
 443:d:/MTK/MTK2503/MTK2503/11CW1418SP4_03_CORETEK03AE_11C_V1_GPRS_MMI/Tools/MinGW/include/c++/3.3.1/bits/stl_iterator.h **** 
 444:d:/MTK/MTK2503/MTK2503/11CW1418SP4_03_CORETEK03AE_11C_V1_GPRS_MMI/Tools/MinGW/include/c++/3.3.1/bits/stl_iterator.h ****       /// Simply returns *this.  (This %iterator does not "move".)
 445:d:/MTK/MTK2503/MTK2503/11CW1418SP4_03_CORETEK03AE_11C_V1_GPRS_MMI/Tools/MinGW/include/c++/3.3.1/bits/stl_iterator.h ****       front_insert_iterator 
 446:d:/MTK/MTK2503/MTK2503/11CW1418SP4_03_CORETEK03AE_11C_V1_GPRS_MMI/Tools/MinGW/include/c++/3.3.1/bits/stl_iterator.h ****       operator++(int) { return *this; }
 447:d:/MTK/MTK2503/MTK2503/11CW1418SP4_03_CORETEK03AE_11C_V1_GPRS_MMI/Tools/MinGW/include/c++/3.3.1/bits/stl_iterator.h ****     };
 448:d:/MTK/MTK2503/MTK2503/11CW1418SP4_03_CORETEK03AE_11C_V1_GPRS_MMI/Tools/MinGW/include/c++/3.3.1/bits/stl_iterator.h **** 
 449:d:/MTK/MTK2503/MTK2503/11CW1418SP4_03_CORETEK03AE_11C_V1_GPRS_MMI/Tools/MinGW/include/c++/3.3.1/bits/stl_iterator.h ****   /**
 450:d:/MTK/MTK2503/MTK2503/11CW1418SP4_03_CORETEK03AE_11C_V1_GPRS_MMI/Tools/MinGW/include/c++/3.3.1/bits/stl_iterator.h ****    *  @param  x  A container of arbitrary type.
 451:d:/MTK/MTK2503/MTK2503/11CW1418SP4_03_CORETEK03AE_11C_V1_GPRS_MMI/Tools/MinGW/include/c++/3.3.1/bits/stl_iterator.h ****    *  @return  An instance of front_insert_iterator working on @p x.
 452:d:/MTK/MTK2503/MTK2503/11CW1418SP4_03_CORETEK03AE_11C_V1_GPRS_MMI/Tools/MinGW/include/c++/3.3.1/bits/stl_iterator.h ****    *
 453:d:/MTK/MTK2503/MTK2503/11CW1418SP4_03_CORETEK03AE_11C_V1_GPRS_MMI/Tools/MinGW/include/c++/3.3.1/bits/stl_iterator.h ****    *  This wrapper function helps in creating front_insert_iterator instances.
 454:d:/MTK/MTK2503/MTK2503/11CW1418SP4_03_CORETEK03AE_11C_V1_GPRS_MMI/Tools/MinGW/include/c++/3.3.1/bits/stl_iterator.h ****    *  Typing the name of the %iterator requires knowing the precise full
 455:d:/MTK/MTK2503/MTK2503/11CW1418SP4_03_CORETEK03AE_11C_V1_GPRS_MMI/Tools/MinGW/include/c++/3.3.1/bits/stl_iterator.h ****    *  type of the container, which can be tedious and impedes generic
 456:d:/MTK/MTK2503/MTK2503/11CW1418SP4_03_CORETEK03AE_11C_V1_GPRS_MMI/Tools/MinGW/include/c++/3.3.1/bits/stl_iterator.h ****    *  programming.  Using this function lets you take advantage of automatic
 457:d:/MTK/MTK2503/MTK2503/11CW1418SP4_03_CORETEK03AE_11C_V1_GPRS_MMI/Tools/MinGW/include/c++/3.3.1/bits/stl_iterator.h ****    *  template parameter deduction, making the compiler match the correct
 458:d:/MTK/MTK2503/MTK2503/11CW1418SP4_03_CORETEK03AE_11C_V1_GPRS_MMI/Tools/MinGW/include/c++/3.3.1/bits/stl_iterator.h ****    *  types for you.
 459:d:/MTK/MTK2503/MTK2503/11CW1418SP4_03_CORETEK03AE_11C_V1_GPRS_MMI/Tools/MinGW/include/c++/3.3.1/bits/stl_iterator.h ****   */
 460:d:/MTK/MTK2503/MTK2503/11CW1418SP4_03_CORETEK03AE_11C_V1_GPRS_MMI/Tools/MinGW/include/c++/3.3.1/bits/stl_iterator.h ****   template<typename _Container>
 461:d:/MTK/MTK2503/MTK2503/11CW1418SP4_03_CORETEK03AE_11C_V1_GPRS_MMI/Tools/MinGW/include/c++/3.3.1/bits/stl_iterator.h ****     inline front_insert_iterator<_Container> 
 462:d:/MTK/MTK2503/MTK2503/11CW1418SP4_03_CORETEK03AE_11C_V1_GPRS_MMI/Tools/MinGW/include/c++/3.3.1/bits/stl_iterator.h ****     front_inserter(_Container& __x) 
 463:d:/MTK/MTK2503/MTK2503/11CW1418SP4_03_CORETEK03AE_11C_V1_GPRS_MMI/Tools/MinGW/include/c++/3.3.1/bits/stl_iterator.h ****     { return front_insert_iterator<_Container>(__x); }
 464:d:/MTK/MTK2503/MTK2503/11CW1418SP4_03_CORETEK03AE_11C_V1_GPRS_MMI/Tools/MinGW/include/c++/3.3.1/bits/stl_iterator.h **** 
 465:d:/MTK/MTK2503/MTK2503/11CW1418SP4_03_CORETEK03AE_11C_V1_GPRS_MMI/Tools/MinGW/include/c++/3.3.1/bits/stl_iterator.h ****   /**
 466:d:/MTK/MTK2503/MTK2503/11CW1418SP4_03_CORETEK03AE_11C_V1_GPRS_MMI/Tools/MinGW/include/c++/3.3.1/bits/stl_iterator.h ****    *  @brief  Turns assignment into insertion.
 467:d:/MTK/MTK2503/MTK2503/11CW1418SP4_03_CORETEK03AE_11C_V1_GPRS_MMI/Tools/MinGW/include/c++/3.3.1/bits/stl_iterator.h ****    *
 468:d:/MTK/MTK2503/MTK2503/11CW1418SP4_03_CORETEK03AE_11C_V1_GPRS_MMI/Tools/MinGW/include/c++/3.3.1/bits/stl_iterator.h ****    *  These are output iterators, constructed from a container-of-T.
 469:d:/MTK/MTK2503/MTK2503/11CW1418SP4_03_CORETEK03AE_11C_V1_GPRS_MMI/Tools/MinGW/include/c++/3.3.1/bits/stl_iterator.h ****    *  Assigning a T to the iterator inserts it in the container at the
 470:d:/MTK/MTK2503/MTK2503/11CW1418SP4_03_CORETEK03AE_11C_V1_GPRS_MMI/Tools/MinGW/include/c++/3.3.1/bits/stl_iterator.h ****    *  %iterator's position, rather than overwriting the value at that
GAS LISTING d:/MTK/MTK2503/MTK2503/11CW1418SP4_03_CORETEK03AE_11C_V1_GPRS_MMI/plutommi/Customer/ResGenerator/gcctmp/cc63daaa.s 			page 257


 471:d:/MTK/MTK2503/MTK2503/11CW1418SP4_03_CORETEK03AE_11C_V1_GPRS_MMI/Tools/MinGW/include/c++/3.3.1/bits/stl_iterator.h ****    *  position.
 472:d:/MTK/MTK2503/MTK2503/11CW1418SP4_03_CORETEK03AE_11C_V1_GPRS_MMI/Tools/MinGW/include/c++/3.3.1/bits/stl_iterator.h ****    *
 473:d:/MTK/MTK2503/MTK2503/11CW1418SP4_03_CORETEK03AE_11C_V1_GPRS_MMI/Tools/MinGW/include/c++/3.3.1/bits/stl_iterator.h ****    *  (Sequences will actually insert a @e copy of the value before the
 474:d:/MTK/MTK2503/MTK2503/11CW1418SP4_03_CORETEK03AE_11C_V1_GPRS_MMI/Tools/MinGW/include/c++/3.3.1/bits/stl_iterator.h ****    *  %iterator's position.)
 475:d:/MTK/MTK2503/MTK2503/11CW1418SP4_03_CORETEK03AE_11C_V1_GPRS_MMI/Tools/MinGW/include/c++/3.3.1/bits/stl_iterator.h ****    *
 476:d:/MTK/MTK2503/MTK2503/11CW1418SP4_03_CORETEK03AE_11C_V1_GPRS_MMI/Tools/MinGW/include/c++/3.3.1/bits/stl_iterator.h ****    *  Tip:  Using the inserter function to create these iterators can
 477:d:/MTK/MTK2503/MTK2503/11CW1418SP4_03_CORETEK03AE_11C_V1_GPRS_MMI/Tools/MinGW/include/c++/3.3.1/bits/stl_iterator.h ****    *  save typing.
 478:d:/MTK/MTK2503/MTK2503/11CW1418SP4_03_CORETEK03AE_11C_V1_GPRS_MMI/Tools/MinGW/include/c++/3.3.1/bits/stl_iterator.h ****   */
 479:d:/MTK/MTK2503/MTK2503/11CW1418SP4_03_CORETEK03AE_11C_V1_GPRS_MMI/Tools/MinGW/include/c++/3.3.1/bits/stl_iterator.h ****   template<typename _Container>
 480:d:/MTK/MTK2503/MTK2503/11CW1418SP4_03_CORETEK03AE_11C_V1_GPRS_MMI/Tools/MinGW/include/c++/3.3.1/bits/stl_iterator.h ****     class insert_iterator 
 481:d:/MTK/MTK2503/MTK2503/11CW1418SP4_03_CORETEK03AE_11C_V1_GPRS_MMI/Tools/MinGW/include/c++/3.3.1/bits/stl_iterator.h ****     : public iterator<output_iterator_tag, void, void, void, void>
 482:d:/MTK/MTK2503/MTK2503/11CW1418SP4_03_CORETEK03AE_11C_V1_GPRS_MMI/Tools/MinGW/include/c++/3.3.1/bits/stl_iterator.h ****     {
 483:d:/MTK/MTK2503/MTK2503/11CW1418SP4_03_CORETEK03AE_11C_V1_GPRS_MMI/Tools/MinGW/include/c++/3.3.1/bits/stl_iterator.h ****     protected:
 484:d:/MTK/MTK2503/MTK2503/11CW1418SP4_03_CORETEK03AE_11C_V1_GPRS_MMI/Tools/MinGW/include/c++/3.3.1/bits/stl_iterator.h ****       _Container* container;
 485:d:/MTK/MTK2503/MTK2503/11CW1418SP4_03_CORETEK03AE_11C_V1_GPRS_MMI/Tools/MinGW/include/c++/3.3.1/bits/stl_iterator.h ****       typename _Container::iterator iter;
 486:d:/MTK/MTK2503/MTK2503/11CW1418SP4_03_CORETEK03AE_11C_V1_GPRS_MMI/Tools/MinGW/include/c++/3.3.1/bits/stl_iterator.h **** 
 487:d:/MTK/MTK2503/MTK2503/11CW1418SP4_03_CORETEK03AE_11C_V1_GPRS_MMI/Tools/MinGW/include/c++/3.3.1/bits/stl_iterator.h ****     public:
 488:d:/MTK/MTK2503/MTK2503/11CW1418SP4_03_CORETEK03AE_11C_V1_GPRS_MMI/Tools/MinGW/include/c++/3.3.1/bits/stl_iterator.h ****       /// A nested typedef for the type of whatever container you used.
 489:d:/MTK/MTK2503/MTK2503/11CW1418SP4_03_CORETEK03AE_11C_V1_GPRS_MMI/Tools/MinGW/include/c++/3.3.1/bits/stl_iterator.h ****       typedef _Container          container_type;
 490:d:/MTK/MTK2503/MTK2503/11CW1418SP4_03_CORETEK03AE_11C_V1_GPRS_MMI/Tools/MinGW/include/c++/3.3.1/bits/stl_iterator.h ****       
 491:d:/MTK/MTK2503/MTK2503/11CW1418SP4_03_CORETEK03AE_11C_V1_GPRS_MMI/Tools/MinGW/include/c++/3.3.1/bits/stl_iterator.h ****       /**
 492:d:/MTK/MTK2503/MTK2503/11CW1418SP4_03_CORETEK03AE_11C_V1_GPRS_MMI/Tools/MinGW/include/c++/3.3.1/bits/stl_iterator.h ****        *  The only way to create this %iterator is with a container and an
 493:d:/MTK/MTK2503/MTK2503/11CW1418SP4_03_CORETEK03AE_11C_V1_GPRS_MMI/Tools/MinGW/include/c++/3.3.1/bits/stl_iterator.h ****        *  initial position (a normal %iterator into the container).
 494:d:/MTK/MTK2503/MTK2503/11CW1418SP4_03_CORETEK03AE_11C_V1_GPRS_MMI/Tools/MinGW/include/c++/3.3.1/bits/stl_iterator.h ****       */
 495:d:/MTK/MTK2503/MTK2503/11CW1418SP4_03_CORETEK03AE_11C_V1_GPRS_MMI/Tools/MinGW/include/c++/3.3.1/bits/stl_iterator.h ****       insert_iterator(_Container& __x, typename _Container::iterator __i) 
 496:d:/MTK/MTK2503/MTK2503/11CW1418SP4_03_CORETEK03AE_11C_V1_GPRS_MMI/Tools/MinGW/include/c++/3.3.1/bits/stl_iterator.h ****       : container(&__x), iter(__i) {}
 497:d:/MTK/MTK2503/MTK2503/11CW1418SP4_03_CORETEK03AE_11C_V1_GPRS_MMI/Tools/MinGW/include/c++/3.3.1/bits/stl_iterator.h ****    
 498:d:/MTK/MTK2503/MTK2503/11CW1418SP4_03_CORETEK03AE_11C_V1_GPRS_MMI/Tools/MinGW/include/c++/3.3.1/bits/stl_iterator.h ****       /**
 499:d:/MTK/MTK2503/MTK2503/11CW1418SP4_03_CORETEK03AE_11C_V1_GPRS_MMI/Tools/MinGW/include/c++/3.3.1/bits/stl_iterator.h ****        *  @param  value  An instance of whatever type
 500:d:/MTK/MTK2503/MTK2503/11CW1418SP4_03_CORETEK03AE_11C_V1_GPRS_MMI/Tools/MinGW/include/c++/3.3.1/bits/stl_iterator.h ****        *                 container_type::const_reference is; presumably a
 501:d:/MTK/MTK2503/MTK2503/11CW1418SP4_03_CORETEK03AE_11C_V1_GPRS_MMI/Tools/MinGW/include/c++/3.3.1/bits/stl_iterator.h ****        *                 reference-to-const T for container<T>.
 502:d:/MTK/MTK2503/MTK2503/11CW1418SP4_03_CORETEK03AE_11C_V1_GPRS_MMI/Tools/MinGW/include/c++/3.3.1/bits/stl_iterator.h ****        *  @return  This %iterator, for chained operations.
 503:d:/MTK/MTK2503/MTK2503/11CW1418SP4_03_CORETEK03AE_11C_V1_GPRS_MMI/Tools/MinGW/include/c++/3.3.1/bits/stl_iterator.h ****        *
 504:d:/MTK/MTK2503/MTK2503/11CW1418SP4_03_CORETEK03AE_11C_V1_GPRS_MMI/Tools/MinGW/include/c++/3.3.1/bits/stl_iterator.h ****        *  This kind of %iterator maintains its own position in the
 505:d:/MTK/MTK2503/MTK2503/11CW1418SP4_03_CORETEK03AE_11C_V1_GPRS_MMI/Tools/MinGW/include/c++/3.3.1/bits/stl_iterator.h ****        *  container.  Assigning a value to the %iterator will insert the
 506:d:/MTK/MTK2503/MTK2503/11CW1418SP4_03_CORETEK03AE_11C_V1_GPRS_MMI/Tools/MinGW/include/c++/3.3.1/bits/stl_iterator.h ****        *  value into the container at the place before the %iterator.
 507:d:/MTK/MTK2503/MTK2503/11CW1418SP4_03_CORETEK03AE_11C_V1_GPRS_MMI/Tools/MinGW/include/c++/3.3.1/bits/stl_iterator.h ****        *
 508:d:/MTK/MTK2503/MTK2503/11CW1418SP4_03_CORETEK03AE_11C_V1_GPRS_MMI/Tools/MinGW/include/c++/3.3.1/bits/stl_iterator.h ****        *  The position is maintained such that subsequent assignments will
 509:d:/MTK/MTK2503/MTK2503/11CW1418SP4_03_CORETEK03AE_11C_V1_GPRS_MMI/Tools/MinGW/include/c++/3.3.1/bits/stl_iterator.h ****        *  insert values immediately after one another.  For example,
 510:d:/MTK/MTK2503/MTK2503/11CW1418SP4_03_CORETEK03AE_11C_V1_GPRS_MMI/Tools/MinGW/include/c++/3.3.1/bits/stl_iterator.h ****        *  @code
 511:d:/MTK/MTK2503/MTK2503/11CW1418SP4_03_CORETEK03AE_11C_V1_GPRS_MMI/Tools/MinGW/include/c++/3.3.1/bits/stl_iterator.h ****        *     // vector v contains A and Z
 512:d:/MTK/MTK2503/MTK2503/11CW1418SP4_03_CORETEK03AE_11C_V1_GPRS_MMI/Tools/MinGW/include/c++/3.3.1/bits/stl_iterator.h ****        *
 513:d:/MTK/MTK2503/MTK2503/11CW1418SP4_03_CORETEK03AE_11C_V1_GPRS_MMI/Tools/MinGW/include/c++/3.3.1/bits/stl_iterator.h ****        *     insert_iterator i (v, ++v.begin());
 514:d:/MTK/MTK2503/MTK2503/11CW1418SP4_03_CORETEK03AE_11C_V1_GPRS_MMI/Tools/MinGW/include/c++/3.3.1/bits/stl_iterator.h ****        *     i = 1;
 515:d:/MTK/MTK2503/MTK2503/11CW1418SP4_03_CORETEK03AE_11C_V1_GPRS_MMI/Tools/MinGW/include/c++/3.3.1/bits/stl_iterator.h ****        *     i = 2;
 516:d:/MTK/MTK2503/MTK2503/11CW1418SP4_03_CORETEK03AE_11C_V1_GPRS_MMI/Tools/MinGW/include/c++/3.3.1/bits/stl_iterator.h ****        *     i = 3;
 517:d:/MTK/MTK2503/MTK2503/11CW1418SP4_03_CORETEK03AE_11C_V1_GPRS_MMI/Tools/MinGW/include/c++/3.3.1/bits/stl_iterator.h ****        *
 518:d:/MTK/MTK2503/MTK2503/11CW1418SP4_03_CORETEK03AE_11C_V1_GPRS_MMI/Tools/MinGW/include/c++/3.3.1/bits/stl_iterator.h ****        *     // vector v contains A, 1, 2, 3, and Z
 519:d:/MTK/MTK2503/MTK2503/11CW1418SP4_03_CORETEK03AE_11C_V1_GPRS_MMI/Tools/MinGW/include/c++/3.3.1/bits/stl_iterator.h ****        *  @endcode
 520:d:/MTK/MTK2503/MTK2503/11CW1418SP4_03_CORETEK03AE_11C_V1_GPRS_MMI/Tools/MinGW/include/c++/3.3.1/bits/stl_iterator.h ****       */
 521:d:/MTK/MTK2503/MTK2503/11CW1418SP4_03_CORETEK03AE_11C_V1_GPRS_MMI/Tools/MinGW/include/c++/3.3.1/bits/stl_iterator.h ****       insert_iterator&
 522:d:/MTK/MTK2503/MTK2503/11CW1418SP4_03_CORETEK03AE_11C_V1_GPRS_MMI/Tools/MinGW/include/c++/3.3.1/bits/stl_iterator.h ****       operator=(const typename _Container::const_reference __value) 
 523:d:/MTK/MTK2503/MTK2503/11CW1418SP4_03_CORETEK03AE_11C_V1_GPRS_MMI/Tools/MinGW/include/c++/3.3.1/bits/stl_iterator.h ****       { 
 524:d:/MTK/MTK2503/MTK2503/11CW1418SP4_03_CORETEK03AE_11C_V1_GPRS_MMI/Tools/MinGW/include/c++/3.3.1/bits/stl_iterator.h **** 	iter = container->insert(iter, __value);
 525:d:/MTK/MTK2503/MTK2503/11CW1418SP4_03_CORETEK03AE_11C_V1_GPRS_MMI/Tools/MinGW/include/c++/3.3.1/bits/stl_iterator.h **** 	++iter;
 526:d:/MTK/MTK2503/MTK2503/11CW1418SP4_03_CORETEK03AE_11C_V1_GPRS_MMI/Tools/MinGW/include/c++/3.3.1/bits/stl_iterator.h **** 	return *this;
 527:d:/MTK/MTK2503/MTK2503/11CW1418SP4_03_CORETEK03AE_11C_V1_GPRS_MMI/Tools/MinGW/include/c++/3.3.1/bits/stl_iterator.h ****       }
GAS LISTING d:/MTK/MTK2503/MTK2503/11CW1418SP4_03_CORETEK03AE_11C_V1_GPRS_MMI/plutommi/Customer/ResGenerator/gcctmp/cc63daaa.s 			page 258


 528:d:/MTK/MTK2503/MTK2503/11CW1418SP4_03_CORETEK03AE_11C_V1_GPRS_MMI/Tools/MinGW/include/c++/3.3.1/bits/stl_iterator.h **** 
 529:d:/MTK/MTK2503/MTK2503/11CW1418SP4_03_CORETEK03AE_11C_V1_GPRS_MMI/Tools/MinGW/include/c++/3.3.1/bits/stl_iterator.h ****       /// Simply returns *this.
 530:d:/MTK/MTK2503/MTK2503/11CW1418SP4_03_CORETEK03AE_11C_V1_GPRS_MMI/Tools/MinGW/include/c++/3.3.1/bits/stl_iterator.h ****       insert_iterator& 
 531:d:/MTK/MTK2503/MTK2503/11CW1418SP4_03_CORETEK03AE_11C_V1_GPRS_MMI/Tools/MinGW/include/c++/3.3.1/bits/stl_iterator.h ****       operator*() { return *this; }
 532:d:/MTK/MTK2503/MTK2503/11CW1418SP4_03_CORETEK03AE_11C_V1_GPRS_MMI/Tools/MinGW/include/c++/3.3.1/bits/stl_iterator.h **** 
 533:d:/MTK/MTK2503/MTK2503/11CW1418SP4_03_CORETEK03AE_11C_V1_GPRS_MMI/Tools/MinGW/include/c++/3.3.1/bits/stl_iterator.h ****       /// Simply returns *this.  (This %iterator does not "move".)
 534:d:/MTK/MTK2503/MTK2503/11CW1418SP4_03_CORETEK03AE_11C_V1_GPRS_MMI/Tools/MinGW/include/c++/3.3.1/bits/stl_iterator.h ****       insert_iterator& 
 535:d:/MTK/MTK2503/MTK2503/11CW1418SP4_03_CORETEK03AE_11C_V1_GPRS_MMI/Tools/MinGW/include/c++/3.3.1/bits/stl_iterator.h ****       operator++() { return *this; }
 536:d:/MTK/MTK2503/MTK2503/11CW1418SP4_03_CORETEK03AE_11C_V1_GPRS_MMI/Tools/MinGW/include/c++/3.3.1/bits/stl_iterator.h **** 
 537:d:/MTK/MTK2503/MTK2503/11CW1418SP4_03_CORETEK03AE_11C_V1_GPRS_MMI/Tools/MinGW/include/c++/3.3.1/bits/stl_iterator.h ****       /// Simply returns *this.  (This %iterator does not "move".)
 538:d:/MTK/MTK2503/MTK2503/11CW1418SP4_03_CORETEK03AE_11C_V1_GPRS_MMI/Tools/MinGW/include/c++/3.3.1/bits/stl_iterator.h ****       insert_iterator& 
 539:d:/MTK/MTK2503/MTK2503/11CW1418SP4_03_CORETEK03AE_11C_V1_GPRS_MMI/Tools/MinGW/include/c++/3.3.1/bits/stl_iterator.h ****       operator++(int) { return *this; }
 540:d:/MTK/MTK2503/MTK2503/11CW1418SP4_03_CORETEK03AE_11C_V1_GPRS_MMI/Tools/MinGW/include/c++/3.3.1/bits/stl_iterator.h ****     };
 541:d:/MTK/MTK2503/MTK2503/11CW1418SP4_03_CORETEK03AE_11C_V1_GPRS_MMI/Tools/MinGW/include/c++/3.3.1/bits/stl_iterator.h ****   
 542:d:/MTK/MTK2503/MTK2503/11CW1418SP4_03_CORETEK03AE_11C_V1_GPRS_MMI/Tools/MinGW/include/c++/3.3.1/bits/stl_iterator.h ****   /**
 543:d:/MTK/MTK2503/MTK2503/11CW1418SP4_03_CORETEK03AE_11C_V1_GPRS_MMI/Tools/MinGW/include/c++/3.3.1/bits/stl_iterator.h ****    *  @param  x  A container of arbitrary type.
 544:d:/MTK/MTK2503/MTK2503/11CW1418SP4_03_CORETEK03AE_11C_V1_GPRS_MMI/Tools/MinGW/include/c++/3.3.1/bits/stl_iterator.h ****    *  @return  An instance of insert_iterator working on @p x.
 545:d:/MTK/MTK2503/MTK2503/11CW1418SP4_03_CORETEK03AE_11C_V1_GPRS_MMI/Tools/MinGW/include/c++/3.3.1/bits/stl_iterator.h ****    *
 546:d:/MTK/MTK2503/MTK2503/11CW1418SP4_03_CORETEK03AE_11C_V1_GPRS_MMI/Tools/MinGW/include/c++/3.3.1/bits/stl_iterator.h ****    *  This wrapper function helps in creating insert_iterator instances.
 547:d:/MTK/MTK2503/MTK2503/11CW1418SP4_03_CORETEK03AE_11C_V1_GPRS_MMI/Tools/MinGW/include/c++/3.3.1/bits/stl_iterator.h ****    *  Typing the name of the %iterator requires knowing the precise full
 548:d:/MTK/MTK2503/MTK2503/11CW1418SP4_03_CORETEK03AE_11C_V1_GPRS_MMI/Tools/MinGW/include/c++/3.3.1/bits/stl_iterator.h ****    *  type of the container, which can be tedious and impedes generic
 549:d:/MTK/MTK2503/MTK2503/11CW1418SP4_03_CORETEK03AE_11C_V1_GPRS_MMI/Tools/MinGW/include/c++/3.3.1/bits/stl_iterator.h ****    *  programming.  Using this function lets you take advantage of automatic
 550:d:/MTK/MTK2503/MTK2503/11CW1418SP4_03_CORETEK03AE_11C_V1_GPRS_MMI/Tools/MinGW/include/c++/3.3.1/bits/stl_iterator.h ****    *  template parameter deduction, making the compiler match the correct
 551:d:/MTK/MTK2503/MTK2503/11CW1418SP4_03_CORETEK03AE_11C_V1_GPRS_MMI/Tools/MinGW/include/c++/3.3.1/bits/stl_iterator.h ****    *  types for you.
 552:d:/MTK/MTK2503/MTK2503/11CW1418SP4_03_CORETEK03AE_11C_V1_GPRS_MMI/Tools/MinGW/include/c++/3.3.1/bits/stl_iterator.h ****   */
 553:d:/MTK/MTK2503/MTK2503/11CW1418SP4_03_CORETEK03AE_11C_V1_GPRS_MMI/Tools/MinGW/include/c++/3.3.1/bits/stl_iterator.h ****   template<typename _Container, typename _Iterator>
 554:d:/MTK/MTK2503/MTK2503/11CW1418SP4_03_CORETEK03AE_11C_V1_GPRS_MMI/Tools/MinGW/include/c++/3.3.1/bits/stl_iterator.h ****     inline insert_iterator<_Container> 
 555:d:/MTK/MTK2503/MTK2503/11CW1418SP4_03_CORETEK03AE_11C_V1_GPRS_MMI/Tools/MinGW/include/c++/3.3.1/bits/stl_iterator.h ****     inserter(_Container& __x, _Iterator __i)
 556:d:/MTK/MTK2503/MTK2503/11CW1418SP4_03_CORETEK03AE_11C_V1_GPRS_MMI/Tools/MinGW/include/c++/3.3.1/bits/stl_iterator.h ****     {
 557:d:/MTK/MTK2503/MTK2503/11CW1418SP4_03_CORETEK03AE_11C_V1_GPRS_MMI/Tools/MinGW/include/c++/3.3.1/bits/stl_iterator.h ****       return insert_iterator<_Container>(__x, 
 558:d:/MTK/MTK2503/MTK2503/11CW1418SP4_03_CORETEK03AE_11C_V1_GPRS_MMI/Tools/MinGW/include/c++/3.3.1/bits/stl_iterator.h **** 					 typename _Container::iterator(__i));
 559:d:/MTK/MTK2503/MTK2503/11CW1418SP4_03_CORETEK03AE_11C_V1_GPRS_MMI/Tools/MinGW/include/c++/3.3.1/bits/stl_iterator.h ****     }
 560:d:/MTK/MTK2503/MTK2503/11CW1418SP4_03_CORETEK03AE_11C_V1_GPRS_MMI/Tools/MinGW/include/c++/3.3.1/bits/stl_iterator.h **** } // namespace std
 561:d:/MTK/MTK2503/MTK2503/11CW1418SP4_03_CORETEK03AE_11C_V1_GPRS_MMI/Tools/MinGW/include/c++/3.3.1/bits/stl_iterator.h **** 
 562:d:/MTK/MTK2503/MTK2503/11CW1418SP4_03_CORETEK03AE_11C_V1_GPRS_MMI/Tools/MinGW/include/c++/3.3.1/bits/stl_iterator.h **** namespace __gnu_cxx
 563:d:/MTK/MTK2503/MTK2503/11CW1418SP4_03_CORETEK03AE_11C_V1_GPRS_MMI/Tools/MinGW/include/c++/3.3.1/bits/stl_iterator.h **** {  
 564:d:/MTK/MTK2503/MTK2503/11CW1418SP4_03_CORETEK03AE_11C_V1_GPRS_MMI/Tools/MinGW/include/c++/3.3.1/bits/stl_iterator.h ****   // This iterator adapter is 'normal' in the sense that it does not
 565:d:/MTK/MTK2503/MTK2503/11CW1418SP4_03_CORETEK03AE_11C_V1_GPRS_MMI/Tools/MinGW/include/c++/3.3.1/bits/stl_iterator.h ****   // change the semantics of any of the operators of its iterator
 566:d:/MTK/MTK2503/MTK2503/11CW1418SP4_03_CORETEK03AE_11C_V1_GPRS_MMI/Tools/MinGW/include/c++/3.3.1/bits/stl_iterator.h ****   // parameter.  Its primary purpose is to convert an iterator that is
 567:d:/MTK/MTK2503/MTK2503/11CW1418SP4_03_CORETEK03AE_11C_V1_GPRS_MMI/Tools/MinGW/include/c++/3.3.1/bits/stl_iterator.h ****   // not a class, e.g. a pointer, into an iterator that is a class.
 568:d:/MTK/MTK2503/MTK2503/11CW1418SP4_03_CORETEK03AE_11C_V1_GPRS_MMI/Tools/MinGW/include/c++/3.3.1/bits/stl_iterator.h ****   // The _Container parameter exists solely so that different containers
 569:d:/MTK/MTK2503/MTK2503/11CW1418SP4_03_CORETEK03AE_11C_V1_GPRS_MMI/Tools/MinGW/include/c++/3.3.1/bits/stl_iterator.h ****   // using this template can instantiate different types, even if the
 570:d:/MTK/MTK2503/MTK2503/11CW1418SP4_03_CORETEK03AE_11C_V1_GPRS_MMI/Tools/MinGW/include/c++/3.3.1/bits/stl_iterator.h ****   // _Iterator parameter is the same.
 571:d:/MTK/MTK2503/MTK2503/11CW1418SP4_03_CORETEK03AE_11C_V1_GPRS_MMI/Tools/MinGW/include/c++/3.3.1/bits/stl_iterator.h ****   using std::iterator_traits;
 572:d:/MTK/MTK2503/MTK2503/11CW1418SP4_03_CORETEK03AE_11C_V1_GPRS_MMI/Tools/MinGW/include/c++/3.3.1/bits/stl_iterator.h ****   using std::iterator;
 573:d:/MTK/MTK2503/MTK2503/11CW1418SP4_03_CORETEK03AE_11C_V1_GPRS_MMI/Tools/MinGW/include/c++/3.3.1/bits/stl_iterator.h ****   template<typename _Iterator, typename _Container>
 574:d:/MTK/MTK2503/MTK2503/11CW1418SP4_03_CORETEK03AE_11C_V1_GPRS_MMI/Tools/MinGW/include/c++/3.3.1/bits/stl_iterator.h ****     class __normal_iterator
 575:d:/MTK/MTK2503/MTK2503/11CW1418SP4_03_CORETEK03AE_11C_V1_GPRS_MMI/Tools/MinGW/include/c++/3.3.1/bits/stl_iterator.h ****       : public iterator<typename iterator_traits<_Iterator>::iterator_category,
 576:d:/MTK/MTK2503/MTK2503/11CW1418SP4_03_CORETEK03AE_11C_V1_GPRS_MMI/Tools/MinGW/include/c++/3.3.1/bits/stl_iterator.h ****                         typename iterator_traits<_Iterator>::value_type,
 577:d:/MTK/MTK2503/MTK2503/11CW1418SP4_03_CORETEK03AE_11C_V1_GPRS_MMI/Tools/MinGW/include/c++/3.3.1/bits/stl_iterator.h ****                         typename iterator_traits<_Iterator>::difference_type,
 578:d:/MTK/MTK2503/MTK2503/11CW1418SP4_03_CORETEK03AE_11C_V1_GPRS_MMI/Tools/MinGW/include/c++/3.3.1/bits/stl_iterator.h ****                         typename iterator_traits<_Iterator>::pointer,
 579:d:/MTK/MTK2503/MTK2503/11CW1418SP4_03_CORETEK03AE_11C_V1_GPRS_MMI/Tools/MinGW/include/c++/3.3.1/bits/stl_iterator.h ****                         typename iterator_traits<_Iterator>::reference>
 580:d:/MTK/MTK2503/MTK2503/11CW1418SP4_03_CORETEK03AE_11C_V1_GPRS_MMI/Tools/MinGW/include/c++/3.3.1/bits/stl_iterator.h ****     {
 581:d:/MTK/MTK2503/MTK2503/11CW1418SP4_03_CORETEK03AE_11C_V1_GPRS_MMI/Tools/MinGW/include/c++/3.3.1/bits/stl_iterator.h ****     protected:
 582:d:/MTK/MTK2503/MTK2503/11CW1418SP4_03_CORETEK03AE_11C_V1_GPRS_MMI/Tools/MinGW/include/c++/3.3.1/bits/stl_iterator.h ****       _Iterator _M_current;
 583:d:/MTK/MTK2503/MTK2503/11CW1418SP4_03_CORETEK03AE_11C_V1_GPRS_MMI/Tools/MinGW/include/c++/3.3.1/bits/stl_iterator.h ****       
 584:d:/MTK/MTK2503/MTK2503/11CW1418SP4_03_CORETEK03AE_11C_V1_GPRS_MMI/Tools/MinGW/include/c++/3.3.1/bits/stl_iterator.h ****     public:
GAS LISTING d:/MTK/MTK2503/MTK2503/11CW1418SP4_03_CORETEK03AE_11C_V1_GPRS_MMI/plutommi/Customer/ResGenerator/gcctmp/cc63daaa.s 			page 259


 585:d:/MTK/MTK2503/MTK2503/11CW1418SP4_03_CORETEK03AE_11C_V1_GPRS_MMI/Tools/MinGW/include/c++/3.3.1/bits/stl_iterator.h ****       typedef typename iterator_traits<_Iterator>::difference_type 	
 586:d:/MTK/MTK2503/MTK2503/11CW1418SP4_03_CORETEK03AE_11C_V1_GPRS_MMI/Tools/MinGW/include/c++/3.3.1/bits/stl_iterator.h ****       							       difference_type;
 587:d:/MTK/MTK2503/MTK2503/11CW1418SP4_03_CORETEK03AE_11C_V1_GPRS_MMI/Tools/MinGW/include/c++/3.3.1/bits/stl_iterator.h ****       typedef typename iterator_traits<_Iterator>::reference   reference;
 588:d:/MTK/MTK2503/MTK2503/11CW1418SP4_03_CORETEK03AE_11C_V1_GPRS_MMI/Tools/MinGW/include/c++/3.3.1/bits/stl_iterator.h ****       typedef typename iterator_traits<_Iterator>::pointer     pointer;
 589:d:/MTK/MTK2503/MTK2503/11CW1418SP4_03_CORETEK03AE_11C_V1_GPRS_MMI/Tools/MinGW/include/c++/3.3.1/bits/stl_iterator.h **** 
 590:d:/MTK/MTK2503/MTK2503/11CW1418SP4_03_CORETEK03AE_11C_V1_GPRS_MMI/Tools/MinGW/include/c++/3.3.1/bits/stl_iterator.h ****       __normal_iterator() : _M_current(_Iterator()) { }
 591:d:/MTK/MTK2503/MTK2503/11CW1418SP4_03_CORETEK03AE_11C_V1_GPRS_MMI/Tools/MinGW/include/c++/3.3.1/bits/stl_iterator.h **** 
 592:d:/MTK/MTK2503/MTK2503/11CW1418SP4_03_CORETEK03AE_11C_V1_GPRS_MMI/Tools/MinGW/include/c++/3.3.1/bits/stl_iterator.h ****       explicit 
 593:d:/MTK/MTK2503/MTK2503/11CW1418SP4_03_CORETEK03AE_11C_V1_GPRS_MMI/Tools/MinGW/include/c++/3.3.1/bits/stl_iterator.h ****       __normal_iterator(const _Iterator& __i) : _M_current(__i) { }
 10513              	LM832:
 10514 0000 55       		pushl	%ebp
 10515 0001 89E5     		movl	%esp, %ebp
 10516 0003 83EC08   		subl	$8, %esp
 10518              	LM833:
 10519              	LBB110:
 10520 0006 8B4508   		movl	8(%ebp), %eax
 10521 0009 890424   		movl	%eax, (%esp)
 10522 000c E8000000 		call	__ZNSt8iteratorISt26random_access_iterator_tagP15ResFileGenParamiPKS2_RS3_EC2Ev
 10522      00
 10523 0011 8B5508   		movl	8(%ebp), %edx
 10524 0014 8B450C   		movl	12(%ebp), %eax
 10525 0017 8B00     		movl	(%eax), %eax
 10526 0019 8902     		movl	%eax, (%edx)
 10527 001b C9       		leave
 10528 001c C3       		ret
 10529              	LBE110:
 10530              	Lscope52:
 10532 001d 909090   		.section	.text$_ZNKSt6vectorIP15ResFileGenParamSaIS1_EE3endEv,"x"
 10533              		.linkonce discard
 10534              		.align 2
 10537              	.globl __ZNKSt6vectorIP15ResFileGenParamSaIS1_EE3endEv
 10539              	__ZNKSt6vectorIP15ResFileGenParamSaIS1_EE3endEv:
 10541              	Ltext8:
 10543              	LM834:
 10544 0000 55       		pushl	%ebp
 10545 0001 89E5     		movl	%esp, %ebp
 10546 0003 83EC18   		subl	$24, %esp
 10548              	LM835:
 10549              	LBB111:
 10550 0006 8B4508   		movl	8(%ebp), %eax
 10551 0009 8B4004   		movl	4(%eax), %eax
 10552 000c 8945F8   		movl	%eax, -8(%ebp)
 10553 000f 8D45F8   		leal	-8(%ebp), %eax
 10554 0012 89442404 		movl	%eax, 4(%esp)
 10555 0016 8D45FC   		leal	-4(%ebp), %eax
 10556 0019 890424   		movl	%eax, (%esp)
 10557 001c E8000000 		call	__ZN9__gnu_cxx17__normal_iteratorIPKP15ResFileGenParamSt6vectorIS2_SaIS2_EEEC1ERKS4_
 10557      00
 10558 0021 8B45FC   		movl	-4(%ebp), %eax
 10559 0024 C9       		leave
 10560 0025 C3       		ret
 10561              	LBE111:
 10562              	Lscope53:
 10564 0026 9090     		.section	.text$_ZN9__gnu_cxxmiIPKP15ResFileGenParamS4_St6vectorIS2_SaIS2_EEEENS_17__normal_iterato
 10565              		.linkonce discard
 10566              		.align 2
 10570              	.globl __ZN9__gnu_cxxmiIPKP15ResFileGenParamS4_St6vectorIS2_SaIS2_EEEENS_17__normal_iteratorIT_T1_E
GAS LISTING d:/MTK/MTK2503/MTK2503/11CW1418SP4_03_CORETEK03AE_11C_V1_GPRS_MMI/plutommi/Customer/ResGenerator/gcctmp/cc63daaa.s 			page 260


 10572              	__ZN9__gnu_cxxmiIPKP15ResFileGenParamS4_St6vectorIS2_SaIS2_EEEENS_17__normal_iteratorIT_T1_E15diffe
 10574              	Ltext9:
 594:d:/MTK/MTK2503/MTK2503/11CW1418SP4_03_CORETEK03AE_11C_V1_GPRS_MMI/Tools/MinGW/include/c++/3.3.1/bits/stl_iterator.h **** 
 595:d:/MTK/MTK2503/MTK2503/11CW1418SP4_03_CORETEK03AE_11C_V1_GPRS_MMI/Tools/MinGW/include/c++/3.3.1/bits/stl_iterator.h ****       // Allow iterator to const_iterator conversion
 596:d:/MTK/MTK2503/MTK2503/11CW1418SP4_03_CORETEK03AE_11C_V1_GPRS_MMI/Tools/MinGW/include/c++/3.3.1/bits/stl_iterator.h ****       template<typename _Iter>
 597:d:/MTK/MTK2503/MTK2503/11CW1418SP4_03_CORETEK03AE_11C_V1_GPRS_MMI/Tools/MinGW/include/c++/3.3.1/bits/stl_iterator.h ****       inline __normal_iterator(const __normal_iterator<_Iter, _Container>& __i)
 598:d:/MTK/MTK2503/MTK2503/11CW1418SP4_03_CORETEK03AE_11C_V1_GPRS_MMI/Tools/MinGW/include/c++/3.3.1/bits/stl_iterator.h **** 	: _M_current(__i.base()) { }
 599:d:/MTK/MTK2503/MTK2503/11CW1418SP4_03_CORETEK03AE_11C_V1_GPRS_MMI/Tools/MinGW/include/c++/3.3.1/bits/stl_iterator.h **** 
 600:d:/MTK/MTK2503/MTK2503/11CW1418SP4_03_CORETEK03AE_11C_V1_GPRS_MMI/Tools/MinGW/include/c++/3.3.1/bits/stl_iterator.h ****       // Forward iterator requirements
 601:d:/MTK/MTK2503/MTK2503/11CW1418SP4_03_CORETEK03AE_11C_V1_GPRS_MMI/Tools/MinGW/include/c++/3.3.1/bits/stl_iterator.h ****       reference
 602:d:/MTK/MTK2503/MTK2503/11CW1418SP4_03_CORETEK03AE_11C_V1_GPRS_MMI/Tools/MinGW/include/c++/3.3.1/bits/stl_iterator.h ****       operator*() const { return *_M_current; }
 603:d:/MTK/MTK2503/MTK2503/11CW1418SP4_03_CORETEK03AE_11C_V1_GPRS_MMI/Tools/MinGW/include/c++/3.3.1/bits/stl_iterator.h ****       
 604:d:/MTK/MTK2503/MTK2503/11CW1418SP4_03_CORETEK03AE_11C_V1_GPRS_MMI/Tools/MinGW/include/c++/3.3.1/bits/stl_iterator.h ****       pointer
 605:d:/MTK/MTK2503/MTK2503/11CW1418SP4_03_CORETEK03AE_11C_V1_GPRS_MMI/Tools/MinGW/include/c++/3.3.1/bits/stl_iterator.h ****       operator->() const { return _M_current; }
 606:d:/MTK/MTK2503/MTK2503/11CW1418SP4_03_CORETEK03AE_11C_V1_GPRS_MMI/Tools/MinGW/include/c++/3.3.1/bits/stl_iterator.h ****       
 607:d:/MTK/MTK2503/MTK2503/11CW1418SP4_03_CORETEK03AE_11C_V1_GPRS_MMI/Tools/MinGW/include/c++/3.3.1/bits/stl_iterator.h ****       __normal_iterator&
 608:d:/MTK/MTK2503/MTK2503/11CW1418SP4_03_CORETEK03AE_11C_V1_GPRS_MMI/Tools/MinGW/include/c++/3.3.1/bits/stl_iterator.h ****       operator++() { ++_M_current; return *this; }
 609:d:/MTK/MTK2503/MTK2503/11CW1418SP4_03_CORETEK03AE_11C_V1_GPRS_MMI/Tools/MinGW/include/c++/3.3.1/bits/stl_iterator.h ****       
 610:d:/MTK/MTK2503/MTK2503/11CW1418SP4_03_CORETEK03AE_11C_V1_GPRS_MMI/Tools/MinGW/include/c++/3.3.1/bits/stl_iterator.h ****       __normal_iterator
 611:d:/MTK/MTK2503/MTK2503/11CW1418SP4_03_CORETEK03AE_11C_V1_GPRS_MMI/Tools/MinGW/include/c++/3.3.1/bits/stl_iterator.h ****       operator++(int) { return __normal_iterator(_M_current++); }
 612:d:/MTK/MTK2503/MTK2503/11CW1418SP4_03_CORETEK03AE_11C_V1_GPRS_MMI/Tools/MinGW/include/c++/3.3.1/bits/stl_iterator.h ****       
 613:d:/MTK/MTK2503/MTK2503/11CW1418SP4_03_CORETEK03AE_11C_V1_GPRS_MMI/Tools/MinGW/include/c++/3.3.1/bits/stl_iterator.h ****       // Bidirectional iterator requirements
 614:d:/MTK/MTK2503/MTK2503/11CW1418SP4_03_CORETEK03AE_11C_V1_GPRS_MMI/Tools/MinGW/include/c++/3.3.1/bits/stl_iterator.h ****       __normal_iterator&
 615:d:/MTK/MTK2503/MTK2503/11CW1418SP4_03_CORETEK03AE_11C_V1_GPRS_MMI/Tools/MinGW/include/c++/3.3.1/bits/stl_iterator.h ****       operator--() { --_M_current; return *this; }
 616:d:/MTK/MTK2503/MTK2503/11CW1418SP4_03_CORETEK03AE_11C_V1_GPRS_MMI/Tools/MinGW/include/c++/3.3.1/bits/stl_iterator.h ****       
 617:d:/MTK/MTK2503/MTK2503/11CW1418SP4_03_CORETEK03AE_11C_V1_GPRS_MMI/Tools/MinGW/include/c++/3.3.1/bits/stl_iterator.h ****       __normal_iterator
 618:d:/MTK/MTK2503/MTK2503/11CW1418SP4_03_CORETEK03AE_11C_V1_GPRS_MMI/Tools/MinGW/include/c++/3.3.1/bits/stl_iterator.h ****       operator--(int) { return __normal_iterator(_M_current--); }
 619:d:/MTK/MTK2503/MTK2503/11CW1418SP4_03_CORETEK03AE_11C_V1_GPRS_MMI/Tools/MinGW/include/c++/3.3.1/bits/stl_iterator.h ****       
 620:d:/MTK/MTK2503/MTK2503/11CW1418SP4_03_CORETEK03AE_11C_V1_GPRS_MMI/Tools/MinGW/include/c++/3.3.1/bits/stl_iterator.h ****       // Random access iterator requirements
 621:d:/MTK/MTK2503/MTK2503/11CW1418SP4_03_CORETEK03AE_11C_V1_GPRS_MMI/Tools/MinGW/include/c++/3.3.1/bits/stl_iterator.h ****       reference
 622:d:/MTK/MTK2503/MTK2503/11CW1418SP4_03_CORETEK03AE_11C_V1_GPRS_MMI/Tools/MinGW/include/c++/3.3.1/bits/stl_iterator.h ****       operator[](const difference_type& __n) const
 623:d:/MTK/MTK2503/MTK2503/11CW1418SP4_03_CORETEK03AE_11C_V1_GPRS_MMI/Tools/MinGW/include/c++/3.3.1/bits/stl_iterator.h ****       { return _M_current[__n]; }
 624:d:/MTK/MTK2503/MTK2503/11CW1418SP4_03_CORETEK03AE_11C_V1_GPRS_MMI/Tools/MinGW/include/c++/3.3.1/bits/stl_iterator.h ****       
 625:d:/MTK/MTK2503/MTK2503/11CW1418SP4_03_CORETEK03AE_11C_V1_GPRS_MMI/Tools/MinGW/include/c++/3.3.1/bits/stl_iterator.h ****       __normal_iterator&
 626:d:/MTK/MTK2503/MTK2503/11CW1418SP4_03_CORETEK03AE_11C_V1_GPRS_MMI/Tools/MinGW/include/c++/3.3.1/bits/stl_iterator.h ****       operator+=(const difference_type& __n)
 627:d:/MTK/MTK2503/MTK2503/11CW1418SP4_03_CORETEK03AE_11C_V1_GPRS_MMI/Tools/MinGW/include/c++/3.3.1/bits/stl_iterator.h ****       { _M_current += __n; return *this; }
 628:d:/MTK/MTK2503/MTK2503/11CW1418SP4_03_CORETEK03AE_11C_V1_GPRS_MMI/Tools/MinGW/include/c++/3.3.1/bits/stl_iterator.h **** 
 629:d:/MTK/MTK2503/MTK2503/11CW1418SP4_03_CORETEK03AE_11C_V1_GPRS_MMI/Tools/MinGW/include/c++/3.3.1/bits/stl_iterator.h ****       __normal_iterator
 630:d:/MTK/MTK2503/MTK2503/11CW1418SP4_03_CORETEK03AE_11C_V1_GPRS_MMI/Tools/MinGW/include/c++/3.3.1/bits/stl_iterator.h ****       operator+(const difference_type& __n) const
 631:d:/MTK/MTK2503/MTK2503/11CW1418SP4_03_CORETEK03AE_11C_V1_GPRS_MMI/Tools/MinGW/include/c++/3.3.1/bits/stl_iterator.h ****       { return __normal_iterator(_M_current + __n); }
 632:d:/MTK/MTK2503/MTK2503/11CW1418SP4_03_CORETEK03AE_11C_V1_GPRS_MMI/Tools/MinGW/include/c++/3.3.1/bits/stl_iterator.h ****       
 633:d:/MTK/MTK2503/MTK2503/11CW1418SP4_03_CORETEK03AE_11C_V1_GPRS_MMI/Tools/MinGW/include/c++/3.3.1/bits/stl_iterator.h ****       __normal_iterator&
 634:d:/MTK/MTK2503/MTK2503/11CW1418SP4_03_CORETEK03AE_11C_V1_GPRS_MMI/Tools/MinGW/include/c++/3.3.1/bits/stl_iterator.h ****       operator-=(const difference_type& __n)
 635:d:/MTK/MTK2503/MTK2503/11CW1418SP4_03_CORETEK03AE_11C_V1_GPRS_MMI/Tools/MinGW/include/c++/3.3.1/bits/stl_iterator.h ****       { _M_current -= __n; return *this; }
 636:d:/MTK/MTK2503/MTK2503/11CW1418SP4_03_CORETEK03AE_11C_V1_GPRS_MMI/Tools/MinGW/include/c++/3.3.1/bits/stl_iterator.h ****       
 637:d:/MTK/MTK2503/MTK2503/11CW1418SP4_03_CORETEK03AE_11C_V1_GPRS_MMI/Tools/MinGW/include/c++/3.3.1/bits/stl_iterator.h ****       __normal_iterator
 638:d:/MTK/MTK2503/MTK2503/11CW1418SP4_03_CORETEK03AE_11C_V1_GPRS_MMI/Tools/MinGW/include/c++/3.3.1/bits/stl_iterator.h ****       operator-(const difference_type& __n) const
 639:d:/MTK/MTK2503/MTK2503/11CW1418SP4_03_CORETEK03AE_11C_V1_GPRS_MMI/Tools/MinGW/include/c++/3.3.1/bits/stl_iterator.h ****       { return __normal_iterator(_M_current - __n); }
 640:d:/MTK/MTK2503/MTK2503/11CW1418SP4_03_CORETEK03AE_11C_V1_GPRS_MMI/Tools/MinGW/include/c++/3.3.1/bits/stl_iterator.h ****       
 641:d:/MTK/MTK2503/MTK2503/11CW1418SP4_03_CORETEK03AE_11C_V1_GPRS_MMI/Tools/MinGW/include/c++/3.3.1/bits/stl_iterator.h ****       const _Iterator& 
 642:d:/MTK/MTK2503/MTK2503/11CW1418SP4_03_CORETEK03AE_11C_V1_GPRS_MMI/Tools/MinGW/include/c++/3.3.1/bits/stl_iterator.h ****       base() const { return _M_current; }
 643:d:/MTK/MTK2503/MTK2503/11CW1418SP4_03_CORETEK03AE_11C_V1_GPRS_MMI/Tools/MinGW/include/c++/3.3.1/bits/stl_iterator.h ****     };
 644:d:/MTK/MTK2503/MTK2503/11CW1418SP4_03_CORETEK03AE_11C_V1_GPRS_MMI/Tools/MinGW/include/c++/3.3.1/bits/stl_iterator.h **** 
 645:d:/MTK/MTK2503/MTK2503/11CW1418SP4_03_CORETEK03AE_11C_V1_GPRS_MMI/Tools/MinGW/include/c++/3.3.1/bits/stl_iterator.h ****   // Note: In what follows, the left- and right-hand-side iterators are
 646:d:/MTK/MTK2503/MTK2503/11CW1418SP4_03_CORETEK03AE_11C_V1_GPRS_MMI/Tools/MinGW/include/c++/3.3.1/bits/stl_iterator.h ****   // allowed to vary in types (conceptually in cv-qualification) so that
 647:d:/MTK/MTK2503/MTK2503/11CW1418SP4_03_CORETEK03AE_11C_V1_GPRS_MMI/Tools/MinGW/include/c++/3.3.1/bits/stl_iterator.h ****   // comparaison between cv-qualified and non-cv-qualified iterators be
 648:d:/MTK/MTK2503/MTK2503/11CW1418SP4_03_CORETEK03AE_11C_V1_GPRS_MMI/Tools/MinGW/include/c++/3.3.1/bits/stl_iterator.h ****   // valid.  However, the greedy and unfriendly operators in std::rel_ops
GAS LISTING d:/MTK/MTK2503/MTK2503/11CW1418SP4_03_CORETEK03AE_11C_V1_GPRS_MMI/plutommi/Customer/ResGenerator/gcctmp/cc63daaa.s 			page 261


 649:d:/MTK/MTK2503/MTK2503/11CW1418SP4_03_CORETEK03AE_11C_V1_GPRS_MMI/Tools/MinGW/include/c++/3.3.1/bits/stl_iterator.h ****   // will make overload resolution ambiguous (when in scope) if we don't
 650:d:/MTK/MTK2503/MTK2503/11CW1418SP4_03_CORETEK03AE_11C_V1_GPRS_MMI/Tools/MinGW/include/c++/3.3.1/bits/stl_iterator.h ****   // provide overloads whose operands are of the same type.  Can someone
 651:d:/MTK/MTK2503/MTK2503/11CW1418SP4_03_CORETEK03AE_11C_V1_GPRS_MMI/Tools/MinGW/include/c++/3.3.1/bits/stl_iterator.h ****   // remind me what generic programming is about? -- Gaby
 652:d:/MTK/MTK2503/MTK2503/11CW1418SP4_03_CORETEK03AE_11C_V1_GPRS_MMI/Tools/MinGW/include/c++/3.3.1/bits/stl_iterator.h ****   
 653:d:/MTK/MTK2503/MTK2503/11CW1418SP4_03_CORETEK03AE_11C_V1_GPRS_MMI/Tools/MinGW/include/c++/3.3.1/bits/stl_iterator.h ****   // Forward iterator requirements
 654:d:/MTK/MTK2503/MTK2503/11CW1418SP4_03_CORETEK03AE_11C_V1_GPRS_MMI/Tools/MinGW/include/c++/3.3.1/bits/stl_iterator.h ****   template<typename _IteratorL, typename _IteratorR, typename _Container>
 655:d:/MTK/MTK2503/MTK2503/11CW1418SP4_03_CORETEK03AE_11C_V1_GPRS_MMI/Tools/MinGW/include/c++/3.3.1/bits/stl_iterator.h ****   inline bool
 656:d:/MTK/MTK2503/MTK2503/11CW1418SP4_03_CORETEK03AE_11C_V1_GPRS_MMI/Tools/MinGW/include/c++/3.3.1/bits/stl_iterator.h ****   operator==(const __normal_iterator<_IteratorL, _Container>& __lhs,
 657:d:/MTK/MTK2503/MTK2503/11CW1418SP4_03_CORETEK03AE_11C_V1_GPRS_MMI/Tools/MinGW/include/c++/3.3.1/bits/stl_iterator.h **** 	     const __normal_iterator<_IteratorR, _Container>& __rhs)
 658:d:/MTK/MTK2503/MTK2503/11CW1418SP4_03_CORETEK03AE_11C_V1_GPRS_MMI/Tools/MinGW/include/c++/3.3.1/bits/stl_iterator.h ****   { return __lhs.base() == __rhs.base(); }
 659:d:/MTK/MTK2503/MTK2503/11CW1418SP4_03_CORETEK03AE_11C_V1_GPRS_MMI/Tools/MinGW/include/c++/3.3.1/bits/stl_iterator.h **** 
 660:d:/MTK/MTK2503/MTK2503/11CW1418SP4_03_CORETEK03AE_11C_V1_GPRS_MMI/Tools/MinGW/include/c++/3.3.1/bits/stl_iterator.h ****   template<typename _Iterator, typename _Container>
 661:d:/MTK/MTK2503/MTK2503/11CW1418SP4_03_CORETEK03AE_11C_V1_GPRS_MMI/Tools/MinGW/include/c++/3.3.1/bits/stl_iterator.h ****   inline bool
 662:d:/MTK/MTK2503/MTK2503/11CW1418SP4_03_CORETEK03AE_11C_V1_GPRS_MMI/Tools/MinGW/include/c++/3.3.1/bits/stl_iterator.h ****   operator==(const __normal_iterator<_Iterator, _Container>& __lhs,
 663:d:/MTK/MTK2503/MTK2503/11CW1418SP4_03_CORETEK03AE_11C_V1_GPRS_MMI/Tools/MinGW/include/c++/3.3.1/bits/stl_iterator.h ****              const __normal_iterator<_Iterator, _Container>& __rhs)
 664:d:/MTK/MTK2503/MTK2503/11CW1418SP4_03_CORETEK03AE_11C_V1_GPRS_MMI/Tools/MinGW/include/c++/3.3.1/bits/stl_iterator.h ****   { return __lhs.base() == __rhs.base(); }
 665:d:/MTK/MTK2503/MTK2503/11CW1418SP4_03_CORETEK03AE_11C_V1_GPRS_MMI/Tools/MinGW/include/c++/3.3.1/bits/stl_iterator.h **** 
 666:d:/MTK/MTK2503/MTK2503/11CW1418SP4_03_CORETEK03AE_11C_V1_GPRS_MMI/Tools/MinGW/include/c++/3.3.1/bits/stl_iterator.h ****   template<typename _IteratorL, typename _IteratorR, typename _Container>
 667:d:/MTK/MTK2503/MTK2503/11CW1418SP4_03_CORETEK03AE_11C_V1_GPRS_MMI/Tools/MinGW/include/c++/3.3.1/bits/stl_iterator.h ****   inline bool
 668:d:/MTK/MTK2503/MTK2503/11CW1418SP4_03_CORETEK03AE_11C_V1_GPRS_MMI/Tools/MinGW/include/c++/3.3.1/bits/stl_iterator.h ****   operator!=(const __normal_iterator<_IteratorL, _Container>& __lhs,
 669:d:/MTK/MTK2503/MTK2503/11CW1418SP4_03_CORETEK03AE_11C_V1_GPRS_MMI/Tools/MinGW/include/c++/3.3.1/bits/stl_iterator.h **** 	     const __normal_iterator<_IteratorR, _Container>& __rhs)
 670:d:/MTK/MTK2503/MTK2503/11CW1418SP4_03_CORETEK03AE_11C_V1_GPRS_MMI/Tools/MinGW/include/c++/3.3.1/bits/stl_iterator.h ****   { return __lhs.base() != __rhs.base(); }
 671:d:/MTK/MTK2503/MTK2503/11CW1418SP4_03_CORETEK03AE_11C_V1_GPRS_MMI/Tools/MinGW/include/c++/3.3.1/bits/stl_iterator.h **** 
 672:d:/MTK/MTK2503/MTK2503/11CW1418SP4_03_CORETEK03AE_11C_V1_GPRS_MMI/Tools/MinGW/include/c++/3.3.1/bits/stl_iterator.h ****   template<typename _Iterator, typename _Container>
 673:d:/MTK/MTK2503/MTK2503/11CW1418SP4_03_CORETEK03AE_11C_V1_GPRS_MMI/Tools/MinGW/include/c++/3.3.1/bits/stl_iterator.h ****   inline bool
 674:d:/MTK/MTK2503/MTK2503/11CW1418SP4_03_CORETEK03AE_11C_V1_GPRS_MMI/Tools/MinGW/include/c++/3.3.1/bits/stl_iterator.h ****   operator!=(const __normal_iterator<_Iterator, _Container>& __lhs,
 675:d:/MTK/MTK2503/MTK2503/11CW1418SP4_03_CORETEK03AE_11C_V1_GPRS_MMI/Tools/MinGW/include/c++/3.3.1/bits/stl_iterator.h ****              const __normal_iterator<_Iterator, _Container>& __rhs)
 676:d:/MTK/MTK2503/MTK2503/11CW1418SP4_03_CORETEK03AE_11C_V1_GPRS_MMI/Tools/MinGW/include/c++/3.3.1/bits/stl_iterator.h ****   { return __lhs.base() != __rhs.base(); }
 677:d:/MTK/MTK2503/MTK2503/11CW1418SP4_03_CORETEK03AE_11C_V1_GPRS_MMI/Tools/MinGW/include/c++/3.3.1/bits/stl_iterator.h **** 
 678:d:/MTK/MTK2503/MTK2503/11CW1418SP4_03_CORETEK03AE_11C_V1_GPRS_MMI/Tools/MinGW/include/c++/3.3.1/bits/stl_iterator.h ****   // Random access iterator requirements
 679:d:/MTK/MTK2503/MTK2503/11CW1418SP4_03_CORETEK03AE_11C_V1_GPRS_MMI/Tools/MinGW/include/c++/3.3.1/bits/stl_iterator.h ****   template<typename _IteratorL, typename _IteratorR, typename _Container>
 680:d:/MTK/MTK2503/MTK2503/11CW1418SP4_03_CORETEK03AE_11C_V1_GPRS_MMI/Tools/MinGW/include/c++/3.3.1/bits/stl_iterator.h ****   inline bool 
 681:d:/MTK/MTK2503/MTK2503/11CW1418SP4_03_CORETEK03AE_11C_V1_GPRS_MMI/Tools/MinGW/include/c++/3.3.1/bits/stl_iterator.h ****   operator<(const __normal_iterator<_IteratorL, _Container>& __lhs,
 682:d:/MTK/MTK2503/MTK2503/11CW1418SP4_03_CORETEK03AE_11C_V1_GPRS_MMI/Tools/MinGW/include/c++/3.3.1/bits/stl_iterator.h **** 	    const __normal_iterator<_IteratorR, _Container>& __rhs)
 683:d:/MTK/MTK2503/MTK2503/11CW1418SP4_03_CORETEK03AE_11C_V1_GPRS_MMI/Tools/MinGW/include/c++/3.3.1/bits/stl_iterator.h ****   { return __lhs.base() < __rhs.base(); }
 684:d:/MTK/MTK2503/MTK2503/11CW1418SP4_03_CORETEK03AE_11C_V1_GPRS_MMI/Tools/MinGW/include/c++/3.3.1/bits/stl_iterator.h **** 
 685:d:/MTK/MTK2503/MTK2503/11CW1418SP4_03_CORETEK03AE_11C_V1_GPRS_MMI/Tools/MinGW/include/c++/3.3.1/bits/stl_iterator.h ****   template<typename _Iterator, typename _Container>
 686:d:/MTK/MTK2503/MTK2503/11CW1418SP4_03_CORETEK03AE_11C_V1_GPRS_MMI/Tools/MinGW/include/c++/3.3.1/bits/stl_iterator.h ****   inline bool
 687:d:/MTK/MTK2503/MTK2503/11CW1418SP4_03_CORETEK03AE_11C_V1_GPRS_MMI/Tools/MinGW/include/c++/3.3.1/bits/stl_iterator.h ****   operator<(const __normal_iterator<_Iterator, _Container>& __lhs,
 688:d:/MTK/MTK2503/MTK2503/11CW1418SP4_03_CORETEK03AE_11C_V1_GPRS_MMI/Tools/MinGW/include/c++/3.3.1/bits/stl_iterator.h ****              const __normal_iterator<_Iterator, _Container>& __rhs)
 689:d:/MTK/MTK2503/MTK2503/11CW1418SP4_03_CORETEK03AE_11C_V1_GPRS_MMI/Tools/MinGW/include/c++/3.3.1/bits/stl_iterator.h ****   { return __lhs.base() < __rhs.base(); }
 690:d:/MTK/MTK2503/MTK2503/11CW1418SP4_03_CORETEK03AE_11C_V1_GPRS_MMI/Tools/MinGW/include/c++/3.3.1/bits/stl_iterator.h **** 
 691:d:/MTK/MTK2503/MTK2503/11CW1418SP4_03_CORETEK03AE_11C_V1_GPRS_MMI/Tools/MinGW/include/c++/3.3.1/bits/stl_iterator.h ****   template<typename _IteratorL, typename _IteratorR, typename _Container>
 692:d:/MTK/MTK2503/MTK2503/11CW1418SP4_03_CORETEK03AE_11C_V1_GPRS_MMI/Tools/MinGW/include/c++/3.3.1/bits/stl_iterator.h ****   inline bool
 693:d:/MTK/MTK2503/MTK2503/11CW1418SP4_03_CORETEK03AE_11C_V1_GPRS_MMI/Tools/MinGW/include/c++/3.3.1/bits/stl_iterator.h ****   operator>(const __normal_iterator<_IteratorL, _Container>& __lhs,
 694:d:/MTK/MTK2503/MTK2503/11CW1418SP4_03_CORETEK03AE_11C_V1_GPRS_MMI/Tools/MinGW/include/c++/3.3.1/bits/stl_iterator.h **** 	    const __normal_iterator<_IteratorR, _Container>& __rhs)
 695:d:/MTK/MTK2503/MTK2503/11CW1418SP4_03_CORETEK03AE_11C_V1_GPRS_MMI/Tools/MinGW/include/c++/3.3.1/bits/stl_iterator.h ****   { return __lhs.base() > __rhs.base(); }
 696:d:/MTK/MTK2503/MTK2503/11CW1418SP4_03_CORETEK03AE_11C_V1_GPRS_MMI/Tools/MinGW/include/c++/3.3.1/bits/stl_iterator.h **** 
 697:d:/MTK/MTK2503/MTK2503/11CW1418SP4_03_CORETEK03AE_11C_V1_GPRS_MMI/Tools/MinGW/include/c++/3.3.1/bits/stl_iterator.h ****   template<typename _Iterator, typename _Container>
 698:d:/MTK/MTK2503/MTK2503/11CW1418SP4_03_CORETEK03AE_11C_V1_GPRS_MMI/Tools/MinGW/include/c++/3.3.1/bits/stl_iterator.h ****   inline bool
 699:d:/MTK/MTK2503/MTK2503/11CW1418SP4_03_CORETEK03AE_11C_V1_GPRS_MMI/Tools/MinGW/include/c++/3.3.1/bits/stl_iterator.h ****   operator>(const __normal_iterator<_Iterator, _Container>& __lhs,
 700:d:/MTK/MTK2503/MTK2503/11CW1418SP4_03_CORETEK03AE_11C_V1_GPRS_MMI/Tools/MinGW/include/c++/3.3.1/bits/stl_iterator.h **** 	    const __normal_iterator<_Iterator, _Container>& __rhs)
 701:d:/MTK/MTK2503/MTK2503/11CW1418SP4_03_CORETEK03AE_11C_V1_GPRS_MMI/Tools/MinGW/include/c++/3.3.1/bits/stl_iterator.h ****   { return __lhs.base() > __rhs.base(); }
 702:d:/MTK/MTK2503/MTK2503/11CW1418SP4_03_CORETEK03AE_11C_V1_GPRS_MMI/Tools/MinGW/include/c++/3.3.1/bits/stl_iterator.h **** 
 703:d:/MTK/MTK2503/MTK2503/11CW1418SP4_03_CORETEK03AE_11C_V1_GPRS_MMI/Tools/MinGW/include/c++/3.3.1/bits/stl_iterator.h ****   template<typename _IteratorL, typename _IteratorR, typename _Container>
 704:d:/MTK/MTK2503/MTK2503/11CW1418SP4_03_CORETEK03AE_11C_V1_GPRS_MMI/Tools/MinGW/include/c++/3.3.1/bits/stl_iterator.h ****   inline bool
 705:d:/MTK/MTK2503/MTK2503/11CW1418SP4_03_CORETEK03AE_11C_V1_GPRS_MMI/Tools/MinGW/include/c++/3.3.1/bits/stl_iterator.h ****   operator<=(const __normal_iterator<_IteratorL, _Container>& __lhs,
GAS LISTING d:/MTK/MTK2503/MTK2503/11CW1418SP4_03_CORETEK03AE_11C_V1_GPRS_MMI/plutommi/Customer/ResGenerator/gcctmp/cc63daaa.s 			page 262


 706:d:/MTK/MTK2503/MTK2503/11CW1418SP4_03_CORETEK03AE_11C_V1_GPRS_MMI/Tools/MinGW/include/c++/3.3.1/bits/stl_iterator.h **** 	     const __normal_iterator<_IteratorR, _Container>& __rhs)
 707:d:/MTK/MTK2503/MTK2503/11CW1418SP4_03_CORETEK03AE_11C_V1_GPRS_MMI/Tools/MinGW/include/c++/3.3.1/bits/stl_iterator.h ****   { return __lhs.base() <= __rhs.base(); }
 708:d:/MTK/MTK2503/MTK2503/11CW1418SP4_03_CORETEK03AE_11C_V1_GPRS_MMI/Tools/MinGW/include/c++/3.3.1/bits/stl_iterator.h **** 
 709:d:/MTK/MTK2503/MTK2503/11CW1418SP4_03_CORETEK03AE_11C_V1_GPRS_MMI/Tools/MinGW/include/c++/3.3.1/bits/stl_iterator.h ****   template<typename _Iterator, typename _Container>
 710:d:/MTK/MTK2503/MTK2503/11CW1418SP4_03_CORETEK03AE_11C_V1_GPRS_MMI/Tools/MinGW/include/c++/3.3.1/bits/stl_iterator.h ****   inline bool
 711:d:/MTK/MTK2503/MTK2503/11CW1418SP4_03_CORETEK03AE_11C_V1_GPRS_MMI/Tools/MinGW/include/c++/3.3.1/bits/stl_iterator.h ****   operator<=(const __normal_iterator<_Iterator, _Container>& __lhs,
 712:d:/MTK/MTK2503/MTK2503/11CW1418SP4_03_CORETEK03AE_11C_V1_GPRS_MMI/Tools/MinGW/include/c++/3.3.1/bits/stl_iterator.h **** 	     const __normal_iterator<_Iterator, _Container>& __rhs)
 713:d:/MTK/MTK2503/MTK2503/11CW1418SP4_03_CORETEK03AE_11C_V1_GPRS_MMI/Tools/MinGW/include/c++/3.3.1/bits/stl_iterator.h ****   { return __lhs.base() <= __rhs.base(); }
 714:d:/MTK/MTK2503/MTK2503/11CW1418SP4_03_CORETEK03AE_11C_V1_GPRS_MMI/Tools/MinGW/include/c++/3.3.1/bits/stl_iterator.h **** 
 715:d:/MTK/MTK2503/MTK2503/11CW1418SP4_03_CORETEK03AE_11C_V1_GPRS_MMI/Tools/MinGW/include/c++/3.3.1/bits/stl_iterator.h ****   template<typename _IteratorL, typename _IteratorR, typename _Container>
 716:d:/MTK/MTK2503/MTK2503/11CW1418SP4_03_CORETEK03AE_11C_V1_GPRS_MMI/Tools/MinGW/include/c++/3.3.1/bits/stl_iterator.h ****   inline bool
 717:d:/MTK/MTK2503/MTK2503/11CW1418SP4_03_CORETEK03AE_11C_V1_GPRS_MMI/Tools/MinGW/include/c++/3.3.1/bits/stl_iterator.h ****   operator>=(const __normal_iterator<_IteratorL, _Container>& __lhs,
 718:d:/MTK/MTK2503/MTK2503/11CW1418SP4_03_CORETEK03AE_11C_V1_GPRS_MMI/Tools/MinGW/include/c++/3.3.1/bits/stl_iterator.h **** 	     const __normal_iterator<_IteratorR, _Container>& __rhs)
 719:d:/MTK/MTK2503/MTK2503/11CW1418SP4_03_CORETEK03AE_11C_V1_GPRS_MMI/Tools/MinGW/include/c++/3.3.1/bits/stl_iterator.h ****   { return __lhs.base() >= __rhs.base(); }
 720:d:/MTK/MTK2503/MTK2503/11CW1418SP4_03_CORETEK03AE_11C_V1_GPRS_MMI/Tools/MinGW/include/c++/3.3.1/bits/stl_iterator.h **** 
 721:d:/MTK/MTK2503/MTK2503/11CW1418SP4_03_CORETEK03AE_11C_V1_GPRS_MMI/Tools/MinGW/include/c++/3.3.1/bits/stl_iterator.h ****   template<typename _Iterator, typename _Container>
 722:d:/MTK/MTK2503/MTK2503/11CW1418SP4_03_CORETEK03AE_11C_V1_GPRS_MMI/Tools/MinGW/include/c++/3.3.1/bits/stl_iterator.h ****   inline bool
 723:d:/MTK/MTK2503/MTK2503/11CW1418SP4_03_CORETEK03AE_11C_V1_GPRS_MMI/Tools/MinGW/include/c++/3.3.1/bits/stl_iterator.h ****   operator>=(const __normal_iterator<_Iterator, _Container>& __lhs,
 724:d:/MTK/MTK2503/MTK2503/11CW1418SP4_03_CORETEK03AE_11C_V1_GPRS_MMI/Tools/MinGW/include/c++/3.3.1/bits/stl_iterator.h **** 	     const __normal_iterator<_Iterator, _Container>& __rhs)
 725:d:/MTK/MTK2503/MTK2503/11CW1418SP4_03_CORETEK03AE_11C_V1_GPRS_MMI/Tools/MinGW/include/c++/3.3.1/bits/stl_iterator.h ****   { return __lhs.base() >= __rhs.base(); }
 726:d:/MTK/MTK2503/MTK2503/11CW1418SP4_03_CORETEK03AE_11C_V1_GPRS_MMI/Tools/MinGW/include/c++/3.3.1/bits/stl_iterator.h **** 
 727:d:/MTK/MTK2503/MTK2503/11CW1418SP4_03_CORETEK03AE_11C_V1_GPRS_MMI/Tools/MinGW/include/c++/3.3.1/bits/stl_iterator.h ****   // _GLIBCPP_RESOLVE_LIB_DEFECTS
 728:d:/MTK/MTK2503/MTK2503/11CW1418SP4_03_CORETEK03AE_11C_V1_GPRS_MMI/Tools/MinGW/include/c++/3.3.1/bits/stl_iterator.h ****   // According to the resolution of DR179 not only the various comparison
 729:d:/MTK/MTK2503/MTK2503/11CW1418SP4_03_CORETEK03AE_11C_V1_GPRS_MMI/Tools/MinGW/include/c++/3.3.1/bits/stl_iterator.h ****   // operators but also operator- must accept mixed iterator/const_iterator
 730:d:/MTK/MTK2503/MTK2503/11CW1418SP4_03_CORETEK03AE_11C_V1_GPRS_MMI/Tools/MinGW/include/c++/3.3.1/bits/stl_iterator.h ****   // parameters.
 731:d:/MTK/MTK2503/MTK2503/11CW1418SP4_03_CORETEK03AE_11C_V1_GPRS_MMI/Tools/MinGW/include/c++/3.3.1/bits/stl_iterator.h ****   template<typename _IteratorL, typename _IteratorR, typename _Container>
 732:d:/MTK/MTK2503/MTK2503/11CW1418SP4_03_CORETEK03AE_11C_V1_GPRS_MMI/Tools/MinGW/include/c++/3.3.1/bits/stl_iterator.h ****   inline typename __normal_iterator<_IteratorL, _Container>::difference_type
 733:d:/MTK/MTK2503/MTK2503/11CW1418SP4_03_CORETEK03AE_11C_V1_GPRS_MMI/Tools/MinGW/include/c++/3.3.1/bits/stl_iterator.h ****   operator-(const __normal_iterator<_IteratorL, _Container>& __lhs,
 734:d:/MTK/MTK2503/MTK2503/11CW1418SP4_03_CORETEK03AE_11C_V1_GPRS_MMI/Tools/MinGW/include/c++/3.3.1/bits/stl_iterator.h **** 	     const __normal_iterator<_IteratorR, _Container>& __rhs)
 735:d:/MTK/MTK2503/MTK2503/11CW1418SP4_03_CORETEK03AE_11C_V1_GPRS_MMI/Tools/MinGW/include/c++/3.3.1/bits/stl_iterator.h ****   { return __lhs.base() - __rhs.base(); }
 10576              	LM836:
 10577 0000 55       		pushl	%ebp
 10578 0001 89E5     		movl	%esp, %ebp
 10579 0003 53       		pushl	%ebx
 10580 0004 83EC04   		subl	$4, %esp
 10582              	LM837:
 10583              	LBB112:
 10584 0007 8B4508   		movl	8(%ebp), %eax
 10585 000a 890424   		movl	%eax, (%esp)
 10586 000d E8000000 		call	__ZNK9__gnu_cxx17__normal_iteratorIPKP15ResFileGenParamSt6vectorIS2_SaIS2_EEE4baseEv
 10586      00
 10587 0012 89C3     		movl	%eax, %ebx
 10588 0014 8B450C   		movl	12(%ebp), %eax
 10589 0017 890424   		movl	%eax, (%esp)
 10590 001a E8000000 		call	__ZNK9__gnu_cxx17__normal_iteratorIPKP15ResFileGenParamSt6vectorIS2_SaIS2_EEE4baseEv
 10590      00
 10591 001f 8B10     		movl	(%eax), %edx
 10592 0021 8B03     		movl	(%ebx), %eax
 10593 0023 29D0     		subl	%edx, %eax
 10594 0025 C1F802   		sarl	$2, %eax
 10595 0028 83C404   		addl	$4, %esp
 10596 002b 5B       		popl	%ebx
 10597 002c 5D       		popl	%ebp
 10598 002d C3       		ret
 10599              	LBE112:
 10600              	Lscope54:
 10602 002e 9090     		.section	.text$_ZNK9__gnu_cxx17__normal_iteratorIPKP15ResFileGenParamSt6vectorIS2_SaIS2_EEE4baseEv
GAS LISTING d:/MTK/MTK2503/MTK2503/11CW1418SP4_03_CORETEK03AE_11C_V1_GPRS_MMI/plutommi/Customer/ResGenerator/gcctmp/cc63daaa.s 			page 263


 10603              		.linkonce discard
 10604              		.align 2
 10607              	.globl __ZNK9__gnu_cxx17__normal_iteratorIPKP15ResFileGenParamSt6vectorIS2_SaIS2_EEE4baseEv
 10609              	__ZNK9__gnu_cxx17__normal_iteratorIPKP15ResFileGenParamSt6vectorIS2_SaIS2_EEE4baseEv:
 10611              	LM838:
 10612 0000 55       		pushl	%ebp
 10613 0001 89E5     		movl	%esp, %ebp
 10615              	LM839:
 10616              	LBB113:
 10617 0003 8B4508   		movl	8(%ebp), %eax
 10618 0006 5D       		popl	%ebp
 10619 0007 C3       		ret
 10620              	LBE113:
 10621              	Lscope55:
 10623              		.section	.text$_ZNSt6vectorIP15ResFileGenParamSaIS1_EE5beginEv,"x"
 10624              		.linkonce discard
 10625              		.align 2
 10628              	.globl __ZNSt6vectorIP15ResFileGenParamSaIS1_EE5beginEv
 10630              	__ZNSt6vectorIP15ResFileGenParamSaIS1_EE5beginEv:
 10632              	Ltext10:
 10634              	LM840:
 10635 0000 55       		pushl	%ebp
 10636 0001 89E5     		movl	%esp, %ebp
 10637 0003 83EC18   		subl	$24, %esp
 10639              	LM841:
 10640              	LBB114:
 10641 0006 8B4508   		movl	8(%ebp), %eax
 10642 0009 89442404 		movl	%eax, 4(%esp)
 10643 000d 8D45FC   		leal	-4(%ebp), %eax
 10644 0010 890424   		movl	%eax, (%esp)
 10645 0013 E8000000 		call	__ZN9__gnu_cxx17__normal_iteratorIPP15ResFileGenParamSt6vectorIS2_SaIS2_EEEC1ERKS3_
 10645      00
 10646 0018 8B45FC   		movl	-4(%ebp), %eax
 10647 001b C9       		leave
 10648 001c C3       		ret
 10649              	LBE114:
 10650              	Lscope56:
 10652 001d 909090   		.section	.text$_ZN9__gnu_cxx17__normal_iteratorIPP15ResFileGenParamSt6vectorIS2_SaIS2_EEEC1ERKS3_,
 10653              		.linkonce discard
 10654              		.align 2
 10658              	.globl __ZN9__gnu_cxx17__normal_iteratorIPP15ResFileGenParamSt6vectorIS2_SaIS2_EEEC1ERKS3_
 10660              	__ZN9__gnu_cxx17__normal_iteratorIPP15ResFileGenParamSt6vectorIS2_SaIS2_EEEC1ERKS3_:
 10662              	Ltext11:
 10664              	LM842:
 10665 0000 55       		pushl	%ebp
 10666 0001 89E5     		movl	%esp, %ebp
 10667 0003 83EC08   		subl	$8, %esp
 10669              	LM843:
 10670              	LBB115:
 10671 0006 8B4508   		movl	8(%ebp), %eax
 10672 0009 890424   		movl	%eax, (%esp)
 10673 000c E8000000 		call	__ZNSt8iteratorISt26random_access_iterator_tagP15ResFileGenParamiPS2_RS2_EC2Ev
 10673      00
 10674 0011 8B5508   		movl	8(%ebp), %edx
 10675 0014 8B450C   		movl	12(%ebp), %eax
 10676 0017 8B00     		movl	(%eax), %eax
 10677 0019 8902     		movl	%eax, (%edx)
GAS LISTING d:/MTK/MTK2503/MTK2503/11CW1418SP4_03_CORETEK03AE_11C_V1_GPRS_MMI/plutommi/Customer/ResGenerator/gcctmp/cc63daaa.s 			page 264


 10678 001b C9       		leave
 10679 001c C3       		ret
 10680              	LBE115:
 10681              	Lscope57:
 10683 001d 909090   		.section	.text$_ZNK9__gnu_cxx17__normal_iteratorIPP15ResFileGenParamSt6vectorIS2_SaIS2_EEEplERKi,"
 10684              		.linkonce discard
 10685              		.align 2
 10689              	.globl __ZNK9__gnu_cxx17__normal_iteratorIPP15ResFileGenParamSt6vectorIS2_SaIS2_EEEplERKi
 10691              	__ZNK9__gnu_cxx17__normal_iteratorIPP15ResFileGenParamSt6vectorIS2_SaIS2_EEEplERKi:
 10693              	LM844:
 10694 0000 55       		pushl	%ebp
 10695 0001 89E5     		movl	%esp, %ebp
 10696 0003 83EC18   		subl	$24, %esp
 10698              	LM845:
 10699              	LBB116:
 10700 0006 8B5508   		movl	8(%ebp), %edx
 10701 0009 8B450C   		movl	12(%ebp), %eax
 10702 000c 8B00     		movl	(%eax), %eax
 10703 000e C1E002   		sall	$2, %eax
 10704 0011 0302     		addl	(%edx), %eax
 10705 0013 8945F8   		movl	%eax, -8(%ebp)
 10706 0016 8D45F8   		leal	-8(%ebp), %eax
 10707 0019 89442404 		movl	%eax, 4(%esp)
 10708 001d 8D45FC   		leal	-4(%ebp), %eax
 10709 0020 890424   		movl	%eax, (%esp)
 10710 0023 E8000000 		call	__ZN9__gnu_cxx17__normal_iteratorIPP15ResFileGenParamSt6vectorIS2_SaIS2_EEEC1ERKS3_
 10710      00
 10711 0028 8B45FC   		movl	-4(%ebp), %eax
 10712 002b C9       		leave
 10713 002c C3       		ret
 10714              	LBE116:
 10715              	Lscope58:
 10717 002d 909090   		.section	.text$_ZNK9__gnu_cxx17__normal_iteratorIPP15ResFileGenParamSt6vectorIS2_SaIS2_EEEdeEv,"x"
 10718              		.linkonce discard
 10719              		.align 2
 10722              	.globl __ZNK9__gnu_cxx17__normal_iteratorIPP15ResFileGenParamSt6vectorIS2_SaIS2_EEEdeEv
 10724              	__ZNK9__gnu_cxx17__normal_iteratorIPP15ResFileGenParamSt6vectorIS2_SaIS2_EEEdeEv:
 10726              	LM846:
 10727 0000 55       		pushl	%ebp
 10728 0001 89E5     		movl	%esp, %ebp
 10730              	LM847:
 10731              	LBB117:
 10732 0003 8B4508   		movl	8(%ebp), %eax
 10733 0006 8B00     		movl	(%eax), %eax
 10734 0008 5D       		popl	%ebp
 10735 0009 C3       		ret
 10736              	LBE117:
 10737              	Lscope59:
 10739              	.globl __ZTV25OfflineResPopAudioAdaptor
 10740 000a 9090     		.section	.rdata$_ZTV25OfflineResPopAudioAdaptor,""
 10741              		.linkonce same_size
 10742              		.align 8
 10743              	__ZTV25OfflineResPopAudioAdaptor:
 10744 0000 00000000 		.long	0
 10745 0004 00000000 		.long	__ZTI25OfflineResPopAudioAdaptor
 10746 0008 00000000 		.long	__ZN20OfflineResPopAdaptor8populateEv
 10747 000c 00000000 		.long	__ZN20OfflineResPopAdaptor14setResPopModelEP13ResParamModel
GAS LISTING d:/MTK/MTK2503/MTK2503/11CW1418SP4_03_CORETEK03AE_11C_V1_GPRS_MMI/plutommi/Customer/ResGenerator/gcctmp/cc63daaa.s 			page 265


 10748 0010 00000000 		.long	__ZN20OfflineResPopAdaptor14getResPopModelEv
 10749 0014 00000000 		.long	__ZN25OfflineResPopAudioAdaptor21issueLecacyPopulationEP11ResPopParam
 10752              		.section	.text$_ZN16ParamTextFileDAOC2Ev,"x"
 10753              		.linkonce discard
 10754              		.align 2
 10757              	.globl __ZN16ParamTextFileDAOC2Ev
 10759              	__ZN16ParamTextFileDAOC2Ev:
 10761              	Ltext12:
 10763              	LM848:
 10764 0000 55       		pushl	%ebp
 10765 0001 89E5     		movl	%esp, %ebp
 10767              	LM849:
 10768              	LBB118:
 10769 0003 8B4508   		movl	8(%ebp), %eax
 10770 0006 C7000800 		movl	$__ZTV16ParamTextFileDAO+8, (%eax)
 10770      0000
 10771 000c 5D       		popl	%ebp
 10772 000d C3       		ret
 10773              	L407:
 10774              	L406:
 10775              	LBE118:
 10776              	Lscope60:
 10778 000e 9090     		.section	.text$_ZN20OfflineResPopAdaptorC2Ev,"x"
 10779              		.linkonce discard
 10780              		.align 2
 10783              	.globl __ZN20OfflineResPopAdaptorC2Ev
 10785              	__ZN20OfflineResPopAdaptorC2Ev:
 10787              	LM850:
 10788 0000 55       		pushl	%ebp
 10789 0001 89E5     		movl	%esp, %ebp
 10790 0003 83EC08   		subl	$8, %esp
 10792              	LM851:
 10793              	LBB119:
 10794 0006 8B4508   		movl	8(%ebp), %eax
 10795 0009 890424   		movl	%eax, (%esp)
 10796 000c E8000000 		call	__ZN19OfflineResPopulatorC2Ev
 10796      00
 10797 0011 8B4508   		movl	8(%ebp), %eax
 10798 0014 C7000800 		movl	$__ZTV20OfflineResPopAdaptor+8, (%eax)
 10798      0000
 10799 001a C9       		leave
 10800 001b C3       		ret
 10801              	L410:
 10802              	L409:
 10803              	LBE119:
 10804              	Lscope61:
 10806              		.text
 10807 837b 908D7426 		.align 32
 10807      00
 10808              	LC323:
 10809 8380 4552524F 		.ascii "ERROR!! _audioParam can't be NULL\0"
 10809      52212120 
 10809      5F617564 
 10809      696F5061 
 10809      72616D20 
 10810              		.section	.text$_ZN25OfflineResPopAudioAdaptor21issueLecacyPopulationEP11ResPopParam,"x"
 10811              		.linkonce discard
GAS LISTING d:/MTK/MTK2503/MTK2503/11CW1418SP4_03_CORETEK03AE_11C_V1_GPRS_MMI/plutommi/Customer/ResGenerator/gcctmp/cc63daaa.s 			page 266


 10812              		.align 2
 10816              	.globl __ZN25OfflineResPopAudioAdaptor21issueLecacyPopulationEP11ResPopParam
 10818              	__ZN25OfflineResPopAudioAdaptor21issueLecacyPopulationEP11ResPopParam:
 10820              	LM852:
 10821 0000 55       		pushl	%ebp
 10822 0001 89E5     		movl	%esp, %ebp
 10823 0003 56       		pushl	%esi
 10824 0004 53       		pushl	%ebx
 10825 0005 83EC30   		subl	$48, %esp
 10827              	LM853:
 10828              	LBB120:
 10829 0008 C745F400 		movl	$0, -12(%ebp)
 10829      000000
 10831              	LM854:
 10832 000f C745F000 		movl	$0, -16(%ebp)
 10832      000000
 10834              	LM855:
 10835 0016 8B450C   		movl	12(%ebp), %eax
 10836 0019 8945EC   		movl	%eax, -20(%ebp)
 10838              	LM856:
 10839 001c 837D0C00 		cmpl	$0, 12(%ebp)
 10840 0020 7530     		jne	L413
 10842              	LM857:
 10843 0022 C7442404 		movl	$LC323, 4(%esp)
 10843      80830000 
 10844 002a C7042400 		movl	$__ZSt4cout, (%esp)
 10844      000000
 10845 0031 E8000000 		call	__ZStlsISt11char_traitsIcEERSt13basic_ostreamIcT_ES5_PKc
 10845      00
 10846 0036 C7442404 		movl	$__ZSt4endlIcSt11char_traitsIcEERSt13basic_ostreamIT_T0_ES6_, 4(%esp)
 10846      00000000 
 10847 003e 890424   		movl	%eax, (%esp)
 10848 0041 E8000000 		call	__ZNSolsEPFRSoS_E
 10848      00
 10850              	LM858:
 10851 0046 C745E8FF 		movl	$-1, -24(%ebp)
 10851      FFFFFF
 10852 004d E93A0100 		jmp	L412
 10852      00
 10853              	L413:
 10855              	LM859:
 10856 0052 8B45EC   		movl	-20(%ebp), %eax
 10857 0055 890424   		movl	%eax, (%esp)
 10858 0058 E8000000 		call	__ZN13AudioResParam16getAudioFilePathEv
 10858      00
 10859 005d 890424   		movl	%eax, (%esp)
 10860 0060 E8000000 		call	__ZNKSs4sizeEv
 10860      00
 10861 0065 40       		incl	%eax
 10862 0066 890424   		movl	%eax, (%esp)
 10863 0069 E8000000 		call	__Znaj
 10863      00
 10864 006e 8945F4   		movl	%eax, -12(%ebp)
 10866              	LM860:
 10867 0071 8B45EC   		movl	-20(%ebp), %eax
 10868 0074 890424   		movl	%eax, (%esp)
 10869 0077 E8000000 		call	__ZN11ResPopParam15getIdEnumStringEv
GAS LISTING d:/MTK/MTK2503/MTK2503/11CW1418SP4_03_CORETEK03AE_11C_V1_GPRS_MMI/plutommi/Customer/ResGenerator/gcctmp/cc63daaa.s 			page 267


 10869      00
 10870 007c 890424   		movl	%eax, (%esp)
 10871 007f E8000000 		call	__ZNKSs4sizeEv
 10871      00
 10872 0084 40       		incl	%eax
 10873 0085 890424   		movl	%eax, (%esp)
 10874 0088 E8000000 		call	__Znaj
 10874      00
 10875 008d 8945F0   		movl	%eax, -16(%ebp)
 10877              	LM861:
 10878 0090 8B45EC   		movl	-20(%ebp), %eax
 10879 0093 890424   		movl	%eax, (%esp)
 10880 0096 E8000000 		call	__ZN13AudioResParam16getAudioFilePathEv
 10880      00
 10881 009b 890424   		movl	%eax, (%esp)
 10882 009e E8000000 		call	__ZNKSs5c_strEv
 10882      00
 10883 00a3 89442404 		movl	%eax, 4(%esp)
 10884 00a7 8B45F4   		movl	-12(%ebp), %eax
 10885 00aa 890424   		movl	%eax, (%esp)
 10886 00ad E8000000 		call	_strcpy
 10886      00
 10888              	LM862:
 10889 00b2 8B45EC   		movl	-20(%ebp), %eax
 10890 00b5 890424   		movl	%eax, (%esp)
 10891 00b8 E8000000 		call	__ZN11ResPopParam15getIdEnumStringEv
 10891      00
 10892 00bd 890424   		movl	%eax, (%esp)
 10893 00c0 E8000000 		call	__ZNKSs5c_strEv
 10893      00
 10894 00c5 89442404 		movl	%eax, 4(%esp)
 10895 00c9 8B45F0   		movl	-16(%ebp), %eax
 10896 00cc 890424   		movl	%eax, (%esp)
 10897 00cf E8000000 		call	_strcpy
 10897      00
 10899              	LM863:
 10900 00d4 8B45EC   		movl	-20(%ebp), %eax
 10901 00d7 890424   		movl	%eax, (%esp)
 10902 00da E8000000 		call	__ZN13AudioResParam12getForceTypeEv
 10902      00
 10903 00df 3DFE0000 		cmpl	$254, %eax
 10903      00
 10904 00e4 7E37     		jle	L414
 10906              	LM864:
 10907 00e6 8B45EC   		movl	-20(%ebp), %eax
 10908 00e9 890424   		movl	%eax, (%esp)
 10909 00ec E8000000 		call	__ZN13AudioResParam16getIsMultipleBinEv
 10909      00
 10910 00f1 89C3     		movl	%eax, %ebx
 10911 00f3 8B45EC   		movl	-20(%ebp), %eax
 10912 00f6 890424   		movl	%eax, (%esp)
 10913 00f9 E8000000 		call	__ZN11ResPopParam14getIdEnumValueEv
 10913      00
 10914 00fe 0FB7D0   		movzwl	%ax, %edx
 10915 0101 895C240C 		movl	%ebx, 12(%esp)
 10916 0105 8B45F0   		movl	-16(%ebp), %eax
 10917 0108 89442408 		movl	%eax, 8(%esp)
GAS LISTING d:/MTK/MTK2503/MTK2503/11CW1418SP4_03_CORETEK03AE_11C_V1_GPRS_MMI/plutommi/Customer/ResGenerator/gcctmp/cc63daaa.s 			page 268


 10918 010c 8B45F4   		movl	-12(%ebp), %eax
 10919 010f 89442404 		movl	%eax, 4(%esp)
 10920 0113 891424   		movl	%edx, (%esp)
 10921 0116 E8000000 		call	_SetAudioWithBuffer
 10921      00
 10922 011b EB46     		jmp	L415
 10923              	L414:
 10925              	LM865:
 10926 011d 8B45EC   		movl	-20(%ebp), %eax
 10927 0120 890424   		movl	%eax, (%esp)
 10928 0123 E8000000 		call	__ZN13AudioResParam12getForceTypeEv
 10928      00
 10929 0128 89C3     		movl	%eax, %ebx
 10930 012a 8B45EC   		movl	-20(%ebp), %eax
 10931 012d 890424   		movl	%eax, (%esp)
 10932 0130 E8000000 		call	__ZN13AudioResParam16getIsMultipleBinEv
 10932      00
 10933 0135 89C6     		movl	%eax, %esi
 10934 0137 8B45EC   		movl	-20(%ebp), %eax
 10935 013a 890424   		movl	%eax, (%esp)
 10936 013d E8000000 		call	__ZN11ResPopParam14getIdEnumValueEv
 10936      00
 10937 0142 0FB7D0   		movzwl	%ax, %edx
 10938 0145 895C2410 		movl	%ebx, 16(%esp)
 10939 0149 8974240C 		movl	%esi, 12(%esp)
 10940 014d 8B45F0   		movl	-16(%ebp), %eax
 10941 0150 89442408 		movl	%eax, 8(%esp)
 10942 0154 8B45F4   		movl	-12(%ebp), %eax
 10943 0157 89442404 		movl	%eax, 4(%esp)
 10944 015b 891424   		movl	%edx, (%esp)
 10945 015e E8000000 		call	_SetAudioWithBufferForceType
 10945      00
 10946              	L415:
 10948              	LM866:
 10949 0163 837DF400 		cmpl	$0, -12(%ebp)
 10950 0167 740B     		je	L417
 10951 0169 8B45F4   		movl	-12(%ebp), %eax
 10952 016c 890424   		movl	%eax, (%esp)
 10953 016f E8000000 		call	__ZdaPv
 10953      00
 10954              	L417:
 10956              	LM867:
 10957 0174 837DF000 		cmpl	$0, -16(%ebp)
 10958 0178 740B     		je	L419
 10959 017a 8B45F0   		movl	-16(%ebp), %eax
 10960 017d 890424   		movl	%eax, (%esp)
 10961 0180 E8000000 		call	__ZdaPv
 10961      00
 10962              	L419:
 10964              	LM868:
 10965 0185 C745E800 		movl	$0, -24(%ebp)
 10965      000000
 10967              	LM869:
 10968              	L412:
 10969              	LBE120:
 10970 018c 8B45E8   		movl	-24(%ebp), %eax
 10971 018f 83C430   		addl	$48, %esp
GAS LISTING d:/MTK/MTK2503/MTK2503/11CW1418SP4_03_CORETEK03AE_11C_V1_GPRS_MMI/plutommi/Customer/ResGenerator/gcctmp/cc63daaa.s 			page 269


 10972 0192 5B       		popl	%ebx
 10973 0193 5E       		popl	%esi
 10974 0194 5D       		popl	%ebp
 10975 0195 C3       		ret
 10981              	Lscope62:
 10983 0196 9090     		.text
 10984              	LC324:
 10985 83a2 64657374 		.ascii "dest_file could not open!\12\0"
 10985      5F66696C 
 10985      6520636F 
 10985      756C6420 
 10985      6E6F7420 
 10986              		.section	.text$_ZN24BatchedResFileGenService17initResFileOutputEPc,"x"
 10987              		.linkonce discard
 10988              		.align 2
 10992              	.globl __ZN24BatchedResFileGenService17initResFileOutputEPc
 10994              	__ZN24BatchedResFileGenService17initResFileOutputEPc:
 10996              	LM870:
 10997 0000 55       		pushl	%ebp
 10998 0001 89E5     		movl	%esp, %ebp
 10999 0003 83EC18   		subl	$24, %esp
 11001              	LM871:
 11002              	LBB121:
 11003 0006 C745FC00 		movl	$0, -4(%ebp)
 11003      000000
 11005              	LM872:
 11006 000d C7442404 		movl	$LC29, 4(%esp)
 11006      39090000 
 11007 0015 8B450C   		movl	12(%ebp), %eax
 11008 0018 890424   		movl	%eax, (%esp)
 11009 001b E8000000 		call	_fopen
 11009      00
 11010 0020 A3000000 		movl	%eax, _dest_file
 11010      00
 11012              	LM873:
 11013 0025 833D0000 		cmpl	$0, _dest_file
 11013      000000
 11014 002c 752B     		jne	L421
 11016              	LM874:
 11017 002e C745FCFF 		movl	$-1, -4(%ebp)
 11017      FFFFFF
 11019              	LM875:
 11020 0035 C7442404 		movl	$LC324, 4(%esp)
 11020      A2830000 
 11021 003d C7042400 		movl	$__ZSt4cout, (%esp)
 11021      000000
 11022 0044 E8000000 		call	__ZStlsISt11char_traitsIcEERSt13basic_ostreamIcT_ES5_PKc
 11022      00
 11023 0049 C7442404 		movl	$__ZSt4endlIcSt11char_traitsIcEERSt13basic_ostreamIT_T0_ES6_, 4(%esp)
 11023      00000000 
 11024 0051 890424   		movl	%eax, (%esp)
 11025 0054 E8000000 		call	__ZNSolsEPFRSoS_E
 11025      00
 11026              	L421:
 11028              	LM876:
 11029 0059 C7050000 		movl	$1, _toolFlag
 11029      00000100 
GAS LISTING d:/MTK/MTK2503/MTK2503/11CW1418SP4_03_CORETEK03AE_11C_V1_GPRS_MMI/plutommi/Customer/ResGenerator/gcctmp/cc63daaa.s 			page 270


 11029      0000
 11031              	LM877:
 11032 0063 E8000000 		call	_ToolPopulateInitial
 11032      00
 11034              	LM878:
 11035 0068 8B45FC   		movl	-4(%ebp), %eax
 11037              	LM879:
 11038 006b C9       		leave
 11039 006c C3       		ret
 11040              	LBE121:
 11044              	Lscope63:
 11046 006d 909090   		.section	.text$_ZN24BatchedResFileGenService19deInitResFileOutputEv,"x"
 11047              		.linkonce discard
 11048              		.align 2
 11051              	.globl __ZN24BatchedResFileGenService19deInitResFileOutputEv
 11053              	__ZN24BatchedResFileGenService19deInitResFileOutputEv:
 11055              	LM880:
 11056 0000 55       		pushl	%ebp
 11057 0001 89E5     		movl	%esp, %ebp
 11058 0003 83EC08   		subl	$8, %esp
 11060              	LM881:
 11061              	LBB122:
 11062 0006 833D0000 		cmpl	$0, _dest_file
 11062      000000
 11063 000d 740D     		je	L423
 11065              	LM882:
 11066 000f A1000000 		movl	_dest_file, %eax
 11066      00
 11067 0014 890424   		movl	%eax, (%esp)
 11068 0017 E8000000 		call	_fclose
 11068      00
 11069              	L423:
 11071              	LM883:
 11072 001c C7050000 		movl	$0, _dest_file
 11072      00000000 
 11072      0000
 11074              	LM884:
 11075 0026 B8000000 		movl	$0, %eax
 11075      00
 11077              	LM885:
 11078 002b C9       		leave
 11079 002c C3       		ret
 11080              	LBE122:
 11081              	Lscope64:
 11083 002d 909090   		.section	.text$_ZNSt8iteratorISt26random_access_iterator_tagP15ResFileGenParamiPKS2_RS3_EC2Ev,"x"
 11084              		.linkonce discard
 11085              		.align 2
 11088              	.globl __ZNSt8iteratorISt26random_access_iterator_tagP15ResFileGenParamiPKS2_RS3_EC2Ev
 11090              	__ZNSt8iteratorISt26random_access_iterator_tagP15ResFileGenParamiPKS2_RS3_EC2Ev:
 11092              	Ltext13:
 11094              	LM886:
 11095              	L425:
 11096              	L424:
 11097 0000 55       		pushl	%ebp
 11098 0001 89E5     		movl	%esp, %ebp
 11100              	LM887:
 11101 0003 5D       		popl	%ebp
GAS LISTING d:/MTK/MTK2503/MTK2503/11CW1418SP4_03_CORETEK03AE_11C_V1_GPRS_MMI/plutommi/Customer/ResGenerator/gcctmp/cc63daaa.s 			page 271


 11102 0004 C3       		ret
 11103              	Lscope65:
 11105 0005 909090   		.section	.text$_ZNSt8iteratorISt26random_access_iterator_tagP15ResFileGenParamiPS2_RS2_EC2Ev,"x"
 11106              		.linkonce discard
 11107              		.align 2
 11110              	.globl __ZNSt8iteratorISt26random_access_iterator_tagP15ResFileGenParamiPS2_RS2_EC2Ev
 11112              	__ZNSt8iteratorISt26random_access_iterator_tagP15ResFileGenParamiPS2_RS2_EC2Ev:
 11114              	LM888:
 11115              	L428:
 11116              	L427:
 11117 0000 55       		pushl	%ebp
 11118 0001 89E5     		movl	%esp, %ebp
 11120              	LM889:
 11121 0003 5D       		popl	%ebp
 11122 0004 C3       		ret
 11123              	Lscope66:
 11125              	.globl __ZTI25OfflineResPopAudioAdaptor
 11126 0005 909090   		.section	.rdata$_ZTI25OfflineResPopAudioAdaptor,""
 11127              		.linkonce same_size
 11128              		.align 4
 11129              	__ZTI25OfflineResPopAudioAdaptor:
 11130 0000 08000000 		.long	__ZTVN10__cxxabiv120__si_class_type_infoE+8
 11131 0004 00000000 		.long	__ZTS25OfflineResPopAudioAdaptor
 11132 0008 00000000 		.long	__ZTI20OfflineResPopAdaptor
 11133              	.globl __ZTS25OfflineResPopAudioAdaptor
 11134              		.section	.rdata$_ZTS25OfflineResPopAudioAdaptor,""
 11135              		.linkonce same_size
 11136              	__ZTS25OfflineResPopAudioAdaptor:
 11137 0000 32354F66 		.ascii "25OfflineResPopAudioAdaptor\0"
 11137      666C696E 
 11137      65526573 
 11137      506F7041 
 11137      7564696F 
 11138              		.section	.text$_ZN19OfflineResPopulatorC2Ev,"x"
 11139              		.linkonce discard
 11140              		.align 2
 11143              	.globl __ZN19OfflineResPopulatorC2Ev
 11145              	__ZN19OfflineResPopulatorC2Ev:
 11147              	Ltext14:
 11149              	LM890:
 11150 0000 55       		pushl	%ebp
 11151 0001 89E5     		movl	%esp, %ebp
 11153              	LM891:
 11154              	LBB123:
 11155 0003 8B4508   		movl	8(%ebp), %eax
 11156 0006 C7000800 		movl	$__ZTV19OfflineResPopulator+8, (%eax)
 11156      0000
 11157 000c 5D       		popl	%ebp
 11158 000d C3       		ret
 11159              	L431:
 11160              	L430:
 11161              	LBE123:
 11162              	Lscope67:
 11164              	.globl __ZTI20OfflineResPopAdaptor
 11165 000e 9090     		.section	.rdata$_ZTI20OfflineResPopAdaptor,""
 11166              		.linkonce same_size
 11167              		.align 4
GAS LISTING d:/MTK/MTK2503/MTK2503/11CW1418SP4_03_CORETEK03AE_11C_V1_GPRS_MMI/plutommi/Customer/ResGenerator/gcctmp/cc63daaa.s 			page 272


 11168              	__ZTI20OfflineResPopAdaptor:
 11169 0000 08000000 		.long	__ZTVN10__cxxabiv120__si_class_type_infoE+8
 11170 0004 00000000 		.long	__ZTS20OfflineResPopAdaptor
 11171 0008 00000000 		.long	__ZTI19OfflineResPopulator
 11172              	.globl __ZTS20OfflineResPopAdaptor
 11173              		.section	.rdata$_ZTS20OfflineResPopAdaptor,""
 11174              		.linkonce same_size
 11175              	__ZTS20OfflineResPopAdaptor:
 11176 0000 32304F66 		.ascii "20OfflineResPopAdaptor\0"
 11176      666C696E 
 11176      65526573 
 11176      506F7041 
 11176      64617074 
 11177              	.globl __ZTV19OfflineResPopulator
 11178 0017 00       		.section	.rdata$_ZTV19OfflineResPopulator,""
 11179              		.linkonce same_size
 11180              		.align 8
 11181              	__ZTV19OfflineResPopulator:
 11182 0000 00000000 		.long	0
 11183 0004 00000000 		.long	__ZTI19OfflineResPopulator
 11184 0008 00000000 		.long	___cxa_pure_virtual
 11185 000c 00000000 		.long	___cxa_pure_virtual
 11186 0010 00000000 		.long	___cxa_pure_virtual
 11187              	.globl __ZTI19OfflineResPopulator
 11188 0014 00000000 		.section	.rdata$_ZTI19OfflineResPopulator,""
 11189              		.linkonce same_size
 11190              		.align 4
 11191              	__ZTI19OfflineResPopulator:
 11192 0000 08000000 		.long	__ZTVN10__cxxabiv117__class_type_infoE+8
 11193 0004 00000000 		.long	__ZTS19OfflineResPopulator
 11194              	.globl __ZTS19OfflineResPopulator
 11195              		.section	.rdata$_ZTS19OfflineResPopulator,""
 11196              		.linkonce same_size
 11197              	__ZTS19OfflineResPopulator:
 11198 0000 31394F66 		.ascii "19OfflineResPopulator\0"
 11198      666C696E 
 11198      65526573 
 11198      506F7075 
 11198      6C61746F 
 11199 0016 0000     		.text
 11200 83bd 90       		.align 2
 11203              	__GLOBAL__I_g_is_clean:
 11205              	LM892:
 11206 83be 55       		pushl	%ebp
 11207 83bf 89E5     		movl	%esp, %ebp
 11208 83c1 83EC08   		subl	$8, %esp
 11210              	LM893:
 11211 83c4 C7442404 		movl	$65535, 4(%esp)
 11211      FFFF0000 
 11212 83cc C7042401 		movl	$1, (%esp)
 11212      000000
 11213 83d3 E808FEFF 		call	__Z41__static_initialization_and_destruction_0ii
 11213      FF
 11214 83d8 C9       		leave
 11215 83d9 C3       		ret
 11216              	Lscope68:
 11218              		.section	.ctors,"w"
GAS LISTING d:/MTK/MTK2503/MTK2503/11CW1418SP4_03_CORETEK03AE_11C_V1_GPRS_MMI/plutommi/Customer/ResGenerator/gcctmp/cc63daaa.s 			page 273


 11219              		.align 4
 11220 0000 BE830000 		.long	__GLOBAL__I_g_is_clean
 11221              		.text
 11222              		.align 2
 11225              	__GLOBAL__D_g_is_clean:
 11227              	LM894:
 11228 83da 55       		pushl	%ebp
 11229 83db 89E5     		movl	%esp, %ebp
 11230 83dd 83EC08   		subl	$8, %esp
 11232              	LM895:
 11233 83e0 C7442404 		movl	$65535, 4(%esp)
 11233      FFFF0000 
 11234 83e8 C7042400 		movl	$0, (%esp)
 11234      000000
 11235 83ef E8ECFDFF 		call	__Z41__static_initialization_and_destruction_0ii
 11235      FF
 11236 83f4 C9       		leave
 11237 83f5 C3       		ret
 11238              	Lscope69:
 11240              		.section	.dtors,"w"
 11241              		.align 4
 11242 0000 DA830000 		.long	__GLOBAL__D_g_is_clean
 11259              		.text
 11261              	Letext:
GAS LISTING d:/MTK/MTK2503/MTK2503/11CW1418SP4_03_CORETEK03AE_11C_V1_GPRS_MMI/plutommi/Customer/ResGenerator/gcctmp/cc63daaa.s 			page 274


DEFINED SYMBOLS
                            *ABS*:00000000 mtk_resgenerator.cpp
d:/MTK/MTK2503/MTK2503/11CW1418SP4_03_CORETEK03AE_11C_V1_GPRS_MMI/plutommi/Customer/ResGenerator/gcctmp/cc63daaa.s:838    .bss:00000008 __ZSt8__ioinit
d:/MTK/MTK2503/MTK2503/11CW1418SP4_03_CORETEK03AE_11C_V1_GPRS_MMI/plutommi/Customer/ResGenerator/gcctmp/cc63daaa.s:2901   .bss:00000000 _g_is_clean
d:/MTK/MTK2503/MTK2503/11CW1418SP4_03_CORETEK03AE_11C_V1_GPRS_MMI/plutommi/Customer/ResGenerator/gcctmp/cc63daaa.s:2955   .text:00000442 __Z28GenerateENFBAssociatedIDFilev
d:/MTK/MTK2503/MTK2503/11CW1418SP4_03_CORETEK03AE_11C_V1_GPRS_MMI/plutommi/Customer/ResGenerator/gcctmp/cc63daaa.s:3274   .text:00000770 __Z10UnzipImagev
d:/MTK/MTK2503/MTK2503/11CW1418SP4_03_CORETEK03AE_11C_V1_GPRS_MMI/plutommi/Customer/ResGenerator/gcctmp/cc63daaa.s:3349   .text:00000a0a __Z10UnzipAudiov
d:/MTK/MTK2503/MTK2503/11CW1418SP4_03_CORETEK03AE_11C_V1_GPRS_MMI/plutommi/Customer/ResGenerator/gcctmp/cc63daaa.s:3619   .text:00000d9a _MtkResgenTrace
d:/MTK/MTK2503/MTK2503/11CW1418SP4_03_CORETEK03AE_11C_V1_GPRS_MMI/plutommi/Customer/ResGenerator/gcctmp/cc63daaa.s:3638   .text:00000da0 __Z21PopulateSearchMap_ExtP13CUSTOM_ID_MAPP20CUSTOM_ID_SEARCH_MAPPtS3_t
d:/MTK/MTK2503/MTK2503/11CW1418SP4_03_CORETEK03AE_11C_V1_GPRS_MMI/plutommi/Customer/ResGenerator/gcctmp/cc63daaa.s:3838   .text:00000f5c __Z19PopulateImageSearchv
d:/MTK/MTK2503/MTK2503/11CW1418SP4_03_CORETEK03AE_11C_V1_GPRS_MMI/plutommi/Customer/ResGenerator/gcctmp/cc63daaa.s:3880   .text:0000101c __Z19PopulateAudioSearchv
d:/MTK/MTK2503/MTK2503/11CW1418SP4_03_CORETEK03AE_11C_V1_GPRS_MMI/plutommi/Customer/ResGenerator/gcctmp/cc63daaa.s:3922   .text:000010da __Z18PopulateFontSearchv
d:/MTK/MTK2503/MTK2503/11CW1418SP4_03_CORETEK03AE_11C_V1_GPRS_MMI/plutommi/Customer/ResGenerator/gcctmp/cc63daaa.s:4029   .text:000016e2 __Z19GenerateResFile_Exti18RESOURCE_TYPE_LISTP16CUSTOM_NAME_LISTtPcS2_S2_S2_S2_S2_S2_S2_j
d:/MTK/MTK2503/MTK2503/11CW1418SP4_03_CORETEK03AE_11C_V1_GPRS_MMI/plutommi/Customer/ResGenerator/gcctmp/cc63daaa.s:4453   .text:00001c64 __Z20GenerateImageResFilev
d:/MTK/MTK2503/MTK2503/11CW1418SP4_03_CORETEK03AE_11C_V1_GPRS_MMI/plutommi/Customer/ResGenerator/gcctmp/cc63daaa.s:4682   .text:000020c4 __Z20GenerateAudioResFilev
d:/MTK/MTK2503/MTK2503/11CW1418SP4_03_CORETEK03AE_11C_V1_GPRS_MMI/plutommi/Customer/ResGenerator/gcctmp/cc63daaa.s:4759   .text:000022ea __Z19GenerateFontResFilev
d:/MTK/MTK2503/MTK2503/11CW1418SP4_03_CORETEK03AE_11C_V1_GPRS_MMI/plutommi/Customer/ResGenerator/gcctmp/cc63daaa.s:4819   .text:000024ce __Z19GenerateMapFile_ExtP13CUSTOM_ID_MAPtPcS1_S1_S1_S1_
d:/MTK/MTK2503/MTK2503/11CW1418SP4_03_CORETEK03AE_11C_V1_GPRS_MMI/plutommi/Customer/ResGenerator/gcctmp/cc63daaa.s:4980   .text:0000275e __Z20GenerateImageMapFilev
d:/MTK/MTK2503/MTK2503/11CW1418SP4_03_CORETEK03AE_11C_V1_GPRS_MMI/plutommi/Customer/ResGenerator/gcctmp/cc63daaa.s:5048   .text:0000293e __Z20GenerateAudioMapFilev
d:/MTK/MTK2503/MTK2503/11CW1418SP4_03_CORETEK03AE_11C_V1_GPRS_MMI/plutommi/Customer/ResGenerator/gcctmp/cc63daaa.s:5107   .text:00002ab6 __Z19GenerateFontMapFilev
d:/MTK/MTK2503/MTK2503/11CW1418SP4_03_CORETEK03AE_11C_V1_GPRS_MMI/plutommi/Customer/ResGenerator/gcctmp/cc63daaa.s:5155   .text:00002b50 __Z25GenerateMapSearchFile_ExtP20CUSTOM_ID_SEARCH_MAPtPcS1_S1_S1_
d:/MTK/MTK2503/MTK2503/11CW1418SP4_03_CORETEK03AE_11C_V1_GPRS_MMI/plutommi/Customer/ResGenerator/gcctmp/cc63daaa.s:5295   .text:00002d52 __Z26GenerateImageMapSearchFilev
d:/MTK/MTK2503/MTK2503/11CW1418SP4_03_CORETEK03AE_11C_V1_GPRS_MMI/plutommi/Customer/ResGenerator/gcctmp/cc63daaa.s:5351   .text:00002eb2 __Z26GenerateAudioMapSearchFilev
d:/MTK/MTK2503/MTK2503/11CW1418SP4_03_CORETEK03AE_11C_V1_GPRS_MMI/plutommi/Customer/ResGenerator/gcctmp/cc63daaa.s:5403   .text:00002ff4 __Z25GenerateFontMapSearchFilev
d:/MTK/MTK2503/MTK2503/11CW1418SP4_03_CORETEK03AE_11C_V1_GPRS_MMI/plutommi/Customer/ResGenerator/gcctmp/cc63daaa.s:5555   .text:00004660 __Z16GenerateMenuFilet
d:/MTK/MTK2503/MTK2503/11CW1418SP4_03_CORETEK03AE_11C_V1_GPRS_MMI/plutommi/Customer/ResGenerator/gcctmp/cc63daaa.s:6380   .data:00000000 _output_file_name
d:/MTK/MTK2503/MTK2503/11CW1418SP4_03_CORETEK03AE_11C_V1_GPRS_MMI/plutommi/Customer/ResGenerator/gcctmp/cc63daaa.s:6386   .bss:00000018 _ZZ19process_line_bufferPcE5bjump
d:/MTK/MTK2503/MTK2503/11CW1418SP4_03_CORETEK03AE_11C_V1_GPRS_MMI/plutommi/Customer/ResGenerator/gcctmp/cc63daaa.s:6393   .text:00005110 __Z19process_line_bufferPc
d:/MTK/MTK2503/MTK2503/11CW1418SP4_03_CORETEK03AE_11C_V1_GPRS_MMI/plutommi/Customer/ResGenerator/gcctmp/cc63daaa.s:9975   .text:00008373 _REP_HEADER
d:/MTK/MTK2503/MTK2503/11CW1418SP4_03_CORETEK03AE_11C_V1_GPRS_MMI/plutommi/Customer/ResGenerator/gcctmp/cc63daaa.s:9973   .text:00008368 _HEADER
d:/MTK/MTK2503/MTK2503/11CW1418SP4_03_CORETEK03AE_11C_V1_GPRS_MMI/plutommi/Customer/ResGenerator/gcctmp/cc63daaa.s:6562   .bss:00000028 _ZZ16get_file_headersPcPPA1024_cPiE5bjump
d:/MTK/MTK2503/MTK2503/11CW1418SP4_03_CORETEK03AE_11C_V1_GPRS_MMI/plutommi/Customer/ResGenerator/gcctmp/cc63daaa.s:6572   .text:00005238 __Z16get_file_headersPcPPA1024_cPi
d:/MTK/MTK2503/MTK2503/11CW1418SP4_03_CORETEK03AE_11C_V1_GPRS_MMI/plutommi/Customer/ResGenerator/gcctmp/cc63daaa.s:6637   .bss:00000038 _ZZ22generate_img_data_fileP6_iobufPA1024_ciiE5count
d:/MTK/MTK2503/MTK2503/11CW1418SP4_03_CORETEK03AE_11C_V1_GPRS_MMI/plutommi/Customer/ResGenerator/gcctmp/cc63daaa.s:6657   .text:00005376 __Z22generate_img_data_fileP6_iobufPA1024_cii
d:/MTK/MTK2503/MTK2503/11CW1418SP4_03_CORETEK03AE_11C_V1_GPRS_MMI/plutommi/Customer/ResGenerator/gcctmp/cc63daaa.s:6977   .bss:00000048 _ZZ13get_img_countP6_iobufE9const_num
d:/MTK/MTK2503/MTK2503/11CW1418SP4_03_CORETEK03AE_11C_V1_GPRS_MMI/plutommi/Customer/ResGenerator/gcctmp/cc63daaa.s:6985   .text:000056f8 __Z13get_img_countP6_iobuf
d:/MTK/MTK2503/MTK2503/11CW1418SP4_03_CORETEK03AE_11C_V1_GPRS_MMI/plutommi/Customer/ResGenerator/gcctmp/cc63daaa.s:7119   .text:00005b2e __Z19split_img_data_filev
d:/MTK/MTK2503/MTK2503/11CW1418SP4_03_CORETEK03AE_11C_V1_GPRS_MMI/plutommi/Customer/ResGenerator/gcctmp/cc63daaa.s:7485   .data:00000010 _g_error
d:/MTK/MTK2503/MTK2503/11CW1418SP4_03_CORETEK03AE_11C_V1_GPRS_MMI/plutommi/Customer/ResGenerator/gcctmp/cc63daaa.s:7491   .text:00005f60 __Z22launch_resgen_servicesv
d:/MTK/MTK2503/MTK2503/11CW1418SP4_03_CORETEK03AE_11C_V1_GPRS_MMI/plutommi/Customer/ResGenerator/gcctmp/cc63daaa.s:7581   .text:0000632c __Z19handle_regen_errorsv
d:/MTK/MTK2503/MTK2503/11CW1418SP4_03_CORETEK03AE_11C_V1_GPRS_MMI/plutommi/Customer/ResGenerator/gcctmp/cc63daaa.s:7736   .text:000064e0 __Z18check_fatal_errorsv
d:/MTK/MTK2503/MTK2503/11CW1418SP4_03_CORETEK03AE_11C_V1_GPRS_MMI/plutommi/Customer/ResGenerator/gcctmp/cc63daaa.s:7777   .text:0000650a __Z20stop_resgen_servicesv
d:/MTK/MTK2503/MTK2503/11CW1418SP4_03_CORETEK03AE_11C_V1_GPRS_MMI/plutommi/Customer/ResGenerator/gcctmp/cc63daaa.s:7818   .text:000065ac __Z14resgen_on_exitv
d:/MTK/MTK2503/MTK2503/11CW1418SP4_03_CORETEK03AE_11C_V1_GPRS_MMI/plutommi/Customer/ResGenerator/gcctmp/cc63daaa.s:7883   .text:00006630 __Z14writeLogToFilePcS_i
d:/MTK/MTK2503/MTK2503/11CW1418SP4_03_CORETEK03AE_11C_V1_GPRS_MMI/plutommi/Customer/ResGenerator/gcctmp/cc63daaa.s:7944   .text:00006696 __Z21CATResourceGenerationv
d:/MTK/MTK2503/MTK2503/11CW1418SP4_03_CORETEK03AE_11C_V1_GPRS_MMI/plutommi/Customer/ResGenerator/gcctmp/cc63daaa.s:7958   .bss:00000004 __ZN25OfflineResPopImageAdaptor33IMAGE_REPLACEBALE_SUPPORT_DISABLEE
d:/MTK/MTK2503/MTK2503/11CW1418SP4_03_CORETEK03AE_11C_V1_GPRS_MMI/plutommi/Customer/ResGenerator/gcctmp/cc63daaa.s:7963   .data:00000014 __ZN25OfflineResPopImageAdaptor32IMAGE_REPLACEBALE_SUPPORT_ENABLEE
d:/MTK/MTK2503/MTK2503/11CW1418SP4_03_CORETEK03AE_11C_V1_GPRS_MMI/plutommi/Customer/ResGenerator/gcctmp/cc63daaa.s:8008   .text:00006b14 __Z23OfflineResPopControllerv
d:/MTK/MTK2503/MTK2503/11CW1418SP4_03_CORETEK03AE_11C_V1_GPRS_MMI/plutommi/Customer/ResGenerator/gcctmp/cc63daaa.s:8181   .text:0000702a __Z23prepare3DMetaPopulationv
d:/MTK/MTK2503/MTK2503/11CW1418SP4_03_CORETEK03AE_11C_V1_GPRS_MMI/plutommi/Customer/ResGenerator/gcctmp/cc63daaa.s:8238   .text:00007328 __Z19PostRegenOperationsv
d:/MTK/MTK2503/MTK2503/11CW1418SP4_03_CORETEK03AE_11C_V1_GPRS_MMI/plutommi/Customer/ResGenerator/gcctmp/cc63daaa.s:8362   .text:000078c0 _main
d:/MTK/MTK2503/MTK2503/11CW1418SP4_03_CORETEK03AE_11C_V1_GPRS_MMI/plutommi/Customer/ResGenerator/gcctmp/cc63daaa.s:9161   .text:000081e0 __Z41__static_initialization_and_destruction_0ii
d:/MTK/MTK2503/MTK2503/11CW1418SP4_03_CORETEK03AE_11C_V1_GPRS_MMI/plutommi/Customer/ResGenerator/gcctmp/cc63daaa.s:9909   .text:000082c0 _image_resource_info
d:/MTK/MTK2503/MTK2503/11CW1418SP4_03_CORETEK03AE_11C_V1_GPRS_MMI/plutommi/Customer/ResGenerator/gcctmp/cc63daaa.s:9981   .rdata$_ZNSt15basic_streambufIcSt11char_traitsIcEE13_S_pback_sizeE:00000000 __ZNSt15basic_streambufIcSt11char_traitsIcEE13_S_pback_sizeE
d:/MTK/MTK2503/MTK2503/11CW1418SP4_03_CORETEK03AE_11C_V1_GPRS_MMI/plutommi/Customer/ResGenerator/gcctmp/cc63daaa.s:10743  .rdata$_ZTV25OfflineResPopAudioAdaptor:00000000 __ZTV25OfflineResPopAudioAdaptor
d:/MTK/MTK2503/MTK2503/11CW1418SP4_03_CORETEK03AE_11C_V1_GPRS_MMI/plutommi/Customer/ResGenerator/gcctmp/cc63daaa.s:11129  .rdata$_ZTI25OfflineResPopAudioAdaptor:00000000 __ZTI25OfflineResPopAudioAdaptor
d:/MTK/MTK2503/MTK2503/11CW1418SP4_03_CORETEK03AE_11C_V1_GPRS_MMI/plutommi/Customer/ResGenerator/gcctmp/cc63daaa.s:11136  .rdata$_ZTS25OfflineResPopAudioAdaptor:00000000 __ZTS25OfflineResPopAudioAdaptor
GAS LISTING d:/MTK/MTK2503/MTK2503/11CW1418SP4_03_CORETEK03AE_11C_V1_GPRS_MMI/plutommi/Customer/ResGenerator/gcctmp/cc63daaa.s 			page 275


d:/MTK/MTK2503/MTK2503/11CW1418SP4_03_CORETEK03AE_11C_V1_GPRS_MMI/plutommi/Customer/ResGenerator/gcctmp/cc63daaa.s:11168  .rdata$_ZTI20OfflineResPopAdaptor:00000000 __ZTI20OfflineResPopAdaptor
d:/MTK/MTK2503/MTK2503/11CW1418SP4_03_CORETEK03AE_11C_V1_GPRS_MMI/plutommi/Customer/ResGenerator/gcctmp/cc63daaa.s:11181  .rdata$_ZTV19OfflineResPopulator:00000000 __ZTV19OfflineResPopulator
d:/MTK/MTK2503/MTK2503/11CW1418SP4_03_CORETEK03AE_11C_V1_GPRS_MMI/plutommi/Customer/ResGenerator/gcctmp/cc63daaa.s:11175  .rdata$_ZTS20OfflineResPopAdaptor:00000000 __ZTS20OfflineResPopAdaptor
d:/MTK/MTK2503/MTK2503/11CW1418SP4_03_CORETEK03AE_11C_V1_GPRS_MMI/plutommi/Customer/ResGenerator/gcctmp/cc63daaa.s:11191  .rdata$_ZTI19OfflineResPopulator:00000000 __ZTI19OfflineResPopulator
d:/MTK/MTK2503/MTK2503/11CW1418SP4_03_CORETEK03AE_11C_V1_GPRS_MMI/plutommi/Customer/ResGenerator/gcctmp/cc63daaa.s:11197  .rdata$_ZTS19OfflineResPopulator:00000000 __ZTS19OfflineResPopulator
d:/MTK/MTK2503/MTK2503/11CW1418SP4_03_CORETEK03AE_11C_V1_GPRS_MMI/plutommi/Customer/ResGenerator/gcctmp/cc63daaa.s:11203  .text:000083be __GLOBAL__I_g_is_clean
d:/MTK/MTK2503/MTK2503/11CW1418SP4_03_CORETEK03AE_11C_V1_GPRS_MMI/plutommi/Customer/ResGenerator/gcctmp/cc63daaa.s:11225  .text:000083da __GLOBAL__D_g_is_clean
d:/MTK/MTK2503/MTK2503/11CW1418SP4_03_CORETEK03AE_11C_V1_GPRS_MMI/plutommi/Customer/ResGenerator/gcctmp/cc63daaa.s:10818  .text$_ZN25OfflineResPopAudioAdaptor21issueLecacyPopulationEP11ResPopParam:00000000 __ZN25OfflineResPopAudioAdaptor21issueLecacyPopulationEP11ResPopParam
d:/MTK/MTK2503/MTK2503/11CW1418SP4_03_CORETEK03AE_11C_V1_GPRS_MMI/plutommi/Customer/ResGenerator/gcctmp/cc63daaa.s:10724  .text$_ZNK9__gnu_cxx17__normal_iteratorIPP15ResFileGenParamSt6vectorIS2_SaIS2_EEEdeEv:00000000 __ZNK9__gnu_cxx17__normal_iteratorIPP15ResFileGenParamSt6vectorIS2_SaIS2_EEEdeEv
d:/MTK/MTK2503/MTK2503/11CW1418SP4_03_CORETEK03AE_11C_V1_GPRS_MMI/plutommi/Customer/ResGenerator/gcctmp/cc63daaa.s:10691  .text$_ZNK9__gnu_cxx17__normal_iteratorIPP15ResFileGenParamSt6vectorIS2_SaIS2_EEEplERKi:00000000 __ZNK9__gnu_cxx17__normal_iteratorIPP15ResFileGenParamSt6vectorIS2_SaIS2_EEEplERKi
d:/MTK/MTK2503/MTK2503/11CW1418SP4_03_CORETEK03AE_11C_V1_GPRS_MMI/plutommi/Customer/ResGenerator/gcctmp/cc63daaa.s:11112  .text$_ZNSt8iteratorISt26random_access_iterator_tagP15ResFileGenParamiPS2_RS2_EC2Ev:00000000 __ZNSt8iteratorISt26random_access_iterator_tagP15ResFileGenParamiPS2_RS2_EC2Ev
d:/MTK/MTK2503/MTK2503/11CW1418SP4_03_CORETEK03AE_11C_V1_GPRS_MMI/plutommi/Customer/ResGenerator/gcctmp/cc63daaa.s:10660  .text$_ZN9__gnu_cxx17__normal_iteratorIPP15ResFileGenParamSt6vectorIS2_SaIS2_EEEC1ERKS3_:00000000 __ZN9__gnu_cxx17__normal_iteratorIPP15ResFileGenParamSt6vectorIS2_SaIS2_EEEC1ERKS3_
d:/MTK/MTK2503/MTK2503/11CW1418SP4_03_CORETEK03AE_11C_V1_GPRS_MMI/plutommi/Customer/ResGenerator/gcctmp/cc63daaa.s:10630  .text$_ZNSt6vectorIP15ResFileGenParamSaIS1_EE5beginEv:00000000 __ZNSt6vectorIP15ResFileGenParamSaIS1_EE5beginEv
d:/MTK/MTK2503/MTK2503/11CW1418SP4_03_CORETEK03AE_11C_V1_GPRS_MMI/plutommi/Customer/ResGenerator/gcctmp/cc63daaa.s:10609  .text$_ZNK9__gnu_cxx17__normal_iteratorIPKP15ResFileGenParamSt6vectorIS2_SaIS2_EEE4baseEv:00000000 __ZNK9__gnu_cxx17__normal_iteratorIPKP15ResFileGenParamSt6vectorIS2_SaIS2_EEE4baseEv
d:/MTK/MTK2503/MTK2503/11CW1418SP4_03_CORETEK03AE_11C_V1_GPRS_MMI/plutommi/Customer/ResGenerator/gcctmp/cc63daaa.s:10572  .text$_ZN9__gnu_cxxmiIPKP15ResFileGenParamS4_St6vectorIS2_SaIS2_EEEENS_17__normal_iteratorIT_T1_E15difference_typeERKSB_RKNS8_IT0_SA_EE:00000000 __ZN9__gnu_cxxmiIPKP15ResFileGenParamS4_St6vectorIS2_SaIS2_EEEENS_17__normal_iteratorIT_T1_E15difference_typeERKSB_RKNS8_IT0_SA_EE
d:/MTK/MTK2503/MTK2503/11CW1418SP4_03_CORETEK03AE_11C_V1_GPRS_MMI/plutommi/Customer/ResGenerator/gcctmp/cc63daaa.s:10539  .text$_ZNKSt6vectorIP15ResFileGenParamSaIS1_EE3endEv:00000000 __ZNKSt6vectorIP15ResFileGenParamSaIS1_EE3endEv
d:/MTK/MTK2503/MTK2503/11CW1418SP4_03_CORETEK03AE_11C_V1_GPRS_MMI/plutommi/Customer/ResGenerator/gcctmp/cc63daaa.s:11090  .text$_ZNSt8iteratorISt26random_access_iterator_tagP15ResFileGenParamiPKS2_RS3_EC2Ev:00000000 __ZNSt8iteratorISt26random_access_iterator_tagP15ResFileGenParamiPKS2_RS3_EC2Ev
d:/MTK/MTK2503/MTK2503/11CW1418SP4_03_CORETEK03AE_11C_V1_GPRS_MMI/plutommi/Customer/ResGenerator/gcctmp/cc63daaa.s:10509  .text$_ZN9__gnu_cxx17__normal_iteratorIPKP15ResFileGenParamSt6vectorIS2_SaIS2_EEEC1ERKS4_:00000000 __ZN9__gnu_cxx17__normal_iteratorIPKP15ResFileGenParamSt6vectorIS2_SaIS2_EEEC1ERKS4_
d:/MTK/MTK2503/MTK2503/11CW1418SP4_03_CORETEK03AE_11C_V1_GPRS_MMI/plutommi/Customer/ResGenerator/gcctmp/cc63daaa.s:10476  .text$_ZNKSt6vectorIP15ResFileGenParamSaIS1_EE5beginEv:00000000 __ZNKSt6vectorIP15ResFileGenParamSaIS1_EE5beginEv
d:/MTK/MTK2503/MTK2503/11CW1418SP4_03_CORETEK03AE_11C_V1_GPRS_MMI/plutommi/Customer/ResGenerator/gcctmp/cc63daaa.s:9417   .text$_ZN24BatchedResFileGenService16generateResourceEPc:00000000 __ZN24BatchedResFileGenService16generateResourceEPc
d:/MTK/MTK2503/MTK2503/11CW1418SP4_03_CORETEK03AE_11C_V1_GPRS_MMI/plutommi/Customer/ResGenerator/gcctmp/cc63daaa.s:11053  .text$_ZN24BatchedResFileGenService19deInitResFileOutputEv:00000000 __ZN24BatchedResFileGenService19deInitResFileOutputEv
d:/MTK/MTK2503/MTK2503/11CW1418SP4_03_CORETEK03AE_11C_V1_GPRS_MMI/plutommi/Customer/ResGenerator/gcctmp/cc63daaa.s:10994  .text$_ZN24BatchedResFileGenService17initResFileOutputEPc:00000000 __ZN24BatchedResFileGenService17initResFileOutputEPc
d:/MTK/MTK2503/MTK2503/11CW1418SP4_03_CORETEK03AE_11C_V1_GPRS_MMI/plutommi/Customer/ResGenerator/gcctmp/cc63daaa.s:10393  .text$_ZN24BatchedResFileGenService16generateAudioResEPcS0_:00000000 __ZN24BatchedResFileGenService16generateAudioResEPcS0_
d:/MTK/MTK2503/MTK2503/11CW1418SP4_03_CORETEK03AE_11C_V1_GPRS_MMI/plutommi/Customer/ResGenerator/gcctmp/cc63daaa.s:10308  .text$_ZN24BatchedResFileGenService15generateFontResEPcS0_:00000000 __ZN24BatchedResFileGenService15generateFontResEPcS0_
d:/MTK/MTK2503/MTK2503/11CW1418SP4_03_CORETEK03AE_11C_V1_GPRS_MMI/plutommi/Customer/ResGenerator/gcctmp/cc63daaa.s:10136  .text$_ZN24BatchedResFileGenService16generateImageResEPcS0_:00000000 __ZN24BatchedResFileGenService16generateImageResEPcS0_
d:/MTK/MTK2503/MTK2503/11CW1418SP4_03_CORETEK03AE_11C_V1_GPRS_MMI/plutommi/Customer/ResGenerator/gcctmp/cc63daaa.s:9836   .text$_ZNSt6vectorIP15ResFileGenParamSaIS1_EEixEj:00000000 __ZNSt6vectorIP15ResFileGenParamSaIS1_EEixEj
d:/MTK/MTK2503/MTK2503/11CW1418SP4_03_CORETEK03AE_11C_V1_GPRS_MMI/plutommi/Customer/ResGenerator/gcctmp/cc63daaa.s:9796   .text$_ZNKSt6vectorIP15ResFileGenParamSaIS1_EE4sizeEv:00000000 __ZNKSt6vectorIP15ResFileGenParamSaIS1_EE4sizeEv
d:/MTK/MTK2503/MTK2503/11CW1418SP4_03_CORETEK03AE_11C_V1_GPRS_MMI/plutommi/Customer/ResGenerator/gcctmp/cc63daaa.s:10020  .text$_ZN26ResFileGenParamTextFileDAOC1Ev:00000000 __ZN26ResFileGenParamTextFileDAOC1Ev
d:/MTK/MTK2503/MTK2503/11CW1418SP4_03_CORETEK03AE_11C_V1_GPRS_MMI/plutommi/Customer/ResGenerator/gcctmp/cc63daaa.s:9253   .text$_ZN20OfflineResPopService21populateAudioResourceEPc:00000000 __ZN20OfflineResPopService21populateAudioResourceEPc
d:/MTK/MTK2503/MTK2503/11CW1418SP4_03_CORETEK03AE_11C_V1_GPRS_MMI/plutommi/Customer/ResGenerator/gcctmp/cc63daaa.s:10044  .text$_ZN25OfflineResPopAudioAdaptorC1Ev:00000000 __ZN25OfflineResPopAudioAdaptorC1Ev
d:/MTK/MTK2503/MTK2503/11CW1418SP4_03_CORETEK03AE_11C_V1_GPRS_MMI/plutommi/Customer/ResGenerator/gcctmp/cc63daaa.s:9990   .text$_ZN21AudioParamTextFileDAOC1Ev:00000000 __ZN21AudioParamTextFileDAOC1Ev
d:/MTK/MTK2503/MTK2503/11CW1418SP4_03_CORETEK03AE_11C_V1_GPRS_MMI/plutommi/Customer/ResGenerator/gcctmp/cc63daaa.s:10076  .text$_ZN20OfflineResPopService16populateResourceEP13ResParamModelPcP16ParamTextFileDAOP19OfflineResPopulator:00000000 __ZN20OfflineResPopService16populateResourceEP13ResParamModelPcP16ParamTextFileDAOP19OfflineResPopulator
d:/MTK/MTK2503/MTK2503/11CW1418SP4_03_CORETEK03AE_11C_V1_GPRS_MMI/plutommi/Customer/ResGenerator/gcctmp/cc63daaa.s:10759  .text$_ZN16ParamTextFileDAOC2Ev:00000000 __ZN16ParamTextFileDAOC2Ev
d:/MTK/MTK2503/MTK2503/11CW1418SP4_03_CORETEK03AE_11C_V1_GPRS_MMI/plutommi/Customer/ResGenerator/gcctmp/cc63daaa.s:11145  .text$_ZN19OfflineResPopulatorC2Ev:00000000 __ZN19OfflineResPopulatorC2Ev
d:/MTK/MTK2503/MTK2503/11CW1418SP4_03_CORETEK03AE_11C_V1_GPRS_MMI/plutommi/Customer/ResGenerator/gcctmp/cc63daaa.s:10785  .text$_ZN20OfflineResPopAdaptorC2Ev:00000000 __ZN20OfflineResPopAdaptorC2Ev
d:/MTK/MTK2503/MTK2503/11CW1418SP4_03_CORETEK03AE_11C_V1_GPRS_MMI/plutommi/Customer/ResGenerator/gcctmp/cc63daaa.s:9226   .text$_ZSt6strstrPcPKc:00000000 __ZSt6strstrPcPKc
d:/MTK/MTK2503/MTK2503/11CW1418SP4_03_CORETEK03AE_11C_V1_GPRS_MMI/plutommi/Customer/ResGenerator/gcctmp/cc63daaa.s:9197   .text$_ZSt6strchrPci:00000000 __ZSt6strchrPci

UNDEFINED SYMBOLS
_CurrMaxENFBAssociatedIDNum
_ENFBAssociatedIDList
__imp___iob
_FindFirstFileA@8
_GetLastError@0
_FindClose@4
_CompareFileTime@8
_CurrMaxSearchImageId
_CurrMaxImageId
_ImageIdSearchMap
_ImageIdMap
_CurrMaxSearchImageIdEXT
_CurrMaxImageIdEXT
_ImageIdSearchMapEXT
_ImageIdMapEXT
_CurrMaxSearchAudioId
_CurrMaxAudioId
_AudioIdSearchMap
GAS LISTING d:/MTK/MTK2503/MTK2503/11CW1418SP4_03_CORETEK03AE_11C_V1_GPRS_MMI/plutommi/Customer/ResGenerator/gcctmp/cc63daaa.s 			page 276


_AudioIdMap
_CurrMaxSearchAudioIdEXT
_CurrMaxAudioIdEXT
_AudioIdSearchMapEXT
_AudioIdMapEXT
_CurrMaxSearchFontIdEXT
_CurrMaxFontIdEXT
_FontIdSearchMapEXT
_FontIdMapEXT
__Unwind_SjLj_Resume
___gxx_personality_sj0
__Unwind_SjLj_Register
__Unwind_SjLj_Unregister
_CurrMaxImageNum
_ImageNameList
_CurrMaxImageNumEXT
_ImageNameListEXT
_CurrMaxAudioNum
_AudioNameList
_CurrMaxAudioNumEXT
_AudioNameListEXT
_CurrMaxFontNumEXT
_FontNameListEXT
_nCustMenus
_HintHdlrCount
_HiliteHdlrCount
_nMenuHiliteHandlers
_nMenuHintHandlers
__ZN18ResgenConfigurator19DEFAULT_CONFIG_FILEE
___main
__alloca
_dest_file
_resultFailFlag
_toolFlag
_Sleep@4
_CreateDirectoryA@8
_g_is_log
_CurrMaxMenuItemIndex
__ZN15ResFileGenParam10IMAGE_TYPEE
__ZN15ResFileGenParam9FONT_TYPEE
__ZN15ResFileGenParam10AUDIO_TYPEE
__ZTV21AudioParamTextFileDAO
__ZTV26ResFileGenParamTextFileDAO
__ZTV16ParamTextFileDAO
__ZTV20OfflineResPopAdaptor
__ZSt4cout
__ZTVN10__cxxabiv120__si_class_type_infoE
__ZTVN10__cxxabiv117__class_type_infoE
___cxa_pure_virtual
__ZN20OfflineResPopAdaptor14getResPopModelEv
__ZN20OfflineResPopAdaptor14setResPopModelEP13ResParamModel
__ZN20OfflineResPopAdaptor8populateEv
__ZNSt8ios_base4InitD1Ev
_atexit
_strcmp
_remove
_reslog_adaptor_fatal_error_pending_log
GAS LISTING d:/MTK/MTK2503/MTK2503/11CW1418SP4_03_CORETEK03AE_11C_V1_GPRS_MMI/plutommi/Customer/ResGenerator/gcctmp/cc63daaa.s 			page 277


_mtk_resgen_set_error
_ImageOutStreamDeinit
_ImageOutStreamOutputFile
_Iload
_ImageOutStreamInit
_initImageProcessData
_Fload
_Aload
_str_upper
_strncpy
__ZN20ResFileGenParamModelD1Ev
__ZN15ResFileGenParam7getTypeEv
__ZN15ResFileGenParam11getDestPathEv
__ZN15ResFileGenParam10getSrcPathEv
__ZN20ResFileGenParamModel21setRepositoryFileNameEPc
__ZN20ResFileGenParamModelC1Ev
_ToolPopulateInitial
_ResPopDeinitAll
_PopulateResDataPostXML
_PopulateResDataXML
_BinaryAdaptorStopOfflinePopulation
_AudioAdaptorStopOfflinePopulation
_PopulateResDataPreXML
_ResPopInitAll
_BinaryAdaptorStartOfflinePopulation
_AudioAdaptorStartOfflinePopulation
__ZN13ResParamModelD1Ev
__ZN13ResParamModelC1Ev
__ZN13ResParamModel21setRepositoryFileNameEPc
_SetAudioWithBufferForceType
_SetAudioWithBuffer
__ZN13AudioResParam16getIsMultipleBinEv
__ZN13AudioResParam12getForceTypeEv
__ZN13AudioResParam16getAudioFilePathEv
__ZdaPv
__ZN11ResPopParam14getIdEnumValueEv
__ZNKSs5c_strEv
__ZN11ResPopParam15getIdEnumStringEv
__Znaj
__ZNKSs4sizeEv
__ZNSolsEPFRSoS_E
__ZSt4endlIcSt11char_traitsIcEERSt13basic_ostreamIT_T0_ES6_
__ZStlsISt11char_traitsIcEERSt13basic_ostreamIcT_ES5_PKc
_fflush
_reslog_adaptor_stop_service
__ZN18ResgenConfigurator7releaseEv
__ZN26ResgenCrashHandlingService4stopEv
_reslog_adaptor_flush_pending_fatal_error
_reslog_adaptor_has_pending_fatal_error
_fwprintf
_reslog_adaptor_wlog
_str_merge_get_err
_mtk_resgen_has_error
__ZN26ResgenCrashHandlingService5startEv
__ZN26ResgenCrashHandlingService11getInstanceEv
_reslog_adaptor_set_max_level
__ZN18ResgenConfigurator13getDebugLevelEv
GAS LISTING d:/MTK/MTK2503/MTK2503/11CW1418SP4_03_CORETEK03AE_11C_V1_GPRS_MMI/plutommi/Customer/ResGenerator/gcctmp/cc63daaa.s 			page 278


__ZN18ResgenConfigurator17loadConfigurationEPKc
__ZN18ResgenConfigurator11getInstanceEv
_reslog_adaptor_start_service
_memset
_rewind
_malloc
_feof
_fgets
_strcpy
_strlen
_strcat
__ZN28ImageGroupMappingMetaCreatorD1Ev
__ZN28ImageGroupMappingMetaCreator16generateMetaFileEPKc
__ZN28ImageGroupMappingMetaCreator8addImageEPKc
__ZN28ImageGroupMappingMetaCreatorC1Ev
_Extract_Name
_fputs
_execute_ext_command
_fwrite
_fread
_exit
_sprintf
_fclose
_free
_fprintf
_fopen
_reslog_adaptor_log
__ZNSt8ios_base4InitC1Ev
__ZdlPv
__Znwj
_strstr
_strchr
__exit
