GAS LISTING d:/MTK/MTK2503/MTK2503/11CW1418SP4_03_CORETEK03AE_11C_V1_GPRS_MMI/plutommi/Customer/ResGenerator/gcctmp/ccQHcaaa.s 			page 1


   1              		.file	"ThreadPool.cpp"
   4              		.text
   5              	Ltext0:
 2849              	LC0:
 2850 0000 496E6974 		.ascii "InitializeCriticalSection\0"
 2850      69616C69 
 2850      7A654372 
 2850      69746963 
 2850      616C5365 
 2851              	LC1:
 2852 001a 54485245 		.ascii "THREADPOLL\0"
 2852      4144504F 
 2852      4C4C00
 2853              	LC2:
 2854 0025 43726561 		.ascii "Create(poolSize) = %d\0"
 2854      74652870 
 2854      6F6F6C53 
 2854      697A6529 
 2854      203D2025 
 2855 003b 908D7426 		.align 32
 2855      00
 2856              	LC3:
 2857 0040 556E6162 		.ascii "Unable to create thread pool due to lack of memory.\0"
 2857      6C652074 
 2857      6F206372 
 2857      65617465 
 2857      20746872 
 2858              	LC4:
 2859 0074 556E6162 		.ascii "Unable to create thread pool\0"
 2859      6C652074 
 2859      6F206372 
 2859      65617465 
 2859      20746872 
 2860 0091 90       		.align 2
 2865              	.globl __ZN10ThreadPoolC2Eii
 2867              	__ZN10ThreadPoolC2Eii:
   1:../../MMI/Resource/ThreadPool.cpp **** #include <windows.h>
   2:../../MMI/Resource/ThreadPool.cpp **** #include "ThreadPool.h"
   3:../../MMI/Resource/ThreadPool.cpp **** #include <process.h>
   4:../../MMI/Resource/ThreadPool.cpp **** #include <assert.h>
   5:../../MMI/Resource/ThreadPool.cpp **** #include "ResgenLogCAPI.h"
   6:../../MMI/Resource/ThreadPool.cpp **** 
   7:../../MMI/Resource/ThreadPool.cpp **** #define THREADP_TAG "THREADPOLL"
   8:../../MMI/Resource/ThreadPool.cpp **** 
   9:../../MMI/Resource/ThreadPool.cpp **** #define THREADP_LOG_D(format, args...) RES_LOG_D((THREADP_TAG), (format) , ##args)
  10:../../MMI/Resource/ThreadPool.cpp **** #define THREADP_LOG_V(format, args...) RES_LOG_V((THREADP_TAG), (format) , ##args)
  11:../../MMI/Resource/ThreadPool.cpp **** #define THREADP_LOG_W(format, args...) RES_LOG_W((THREADP_TAG), (format) , ##args)
  12:../../MMI/Resource/ThreadPool.cpp **** #define THREADP_LOG_E(format, args...) RES_LOG_E((THREADP_TAG), (format) , ##args)
  13:../../MMI/Resource/ThreadPool.cpp **** 
  14:../../MMI/Resource/ThreadPool.cpp **** ThreadPool::ThreadPool(int poolSize, int waitTimeForThreadsToCompleteMS)
  15:../../MMI/Resource/ThreadPool.cpp **** {
 2869              	LM1:
 2870 0092 55       		pushl	%ebp
 2871 0093 89E5     		movl	%esp, %ebp
 2872 0095 57       		pushl	%edi
 2873 0096 56       		pushl	%esi
 2874 0097 53       		pushl	%ebx
GAS LISTING d:/MTK/MTK2503/MTK2503/11CW1418SP4_03_CORETEK03AE_11C_V1_GPRS_MMI/plutommi/Customer/ResGenerator/gcctmp/ccQHcaaa.s 			page 2


 2875 0098 83EC7C   		subl	$124, %esp
 2876 009b C745C400 		movl	$___gxx_personality_sj0, -60(%ebp)
 2876      000000
 2877 00a2 C745C800 		movl	$LLSDA645, -56(%ebp)
 2877      000000
 2878 00a9 8D45CC   		leal	-52(%ebp), %eax
 2879 00ac 8D55E8   		leal	-24(%ebp), %edx
 2880 00af 8910     		movl	%edx, (%eax)
 2881 00b1 BA510200 		movl	$L21, %edx
 2881      00
 2882 00b6 895004   		movl	%edx, 4(%eax)
 2883 00b9 896008   		movl	%esp, 8(%eax)
 2884 00bc 8D45AC   		leal	-84(%ebp), %eax
 2885 00bf 890424   		movl	%eax, (%esp)
 2886 00c2 E8000000 		call	__Unwind_SjLj_Register
 2886      00
 2888              	LM2:
 2889              	LBB2:
 2890 00c7 8B4508   		movl	8(%ebp), %eax
 2891 00ca C7000800 		movl	$__ZTV10ThreadPool+8, (%eax)
 2891      0000
 2892 00d0 8D45D8   		leal	-40(%ebp), %eax
 2893 00d3 890424   		movl	%eax, (%esp)
 2894 00d6 E8000000 		call	__ZNSaIN10ThreadPool7JobDataEEC1Ev
 2894      00
 2895 00db 8D45D8   		leal	-40(%ebp), %eax
 2896 00de 89442404 		movl	%eax, 4(%esp)
 2897 00e2 8B4508   		movl	8(%ebp), %eax
 2898 00e5 83C004   		addl	$4, %eax
 2899 00e8 890424   		movl	%eax, (%esp)
 2900 00eb C745B003 		movl	$3, -80(%ebp)
 2900      000000
 2901 00f2 E8000000 		call	__ZNSt4listIN10ThreadPool7JobDataESaIS1_EEC1ERKS2_
 2901      00
 2902 00f7 EB29     		jmp	L3
 2903              	L2:
 2904 00f9 8B45A4   		movl	-92(%ebp), %eax
 2905 00fc 8945A8   		movl	%eax, -88(%ebp)
 2906 00ff 8D45D8   		leal	-40(%ebp), %eax
 2907 0102 890424   		movl	%eax, (%esp)
 2908 0105 E8000000 		call	__ZNSaIN10ThreadPool7JobDataEED1Ev
 2908      00
 2909 010a 8B55A8   		movl	-88(%ebp), %edx
 2910 010d 8955A4   		movl	%edx, -92(%ebp)
 2911              	L4:
 2912 0110 8B45A4   		movl	-92(%ebp), %eax
 2913 0113 890424   		movl	%eax, (%esp)
 2914 0116 C745B0FF 		movl	$-1, -80(%ebp)
 2914      FFFFFF
 2915 011d E8000000 		call	__Unwind_SjLj_Resume
 2915      00
 2916              	L3:
 2917 0122 8D45D8   		leal	-40(%ebp), %eax
 2918 0125 890424   		movl	%eax, (%esp)
 2919 0128 E8000000 		call	__ZNSaIN10ThreadPool7JobDataEED1Ev
 2919      00
 2920 012d 8D45D8   		leal	-40(%ebp), %eax
GAS LISTING d:/MTK/MTK2503/MTK2503/11CW1418SP4_03_CORETEK03AE_11C_V1_GPRS_MMI/plutommi/Customer/ResGenerator/gcctmp/ccQHcaaa.s 			page 3


 2921 0130 890424   		movl	%eax, (%esp)
 2922 0133 E8000000 		call	__ZNSaIN10ThreadPool10ThreadDataEEC1Ev
 2922      00
 2923 0138 8D45D8   		leal	-40(%ebp), %eax
 2924 013b 89442404 		movl	%eax, 4(%esp)
 2925 013f 8B4508   		movl	8(%ebp), %eax
 2926 0142 83C008   		addl	$8, %eax
 2927 0145 890424   		movl	%eax, (%esp)
 2928 0148 C745B002 		movl	$2, -80(%ebp)
 2928      000000
 2929 014f E8000000 		call	__ZNSt6vectorIN10ThreadPool10ThreadDataESaIS1_EEC1ERKS2_
 2929      00
 2930 0154 EB1C     		jmp	L7
 2931              	L6:
 2932 0156 8B55A4   		movl	-92(%ebp), %edx
 2933 0159 8955A0   		movl	%edx, -96(%ebp)
 2934 015c 8D45D8   		leal	-40(%ebp), %eax
 2935 015f 890424   		movl	%eax, (%esp)
 2936 0162 E8000000 		call	__ZNSaIN10ThreadPool10ThreadDataEED1Ev
 2936      00
 2937 0167 8B45A0   		movl	-96(%ebp), %eax
 2938 016a 8945A4   		movl	%eax, -92(%ebp)
 2939              	L8:
 2940 016d E9230100 		jmp	L17
 2940      00
 2941              	L7:
 2942 0172 8D45D8   		leal	-40(%ebp), %eax
 2943 0175 890424   		movl	%eax, (%esp)
 2944 0178 E8000000 		call	__ZNSaIN10ThreadPool10ThreadDataEED1Ev
 2944      00
  16:../../MMI/Resource/ThreadPool.cpp ****     m_nWaitForThreadsToDieMS = waitTimeForThreadsToCompleteMS;
 2946              	LM3:
 2947 017d 8B5508   		movl	8(%ebp), %edx
 2948 0180 8B4510   		movl	16(%ebp), %eax
 2949 0183 894214   		movl	%eax, 20(%edx)
  17:../../MMI/Resource/ThreadPool.cpp ****     m_hNotifyShutdown = NULL;
 2951              	LM4:
 2952 0186 8B4508   		movl	8(%ebp), %eax
 2953 0189 C7401800 		movl	$0, 24(%eax)
 2953      000000
  18:../../MMI/Resource/ThreadPool.cpp **** 
  19:../../MMI/Resource/ThreadPool.cpp ****     THREADP_LOG_V("InitializeCriticalSection");
 2955              	LM5:
 2956 0190 C7442408 		movl	$LC0, 8(%esp)
 2956      00000000 
 2957 0198 C7442404 		movl	$LC1, 4(%esp)
 2957      1A000000 
 2958 01a0 C7042401 		movl	$1, (%esp)
 2958      000000
 2959 01a7 C745B001 		movl	$1, -80(%ebp)
 2959      000000
 2960 01ae E8000000 		call	_reslog_adaptor_log
 2960      00
  20:../../MMI/Resource/ThreadPool.cpp ****     InitializeCriticalSection(&m_cs);
 2962              	LM6:
 2963 01b3 8B4508   		movl	8(%ebp), %eax
 2964 01b6 83C01C   		addl	$28, %eax
GAS LISTING d:/MTK/MTK2503/MTK2503/11CW1418SP4_03_CORETEK03AE_11C_V1_GPRS_MMI/plutommi/Customer/ResGenerator/gcctmp/ccQHcaaa.s 			page 4


 2965 01b9 890424   		movl	%eax, (%esp)
 2966 01bc E8000000 		call	_InitializeCriticalSection@4
 2966      00
 2967 01c1 83EC04   		subl	$4, %esp
  21:../../MMI/Resource/ThreadPool.cpp **** 
  22:../../MMI/Resource/ThreadPool.cpp ****     THREADP_LOG_V("Create(poolSize) = %d", poolSize);
 2969              	LM7:
 2970 01c4 8B450C   		movl	12(%ebp), %eax
 2971 01c7 8944240C 		movl	%eax, 12(%esp)
 2972 01cb C7442408 		movl	$LC2, 8(%esp)
 2972      25000000 
 2973 01d3 C7442404 		movl	$LC1, 4(%esp)
 2973      1A000000 
 2974 01db C7042401 		movl	$1, (%esp)
 2974      000000
 2975 01e2 E8000000 		call	_reslog_adaptor_log
 2975      00
  23:../../MMI/Resource/ThreadPool.cpp ****     if (poolSize > 0 && !Create(poolSize))
 2977              	LM8:
 2978 01e7 837D0C00 		cmpl	$0, 12(%ebp)
 2979 01eb 0F8ED700 		jle	L1
 2979      0000
 2980 01f1 8B450C   		movl	12(%ebp), %eax
 2981 01f4 89442404 		movl	%eax, 4(%esp)
 2982 01f8 8B4508   		movl	8(%ebp), %eax
 2983 01fb 890424   		movl	%eax, (%esp)
 2984 01fe E8C70700 		call	__ZN10ThreadPool6CreateEi
 2984      00
 2985 0203 84C0     		testb	%al, %al
 2986 0205 0F85BD00 		jne	L1
 2986      0000
  24:../../MMI/Resource/ThreadPool.cpp ****     {
  25:../../MMI/Resource/ThreadPool.cpp ****         THREADP_LOG_E("Unable to create thread pool due to lack of memory.");
 2988              	LM9:
 2989 020b C7442408 		movl	$LC3, 8(%esp)
 2989      40000000 
 2990 0213 C7442404 		movl	$LC1, 4(%esp)
 2990      1A000000 
 2991 021b C7042403 		movl	$3, (%esp)
 2991      000000
 2992 0222 E8000000 		call	_reslog_adaptor_log
 2992      00
  26:../../MMI/Resource/ThreadPool.cpp ****         throw "Unable to create thread pool";
 2994              	LM10:
 2995 0227 C7042404 		movl	$4, (%esp)
 2995      000000
 2996 022e E8000000 		call	___cxa_allocate_exception
 2996      00
 2997 0233 C7007400 		movl	$LC4, (%eax)
 2997      0000
 2998              	L11:
 2999 0239 C7442408 		movl	$0, 8(%esp)
 2999      00000000 
 3000 0241 C7442404 		movl	$__ZTIPKc, 4(%esp)
 3000      00000000 
 3001 0249 890424   		movl	%eax, (%esp)
 3002 024c E8000000 		call	___cxa_throw
GAS LISTING d:/MTK/MTK2503/MTK2503/11CW1418SP4_03_CORETEK03AE_11C_V1_GPRS_MMI/plutommi/Customer/ResGenerator/gcctmp/ccQHcaaa.s 			page 5


 3002      00
 3003              	L21:
 3004 0251 8D6D18   		leal	24(%ebp), %ebp
 3005 0254 8B55B0   		movl	-80(%ebp), %edx
 3006 0257 895594   		movl	%edx, -108(%ebp)
 3007 025a 8B45B4   		movl	-76(%ebp), %eax
 3008 025d 8945A4   		movl	%eax, -92(%ebp)
 3009 0260 837D9401 		cmpl	$1, -108(%ebp)
 3010 0264 0F84ECFE 		je	L6
 3010      FFFF
 3011 026a 837D9402 		cmpl	$2, -108(%ebp)
 3012 026e 0F8485FE 		je	L2
 3012      FFFF
 3013              	L13:
 3014 0274 8B55A4   		movl	-92(%ebp), %edx
 3015 0277 89559C   		movl	%edx, -100(%ebp)
 3016 027a 8B4508   		movl	8(%ebp), %eax
 3017 027d 83C008   		addl	$8, %eax
 3018 0280 890424   		movl	%eax, (%esp)
 3019 0283 C745B000 		movl	$0, -80(%ebp)
 3019      000000
 3020 028a E8000000 		call	__ZNSt6vectorIN10ThreadPool10ThreadDataESaIS1_EED1Ev
 3020      00
 3021 028f 8B459C   		movl	-100(%ebp), %eax
 3022 0292 8945A4   		movl	%eax, -92(%ebp)
 3023              	L15:
 3024              	L17:
 3025 0295 8B55A4   		movl	-92(%ebp), %edx
 3026 0298 895598   		movl	%edx, -104(%ebp)
 3027 029b 8B4508   		movl	8(%ebp), %eax
 3028 029e 83C004   		addl	$4, %eax
 3029 02a1 890424   		movl	%eax, (%esp)
 3030 02a4 C745B000 		movl	$0, -80(%ebp)
 3030      000000
 3031 02ab E8000000 		call	__ZNSt4listIN10ThreadPool7JobDataESaIS1_EED1Ev
 3031      00
 3032 02b0 8B4598   		movl	-104(%ebp), %eax
 3033 02b3 8945A4   		movl	%eax, -92(%ebp)
 3034              	L19:
 3035 02b6 8B55A4   		movl	-92(%ebp), %edx
 3036 02b9 891424   		movl	%edx, (%esp)
 3037 02bc C745B0FF 		movl	$-1, -80(%ebp)
 3037      FFFFFF
 3038 02c3 E8000000 		call	__Unwind_SjLj_Resume
 3038      00
  27:../../MMI/Resource/ThreadPool.cpp ****     }
  28:../../MMI/Resource/ThreadPool.cpp **** }
 3040              	LM11:
 3041              	L1:
 3042 02c8 8D45AC   		leal	-84(%ebp), %eax
 3043 02cb 890424   		movl	%eax, (%esp)
 3044 02ce E8000000 		call	__Unwind_SjLj_Unregister
 3044      00
 3045 02d3 8D65F4   		leal	-12(%ebp), %esp
 3046 02d6 5B       		popl	%ebx
 3047 02d7 5E       		popl	%esi
 3048 02d8 5F       		popl	%edi
GAS LISTING d:/MTK/MTK2503/MTK2503/11CW1418SP4_03_CORETEK03AE_11C_V1_GPRS_MMI/plutommi/Customer/ResGenerator/gcctmp/ccQHcaaa.s 			page 6


 3049 02d9 5D       		popl	%ebp
 3050 02da C3       		ret
 3051              	LBE2:
 3052              		.section	.gcc_except_table,""
 3053              	LLSDA645:
 3054 0000 FF       		.byte	0xff
 3055 0001 FF       		.byte	0xff
 3056 0002 01       		.byte	0x1
 3057 0003 06       		.uleb128 LLSDACSE645-LLSDACSB645
 3058              	LLSDACSB645:
 3059 0004 00       		.uleb128 0x0
 3060 0005 00       		.uleb128 0x0
 3061 0006 01       		.uleb128 0x1
 3062 0007 00       		.uleb128 0x0
 3063 0008 02       		.uleb128 0x2
 3064 0009 00       		.uleb128 0x0
 3065              	LLSDACSE645:
 3066              		.text
 3067              	Lscope0:
 3069 02db 90       		.align 2
 3074              	.globl __ZN10ThreadPoolC1Eii
 3076              	__ZN10ThreadPoolC1Eii:
 3078              	LM12:
 3079 02dc 55       		pushl	%ebp
 3080 02dd 89E5     		movl	%esp, %ebp
 3081 02df 57       		pushl	%edi
 3082 02e0 56       		pushl	%esi
 3083 02e1 53       		pushl	%ebx
 3084 02e2 83EC7C   		subl	$124, %esp
 3085 02e5 C745C400 		movl	$___gxx_personality_sj0, -60(%ebp)
 3085      000000
 3086 02ec C745C80A 		movl	$LLSDA647, -56(%ebp)
 3086      000000
 3087 02f3 8D45CC   		leal	-52(%ebp), %eax
 3088 02f6 8D55E8   		leal	-24(%ebp), %edx
 3089 02f9 8910     		movl	%edx, (%eax)
 3090 02fb BA9B0400 		movl	$L42, %edx
 3090      00
 3091 0300 895004   		movl	%edx, 4(%eax)
 3092 0303 896008   		movl	%esp, 8(%eax)
 3093 0306 8D45AC   		leal	-84(%ebp), %eax
 3094 0309 890424   		movl	%eax, (%esp)
 3095 030c E8000000 		call	__Unwind_SjLj_Register
 3095      00
 3097              	LM13:
 3098              	LBB3:
 3099 0311 8B4508   		movl	8(%ebp), %eax
 3100 0314 C7000800 		movl	$__ZTV10ThreadPool+8, (%eax)
 3100      0000
 3101 031a 8D45D8   		leal	-40(%ebp), %eax
 3102 031d 890424   		movl	%eax, (%esp)
 3103 0320 E8000000 		call	__ZNSaIN10ThreadPool7JobDataEEC1Ev
 3103      00
 3104 0325 8D45D8   		leal	-40(%ebp), %eax
 3105 0328 89442404 		movl	%eax, 4(%esp)
 3106 032c 8B4508   		movl	8(%ebp), %eax
 3107 032f 83C004   		addl	$4, %eax
GAS LISTING d:/MTK/MTK2503/MTK2503/11CW1418SP4_03_CORETEK03AE_11C_V1_GPRS_MMI/plutommi/Customer/ResGenerator/gcctmp/ccQHcaaa.s 			page 7


 3108 0332 890424   		movl	%eax, (%esp)
 3109 0335 C745B003 		movl	$3, -80(%ebp)
 3109      000000
 3110 033c E8000000 		call	__ZNSt4listIN10ThreadPool7JobDataESaIS1_EEC1ERKS2_
 3110      00
 3111 0341 EB29     		jmp	L24
 3112              	L23:
 3113 0343 8B45A4   		movl	-92(%ebp), %eax
 3114 0346 8945A8   		movl	%eax, -88(%ebp)
 3115 0349 8D45D8   		leal	-40(%ebp), %eax
 3116 034c 890424   		movl	%eax, (%esp)
 3117 034f E8000000 		call	__ZNSaIN10ThreadPool7JobDataEED1Ev
 3117      00
 3118 0354 8B55A8   		movl	-88(%ebp), %edx
 3119 0357 8955A4   		movl	%edx, -92(%ebp)
 3120              	L25:
 3121 035a 8B45A4   		movl	-92(%ebp), %eax
 3122 035d 890424   		movl	%eax, (%esp)
 3123 0360 C745B0FF 		movl	$-1, -80(%ebp)
 3123      FFFFFF
 3124 0367 E8000000 		call	__Unwind_SjLj_Resume
 3124      00
 3125              	L24:
 3126 036c 8D45D8   		leal	-40(%ebp), %eax
 3127 036f 890424   		movl	%eax, (%esp)
 3128 0372 E8000000 		call	__ZNSaIN10ThreadPool7JobDataEED1Ev
 3128      00
 3129 0377 8D45D8   		leal	-40(%ebp), %eax
 3130 037a 890424   		movl	%eax, (%esp)
 3131 037d E8000000 		call	__ZNSaIN10ThreadPool10ThreadDataEEC1Ev
 3131      00
 3132 0382 8D45D8   		leal	-40(%ebp), %eax
 3133 0385 89442404 		movl	%eax, 4(%esp)
 3134 0389 8B4508   		movl	8(%ebp), %eax
 3135 038c 83C008   		addl	$8, %eax
 3136 038f 890424   		movl	%eax, (%esp)
 3137 0392 C745B002 		movl	$2, -80(%ebp)
 3137      000000
 3138 0399 E8000000 		call	__ZNSt6vectorIN10ThreadPool10ThreadDataESaIS1_EEC1ERKS2_
 3138      00
 3139 039e EB1C     		jmp	L28
 3140              	L27:
 3141 03a0 8B55A4   		movl	-92(%ebp), %edx
 3142 03a3 8955A0   		movl	%edx, -96(%ebp)
 3143 03a6 8D45D8   		leal	-40(%ebp), %eax
 3144 03a9 890424   		movl	%eax, (%esp)
 3145 03ac E8000000 		call	__ZNSaIN10ThreadPool10ThreadDataEED1Ev
 3145      00
 3146 03b1 8B45A0   		movl	-96(%ebp), %eax
 3147 03b4 8945A4   		movl	%eax, -92(%ebp)
 3148              	L29:
 3149 03b7 E9230100 		jmp	L38
 3149      00
 3150              	L28:
 3151 03bc 8D45D8   		leal	-40(%ebp), %eax
 3152 03bf 890424   		movl	%eax, (%esp)
 3153 03c2 E8000000 		call	__ZNSaIN10ThreadPool10ThreadDataEED1Ev
GAS LISTING d:/MTK/MTK2503/MTK2503/11CW1418SP4_03_CORETEK03AE_11C_V1_GPRS_MMI/plutommi/Customer/ResGenerator/gcctmp/ccQHcaaa.s 			page 8


 3153      00
 3155              	LM14:
 3156 03c7 8B5508   		movl	8(%ebp), %edx
 3157 03ca 8B4510   		movl	16(%ebp), %eax
 3158 03cd 894214   		movl	%eax, 20(%edx)
 3160              	LM15:
 3161 03d0 8B4508   		movl	8(%ebp), %eax
 3162 03d3 C7401800 		movl	$0, 24(%eax)
 3162      000000
 3164              	LM16:
 3165 03da C7442408 		movl	$LC0, 8(%esp)
 3165      00000000 
 3166 03e2 C7442404 		movl	$LC1, 4(%esp)
 3166      1A000000 
 3167 03ea C7042401 		movl	$1, (%esp)
 3167      000000
 3168 03f1 C745B001 		movl	$1, -80(%ebp)
 3168      000000
 3169 03f8 E8000000 		call	_reslog_adaptor_log
 3169      00
 3171              	LM17:
 3172 03fd 8B4508   		movl	8(%ebp), %eax
 3173 0400 83C01C   		addl	$28, %eax
 3174 0403 890424   		movl	%eax, (%esp)
 3175 0406 E8000000 		call	_InitializeCriticalSection@4
 3175      00
 3176 040b 83EC04   		subl	$4, %esp
 3178              	LM18:
 3179 040e 8B450C   		movl	12(%ebp), %eax
 3180 0411 8944240C 		movl	%eax, 12(%esp)
 3181 0415 C7442408 		movl	$LC2, 8(%esp)
 3181      25000000 
 3182 041d C7442404 		movl	$LC1, 4(%esp)
 3182      1A000000 
 3183 0425 C7042401 		movl	$1, (%esp)
 3183      000000
 3184 042c E8000000 		call	_reslog_adaptor_log
 3184      00
 3186              	LM19:
 3187 0431 837D0C00 		cmpl	$0, 12(%ebp)
 3188 0435 0F8ED700 		jle	L22
 3188      0000
 3189 043b 8B450C   		movl	12(%ebp), %eax
 3190 043e 89442404 		movl	%eax, 4(%esp)
 3191 0442 8B4508   		movl	8(%ebp), %eax
 3192 0445 890424   		movl	%eax, (%esp)
 3193 0448 E87D0500 		call	__ZN10ThreadPool6CreateEi
 3193      00
 3194 044d 84C0     		testb	%al, %al
 3195 044f 0F85BD00 		jne	L22
 3195      0000
 3197              	LM20:
 3198 0455 C7442408 		movl	$LC3, 8(%esp)
 3198      40000000 
 3199 045d C7442404 		movl	$LC1, 4(%esp)
 3199      1A000000 
 3200 0465 C7042403 		movl	$3, (%esp)
GAS LISTING d:/MTK/MTK2503/MTK2503/11CW1418SP4_03_CORETEK03AE_11C_V1_GPRS_MMI/plutommi/Customer/ResGenerator/gcctmp/ccQHcaaa.s 			page 9


 3200      000000
 3201 046c E8000000 		call	_reslog_adaptor_log
 3201      00
 3203              	LM21:
 3204 0471 C7042404 		movl	$4, (%esp)
 3204      000000
 3205 0478 E8000000 		call	___cxa_allocate_exception
 3205      00
 3206 047d C7007400 		movl	$LC4, (%eax)
 3206      0000
 3207              	L32:
 3208 0483 C7442408 		movl	$0, 8(%esp)
 3208      00000000 
 3209 048b C7442404 		movl	$__ZTIPKc, 4(%esp)
 3209      00000000 
 3210 0493 890424   		movl	%eax, (%esp)
 3211 0496 E8000000 		call	___cxa_throw
 3211      00
 3212              	L42:
 3213 049b 8D6D18   		leal	24(%ebp), %ebp
 3214 049e 8B55B0   		movl	-80(%ebp), %edx
 3215 04a1 895594   		movl	%edx, -108(%ebp)
 3216 04a4 8B45B4   		movl	-76(%ebp), %eax
 3217 04a7 8945A4   		movl	%eax, -92(%ebp)
 3218 04aa 837D9401 		cmpl	$1, -108(%ebp)
 3219 04ae 0F84ECFE 		je	L27
 3219      FFFF
 3220 04b4 837D9402 		cmpl	$2, -108(%ebp)
 3221 04b8 0F8485FE 		je	L23
 3221      FFFF
 3222              	L34:
 3223 04be 8B55A4   		movl	-92(%ebp), %edx
 3224 04c1 89559C   		movl	%edx, -100(%ebp)
 3225 04c4 8B4508   		movl	8(%ebp), %eax
 3226 04c7 83C008   		addl	$8, %eax
 3227 04ca 890424   		movl	%eax, (%esp)
 3228 04cd C745B000 		movl	$0, -80(%ebp)
 3228      000000
 3229 04d4 E8000000 		call	__ZNSt6vectorIN10ThreadPool10ThreadDataESaIS1_EED1Ev
 3229      00
 3230 04d9 8B459C   		movl	-100(%ebp), %eax
 3231 04dc 8945A4   		movl	%eax, -92(%ebp)
 3232              	L36:
 3233              	L38:
 3234 04df 8B55A4   		movl	-92(%ebp), %edx
 3235 04e2 895598   		movl	%edx, -104(%ebp)
 3236 04e5 8B4508   		movl	8(%ebp), %eax
 3237 04e8 83C004   		addl	$4, %eax
 3238 04eb 890424   		movl	%eax, (%esp)
 3239 04ee C745B000 		movl	$0, -80(%ebp)
 3239      000000
 3240 04f5 E8000000 		call	__ZNSt4listIN10ThreadPool7JobDataESaIS1_EED1Ev
 3240      00
 3241 04fa 8B4598   		movl	-104(%ebp), %eax
 3242 04fd 8945A4   		movl	%eax, -92(%ebp)
 3243              	L40:
 3244 0500 8B55A4   		movl	-92(%ebp), %edx
GAS LISTING d:/MTK/MTK2503/MTK2503/11CW1418SP4_03_CORETEK03AE_11C_V1_GPRS_MMI/plutommi/Customer/ResGenerator/gcctmp/ccQHcaaa.s 			page 10


 3245 0503 891424   		movl	%edx, (%esp)
 3246 0506 C745B0FF 		movl	$-1, -80(%ebp)
 3246      FFFFFF
 3247 050d E8000000 		call	__Unwind_SjLj_Resume
 3247      00
 3249              	LM22:
 3250              	L22:
 3251 0512 8D45AC   		leal	-84(%ebp), %eax
 3252 0515 890424   		movl	%eax, (%esp)
 3253 0518 E8000000 		call	__Unwind_SjLj_Unregister
 3253      00
 3254 051d 8D65F4   		leal	-12(%ebp), %esp
 3255 0520 5B       		popl	%ebx
 3256 0521 5E       		popl	%esi
 3257 0522 5F       		popl	%edi
 3258 0523 5D       		popl	%ebp
 3259 0524 C3       		ret
 3260              	LBE3:
 3261              		.section	.gcc_except_table,""
 3262              	LLSDA647:
 3263 000a FF       		.byte	0xff
 3264 000b FF       		.byte	0xff
 3265 000c 01       		.byte	0x1
 3266 000d 06       		.uleb128 LLSDACSE647-LLSDACSB647
 3267              	LLSDACSB647:
 3268 000e 00       		.uleb128 0x0
 3269 000f 00       		.uleb128 0x0
 3270 0010 01       		.uleb128 0x1
 3271 0011 00       		.uleb128 0x0
 3272 0012 02       		.uleb128 0x2
 3273 0013 00       		.uleb128 0x0
 3274              	LLSDACSE647:
 3275              		.text
 3276              	Lscope1:
 3279              		.section	.text$_ZNSt4listIN10ThreadPool7JobDataESaIS1_EED1Ev,"x"
 3280              		.linkonce discard
 3281              		.align 2
 3284              	.globl __ZNSt4listIN10ThreadPool7JobDataESaIS1_EED1Ev
 3286              	__ZNSt4listIN10ThreadPool7JobDataESaIS1_EED1Ev:
 3288              	Ltext1:
   1:d:/MTK/MTK2503/MTK2503/11CW1418SP4_03_CORETEK03AE_11C_V1_GPRS_MMI/Tools/MinGW/include/c++/3.3.1/bits/stl_list.h **** // List implementation -*- C++ -*-
   2:d:/MTK/MTK2503/MTK2503/11CW1418SP4_03_CORETEK03AE_11C_V1_GPRS_MMI/Tools/MinGW/include/c++/3.3.1/bits/stl_list.h **** 
   3:d:/MTK/MTK2503/MTK2503/11CW1418SP4_03_CORETEK03AE_11C_V1_GPRS_MMI/Tools/MinGW/include/c++/3.3.1/bits/stl_list.h **** // Copyright (C) 2001, 2002 Free Software Foundation, Inc.
   4:d:/MTK/MTK2503/MTK2503/11CW1418SP4_03_CORETEK03AE_11C_V1_GPRS_MMI/Tools/MinGW/include/c++/3.3.1/bits/stl_list.h **** //
   5:d:/MTK/MTK2503/MTK2503/11CW1418SP4_03_CORETEK03AE_11C_V1_GPRS_MMI/Tools/MinGW/include/c++/3.3.1/bits/stl_list.h **** // This file is part of the GNU ISO C++ Library.  This library is free
   6:d:/MTK/MTK2503/MTK2503/11CW1418SP4_03_CORETEK03AE_11C_V1_GPRS_MMI/Tools/MinGW/include/c++/3.3.1/bits/stl_list.h **** // software; you can redistribute it and/or modify it under the
   7:d:/MTK/MTK2503/MTK2503/11CW1418SP4_03_CORETEK03AE_11C_V1_GPRS_MMI/Tools/MinGW/include/c++/3.3.1/bits/stl_list.h **** // terms of the GNU General Public License as published by the
   8:d:/MTK/MTK2503/MTK2503/11CW1418SP4_03_CORETEK03AE_11C_V1_GPRS_MMI/Tools/MinGW/include/c++/3.3.1/bits/stl_list.h **** // Free Software Foundation; either version 2, or (at your option)
   9:d:/MTK/MTK2503/MTK2503/11CW1418SP4_03_CORETEK03AE_11C_V1_GPRS_MMI/Tools/MinGW/include/c++/3.3.1/bits/stl_list.h **** // any later version.
  10:d:/MTK/MTK2503/MTK2503/11CW1418SP4_03_CORETEK03AE_11C_V1_GPRS_MMI/Tools/MinGW/include/c++/3.3.1/bits/stl_list.h **** 
  11:d:/MTK/MTK2503/MTK2503/11CW1418SP4_03_CORETEK03AE_11C_V1_GPRS_MMI/Tools/MinGW/include/c++/3.3.1/bits/stl_list.h **** // This library is distributed in the hope that it will be useful,
  12:d:/MTK/MTK2503/MTK2503/11CW1418SP4_03_CORETEK03AE_11C_V1_GPRS_MMI/Tools/MinGW/include/c++/3.3.1/bits/stl_list.h **** // but WITHOUT ANY WARRANTY; without even the implied warranty of
  13:d:/MTK/MTK2503/MTK2503/11CW1418SP4_03_CORETEK03AE_11C_V1_GPRS_MMI/Tools/MinGW/include/c++/3.3.1/bits/stl_list.h **** // MERCHANTABILITY or FITNESS FOR A PARTICULAR PURPOSE.  See the
  14:d:/MTK/MTK2503/MTK2503/11CW1418SP4_03_CORETEK03AE_11C_V1_GPRS_MMI/Tools/MinGW/include/c++/3.3.1/bits/stl_list.h **** // GNU General Public License for more details.
  15:d:/MTK/MTK2503/MTK2503/11CW1418SP4_03_CORETEK03AE_11C_V1_GPRS_MMI/Tools/MinGW/include/c++/3.3.1/bits/stl_list.h **** 
  16:d:/MTK/MTK2503/MTK2503/11CW1418SP4_03_CORETEK03AE_11C_V1_GPRS_MMI/Tools/MinGW/include/c++/3.3.1/bits/stl_list.h **** // You should have received a copy of the GNU General Public License along
  17:d:/MTK/MTK2503/MTK2503/11CW1418SP4_03_CORETEK03AE_11C_V1_GPRS_MMI/Tools/MinGW/include/c++/3.3.1/bits/stl_list.h **** // with this library; see the file COPYING.  If not, write to the Free
GAS LISTING d:/MTK/MTK2503/MTK2503/11CW1418SP4_03_CORETEK03AE_11C_V1_GPRS_MMI/plutommi/Customer/ResGenerator/gcctmp/ccQHcaaa.s 			page 11


  18:d:/MTK/MTK2503/MTK2503/11CW1418SP4_03_CORETEK03AE_11C_V1_GPRS_MMI/Tools/MinGW/include/c++/3.3.1/bits/stl_list.h **** // Software Foundation, 59 Temple Place - Suite 330, Boston, MA 02111-1307,
  19:d:/MTK/MTK2503/MTK2503/11CW1418SP4_03_CORETEK03AE_11C_V1_GPRS_MMI/Tools/MinGW/include/c++/3.3.1/bits/stl_list.h **** // USA.
  20:d:/MTK/MTK2503/MTK2503/11CW1418SP4_03_CORETEK03AE_11C_V1_GPRS_MMI/Tools/MinGW/include/c++/3.3.1/bits/stl_list.h **** 
  21:d:/MTK/MTK2503/MTK2503/11CW1418SP4_03_CORETEK03AE_11C_V1_GPRS_MMI/Tools/MinGW/include/c++/3.3.1/bits/stl_list.h **** // As a special exception, you may use this file as part of a free software
  22:d:/MTK/MTK2503/MTK2503/11CW1418SP4_03_CORETEK03AE_11C_V1_GPRS_MMI/Tools/MinGW/include/c++/3.3.1/bits/stl_list.h **** // library without restriction.  Specifically, if other files instantiate
  23:d:/MTK/MTK2503/MTK2503/11CW1418SP4_03_CORETEK03AE_11C_V1_GPRS_MMI/Tools/MinGW/include/c++/3.3.1/bits/stl_list.h **** // templates or use macros or inline functions from this file, or you compile
  24:d:/MTK/MTK2503/MTK2503/11CW1418SP4_03_CORETEK03AE_11C_V1_GPRS_MMI/Tools/MinGW/include/c++/3.3.1/bits/stl_list.h **** // this file and link it with other files to produce an executable, this
  25:d:/MTK/MTK2503/MTK2503/11CW1418SP4_03_CORETEK03AE_11C_V1_GPRS_MMI/Tools/MinGW/include/c++/3.3.1/bits/stl_list.h **** // file does not by itself cause the resulting executable to be covered by
  26:d:/MTK/MTK2503/MTK2503/11CW1418SP4_03_CORETEK03AE_11C_V1_GPRS_MMI/Tools/MinGW/include/c++/3.3.1/bits/stl_list.h **** // the GNU General Public License.  This exception does not however
  27:d:/MTK/MTK2503/MTK2503/11CW1418SP4_03_CORETEK03AE_11C_V1_GPRS_MMI/Tools/MinGW/include/c++/3.3.1/bits/stl_list.h **** // invalidate any other reasons why the executable file might be covered by
  28:d:/MTK/MTK2503/MTK2503/11CW1418SP4_03_CORETEK03AE_11C_V1_GPRS_MMI/Tools/MinGW/include/c++/3.3.1/bits/stl_list.h **** // the GNU General Public License.
  29:d:/MTK/MTK2503/MTK2503/11CW1418SP4_03_CORETEK03AE_11C_V1_GPRS_MMI/Tools/MinGW/include/c++/3.3.1/bits/stl_list.h **** 
  30:d:/MTK/MTK2503/MTK2503/11CW1418SP4_03_CORETEK03AE_11C_V1_GPRS_MMI/Tools/MinGW/include/c++/3.3.1/bits/stl_list.h **** /*
  31:d:/MTK/MTK2503/MTK2503/11CW1418SP4_03_CORETEK03AE_11C_V1_GPRS_MMI/Tools/MinGW/include/c++/3.3.1/bits/stl_list.h ****  *
  32:d:/MTK/MTK2503/MTK2503/11CW1418SP4_03_CORETEK03AE_11C_V1_GPRS_MMI/Tools/MinGW/include/c++/3.3.1/bits/stl_list.h ****  * Copyright (c) 1994
  33:d:/MTK/MTK2503/MTK2503/11CW1418SP4_03_CORETEK03AE_11C_V1_GPRS_MMI/Tools/MinGW/include/c++/3.3.1/bits/stl_list.h ****  * Hewlett-Packard Company
  34:d:/MTK/MTK2503/MTK2503/11CW1418SP4_03_CORETEK03AE_11C_V1_GPRS_MMI/Tools/MinGW/include/c++/3.3.1/bits/stl_list.h ****  *
  35:d:/MTK/MTK2503/MTK2503/11CW1418SP4_03_CORETEK03AE_11C_V1_GPRS_MMI/Tools/MinGW/include/c++/3.3.1/bits/stl_list.h ****  * Permission to use, copy, modify, distribute and sell this software
  36:d:/MTK/MTK2503/MTK2503/11CW1418SP4_03_CORETEK03AE_11C_V1_GPRS_MMI/Tools/MinGW/include/c++/3.3.1/bits/stl_list.h ****  * and its documentation for any purpose is hereby granted without fee,
  37:d:/MTK/MTK2503/MTK2503/11CW1418SP4_03_CORETEK03AE_11C_V1_GPRS_MMI/Tools/MinGW/include/c++/3.3.1/bits/stl_list.h ****  * provided that the above copyright notice appear in all copies and
  38:d:/MTK/MTK2503/MTK2503/11CW1418SP4_03_CORETEK03AE_11C_V1_GPRS_MMI/Tools/MinGW/include/c++/3.3.1/bits/stl_list.h ****  * that both that copyright notice and this permission notice appear
  39:d:/MTK/MTK2503/MTK2503/11CW1418SP4_03_CORETEK03AE_11C_V1_GPRS_MMI/Tools/MinGW/include/c++/3.3.1/bits/stl_list.h ****  * in supporting documentation.  Hewlett-Packard Company makes no
  40:d:/MTK/MTK2503/MTK2503/11CW1418SP4_03_CORETEK03AE_11C_V1_GPRS_MMI/Tools/MinGW/include/c++/3.3.1/bits/stl_list.h ****  * representations about the suitability of this software for any
  41:d:/MTK/MTK2503/MTK2503/11CW1418SP4_03_CORETEK03AE_11C_V1_GPRS_MMI/Tools/MinGW/include/c++/3.3.1/bits/stl_list.h ****  * purpose.  It is provided "as is" without express or implied warranty.
  42:d:/MTK/MTK2503/MTK2503/11CW1418SP4_03_CORETEK03AE_11C_V1_GPRS_MMI/Tools/MinGW/include/c++/3.3.1/bits/stl_list.h ****  *
  43:d:/MTK/MTK2503/MTK2503/11CW1418SP4_03_CORETEK03AE_11C_V1_GPRS_MMI/Tools/MinGW/include/c++/3.3.1/bits/stl_list.h ****  *
  44:d:/MTK/MTK2503/MTK2503/11CW1418SP4_03_CORETEK03AE_11C_V1_GPRS_MMI/Tools/MinGW/include/c++/3.3.1/bits/stl_list.h ****  * Copyright (c) 1996,1997
  45:d:/MTK/MTK2503/MTK2503/11CW1418SP4_03_CORETEK03AE_11C_V1_GPRS_MMI/Tools/MinGW/include/c++/3.3.1/bits/stl_list.h ****  * Silicon Graphics Computer Systems, Inc.
  46:d:/MTK/MTK2503/MTK2503/11CW1418SP4_03_CORETEK03AE_11C_V1_GPRS_MMI/Tools/MinGW/include/c++/3.3.1/bits/stl_list.h ****  *
  47:d:/MTK/MTK2503/MTK2503/11CW1418SP4_03_CORETEK03AE_11C_V1_GPRS_MMI/Tools/MinGW/include/c++/3.3.1/bits/stl_list.h ****  * Permission to use, copy, modify, distribute and sell this software
  48:d:/MTK/MTK2503/MTK2503/11CW1418SP4_03_CORETEK03AE_11C_V1_GPRS_MMI/Tools/MinGW/include/c++/3.3.1/bits/stl_list.h ****  * and its documentation for any purpose is hereby granted without fee,
  49:d:/MTK/MTK2503/MTK2503/11CW1418SP4_03_CORETEK03AE_11C_V1_GPRS_MMI/Tools/MinGW/include/c++/3.3.1/bits/stl_list.h ****  * provided that the above copyright notice appear in all copies and
  50:d:/MTK/MTK2503/MTK2503/11CW1418SP4_03_CORETEK03AE_11C_V1_GPRS_MMI/Tools/MinGW/include/c++/3.3.1/bits/stl_list.h ****  * that both that copyright notice and this permission notice appear
  51:d:/MTK/MTK2503/MTK2503/11CW1418SP4_03_CORETEK03AE_11C_V1_GPRS_MMI/Tools/MinGW/include/c++/3.3.1/bits/stl_list.h ****  * in supporting documentation.  Silicon Graphics makes no
  52:d:/MTK/MTK2503/MTK2503/11CW1418SP4_03_CORETEK03AE_11C_V1_GPRS_MMI/Tools/MinGW/include/c++/3.3.1/bits/stl_list.h ****  * representations about the suitability of this software for any
  53:d:/MTK/MTK2503/MTK2503/11CW1418SP4_03_CORETEK03AE_11C_V1_GPRS_MMI/Tools/MinGW/include/c++/3.3.1/bits/stl_list.h ****  * purpose.  It is provided "as is" without express or implied warranty.
  54:d:/MTK/MTK2503/MTK2503/11CW1418SP4_03_CORETEK03AE_11C_V1_GPRS_MMI/Tools/MinGW/include/c++/3.3.1/bits/stl_list.h ****  */
  55:d:/MTK/MTK2503/MTK2503/11CW1418SP4_03_CORETEK03AE_11C_V1_GPRS_MMI/Tools/MinGW/include/c++/3.3.1/bits/stl_list.h **** 
  56:d:/MTK/MTK2503/MTK2503/11CW1418SP4_03_CORETEK03AE_11C_V1_GPRS_MMI/Tools/MinGW/include/c++/3.3.1/bits/stl_list.h **** /** @file stl_list.h
  57:d:/MTK/MTK2503/MTK2503/11CW1418SP4_03_CORETEK03AE_11C_V1_GPRS_MMI/Tools/MinGW/include/c++/3.3.1/bits/stl_list.h ****  *  This is an internal header file, included by other library headers.
  58:d:/MTK/MTK2503/MTK2503/11CW1418SP4_03_CORETEK03AE_11C_V1_GPRS_MMI/Tools/MinGW/include/c++/3.3.1/bits/stl_list.h ****  *  You should not attempt to use it directly.
  59:d:/MTK/MTK2503/MTK2503/11CW1418SP4_03_CORETEK03AE_11C_V1_GPRS_MMI/Tools/MinGW/include/c++/3.3.1/bits/stl_list.h ****  */
  60:d:/MTK/MTK2503/MTK2503/11CW1418SP4_03_CORETEK03AE_11C_V1_GPRS_MMI/Tools/MinGW/include/c++/3.3.1/bits/stl_list.h **** 
  61:d:/MTK/MTK2503/MTK2503/11CW1418SP4_03_CORETEK03AE_11C_V1_GPRS_MMI/Tools/MinGW/include/c++/3.3.1/bits/stl_list.h **** #ifndef __GLIBCPP_INTERNAL_LIST_H
  62:d:/MTK/MTK2503/MTK2503/11CW1418SP4_03_CORETEK03AE_11C_V1_GPRS_MMI/Tools/MinGW/include/c++/3.3.1/bits/stl_list.h **** #define __GLIBCPP_INTERNAL_LIST_H
  63:d:/MTK/MTK2503/MTK2503/11CW1418SP4_03_CORETEK03AE_11C_V1_GPRS_MMI/Tools/MinGW/include/c++/3.3.1/bits/stl_list.h **** 
  64:d:/MTK/MTK2503/MTK2503/11CW1418SP4_03_CORETEK03AE_11C_V1_GPRS_MMI/Tools/MinGW/include/c++/3.3.1/bits/stl_list.h **** #include <bits/concept_check.h>
  65:d:/MTK/MTK2503/MTK2503/11CW1418SP4_03_CORETEK03AE_11C_V1_GPRS_MMI/Tools/MinGW/include/c++/3.3.1/bits/stl_list.h **** 
  66:d:/MTK/MTK2503/MTK2503/11CW1418SP4_03_CORETEK03AE_11C_V1_GPRS_MMI/Tools/MinGW/include/c++/3.3.1/bits/stl_list.h **** namespace std
  67:d:/MTK/MTK2503/MTK2503/11CW1418SP4_03_CORETEK03AE_11C_V1_GPRS_MMI/Tools/MinGW/include/c++/3.3.1/bits/stl_list.h **** {
  68:d:/MTK/MTK2503/MTK2503/11CW1418SP4_03_CORETEK03AE_11C_V1_GPRS_MMI/Tools/MinGW/include/c++/3.3.1/bits/stl_list.h ****   // Supporting structures are split into common and templated types; the
  69:d:/MTK/MTK2503/MTK2503/11CW1418SP4_03_CORETEK03AE_11C_V1_GPRS_MMI/Tools/MinGW/include/c++/3.3.1/bits/stl_list.h ****   // latter publicly inherits from the former in an effort to reduce code
  70:d:/MTK/MTK2503/MTK2503/11CW1418SP4_03_CORETEK03AE_11C_V1_GPRS_MMI/Tools/MinGW/include/c++/3.3.1/bits/stl_list.h ****   // duplication.  This results in some "needless" static_cast'ing later on,
  71:d:/MTK/MTK2503/MTK2503/11CW1418SP4_03_CORETEK03AE_11C_V1_GPRS_MMI/Tools/MinGW/include/c++/3.3.1/bits/stl_list.h ****   // but it's all safe downcasting.
  72:d:/MTK/MTK2503/MTK2503/11CW1418SP4_03_CORETEK03AE_11C_V1_GPRS_MMI/Tools/MinGW/include/c++/3.3.1/bits/stl_list.h ****   
  73:d:/MTK/MTK2503/MTK2503/11CW1418SP4_03_CORETEK03AE_11C_V1_GPRS_MMI/Tools/MinGW/include/c++/3.3.1/bits/stl_list.h ****   /// @if maint Common part of a node in the %list.  @endif
  74:d:/MTK/MTK2503/MTK2503/11CW1418SP4_03_CORETEK03AE_11C_V1_GPRS_MMI/Tools/MinGW/include/c++/3.3.1/bits/stl_list.h ****   struct _List_node_base
GAS LISTING d:/MTK/MTK2503/MTK2503/11CW1418SP4_03_CORETEK03AE_11C_V1_GPRS_MMI/plutommi/Customer/ResGenerator/gcctmp/ccQHcaaa.s 			page 12


  75:d:/MTK/MTK2503/MTK2503/11CW1418SP4_03_CORETEK03AE_11C_V1_GPRS_MMI/Tools/MinGW/include/c++/3.3.1/bits/stl_list.h ****   {
  76:d:/MTK/MTK2503/MTK2503/11CW1418SP4_03_CORETEK03AE_11C_V1_GPRS_MMI/Tools/MinGW/include/c++/3.3.1/bits/stl_list.h ****     _List_node_base* _M_next;   ///< Self-explanatory
  77:d:/MTK/MTK2503/MTK2503/11CW1418SP4_03_CORETEK03AE_11C_V1_GPRS_MMI/Tools/MinGW/include/c++/3.3.1/bits/stl_list.h ****     _List_node_base* _M_prev;   ///< Self-explanatory
  78:d:/MTK/MTK2503/MTK2503/11CW1418SP4_03_CORETEK03AE_11C_V1_GPRS_MMI/Tools/MinGW/include/c++/3.3.1/bits/stl_list.h ****   };
  79:d:/MTK/MTK2503/MTK2503/11CW1418SP4_03_CORETEK03AE_11C_V1_GPRS_MMI/Tools/MinGW/include/c++/3.3.1/bits/stl_list.h ****   
  80:d:/MTK/MTK2503/MTK2503/11CW1418SP4_03_CORETEK03AE_11C_V1_GPRS_MMI/Tools/MinGW/include/c++/3.3.1/bits/stl_list.h ****   /// @if maint An actual node in the %list.  @endif
  81:d:/MTK/MTK2503/MTK2503/11CW1418SP4_03_CORETEK03AE_11C_V1_GPRS_MMI/Tools/MinGW/include/c++/3.3.1/bits/stl_list.h ****   template<typename _Tp>
  82:d:/MTK/MTK2503/MTK2503/11CW1418SP4_03_CORETEK03AE_11C_V1_GPRS_MMI/Tools/MinGW/include/c++/3.3.1/bits/stl_list.h ****     struct _List_node : public _List_node_base
  83:d:/MTK/MTK2503/MTK2503/11CW1418SP4_03_CORETEK03AE_11C_V1_GPRS_MMI/Tools/MinGW/include/c++/3.3.1/bits/stl_list.h ****   {
  84:d:/MTK/MTK2503/MTK2503/11CW1418SP4_03_CORETEK03AE_11C_V1_GPRS_MMI/Tools/MinGW/include/c++/3.3.1/bits/stl_list.h ****     _Tp _M_data;                ///< User's data.
  85:d:/MTK/MTK2503/MTK2503/11CW1418SP4_03_CORETEK03AE_11C_V1_GPRS_MMI/Tools/MinGW/include/c++/3.3.1/bits/stl_list.h ****   };
  86:d:/MTK/MTK2503/MTK2503/11CW1418SP4_03_CORETEK03AE_11C_V1_GPRS_MMI/Tools/MinGW/include/c++/3.3.1/bits/stl_list.h ****   
  87:d:/MTK/MTK2503/MTK2503/11CW1418SP4_03_CORETEK03AE_11C_V1_GPRS_MMI/Tools/MinGW/include/c++/3.3.1/bits/stl_list.h ****   
  88:d:/MTK/MTK2503/MTK2503/11CW1418SP4_03_CORETEK03AE_11C_V1_GPRS_MMI/Tools/MinGW/include/c++/3.3.1/bits/stl_list.h ****   /**
  89:d:/MTK/MTK2503/MTK2503/11CW1418SP4_03_CORETEK03AE_11C_V1_GPRS_MMI/Tools/MinGW/include/c++/3.3.1/bits/stl_list.h ****    *  @if maint
  90:d:/MTK/MTK2503/MTK2503/11CW1418SP4_03_CORETEK03AE_11C_V1_GPRS_MMI/Tools/MinGW/include/c++/3.3.1/bits/stl_list.h ****    *  @brief Common part of a list::iterator.
  91:d:/MTK/MTK2503/MTK2503/11CW1418SP4_03_CORETEK03AE_11C_V1_GPRS_MMI/Tools/MinGW/include/c++/3.3.1/bits/stl_list.h ****    *
  92:d:/MTK/MTK2503/MTK2503/11CW1418SP4_03_CORETEK03AE_11C_V1_GPRS_MMI/Tools/MinGW/include/c++/3.3.1/bits/stl_list.h ****    *  A simple type to walk a doubly-linked list.  All operations here should
  93:d:/MTK/MTK2503/MTK2503/11CW1418SP4_03_CORETEK03AE_11C_V1_GPRS_MMI/Tools/MinGW/include/c++/3.3.1/bits/stl_list.h ****    *  be self-explanatory after taking any decent introductory data structures
  94:d:/MTK/MTK2503/MTK2503/11CW1418SP4_03_CORETEK03AE_11C_V1_GPRS_MMI/Tools/MinGW/include/c++/3.3.1/bits/stl_list.h ****    *  course.
  95:d:/MTK/MTK2503/MTK2503/11CW1418SP4_03_CORETEK03AE_11C_V1_GPRS_MMI/Tools/MinGW/include/c++/3.3.1/bits/stl_list.h ****    *  @endif
  96:d:/MTK/MTK2503/MTK2503/11CW1418SP4_03_CORETEK03AE_11C_V1_GPRS_MMI/Tools/MinGW/include/c++/3.3.1/bits/stl_list.h ****   */
  97:d:/MTK/MTK2503/MTK2503/11CW1418SP4_03_CORETEK03AE_11C_V1_GPRS_MMI/Tools/MinGW/include/c++/3.3.1/bits/stl_list.h ****   struct _List_iterator_base
  98:d:/MTK/MTK2503/MTK2503/11CW1418SP4_03_CORETEK03AE_11C_V1_GPRS_MMI/Tools/MinGW/include/c++/3.3.1/bits/stl_list.h ****   {
  99:d:/MTK/MTK2503/MTK2503/11CW1418SP4_03_CORETEK03AE_11C_V1_GPRS_MMI/Tools/MinGW/include/c++/3.3.1/bits/stl_list.h ****     typedef size_t                        size_type;
 100:d:/MTK/MTK2503/MTK2503/11CW1418SP4_03_CORETEK03AE_11C_V1_GPRS_MMI/Tools/MinGW/include/c++/3.3.1/bits/stl_list.h ****     typedef ptrdiff_t                     difference_type;
 101:d:/MTK/MTK2503/MTK2503/11CW1418SP4_03_CORETEK03AE_11C_V1_GPRS_MMI/Tools/MinGW/include/c++/3.3.1/bits/stl_list.h ****     typedef bidirectional_iterator_tag    iterator_category;
 102:d:/MTK/MTK2503/MTK2503/11CW1418SP4_03_CORETEK03AE_11C_V1_GPRS_MMI/Tools/MinGW/include/c++/3.3.1/bits/stl_list.h ****   
 103:d:/MTK/MTK2503/MTK2503/11CW1418SP4_03_CORETEK03AE_11C_V1_GPRS_MMI/Tools/MinGW/include/c++/3.3.1/bits/stl_list.h ****     /// The only member points to the %list element.
 104:d:/MTK/MTK2503/MTK2503/11CW1418SP4_03_CORETEK03AE_11C_V1_GPRS_MMI/Tools/MinGW/include/c++/3.3.1/bits/stl_list.h ****     _List_node_base* _M_node;
 105:d:/MTK/MTK2503/MTK2503/11CW1418SP4_03_CORETEK03AE_11C_V1_GPRS_MMI/Tools/MinGW/include/c++/3.3.1/bits/stl_list.h ****   
 106:d:/MTK/MTK2503/MTK2503/11CW1418SP4_03_CORETEK03AE_11C_V1_GPRS_MMI/Tools/MinGW/include/c++/3.3.1/bits/stl_list.h ****     _List_iterator_base(_List_node_base* __x)
 107:d:/MTK/MTK2503/MTK2503/11CW1418SP4_03_CORETEK03AE_11C_V1_GPRS_MMI/Tools/MinGW/include/c++/3.3.1/bits/stl_list.h ****     : _M_node(__x)
 108:d:/MTK/MTK2503/MTK2503/11CW1418SP4_03_CORETEK03AE_11C_V1_GPRS_MMI/Tools/MinGW/include/c++/3.3.1/bits/stl_list.h ****     { }
 109:d:/MTK/MTK2503/MTK2503/11CW1418SP4_03_CORETEK03AE_11C_V1_GPRS_MMI/Tools/MinGW/include/c++/3.3.1/bits/stl_list.h ****   
 110:d:/MTK/MTK2503/MTK2503/11CW1418SP4_03_CORETEK03AE_11C_V1_GPRS_MMI/Tools/MinGW/include/c++/3.3.1/bits/stl_list.h ****     _List_iterator_base()
 111:d:/MTK/MTK2503/MTK2503/11CW1418SP4_03_CORETEK03AE_11C_V1_GPRS_MMI/Tools/MinGW/include/c++/3.3.1/bits/stl_list.h ****     { }
 112:d:/MTK/MTK2503/MTK2503/11CW1418SP4_03_CORETEK03AE_11C_V1_GPRS_MMI/Tools/MinGW/include/c++/3.3.1/bits/stl_list.h ****   
 113:d:/MTK/MTK2503/MTK2503/11CW1418SP4_03_CORETEK03AE_11C_V1_GPRS_MMI/Tools/MinGW/include/c++/3.3.1/bits/stl_list.h ****     /// Walk the %list forward.
 114:d:/MTK/MTK2503/MTK2503/11CW1418SP4_03_CORETEK03AE_11C_V1_GPRS_MMI/Tools/MinGW/include/c++/3.3.1/bits/stl_list.h ****     void
 115:d:/MTK/MTK2503/MTK2503/11CW1418SP4_03_CORETEK03AE_11C_V1_GPRS_MMI/Tools/MinGW/include/c++/3.3.1/bits/stl_list.h ****     _M_incr()
 116:d:/MTK/MTK2503/MTK2503/11CW1418SP4_03_CORETEK03AE_11C_V1_GPRS_MMI/Tools/MinGW/include/c++/3.3.1/bits/stl_list.h ****     { _M_node = _M_node->_M_next; }
 117:d:/MTK/MTK2503/MTK2503/11CW1418SP4_03_CORETEK03AE_11C_V1_GPRS_MMI/Tools/MinGW/include/c++/3.3.1/bits/stl_list.h ****   
 118:d:/MTK/MTK2503/MTK2503/11CW1418SP4_03_CORETEK03AE_11C_V1_GPRS_MMI/Tools/MinGW/include/c++/3.3.1/bits/stl_list.h ****     /// Walk the %list backward.
 119:d:/MTK/MTK2503/MTK2503/11CW1418SP4_03_CORETEK03AE_11C_V1_GPRS_MMI/Tools/MinGW/include/c++/3.3.1/bits/stl_list.h ****     void
 120:d:/MTK/MTK2503/MTK2503/11CW1418SP4_03_CORETEK03AE_11C_V1_GPRS_MMI/Tools/MinGW/include/c++/3.3.1/bits/stl_list.h ****     _M_decr()
 121:d:/MTK/MTK2503/MTK2503/11CW1418SP4_03_CORETEK03AE_11C_V1_GPRS_MMI/Tools/MinGW/include/c++/3.3.1/bits/stl_list.h ****     { _M_node = _M_node->_M_prev; }
 122:d:/MTK/MTK2503/MTK2503/11CW1418SP4_03_CORETEK03AE_11C_V1_GPRS_MMI/Tools/MinGW/include/c++/3.3.1/bits/stl_list.h ****   
 123:d:/MTK/MTK2503/MTK2503/11CW1418SP4_03_CORETEK03AE_11C_V1_GPRS_MMI/Tools/MinGW/include/c++/3.3.1/bits/stl_list.h ****     bool
 124:d:/MTK/MTK2503/MTK2503/11CW1418SP4_03_CORETEK03AE_11C_V1_GPRS_MMI/Tools/MinGW/include/c++/3.3.1/bits/stl_list.h ****     operator==(const _List_iterator_base& __x) const
 125:d:/MTK/MTK2503/MTK2503/11CW1418SP4_03_CORETEK03AE_11C_V1_GPRS_MMI/Tools/MinGW/include/c++/3.3.1/bits/stl_list.h ****     { return _M_node == __x._M_node; }
 126:d:/MTK/MTK2503/MTK2503/11CW1418SP4_03_CORETEK03AE_11C_V1_GPRS_MMI/Tools/MinGW/include/c++/3.3.1/bits/stl_list.h ****   
 127:d:/MTK/MTK2503/MTK2503/11CW1418SP4_03_CORETEK03AE_11C_V1_GPRS_MMI/Tools/MinGW/include/c++/3.3.1/bits/stl_list.h ****     bool
 128:d:/MTK/MTK2503/MTK2503/11CW1418SP4_03_CORETEK03AE_11C_V1_GPRS_MMI/Tools/MinGW/include/c++/3.3.1/bits/stl_list.h ****     operator!=(const _List_iterator_base& __x) const
 129:d:/MTK/MTK2503/MTK2503/11CW1418SP4_03_CORETEK03AE_11C_V1_GPRS_MMI/Tools/MinGW/include/c++/3.3.1/bits/stl_list.h ****     { return _M_node != __x._M_node; }
 130:d:/MTK/MTK2503/MTK2503/11CW1418SP4_03_CORETEK03AE_11C_V1_GPRS_MMI/Tools/MinGW/include/c++/3.3.1/bits/stl_list.h ****   };
 131:d:/MTK/MTK2503/MTK2503/11CW1418SP4_03_CORETEK03AE_11C_V1_GPRS_MMI/Tools/MinGW/include/c++/3.3.1/bits/stl_list.h ****   
GAS LISTING d:/MTK/MTK2503/MTK2503/11CW1418SP4_03_CORETEK03AE_11C_V1_GPRS_MMI/plutommi/Customer/ResGenerator/gcctmp/ccQHcaaa.s 			page 13


 132:d:/MTK/MTK2503/MTK2503/11CW1418SP4_03_CORETEK03AE_11C_V1_GPRS_MMI/Tools/MinGW/include/c++/3.3.1/bits/stl_list.h ****   /**
 133:d:/MTK/MTK2503/MTK2503/11CW1418SP4_03_CORETEK03AE_11C_V1_GPRS_MMI/Tools/MinGW/include/c++/3.3.1/bits/stl_list.h ****    *  @brief A list::iterator.
 134:d:/MTK/MTK2503/MTK2503/11CW1418SP4_03_CORETEK03AE_11C_V1_GPRS_MMI/Tools/MinGW/include/c++/3.3.1/bits/stl_list.h ****    *
 135:d:/MTK/MTK2503/MTK2503/11CW1418SP4_03_CORETEK03AE_11C_V1_GPRS_MMI/Tools/MinGW/include/c++/3.3.1/bits/stl_list.h ****    *  In addition to being used externally, a list holds one of these
 136:d:/MTK/MTK2503/MTK2503/11CW1418SP4_03_CORETEK03AE_11C_V1_GPRS_MMI/Tools/MinGW/include/c++/3.3.1/bits/stl_list.h ****    *  internally, pointing to the sequence of data.
 137:d:/MTK/MTK2503/MTK2503/11CW1418SP4_03_CORETEK03AE_11C_V1_GPRS_MMI/Tools/MinGW/include/c++/3.3.1/bits/stl_list.h ****    *
 138:d:/MTK/MTK2503/MTK2503/11CW1418SP4_03_CORETEK03AE_11C_V1_GPRS_MMI/Tools/MinGW/include/c++/3.3.1/bits/stl_list.h ****    *  @if maint
 139:d:/MTK/MTK2503/MTK2503/11CW1418SP4_03_CORETEK03AE_11C_V1_GPRS_MMI/Tools/MinGW/include/c++/3.3.1/bits/stl_list.h ****    *  All the functions are op overloads.
 140:d:/MTK/MTK2503/MTK2503/11CW1418SP4_03_CORETEK03AE_11C_V1_GPRS_MMI/Tools/MinGW/include/c++/3.3.1/bits/stl_list.h ****    *  @endif
 141:d:/MTK/MTK2503/MTK2503/11CW1418SP4_03_CORETEK03AE_11C_V1_GPRS_MMI/Tools/MinGW/include/c++/3.3.1/bits/stl_list.h ****   */
 142:d:/MTK/MTK2503/MTK2503/11CW1418SP4_03_CORETEK03AE_11C_V1_GPRS_MMI/Tools/MinGW/include/c++/3.3.1/bits/stl_list.h ****   template<typename _Tp, typename _Ref, typename _Ptr>
 143:d:/MTK/MTK2503/MTK2503/11CW1418SP4_03_CORETEK03AE_11C_V1_GPRS_MMI/Tools/MinGW/include/c++/3.3.1/bits/stl_list.h ****     struct _List_iterator : public _List_iterator_base
 144:d:/MTK/MTK2503/MTK2503/11CW1418SP4_03_CORETEK03AE_11C_V1_GPRS_MMI/Tools/MinGW/include/c++/3.3.1/bits/stl_list.h ****   {
 145:d:/MTK/MTK2503/MTK2503/11CW1418SP4_03_CORETEK03AE_11C_V1_GPRS_MMI/Tools/MinGW/include/c++/3.3.1/bits/stl_list.h ****     typedef _List_iterator<_Tp,_Tp&,_Tp*>             iterator;
 146:d:/MTK/MTK2503/MTK2503/11CW1418SP4_03_CORETEK03AE_11C_V1_GPRS_MMI/Tools/MinGW/include/c++/3.3.1/bits/stl_list.h ****     typedef _List_iterator<_Tp,const _Tp&,const _Tp*> const_iterator;
 147:d:/MTK/MTK2503/MTK2503/11CW1418SP4_03_CORETEK03AE_11C_V1_GPRS_MMI/Tools/MinGW/include/c++/3.3.1/bits/stl_list.h ****     typedef _List_iterator<_Tp,_Ref,_Ptr>             _Self;
 148:d:/MTK/MTK2503/MTK2503/11CW1418SP4_03_CORETEK03AE_11C_V1_GPRS_MMI/Tools/MinGW/include/c++/3.3.1/bits/stl_list.h ****   
 149:d:/MTK/MTK2503/MTK2503/11CW1418SP4_03_CORETEK03AE_11C_V1_GPRS_MMI/Tools/MinGW/include/c++/3.3.1/bits/stl_list.h ****     typedef _Tp                                       value_type;
 150:d:/MTK/MTK2503/MTK2503/11CW1418SP4_03_CORETEK03AE_11C_V1_GPRS_MMI/Tools/MinGW/include/c++/3.3.1/bits/stl_list.h ****     typedef _Ptr                                      pointer;
 151:d:/MTK/MTK2503/MTK2503/11CW1418SP4_03_CORETEK03AE_11C_V1_GPRS_MMI/Tools/MinGW/include/c++/3.3.1/bits/stl_list.h ****     typedef _Ref                                      reference;
 152:d:/MTK/MTK2503/MTK2503/11CW1418SP4_03_CORETEK03AE_11C_V1_GPRS_MMI/Tools/MinGW/include/c++/3.3.1/bits/stl_list.h ****     typedef _List_node<_Tp>                           _Node;
 153:d:/MTK/MTK2503/MTK2503/11CW1418SP4_03_CORETEK03AE_11C_V1_GPRS_MMI/Tools/MinGW/include/c++/3.3.1/bits/stl_list.h ****   
 154:d:/MTK/MTK2503/MTK2503/11CW1418SP4_03_CORETEK03AE_11C_V1_GPRS_MMI/Tools/MinGW/include/c++/3.3.1/bits/stl_list.h ****     _List_iterator(_Node* __x)
 155:d:/MTK/MTK2503/MTK2503/11CW1418SP4_03_CORETEK03AE_11C_V1_GPRS_MMI/Tools/MinGW/include/c++/3.3.1/bits/stl_list.h ****     : _List_iterator_base(__x)
 156:d:/MTK/MTK2503/MTK2503/11CW1418SP4_03_CORETEK03AE_11C_V1_GPRS_MMI/Tools/MinGW/include/c++/3.3.1/bits/stl_list.h ****     { }
 157:d:/MTK/MTK2503/MTK2503/11CW1418SP4_03_CORETEK03AE_11C_V1_GPRS_MMI/Tools/MinGW/include/c++/3.3.1/bits/stl_list.h ****   
 158:d:/MTK/MTK2503/MTK2503/11CW1418SP4_03_CORETEK03AE_11C_V1_GPRS_MMI/Tools/MinGW/include/c++/3.3.1/bits/stl_list.h ****     _List_iterator()
 159:d:/MTK/MTK2503/MTK2503/11CW1418SP4_03_CORETEK03AE_11C_V1_GPRS_MMI/Tools/MinGW/include/c++/3.3.1/bits/stl_list.h ****     { }
 160:d:/MTK/MTK2503/MTK2503/11CW1418SP4_03_CORETEK03AE_11C_V1_GPRS_MMI/Tools/MinGW/include/c++/3.3.1/bits/stl_list.h ****   
 161:d:/MTK/MTK2503/MTK2503/11CW1418SP4_03_CORETEK03AE_11C_V1_GPRS_MMI/Tools/MinGW/include/c++/3.3.1/bits/stl_list.h ****     _List_iterator(const iterator& __x)
 162:d:/MTK/MTK2503/MTK2503/11CW1418SP4_03_CORETEK03AE_11C_V1_GPRS_MMI/Tools/MinGW/include/c++/3.3.1/bits/stl_list.h ****     : _List_iterator_base(__x._M_node)
 163:d:/MTK/MTK2503/MTK2503/11CW1418SP4_03_CORETEK03AE_11C_V1_GPRS_MMI/Tools/MinGW/include/c++/3.3.1/bits/stl_list.h ****     { }
 164:d:/MTK/MTK2503/MTK2503/11CW1418SP4_03_CORETEK03AE_11C_V1_GPRS_MMI/Tools/MinGW/include/c++/3.3.1/bits/stl_list.h ****   
 165:d:/MTK/MTK2503/MTK2503/11CW1418SP4_03_CORETEK03AE_11C_V1_GPRS_MMI/Tools/MinGW/include/c++/3.3.1/bits/stl_list.h ****     reference
 166:d:/MTK/MTK2503/MTK2503/11CW1418SP4_03_CORETEK03AE_11C_V1_GPRS_MMI/Tools/MinGW/include/c++/3.3.1/bits/stl_list.h ****     operator*() const
 167:d:/MTK/MTK2503/MTK2503/11CW1418SP4_03_CORETEK03AE_11C_V1_GPRS_MMI/Tools/MinGW/include/c++/3.3.1/bits/stl_list.h ****     { return static_cast<_Node*>(_M_node)->_M_data; }
 168:d:/MTK/MTK2503/MTK2503/11CW1418SP4_03_CORETEK03AE_11C_V1_GPRS_MMI/Tools/MinGW/include/c++/3.3.1/bits/stl_list.h ****     // Must downcast from List_node_base to _List_node to get to _M_data.
 169:d:/MTK/MTK2503/MTK2503/11CW1418SP4_03_CORETEK03AE_11C_V1_GPRS_MMI/Tools/MinGW/include/c++/3.3.1/bits/stl_list.h ****   
 170:d:/MTK/MTK2503/MTK2503/11CW1418SP4_03_CORETEK03AE_11C_V1_GPRS_MMI/Tools/MinGW/include/c++/3.3.1/bits/stl_list.h ****     pointer
 171:d:/MTK/MTK2503/MTK2503/11CW1418SP4_03_CORETEK03AE_11C_V1_GPRS_MMI/Tools/MinGW/include/c++/3.3.1/bits/stl_list.h ****     operator->() const
 172:d:/MTK/MTK2503/MTK2503/11CW1418SP4_03_CORETEK03AE_11C_V1_GPRS_MMI/Tools/MinGW/include/c++/3.3.1/bits/stl_list.h ****     { return &(operator*()); }
 173:d:/MTK/MTK2503/MTK2503/11CW1418SP4_03_CORETEK03AE_11C_V1_GPRS_MMI/Tools/MinGW/include/c++/3.3.1/bits/stl_list.h ****   
 174:d:/MTK/MTK2503/MTK2503/11CW1418SP4_03_CORETEK03AE_11C_V1_GPRS_MMI/Tools/MinGW/include/c++/3.3.1/bits/stl_list.h ****     _Self&
 175:d:/MTK/MTK2503/MTK2503/11CW1418SP4_03_CORETEK03AE_11C_V1_GPRS_MMI/Tools/MinGW/include/c++/3.3.1/bits/stl_list.h ****     operator++()
 176:d:/MTK/MTK2503/MTK2503/11CW1418SP4_03_CORETEK03AE_11C_V1_GPRS_MMI/Tools/MinGW/include/c++/3.3.1/bits/stl_list.h ****     {
 177:d:/MTK/MTK2503/MTK2503/11CW1418SP4_03_CORETEK03AE_11C_V1_GPRS_MMI/Tools/MinGW/include/c++/3.3.1/bits/stl_list.h ****       this->_M_incr();
 178:d:/MTK/MTK2503/MTK2503/11CW1418SP4_03_CORETEK03AE_11C_V1_GPRS_MMI/Tools/MinGW/include/c++/3.3.1/bits/stl_list.h ****       return *this;
 179:d:/MTK/MTK2503/MTK2503/11CW1418SP4_03_CORETEK03AE_11C_V1_GPRS_MMI/Tools/MinGW/include/c++/3.3.1/bits/stl_list.h ****     }
 180:d:/MTK/MTK2503/MTK2503/11CW1418SP4_03_CORETEK03AE_11C_V1_GPRS_MMI/Tools/MinGW/include/c++/3.3.1/bits/stl_list.h ****   
 181:d:/MTK/MTK2503/MTK2503/11CW1418SP4_03_CORETEK03AE_11C_V1_GPRS_MMI/Tools/MinGW/include/c++/3.3.1/bits/stl_list.h ****     _Self
 182:d:/MTK/MTK2503/MTK2503/11CW1418SP4_03_CORETEK03AE_11C_V1_GPRS_MMI/Tools/MinGW/include/c++/3.3.1/bits/stl_list.h ****     operator++(int)
 183:d:/MTK/MTK2503/MTK2503/11CW1418SP4_03_CORETEK03AE_11C_V1_GPRS_MMI/Tools/MinGW/include/c++/3.3.1/bits/stl_list.h ****     {
 184:d:/MTK/MTK2503/MTK2503/11CW1418SP4_03_CORETEK03AE_11C_V1_GPRS_MMI/Tools/MinGW/include/c++/3.3.1/bits/stl_list.h ****       _Self __tmp = *this;
 185:d:/MTK/MTK2503/MTK2503/11CW1418SP4_03_CORETEK03AE_11C_V1_GPRS_MMI/Tools/MinGW/include/c++/3.3.1/bits/stl_list.h ****       this->_M_incr();
 186:d:/MTK/MTK2503/MTK2503/11CW1418SP4_03_CORETEK03AE_11C_V1_GPRS_MMI/Tools/MinGW/include/c++/3.3.1/bits/stl_list.h ****       return __tmp;
 187:d:/MTK/MTK2503/MTK2503/11CW1418SP4_03_CORETEK03AE_11C_V1_GPRS_MMI/Tools/MinGW/include/c++/3.3.1/bits/stl_list.h ****     }
 188:d:/MTK/MTK2503/MTK2503/11CW1418SP4_03_CORETEK03AE_11C_V1_GPRS_MMI/Tools/MinGW/include/c++/3.3.1/bits/stl_list.h ****   
GAS LISTING d:/MTK/MTK2503/MTK2503/11CW1418SP4_03_CORETEK03AE_11C_V1_GPRS_MMI/plutommi/Customer/ResGenerator/gcctmp/ccQHcaaa.s 			page 14


 189:d:/MTK/MTK2503/MTK2503/11CW1418SP4_03_CORETEK03AE_11C_V1_GPRS_MMI/Tools/MinGW/include/c++/3.3.1/bits/stl_list.h ****     _Self&
 190:d:/MTK/MTK2503/MTK2503/11CW1418SP4_03_CORETEK03AE_11C_V1_GPRS_MMI/Tools/MinGW/include/c++/3.3.1/bits/stl_list.h ****     operator--()
 191:d:/MTK/MTK2503/MTK2503/11CW1418SP4_03_CORETEK03AE_11C_V1_GPRS_MMI/Tools/MinGW/include/c++/3.3.1/bits/stl_list.h ****     {
 192:d:/MTK/MTK2503/MTK2503/11CW1418SP4_03_CORETEK03AE_11C_V1_GPRS_MMI/Tools/MinGW/include/c++/3.3.1/bits/stl_list.h ****       this->_M_decr();
 193:d:/MTK/MTK2503/MTK2503/11CW1418SP4_03_CORETEK03AE_11C_V1_GPRS_MMI/Tools/MinGW/include/c++/3.3.1/bits/stl_list.h ****       return *this;
 194:d:/MTK/MTK2503/MTK2503/11CW1418SP4_03_CORETEK03AE_11C_V1_GPRS_MMI/Tools/MinGW/include/c++/3.3.1/bits/stl_list.h ****     }
 195:d:/MTK/MTK2503/MTK2503/11CW1418SP4_03_CORETEK03AE_11C_V1_GPRS_MMI/Tools/MinGW/include/c++/3.3.1/bits/stl_list.h ****   
 196:d:/MTK/MTK2503/MTK2503/11CW1418SP4_03_CORETEK03AE_11C_V1_GPRS_MMI/Tools/MinGW/include/c++/3.3.1/bits/stl_list.h ****     _Self
 197:d:/MTK/MTK2503/MTK2503/11CW1418SP4_03_CORETEK03AE_11C_V1_GPRS_MMI/Tools/MinGW/include/c++/3.3.1/bits/stl_list.h ****     operator--(int)
 198:d:/MTK/MTK2503/MTK2503/11CW1418SP4_03_CORETEK03AE_11C_V1_GPRS_MMI/Tools/MinGW/include/c++/3.3.1/bits/stl_list.h ****     {
 199:d:/MTK/MTK2503/MTK2503/11CW1418SP4_03_CORETEK03AE_11C_V1_GPRS_MMI/Tools/MinGW/include/c++/3.3.1/bits/stl_list.h ****       _Self __tmp = *this;
 200:d:/MTK/MTK2503/MTK2503/11CW1418SP4_03_CORETEK03AE_11C_V1_GPRS_MMI/Tools/MinGW/include/c++/3.3.1/bits/stl_list.h ****       this->_M_decr();
 201:d:/MTK/MTK2503/MTK2503/11CW1418SP4_03_CORETEK03AE_11C_V1_GPRS_MMI/Tools/MinGW/include/c++/3.3.1/bits/stl_list.h ****       return __tmp;
 202:d:/MTK/MTK2503/MTK2503/11CW1418SP4_03_CORETEK03AE_11C_V1_GPRS_MMI/Tools/MinGW/include/c++/3.3.1/bits/stl_list.h ****     }
 203:d:/MTK/MTK2503/MTK2503/11CW1418SP4_03_CORETEK03AE_11C_V1_GPRS_MMI/Tools/MinGW/include/c++/3.3.1/bits/stl_list.h ****   };
 204:d:/MTK/MTK2503/MTK2503/11CW1418SP4_03_CORETEK03AE_11C_V1_GPRS_MMI/Tools/MinGW/include/c++/3.3.1/bits/stl_list.h ****   
 205:d:/MTK/MTK2503/MTK2503/11CW1418SP4_03_CORETEK03AE_11C_V1_GPRS_MMI/Tools/MinGW/include/c++/3.3.1/bits/stl_list.h ****   
 206:d:/MTK/MTK2503/MTK2503/11CW1418SP4_03_CORETEK03AE_11C_V1_GPRS_MMI/Tools/MinGW/include/c++/3.3.1/bits/stl_list.h ****   /// @if maint Primary default version.  @endif
 207:d:/MTK/MTK2503/MTK2503/11CW1418SP4_03_CORETEK03AE_11C_V1_GPRS_MMI/Tools/MinGW/include/c++/3.3.1/bits/stl_list.h ****   /**
 208:d:/MTK/MTK2503/MTK2503/11CW1418SP4_03_CORETEK03AE_11C_V1_GPRS_MMI/Tools/MinGW/include/c++/3.3.1/bits/stl_list.h ****    *  @if maint
 209:d:/MTK/MTK2503/MTK2503/11CW1418SP4_03_CORETEK03AE_11C_V1_GPRS_MMI/Tools/MinGW/include/c++/3.3.1/bits/stl_list.h ****    *  See bits/stl_deque.h's _Deque_alloc_base for an explanation.
 210:d:/MTK/MTK2503/MTK2503/11CW1418SP4_03_CORETEK03AE_11C_V1_GPRS_MMI/Tools/MinGW/include/c++/3.3.1/bits/stl_list.h ****    *  @endif
 211:d:/MTK/MTK2503/MTK2503/11CW1418SP4_03_CORETEK03AE_11C_V1_GPRS_MMI/Tools/MinGW/include/c++/3.3.1/bits/stl_list.h ****   */
 212:d:/MTK/MTK2503/MTK2503/11CW1418SP4_03_CORETEK03AE_11C_V1_GPRS_MMI/Tools/MinGW/include/c++/3.3.1/bits/stl_list.h ****   template<typename _Tp, typename _Allocator, bool _IsStatic>
 213:d:/MTK/MTK2503/MTK2503/11CW1418SP4_03_CORETEK03AE_11C_V1_GPRS_MMI/Tools/MinGW/include/c++/3.3.1/bits/stl_list.h ****     class _List_alloc_base
 214:d:/MTK/MTK2503/MTK2503/11CW1418SP4_03_CORETEK03AE_11C_V1_GPRS_MMI/Tools/MinGW/include/c++/3.3.1/bits/stl_list.h ****   {
 215:d:/MTK/MTK2503/MTK2503/11CW1418SP4_03_CORETEK03AE_11C_V1_GPRS_MMI/Tools/MinGW/include/c++/3.3.1/bits/stl_list.h ****   public:
 216:d:/MTK/MTK2503/MTK2503/11CW1418SP4_03_CORETEK03AE_11C_V1_GPRS_MMI/Tools/MinGW/include/c++/3.3.1/bits/stl_list.h ****     typedef typename _Alloc_traits<_Tp, _Allocator>::allocator_type
 217:d:/MTK/MTK2503/MTK2503/11CW1418SP4_03_CORETEK03AE_11C_V1_GPRS_MMI/Tools/MinGW/include/c++/3.3.1/bits/stl_list.h ****             allocator_type;
 218:d:/MTK/MTK2503/MTK2503/11CW1418SP4_03_CORETEK03AE_11C_V1_GPRS_MMI/Tools/MinGW/include/c++/3.3.1/bits/stl_list.h ****   
 219:d:/MTK/MTK2503/MTK2503/11CW1418SP4_03_CORETEK03AE_11C_V1_GPRS_MMI/Tools/MinGW/include/c++/3.3.1/bits/stl_list.h ****     allocator_type
 220:d:/MTK/MTK2503/MTK2503/11CW1418SP4_03_CORETEK03AE_11C_V1_GPRS_MMI/Tools/MinGW/include/c++/3.3.1/bits/stl_list.h ****     get_allocator() const { return _M_node_allocator; }
 221:d:/MTK/MTK2503/MTK2503/11CW1418SP4_03_CORETEK03AE_11C_V1_GPRS_MMI/Tools/MinGW/include/c++/3.3.1/bits/stl_list.h ****   
 222:d:/MTK/MTK2503/MTK2503/11CW1418SP4_03_CORETEK03AE_11C_V1_GPRS_MMI/Tools/MinGW/include/c++/3.3.1/bits/stl_list.h ****     _List_alloc_base(const allocator_type& __a)
 223:d:/MTK/MTK2503/MTK2503/11CW1418SP4_03_CORETEK03AE_11C_V1_GPRS_MMI/Tools/MinGW/include/c++/3.3.1/bits/stl_list.h ****     : _M_node_allocator(__a)
 224:d:/MTK/MTK2503/MTK2503/11CW1418SP4_03_CORETEK03AE_11C_V1_GPRS_MMI/Tools/MinGW/include/c++/3.3.1/bits/stl_list.h ****     { }
 225:d:/MTK/MTK2503/MTK2503/11CW1418SP4_03_CORETEK03AE_11C_V1_GPRS_MMI/Tools/MinGW/include/c++/3.3.1/bits/stl_list.h ****   
 226:d:/MTK/MTK2503/MTK2503/11CW1418SP4_03_CORETEK03AE_11C_V1_GPRS_MMI/Tools/MinGW/include/c++/3.3.1/bits/stl_list.h ****   protected:
 227:d:/MTK/MTK2503/MTK2503/11CW1418SP4_03_CORETEK03AE_11C_V1_GPRS_MMI/Tools/MinGW/include/c++/3.3.1/bits/stl_list.h ****     _List_node<_Tp>*
 228:d:/MTK/MTK2503/MTK2503/11CW1418SP4_03_CORETEK03AE_11C_V1_GPRS_MMI/Tools/MinGW/include/c++/3.3.1/bits/stl_list.h ****     _M_get_node()
 229:d:/MTK/MTK2503/MTK2503/11CW1418SP4_03_CORETEK03AE_11C_V1_GPRS_MMI/Tools/MinGW/include/c++/3.3.1/bits/stl_list.h ****     { return _M_node_allocator.allocate(1); }
 230:d:/MTK/MTK2503/MTK2503/11CW1418SP4_03_CORETEK03AE_11C_V1_GPRS_MMI/Tools/MinGW/include/c++/3.3.1/bits/stl_list.h ****   
 231:d:/MTK/MTK2503/MTK2503/11CW1418SP4_03_CORETEK03AE_11C_V1_GPRS_MMI/Tools/MinGW/include/c++/3.3.1/bits/stl_list.h ****     void
 232:d:/MTK/MTK2503/MTK2503/11CW1418SP4_03_CORETEK03AE_11C_V1_GPRS_MMI/Tools/MinGW/include/c++/3.3.1/bits/stl_list.h ****     _M_put_node(_List_node<_Tp>* __p)
 233:d:/MTK/MTK2503/MTK2503/11CW1418SP4_03_CORETEK03AE_11C_V1_GPRS_MMI/Tools/MinGW/include/c++/3.3.1/bits/stl_list.h ****     { _M_node_allocator.deallocate(__p, 1); }
 234:d:/MTK/MTK2503/MTK2503/11CW1418SP4_03_CORETEK03AE_11C_V1_GPRS_MMI/Tools/MinGW/include/c++/3.3.1/bits/stl_list.h ****   
 235:d:/MTK/MTK2503/MTK2503/11CW1418SP4_03_CORETEK03AE_11C_V1_GPRS_MMI/Tools/MinGW/include/c++/3.3.1/bits/stl_list.h ****     // NOTA BENE
 236:d:/MTK/MTK2503/MTK2503/11CW1418SP4_03_CORETEK03AE_11C_V1_GPRS_MMI/Tools/MinGW/include/c++/3.3.1/bits/stl_list.h ****     // The stored instance is not actually of "allocator_type"'s type.  Instead
 237:d:/MTK/MTK2503/MTK2503/11CW1418SP4_03_CORETEK03AE_11C_V1_GPRS_MMI/Tools/MinGW/include/c++/3.3.1/bits/stl_list.h ****     // we rebind the type to Allocator<List_node<Tp>>, which according to
 238:d:/MTK/MTK2503/MTK2503/11CW1418SP4_03_CORETEK03AE_11C_V1_GPRS_MMI/Tools/MinGW/include/c++/3.3.1/bits/stl_list.h ****     // [20.1.5]/4 should probably be the same.  List_node<Tp> is not the same
 239:d:/MTK/MTK2503/MTK2503/11CW1418SP4_03_CORETEK03AE_11C_V1_GPRS_MMI/Tools/MinGW/include/c++/3.3.1/bits/stl_list.h ****     // size as Tp (it's two pointers larger), and specializations on Tp may go
 240:d:/MTK/MTK2503/MTK2503/11CW1418SP4_03_CORETEK03AE_11C_V1_GPRS_MMI/Tools/MinGW/include/c++/3.3.1/bits/stl_list.h ****     // unused because List_node<Tp> is being bound instead.
 241:d:/MTK/MTK2503/MTK2503/11CW1418SP4_03_CORETEK03AE_11C_V1_GPRS_MMI/Tools/MinGW/include/c++/3.3.1/bits/stl_list.h ****     //
 242:d:/MTK/MTK2503/MTK2503/11CW1418SP4_03_CORETEK03AE_11C_V1_GPRS_MMI/Tools/MinGW/include/c++/3.3.1/bits/stl_list.h ****     // We put this to the test in get_allocator above; if the two types are
 243:d:/MTK/MTK2503/MTK2503/11CW1418SP4_03_CORETEK03AE_11C_V1_GPRS_MMI/Tools/MinGW/include/c++/3.3.1/bits/stl_list.h ****     // actually different, there had better be a conversion between them.
 244:d:/MTK/MTK2503/MTK2503/11CW1418SP4_03_CORETEK03AE_11C_V1_GPRS_MMI/Tools/MinGW/include/c++/3.3.1/bits/stl_list.h ****     //
 245:d:/MTK/MTK2503/MTK2503/11CW1418SP4_03_CORETEK03AE_11C_V1_GPRS_MMI/Tools/MinGW/include/c++/3.3.1/bits/stl_list.h ****     // None of the predefined allocators shipped with the library (as of 3.1)
GAS LISTING d:/MTK/MTK2503/MTK2503/11CW1418SP4_03_CORETEK03AE_11C_V1_GPRS_MMI/plutommi/Customer/ResGenerator/gcctmp/ccQHcaaa.s 			page 15


 246:d:/MTK/MTK2503/MTK2503/11CW1418SP4_03_CORETEK03AE_11C_V1_GPRS_MMI/Tools/MinGW/include/c++/3.3.1/bits/stl_list.h ****     // use this instantiation anyhow; they're all instanceless.
 247:d:/MTK/MTK2503/MTK2503/11CW1418SP4_03_CORETEK03AE_11C_V1_GPRS_MMI/Tools/MinGW/include/c++/3.3.1/bits/stl_list.h ****     typename _Alloc_traits<_List_node<_Tp>, _Allocator>::allocator_type
 248:d:/MTK/MTK2503/MTK2503/11CW1418SP4_03_CORETEK03AE_11C_V1_GPRS_MMI/Tools/MinGW/include/c++/3.3.1/bits/stl_list.h ****              _M_node_allocator;
 249:d:/MTK/MTK2503/MTK2503/11CW1418SP4_03_CORETEK03AE_11C_V1_GPRS_MMI/Tools/MinGW/include/c++/3.3.1/bits/stl_list.h ****   
 250:d:/MTK/MTK2503/MTK2503/11CW1418SP4_03_CORETEK03AE_11C_V1_GPRS_MMI/Tools/MinGW/include/c++/3.3.1/bits/stl_list.h ****     _List_node<_Tp>* _M_node;
 251:d:/MTK/MTK2503/MTK2503/11CW1418SP4_03_CORETEK03AE_11C_V1_GPRS_MMI/Tools/MinGW/include/c++/3.3.1/bits/stl_list.h ****   };
 252:d:/MTK/MTK2503/MTK2503/11CW1418SP4_03_CORETEK03AE_11C_V1_GPRS_MMI/Tools/MinGW/include/c++/3.3.1/bits/stl_list.h ****   
 253:d:/MTK/MTK2503/MTK2503/11CW1418SP4_03_CORETEK03AE_11C_V1_GPRS_MMI/Tools/MinGW/include/c++/3.3.1/bits/stl_list.h ****   /// @if maint Specialization for instanceless allocators.  @endif
 254:d:/MTK/MTK2503/MTK2503/11CW1418SP4_03_CORETEK03AE_11C_V1_GPRS_MMI/Tools/MinGW/include/c++/3.3.1/bits/stl_list.h ****   template<typename _Tp, typename _Allocator>
 255:d:/MTK/MTK2503/MTK2503/11CW1418SP4_03_CORETEK03AE_11C_V1_GPRS_MMI/Tools/MinGW/include/c++/3.3.1/bits/stl_list.h ****     class _List_alloc_base<_Tp, _Allocator, true>
 256:d:/MTK/MTK2503/MTK2503/11CW1418SP4_03_CORETEK03AE_11C_V1_GPRS_MMI/Tools/MinGW/include/c++/3.3.1/bits/stl_list.h ****   {
 257:d:/MTK/MTK2503/MTK2503/11CW1418SP4_03_CORETEK03AE_11C_V1_GPRS_MMI/Tools/MinGW/include/c++/3.3.1/bits/stl_list.h ****   public:
 258:d:/MTK/MTK2503/MTK2503/11CW1418SP4_03_CORETEK03AE_11C_V1_GPRS_MMI/Tools/MinGW/include/c++/3.3.1/bits/stl_list.h ****     typedef typename _Alloc_traits<_Tp, _Allocator>::allocator_type
 259:d:/MTK/MTK2503/MTK2503/11CW1418SP4_03_CORETEK03AE_11C_V1_GPRS_MMI/Tools/MinGW/include/c++/3.3.1/bits/stl_list.h ****             allocator_type;
 260:d:/MTK/MTK2503/MTK2503/11CW1418SP4_03_CORETEK03AE_11C_V1_GPRS_MMI/Tools/MinGW/include/c++/3.3.1/bits/stl_list.h ****   
 261:d:/MTK/MTK2503/MTK2503/11CW1418SP4_03_CORETEK03AE_11C_V1_GPRS_MMI/Tools/MinGW/include/c++/3.3.1/bits/stl_list.h ****     allocator_type
 262:d:/MTK/MTK2503/MTK2503/11CW1418SP4_03_CORETEK03AE_11C_V1_GPRS_MMI/Tools/MinGW/include/c++/3.3.1/bits/stl_list.h ****     get_allocator() const { return allocator_type(); }
 263:d:/MTK/MTK2503/MTK2503/11CW1418SP4_03_CORETEK03AE_11C_V1_GPRS_MMI/Tools/MinGW/include/c++/3.3.1/bits/stl_list.h ****   
 264:d:/MTK/MTK2503/MTK2503/11CW1418SP4_03_CORETEK03AE_11C_V1_GPRS_MMI/Tools/MinGW/include/c++/3.3.1/bits/stl_list.h ****     _List_alloc_base(const allocator_type&)
 265:d:/MTK/MTK2503/MTK2503/11CW1418SP4_03_CORETEK03AE_11C_V1_GPRS_MMI/Tools/MinGW/include/c++/3.3.1/bits/stl_list.h ****     { }
 266:d:/MTK/MTK2503/MTK2503/11CW1418SP4_03_CORETEK03AE_11C_V1_GPRS_MMI/Tools/MinGW/include/c++/3.3.1/bits/stl_list.h ****   
 267:d:/MTK/MTK2503/MTK2503/11CW1418SP4_03_CORETEK03AE_11C_V1_GPRS_MMI/Tools/MinGW/include/c++/3.3.1/bits/stl_list.h ****   protected:
 268:d:/MTK/MTK2503/MTK2503/11CW1418SP4_03_CORETEK03AE_11C_V1_GPRS_MMI/Tools/MinGW/include/c++/3.3.1/bits/stl_list.h ****     // See comment in primary template class about why this is safe for the
 269:d:/MTK/MTK2503/MTK2503/11CW1418SP4_03_CORETEK03AE_11C_V1_GPRS_MMI/Tools/MinGW/include/c++/3.3.1/bits/stl_list.h ****     // standard predefined classes.
 270:d:/MTK/MTK2503/MTK2503/11CW1418SP4_03_CORETEK03AE_11C_V1_GPRS_MMI/Tools/MinGW/include/c++/3.3.1/bits/stl_list.h ****     typedef typename _Alloc_traits<_List_node<_Tp>, _Allocator>::_Alloc_type
 271:d:/MTK/MTK2503/MTK2503/11CW1418SP4_03_CORETEK03AE_11C_V1_GPRS_MMI/Tools/MinGW/include/c++/3.3.1/bits/stl_list.h ****             _Alloc_type;
 272:d:/MTK/MTK2503/MTK2503/11CW1418SP4_03_CORETEK03AE_11C_V1_GPRS_MMI/Tools/MinGW/include/c++/3.3.1/bits/stl_list.h ****   
 273:d:/MTK/MTK2503/MTK2503/11CW1418SP4_03_CORETEK03AE_11C_V1_GPRS_MMI/Tools/MinGW/include/c++/3.3.1/bits/stl_list.h ****     _List_node<_Tp>*
 274:d:/MTK/MTK2503/MTK2503/11CW1418SP4_03_CORETEK03AE_11C_V1_GPRS_MMI/Tools/MinGW/include/c++/3.3.1/bits/stl_list.h ****     _M_get_node()
 275:d:/MTK/MTK2503/MTK2503/11CW1418SP4_03_CORETEK03AE_11C_V1_GPRS_MMI/Tools/MinGW/include/c++/3.3.1/bits/stl_list.h ****     { return _Alloc_type::allocate(1); }
 276:d:/MTK/MTK2503/MTK2503/11CW1418SP4_03_CORETEK03AE_11C_V1_GPRS_MMI/Tools/MinGW/include/c++/3.3.1/bits/stl_list.h ****   
 277:d:/MTK/MTK2503/MTK2503/11CW1418SP4_03_CORETEK03AE_11C_V1_GPRS_MMI/Tools/MinGW/include/c++/3.3.1/bits/stl_list.h ****     void
 278:d:/MTK/MTK2503/MTK2503/11CW1418SP4_03_CORETEK03AE_11C_V1_GPRS_MMI/Tools/MinGW/include/c++/3.3.1/bits/stl_list.h ****     _M_put_node(_List_node<_Tp>* __p)
 279:d:/MTK/MTK2503/MTK2503/11CW1418SP4_03_CORETEK03AE_11C_V1_GPRS_MMI/Tools/MinGW/include/c++/3.3.1/bits/stl_list.h ****     { _Alloc_type::deallocate(__p, 1); }
 280:d:/MTK/MTK2503/MTK2503/11CW1418SP4_03_CORETEK03AE_11C_V1_GPRS_MMI/Tools/MinGW/include/c++/3.3.1/bits/stl_list.h ****   
 281:d:/MTK/MTK2503/MTK2503/11CW1418SP4_03_CORETEK03AE_11C_V1_GPRS_MMI/Tools/MinGW/include/c++/3.3.1/bits/stl_list.h ****     _List_node<_Tp>* _M_node;
 282:d:/MTK/MTK2503/MTK2503/11CW1418SP4_03_CORETEK03AE_11C_V1_GPRS_MMI/Tools/MinGW/include/c++/3.3.1/bits/stl_list.h ****   };
 283:d:/MTK/MTK2503/MTK2503/11CW1418SP4_03_CORETEK03AE_11C_V1_GPRS_MMI/Tools/MinGW/include/c++/3.3.1/bits/stl_list.h ****   
 284:d:/MTK/MTK2503/MTK2503/11CW1418SP4_03_CORETEK03AE_11C_V1_GPRS_MMI/Tools/MinGW/include/c++/3.3.1/bits/stl_list.h ****   
 285:d:/MTK/MTK2503/MTK2503/11CW1418SP4_03_CORETEK03AE_11C_V1_GPRS_MMI/Tools/MinGW/include/c++/3.3.1/bits/stl_list.h ****   /**
 286:d:/MTK/MTK2503/MTK2503/11CW1418SP4_03_CORETEK03AE_11C_V1_GPRS_MMI/Tools/MinGW/include/c++/3.3.1/bits/stl_list.h ****    *  @if maint
 287:d:/MTK/MTK2503/MTK2503/11CW1418SP4_03_CORETEK03AE_11C_V1_GPRS_MMI/Tools/MinGW/include/c++/3.3.1/bits/stl_list.h ****    *  See bits/stl_deque.h's _Deque_base for an explanation.
 288:d:/MTK/MTK2503/MTK2503/11CW1418SP4_03_CORETEK03AE_11C_V1_GPRS_MMI/Tools/MinGW/include/c++/3.3.1/bits/stl_list.h ****    *  @endif
 289:d:/MTK/MTK2503/MTK2503/11CW1418SP4_03_CORETEK03AE_11C_V1_GPRS_MMI/Tools/MinGW/include/c++/3.3.1/bits/stl_list.h ****   */
 290:d:/MTK/MTK2503/MTK2503/11CW1418SP4_03_CORETEK03AE_11C_V1_GPRS_MMI/Tools/MinGW/include/c++/3.3.1/bits/stl_list.h ****   template <typename _Tp, typename _Alloc>
 291:d:/MTK/MTK2503/MTK2503/11CW1418SP4_03_CORETEK03AE_11C_V1_GPRS_MMI/Tools/MinGW/include/c++/3.3.1/bits/stl_list.h ****     class _List_base
 292:d:/MTK/MTK2503/MTK2503/11CW1418SP4_03_CORETEK03AE_11C_V1_GPRS_MMI/Tools/MinGW/include/c++/3.3.1/bits/stl_list.h ****     : public _List_alloc_base<_Tp, _Alloc,
 293:d:/MTK/MTK2503/MTK2503/11CW1418SP4_03_CORETEK03AE_11C_V1_GPRS_MMI/Tools/MinGW/include/c++/3.3.1/bits/stl_list.h ****                               _Alloc_traits<_Tp, _Alloc>::_S_instanceless>
 294:d:/MTK/MTK2503/MTK2503/11CW1418SP4_03_CORETEK03AE_11C_V1_GPRS_MMI/Tools/MinGW/include/c++/3.3.1/bits/stl_list.h ****   {
 295:d:/MTK/MTK2503/MTK2503/11CW1418SP4_03_CORETEK03AE_11C_V1_GPRS_MMI/Tools/MinGW/include/c++/3.3.1/bits/stl_list.h ****   public:
 296:d:/MTK/MTK2503/MTK2503/11CW1418SP4_03_CORETEK03AE_11C_V1_GPRS_MMI/Tools/MinGW/include/c++/3.3.1/bits/stl_list.h ****     typedef _List_alloc_base<_Tp, _Alloc,
 297:d:/MTK/MTK2503/MTK2503/11CW1418SP4_03_CORETEK03AE_11C_V1_GPRS_MMI/Tools/MinGW/include/c++/3.3.1/bits/stl_list.h ****                              _Alloc_traits<_Tp, _Alloc>::_S_instanceless>
 298:d:/MTK/MTK2503/MTK2503/11CW1418SP4_03_CORETEK03AE_11C_V1_GPRS_MMI/Tools/MinGW/include/c++/3.3.1/bits/stl_list.h ****             _Base;
 299:d:/MTK/MTK2503/MTK2503/11CW1418SP4_03_CORETEK03AE_11C_V1_GPRS_MMI/Tools/MinGW/include/c++/3.3.1/bits/stl_list.h ****     typedef typename _Base::allocator_type allocator_type;
 300:d:/MTK/MTK2503/MTK2503/11CW1418SP4_03_CORETEK03AE_11C_V1_GPRS_MMI/Tools/MinGW/include/c++/3.3.1/bits/stl_list.h ****   
 301:d:/MTK/MTK2503/MTK2503/11CW1418SP4_03_CORETEK03AE_11C_V1_GPRS_MMI/Tools/MinGW/include/c++/3.3.1/bits/stl_list.h ****     _List_base(const allocator_type& __a)
 302:d:/MTK/MTK2503/MTK2503/11CW1418SP4_03_CORETEK03AE_11C_V1_GPRS_MMI/Tools/MinGW/include/c++/3.3.1/bits/stl_list.h ****     : _Base(__a)
GAS LISTING d:/MTK/MTK2503/MTK2503/11CW1418SP4_03_CORETEK03AE_11C_V1_GPRS_MMI/plutommi/Customer/ResGenerator/gcctmp/ccQHcaaa.s 			page 16


 303:d:/MTK/MTK2503/MTK2503/11CW1418SP4_03_CORETEK03AE_11C_V1_GPRS_MMI/Tools/MinGW/include/c++/3.3.1/bits/stl_list.h ****     {
 304:d:/MTK/MTK2503/MTK2503/11CW1418SP4_03_CORETEK03AE_11C_V1_GPRS_MMI/Tools/MinGW/include/c++/3.3.1/bits/stl_list.h ****       _M_node = _M_get_node();
 305:d:/MTK/MTK2503/MTK2503/11CW1418SP4_03_CORETEK03AE_11C_V1_GPRS_MMI/Tools/MinGW/include/c++/3.3.1/bits/stl_list.h ****       _M_node->_M_next = _M_node;
 306:d:/MTK/MTK2503/MTK2503/11CW1418SP4_03_CORETEK03AE_11C_V1_GPRS_MMI/Tools/MinGW/include/c++/3.3.1/bits/stl_list.h ****       _M_node->_M_prev = _M_node;
 307:d:/MTK/MTK2503/MTK2503/11CW1418SP4_03_CORETEK03AE_11C_V1_GPRS_MMI/Tools/MinGW/include/c++/3.3.1/bits/stl_list.h ****     }
 308:d:/MTK/MTK2503/MTK2503/11CW1418SP4_03_CORETEK03AE_11C_V1_GPRS_MMI/Tools/MinGW/include/c++/3.3.1/bits/stl_list.h ****   
 309:d:/MTK/MTK2503/MTK2503/11CW1418SP4_03_CORETEK03AE_11C_V1_GPRS_MMI/Tools/MinGW/include/c++/3.3.1/bits/stl_list.h ****     // This is what actually destroys the list.
 310:d:/MTK/MTK2503/MTK2503/11CW1418SP4_03_CORETEK03AE_11C_V1_GPRS_MMI/Tools/MinGW/include/c++/3.3.1/bits/stl_list.h ****     ~_List_base()
 311:d:/MTK/MTK2503/MTK2503/11CW1418SP4_03_CORETEK03AE_11C_V1_GPRS_MMI/Tools/MinGW/include/c++/3.3.1/bits/stl_list.h ****     {
 312:d:/MTK/MTK2503/MTK2503/11CW1418SP4_03_CORETEK03AE_11C_V1_GPRS_MMI/Tools/MinGW/include/c++/3.3.1/bits/stl_list.h ****       __clear();
 313:d:/MTK/MTK2503/MTK2503/11CW1418SP4_03_CORETEK03AE_11C_V1_GPRS_MMI/Tools/MinGW/include/c++/3.3.1/bits/stl_list.h ****       _M_put_node(_M_node);
 314:d:/MTK/MTK2503/MTK2503/11CW1418SP4_03_CORETEK03AE_11C_V1_GPRS_MMI/Tools/MinGW/include/c++/3.3.1/bits/stl_list.h ****     }
 315:d:/MTK/MTK2503/MTK2503/11CW1418SP4_03_CORETEK03AE_11C_V1_GPRS_MMI/Tools/MinGW/include/c++/3.3.1/bits/stl_list.h ****   
 316:d:/MTK/MTK2503/MTK2503/11CW1418SP4_03_CORETEK03AE_11C_V1_GPRS_MMI/Tools/MinGW/include/c++/3.3.1/bits/stl_list.h ****     void
 317:d:/MTK/MTK2503/MTK2503/11CW1418SP4_03_CORETEK03AE_11C_V1_GPRS_MMI/Tools/MinGW/include/c++/3.3.1/bits/stl_list.h ****     __clear();
 318:d:/MTK/MTK2503/MTK2503/11CW1418SP4_03_CORETEK03AE_11C_V1_GPRS_MMI/Tools/MinGW/include/c++/3.3.1/bits/stl_list.h ****   };
 319:d:/MTK/MTK2503/MTK2503/11CW1418SP4_03_CORETEK03AE_11C_V1_GPRS_MMI/Tools/MinGW/include/c++/3.3.1/bits/stl_list.h ****   
 320:d:/MTK/MTK2503/MTK2503/11CW1418SP4_03_CORETEK03AE_11C_V1_GPRS_MMI/Tools/MinGW/include/c++/3.3.1/bits/stl_list.h ****   
 321:d:/MTK/MTK2503/MTK2503/11CW1418SP4_03_CORETEK03AE_11C_V1_GPRS_MMI/Tools/MinGW/include/c++/3.3.1/bits/stl_list.h ****   /**
 322:d:/MTK/MTK2503/MTK2503/11CW1418SP4_03_CORETEK03AE_11C_V1_GPRS_MMI/Tools/MinGW/include/c++/3.3.1/bits/stl_list.h ****    *  @brief  A standard container with linear time access to elements, and
 323:d:/MTK/MTK2503/MTK2503/11CW1418SP4_03_CORETEK03AE_11C_V1_GPRS_MMI/Tools/MinGW/include/c++/3.3.1/bits/stl_list.h ****    *  fixed time insertion/deletion at any point in the sequence.
 324:d:/MTK/MTK2503/MTK2503/11CW1418SP4_03_CORETEK03AE_11C_V1_GPRS_MMI/Tools/MinGW/include/c++/3.3.1/bits/stl_list.h ****    *
 325:d:/MTK/MTK2503/MTK2503/11CW1418SP4_03_CORETEK03AE_11C_V1_GPRS_MMI/Tools/MinGW/include/c++/3.3.1/bits/stl_list.h ****    *  @ingroup Containers
 326:d:/MTK/MTK2503/MTK2503/11CW1418SP4_03_CORETEK03AE_11C_V1_GPRS_MMI/Tools/MinGW/include/c++/3.3.1/bits/stl_list.h ****    *  @ingroup Sequences
 327:d:/MTK/MTK2503/MTK2503/11CW1418SP4_03_CORETEK03AE_11C_V1_GPRS_MMI/Tools/MinGW/include/c++/3.3.1/bits/stl_list.h ****    *
 328:d:/MTK/MTK2503/MTK2503/11CW1418SP4_03_CORETEK03AE_11C_V1_GPRS_MMI/Tools/MinGW/include/c++/3.3.1/bits/stl_list.h ****    *  Meets the requirements of a <a href="tables.html#65">container</a>, a
 329:d:/MTK/MTK2503/MTK2503/11CW1418SP4_03_CORETEK03AE_11C_V1_GPRS_MMI/Tools/MinGW/include/c++/3.3.1/bits/stl_list.h ****    *  <a href="tables.html#66">reversible container</a>, and a
 330:d:/MTK/MTK2503/MTK2503/11CW1418SP4_03_CORETEK03AE_11C_V1_GPRS_MMI/Tools/MinGW/include/c++/3.3.1/bits/stl_list.h ****    *  <a href="tables.html#67">sequence</a>, including the
 331:d:/MTK/MTK2503/MTK2503/11CW1418SP4_03_CORETEK03AE_11C_V1_GPRS_MMI/Tools/MinGW/include/c++/3.3.1/bits/stl_list.h ****    *  <a href="tables.html#68">optional sequence requirements</a> with the
 332:d:/MTK/MTK2503/MTK2503/11CW1418SP4_03_CORETEK03AE_11C_V1_GPRS_MMI/Tools/MinGW/include/c++/3.3.1/bits/stl_list.h ****    *  %exception of @c at and @c operator[].
 333:d:/MTK/MTK2503/MTK2503/11CW1418SP4_03_CORETEK03AE_11C_V1_GPRS_MMI/Tools/MinGW/include/c++/3.3.1/bits/stl_list.h ****    *
 334:d:/MTK/MTK2503/MTK2503/11CW1418SP4_03_CORETEK03AE_11C_V1_GPRS_MMI/Tools/MinGW/include/c++/3.3.1/bits/stl_list.h ****    *  This is a @e doubly @e linked %list.  Traversal up and down the %list
 335:d:/MTK/MTK2503/MTK2503/11CW1418SP4_03_CORETEK03AE_11C_V1_GPRS_MMI/Tools/MinGW/include/c++/3.3.1/bits/stl_list.h ****    *  requires linear time, but adding and removing elements (or @e nodes) is
 336:d:/MTK/MTK2503/MTK2503/11CW1418SP4_03_CORETEK03AE_11C_V1_GPRS_MMI/Tools/MinGW/include/c++/3.3.1/bits/stl_list.h ****    *  done in constant time, regardless of where the change takes place.
 337:d:/MTK/MTK2503/MTK2503/11CW1418SP4_03_CORETEK03AE_11C_V1_GPRS_MMI/Tools/MinGW/include/c++/3.3.1/bits/stl_list.h ****    *  Unlike std::vector and std::deque, random-access iterators are not
 338:d:/MTK/MTK2503/MTK2503/11CW1418SP4_03_CORETEK03AE_11C_V1_GPRS_MMI/Tools/MinGW/include/c++/3.3.1/bits/stl_list.h ****    *  provided, so subscripting ( @c [] ) access is not allowed.  For algorithms
 339:d:/MTK/MTK2503/MTK2503/11CW1418SP4_03_CORETEK03AE_11C_V1_GPRS_MMI/Tools/MinGW/include/c++/3.3.1/bits/stl_list.h ****    *  which only need sequential access, this lack makes no difference.
 340:d:/MTK/MTK2503/MTK2503/11CW1418SP4_03_CORETEK03AE_11C_V1_GPRS_MMI/Tools/MinGW/include/c++/3.3.1/bits/stl_list.h ****    *
 341:d:/MTK/MTK2503/MTK2503/11CW1418SP4_03_CORETEK03AE_11C_V1_GPRS_MMI/Tools/MinGW/include/c++/3.3.1/bits/stl_list.h ****    *  Also unlike the other standard containers, std::list provides specialized 
 342:d:/MTK/MTK2503/MTK2503/11CW1418SP4_03_CORETEK03AE_11C_V1_GPRS_MMI/Tools/MinGW/include/c++/3.3.1/bits/stl_list.h ****    *  algorithms %unique to linked lists, such as splicing, sorting, and
 343:d:/MTK/MTK2503/MTK2503/11CW1418SP4_03_CORETEK03AE_11C_V1_GPRS_MMI/Tools/MinGW/include/c++/3.3.1/bits/stl_list.h ****    *  in-place reversal.
 344:d:/MTK/MTK2503/MTK2503/11CW1418SP4_03_CORETEK03AE_11C_V1_GPRS_MMI/Tools/MinGW/include/c++/3.3.1/bits/stl_list.h ****    *
 345:d:/MTK/MTK2503/MTK2503/11CW1418SP4_03_CORETEK03AE_11C_V1_GPRS_MMI/Tools/MinGW/include/c++/3.3.1/bits/stl_list.h ****    *  @if maint
 346:d:/MTK/MTK2503/MTK2503/11CW1418SP4_03_CORETEK03AE_11C_V1_GPRS_MMI/Tools/MinGW/include/c++/3.3.1/bits/stl_list.h ****    *  A couple points on memory allocation for list<Tp>:
 347:d:/MTK/MTK2503/MTK2503/11CW1418SP4_03_CORETEK03AE_11C_V1_GPRS_MMI/Tools/MinGW/include/c++/3.3.1/bits/stl_list.h ****    *
 348:d:/MTK/MTK2503/MTK2503/11CW1418SP4_03_CORETEK03AE_11C_V1_GPRS_MMI/Tools/MinGW/include/c++/3.3.1/bits/stl_list.h ****    *  First, we never actually allocate a Tp, we allocate List_node<Tp>'s
 349:d:/MTK/MTK2503/MTK2503/11CW1418SP4_03_CORETEK03AE_11C_V1_GPRS_MMI/Tools/MinGW/include/c++/3.3.1/bits/stl_list.h ****    *  and trust [20.1.5]/4 to DTRT.  This is to ensure that after elements from
 350:d:/MTK/MTK2503/MTK2503/11CW1418SP4_03_CORETEK03AE_11C_V1_GPRS_MMI/Tools/MinGW/include/c++/3.3.1/bits/stl_list.h ****    *  %list<X,Alloc1> are spliced into %list<X,Alloc2>, destroying the memory of
 351:d:/MTK/MTK2503/MTK2503/11CW1418SP4_03_CORETEK03AE_11C_V1_GPRS_MMI/Tools/MinGW/include/c++/3.3.1/bits/stl_list.h ****    *  the second %list is a valid operation, i.e., Alloc1 giveth and Alloc2
 352:d:/MTK/MTK2503/MTK2503/11CW1418SP4_03_CORETEK03AE_11C_V1_GPRS_MMI/Tools/MinGW/include/c++/3.3.1/bits/stl_list.h ****    *  taketh away.
 353:d:/MTK/MTK2503/MTK2503/11CW1418SP4_03_CORETEK03AE_11C_V1_GPRS_MMI/Tools/MinGW/include/c++/3.3.1/bits/stl_list.h ****    *
 354:d:/MTK/MTK2503/MTK2503/11CW1418SP4_03_CORETEK03AE_11C_V1_GPRS_MMI/Tools/MinGW/include/c++/3.3.1/bits/stl_list.h ****    *  Second, a %list conceptually represented as
 355:d:/MTK/MTK2503/MTK2503/11CW1418SP4_03_CORETEK03AE_11C_V1_GPRS_MMI/Tools/MinGW/include/c++/3.3.1/bits/stl_list.h ****    *  @code
 356:d:/MTK/MTK2503/MTK2503/11CW1418SP4_03_CORETEK03AE_11C_V1_GPRS_MMI/Tools/MinGW/include/c++/3.3.1/bits/stl_list.h ****    *    A <---> B <---> C <---> D
 357:d:/MTK/MTK2503/MTK2503/11CW1418SP4_03_CORETEK03AE_11C_V1_GPRS_MMI/Tools/MinGW/include/c++/3.3.1/bits/stl_list.h ****    *  @endcode
 358:d:/MTK/MTK2503/MTK2503/11CW1418SP4_03_CORETEK03AE_11C_V1_GPRS_MMI/Tools/MinGW/include/c++/3.3.1/bits/stl_list.h ****    *  is actually circular; a link exists between A and D.  The %list class
 359:d:/MTK/MTK2503/MTK2503/11CW1418SP4_03_CORETEK03AE_11C_V1_GPRS_MMI/Tools/MinGW/include/c++/3.3.1/bits/stl_list.h ****    *  holds (as its only data member) a private list::iterator pointing to
GAS LISTING d:/MTK/MTK2503/MTK2503/11CW1418SP4_03_CORETEK03AE_11C_V1_GPRS_MMI/plutommi/Customer/ResGenerator/gcctmp/ccQHcaaa.s 			page 17


 360:d:/MTK/MTK2503/MTK2503/11CW1418SP4_03_CORETEK03AE_11C_V1_GPRS_MMI/Tools/MinGW/include/c++/3.3.1/bits/stl_list.h ****    *  @e D, not to @e A!  To get to the head of the %list, we start at the tail
 361:d:/MTK/MTK2503/MTK2503/11CW1418SP4_03_CORETEK03AE_11C_V1_GPRS_MMI/Tools/MinGW/include/c++/3.3.1/bits/stl_list.h ****    *  and move forward by one.  When this member iterator's next/previous
 362:d:/MTK/MTK2503/MTK2503/11CW1418SP4_03_CORETEK03AE_11C_V1_GPRS_MMI/Tools/MinGW/include/c++/3.3.1/bits/stl_list.h ****    *  pointers refer to itself, the %list is %empty.
 363:d:/MTK/MTK2503/MTK2503/11CW1418SP4_03_CORETEK03AE_11C_V1_GPRS_MMI/Tools/MinGW/include/c++/3.3.1/bits/stl_list.h ****    *  @endif
 364:d:/MTK/MTK2503/MTK2503/11CW1418SP4_03_CORETEK03AE_11C_V1_GPRS_MMI/Tools/MinGW/include/c++/3.3.1/bits/stl_list.h ****   */
 365:d:/MTK/MTK2503/MTK2503/11CW1418SP4_03_CORETEK03AE_11C_V1_GPRS_MMI/Tools/MinGW/include/c++/3.3.1/bits/stl_list.h ****   template<typename _Tp, typename _Alloc = allocator<_Tp> >
 366:d:/MTK/MTK2503/MTK2503/11CW1418SP4_03_CORETEK03AE_11C_V1_GPRS_MMI/Tools/MinGW/include/c++/3.3.1/bits/stl_list.h ****     class list : protected _List_base<_Tp, _Alloc>
 367:d:/MTK/MTK2503/MTK2503/11CW1418SP4_03_CORETEK03AE_11C_V1_GPRS_MMI/Tools/MinGW/include/c++/3.3.1/bits/stl_list.h ****   {
 368:d:/MTK/MTK2503/MTK2503/11CW1418SP4_03_CORETEK03AE_11C_V1_GPRS_MMI/Tools/MinGW/include/c++/3.3.1/bits/stl_list.h ****     // concept requirements
 369:d:/MTK/MTK2503/MTK2503/11CW1418SP4_03_CORETEK03AE_11C_V1_GPRS_MMI/Tools/MinGW/include/c++/3.3.1/bits/stl_list.h ****     __glibcpp_class_requires(_Tp, _SGIAssignableConcept)
 370:d:/MTK/MTK2503/MTK2503/11CW1418SP4_03_CORETEK03AE_11C_V1_GPRS_MMI/Tools/MinGW/include/c++/3.3.1/bits/stl_list.h ****   
 371:d:/MTK/MTK2503/MTK2503/11CW1418SP4_03_CORETEK03AE_11C_V1_GPRS_MMI/Tools/MinGW/include/c++/3.3.1/bits/stl_list.h ****     typedef _List_base<_Tp, _Alloc>                       _Base;
 372:d:/MTK/MTK2503/MTK2503/11CW1418SP4_03_CORETEK03AE_11C_V1_GPRS_MMI/Tools/MinGW/include/c++/3.3.1/bits/stl_list.h ****   
 373:d:/MTK/MTK2503/MTK2503/11CW1418SP4_03_CORETEK03AE_11C_V1_GPRS_MMI/Tools/MinGW/include/c++/3.3.1/bits/stl_list.h ****   public:
 374:d:/MTK/MTK2503/MTK2503/11CW1418SP4_03_CORETEK03AE_11C_V1_GPRS_MMI/Tools/MinGW/include/c++/3.3.1/bits/stl_list.h ****     typedef _Tp                                           value_type;
 375:d:/MTK/MTK2503/MTK2503/11CW1418SP4_03_CORETEK03AE_11C_V1_GPRS_MMI/Tools/MinGW/include/c++/3.3.1/bits/stl_list.h ****     typedef value_type*                                   pointer;
 376:d:/MTK/MTK2503/MTK2503/11CW1418SP4_03_CORETEK03AE_11C_V1_GPRS_MMI/Tools/MinGW/include/c++/3.3.1/bits/stl_list.h ****     typedef const value_type*                             const_pointer;
 377:d:/MTK/MTK2503/MTK2503/11CW1418SP4_03_CORETEK03AE_11C_V1_GPRS_MMI/Tools/MinGW/include/c++/3.3.1/bits/stl_list.h ****     typedef _List_iterator<_Tp,_Tp&,_Tp*>                 iterator;
 378:d:/MTK/MTK2503/MTK2503/11CW1418SP4_03_CORETEK03AE_11C_V1_GPRS_MMI/Tools/MinGW/include/c++/3.3.1/bits/stl_list.h ****     typedef _List_iterator<_Tp,const _Tp&,const _Tp*>     const_iterator;
 379:d:/MTK/MTK2503/MTK2503/11CW1418SP4_03_CORETEK03AE_11C_V1_GPRS_MMI/Tools/MinGW/include/c++/3.3.1/bits/stl_list.h ****     typedef std::reverse_iterator<const_iterator>     const_reverse_iterator;
 380:d:/MTK/MTK2503/MTK2503/11CW1418SP4_03_CORETEK03AE_11C_V1_GPRS_MMI/Tools/MinGW/include/c++/3.3.1/bits/stl_list.h ****     typedef std::reverse_iterator<iterator>                 reverse_iterator;
 381:d:/MTK/MTK2503/MTK2503/11CW1418SP4_03_CORETEK03AE_11C_V1_GPRS_MMI/Tools/MinGW/include/c++/3.3.1/bits/stl_list.h ****     typedef value_type&                                   reference;
 382:d:/MTK/MTK2503/MTK2503/11CW1418SP4_03_CORETEK03AE_11C_V1_GPRS_MMI/Tools/MinGW/include/c++/3.3.1/bits/stl_list.h ****     typedef const value_type&                             const_reference;
 383:d:/MTK/MTK2503/MTK2503/11CW1418SP4_03_CORETEK03AE_11C_V1_GPRS_MMI/Tools/MinGW/include/c++/3.3.1/bits/stl_list.h ****     typedef size_t                                        size_type;
 384:d:/MTK/MTK2503/MTK2503/11CW1418SP4_03_CORETEK03AE_11C_V1_GPRS_MMI/Tools/MinGW/include/c++/3.3.1/bits/stl_list.h ****     typedef ptrdiff_t                                     difference_type;
 385:d:/MTK/MTK2503/MTK2503/11CW1418SP4_03_CORETEK03AE_11C_V1_GPRS_MMI/Tools/MinGW/include/c++/3.3.1/bits/stl_list.h ****     typedef typename _Base::allocator_type                allocator_type;
 386:d:/MTK/MTK2503/MTK2503/11CW1418SP4_03_CORETEK03AE_11C_V1_GPRS_MMI/Tools/MinGW/include/c++/3.3.1/bits/stl_list.h ****   
 387:d:/MTK/MTK2503/MTK2503/11CW1418SP4_03_CORETEK03AE_11C_V1_GPRS_MMI/Tools/MinGW/include/c++/3.3.1/bits/stl_list.h ****   protected:
 388:d:/MTK/MTK2503/MTK2503/11CW1418SP4_03_CORETEK03AE_11C_V1_GPRS_MMI/Tools/MinGW/include/c++/3.3.1/bits/stl_list.h ****     // Note that pointers-to-_Node's can be ctor-converted to iterator types.
 389:d:/MTK/MTK2503/MTK2503/11CW1418SP4_03_CORETEK03AE_11C_V1_GPRS_MMI/Tools/MinGW/include/c++/3.3.1/bits/stl_list.h ****     typedef _List_node<_Tp>                               _Node;
 390:d:/MTK/MTK2503/MTK2503/11CW1418SP4_03_CORETEK03AE_11C_V1_GPRS_MMI/Tools/MinGW/include/c++/3.3.1/bits/stl_list.h ****   
 391:d:/MTK/MTK2503/MTK2503/11CW1418SP4_03_CORETEK03AE_11C_V1_GPRS_MMI/Tools/MinGW/include/c++/3.3.1/bits/stl_list.h ****     /** @if maint
 392:d:/MTK/MTK2503/MTK2503/11CW1418SP4_03_CORETEK03AE_11C_V1_GPRS_MMI/Tools/MinGW/include/c++/3.3.1/bits/stl_list.h ****      *  One data member plus two memory-handling functions.  If the _Alloc
 393:d:/MTK/MTK2503/MTK2503/11CW1418SP4_03_CORETEK03AE_11C_V1_GPRS_MMI/Tools/MinGW/include/c++/3.3.1/bits/stl_list.h ****      *  type requires separate instances, then one of those will also be
 394:d:/MTK/MTK2503/MTK2503/11CW1418SP4_03_CORETEK03AE_11C_V1_GPRS_MMI/Tools/MinGW/include/c++/3.3.1/bits/stl_list.h ****      *  included, accumulated from the topmost parent.
 395:d:/MTK/MTK2503/MTK2503/11CW1418SP4_03_CORETEK03AE_11C_V1_GPRS_MMI/Tools/MinGW/include/c++/3.3.1/bits/stl_list.h ****      *  @endif
 396:d:/MTK/MTK2503/MTK2503/11CW1418SP4_03_CORETEK03AE_11C_V1_GPRS_MMI/Tools/MinGW/include/c++/3.3.1/bits/stl_list.h ****     */
 397:d:/MTK/MTK2503/MTK2503/11CW1418SP4_03_CORETEK03AE_11C_V1_GPRS_MMI/Tools/MinGW/include/c++/3.3.1/bits/stl_list.h ****     using _Base::_M_node;
 398:d:/MTK/MTK2503/MTK2503/11CW1418SP4_03_CORETEK03AE_11C_V1_GPRS_MMI/Tools/MinGW/include/c++/3.3.1/bits/stl_list.h ****     using _Base::_M_put_node;
 399:d:/MTK/MTK2503/MTK2503/11CW1418SP4_03_CORETEK03AE_11C_V1_GPRS_MMI/Tools/MinGW/include/c++/3.3.1/bits/stl_list.h ****     using _Base::_M_get_node;
 400:d:/MTK/MTK2503/MTK2503/11CW1418SP4_03_CORETEK03AE_11C_V1_GPRS_MMI/Tools/MinGW/include/c++/3.3.1/bits/stl_list.h ****   
 401:d:/MTK/MTK2503/MTK2503/11CW1418SP4_03_CORETEK03AE_11C_V1_GPRS_MMI/Tools/MinGW/include/c++/3.3.1/bits/stl_list.h ****     /**
 402:d:/MTK/MTK2503/MTK2503/11CW1418SP4_03_CORETEK03AE_11C_V1_GPRS_MMI/Tools/MinGW/include/c++/3.3.1/bits/stl_list.h ****      *  @if maint
 403:d:/MTK/MTK2503/MTK2503/11CW1418SP4_03_CORETEK03AE_11C_V1_GPRS_MMI/Tools/MinGW/include/c++/3.3.1/bits/stl_list.h ****      *  @param  x  An instance of user data.
 404:d:/MTK/MTK2503/MTK2503/11CW1418SP4_03_CORETEK03AE_11C_V1_GPRS_MMI/Tools/MinGW/include/c++/3.3.1/bits/stl_list.h ****      *
 405:d:/MTK/MTK2503/MTK2503/11CW1418SP4_03_CORETEK03AE_11C_V1_GPRS_MMI/Tools/MinGW/include/c++/3.3.1/bits/stl_list.h ****      *  Allocates space for a new node and constructs a copy of @a x in it.
 406:d:/MTK/MTK2503/MTK2503/11CW1418SP4_03_CORETEK03AE_11C_V1_GPRS_MMI/Tools/MinGW/include/c++/3.3.1/bits/stl_list.h ****      *  @endif
 407:d:/MTK/MTK2503/MTK2503/11CW1418SP4_03_CORETEK03AE_11C_V1_GPRS_MMI/Tools/MinGW/include/c++/3.3.1/bits/stl_list.h ****     */
 408:d:/MTK/MTK2503/MTK2503/11CW1418SP4_03_CORETEK03AE_11C_V1_GPRS_MMI/Tools/MinGW/include/c++/3.3.1/bits/stl_list.h ****     _Node*
 409:d:/MTK/MTK2503/MTK2503/11CW1418SP4_03_CORETEK03AE_11C_V1_GPRS_MMI/Tools/MinGW/include/c++/3.3.1/bits/stl_list.h ****     _M_create_node(const value_type& __x)
 410:d:/MTK/MTK2503/MTK2503/11CW1418SP4_03_CORETEK03AE_11C_V1_GPRS_MMI/Tools/MinGW/include/c++/3.3.1/bits/stl_list.h ****     {
 411:d:/MTK/MTK2503/MTK2503/11CW1418SP4_03_CORETEK03AE_11C_V1_GPRS_MMI/Tools/MinGW/include/c++/3.3.1/bits/stl_list.h ****       _Node* __p = _M_get_node();
 412:d:/MTK/MTK2503/MTK2503/11CW1418SP4_03_CORETEK03AE_11C_V1_GPRS_MMI/Tools/MinGW/include/c++/3.3.1/bits/stl_list.h ****       try {
 413:d:/MTK/MTK2503/MTK2503/11CW1418SP4_03_CORETEK03AE_11C_V1_GPRS_MMI/Tools/MinGW/include/c++/3.3.1/bits/stl_list.h ****         _Construct(&__p->_M_data, __x);
 414:d:/MTK/MTK2503/MTK2503/11CW1418SP4_03_CORETEK03AE_11C_V1_GPRS_MMI/Tools/MinGW/include/c++/3.3.1/bits/stl_list.h ****       }
 415:d:/MTK/MTK2503/MTK2503/11CW1418SP4_03_CORETEK03AE_11C_V1_GPRS_MMI/Tools/MinGW/include/c++/3.3.1/bits/stl_list.h ****       catch(...)
 416:d:/MTK/MTK2503/MTK2503/11CW1418SP4_03_CORETEK03AE_11C_V1_GPRS_MMI/Tools/MinGW/include/c++/3.3.1/bits/stl_list.h ****       {
GAS LISTING d:/MTK/MTK2503/MTK2503/11CW1418SP4_03_CORETEK03AE_11C_V1_GPRS_MMI/plutommi/Customer/ResGenerator/gcctmp/ccQHcaaa.s 			page 18


 417:d:/MTK/MTK2503/MTK2503/11CW1418SP4_03_CORETEK03AE_11C_V1_GPRS_MMI/Tools/MinGW/include/c++/3.3.1/bits/stl_list.h ****         _M_put_node(__p);
 418:d:/MTK/MTK2503/MTK2503/11CW1418SP4_03_CORETEK03AE_11C_V1_GPRS_MMI/Tools/MinGW/include/c++/3.3.1/bits/stl_list.h ****         __throw_exception_again;
 419:d:/MTK/MTK2503/MTK2503/11CW1418SP4_03_CORETEK03AE_11C_V1_GPRS_MMI/Tools/MinGW/include/c++/3.3.1/bits/stl_list.h ****       }
 420:d:/MTK/MTK2503/MTK2503/11CW1418SP4_03_CORETEK03AE_11C_V1_GPRS_MMI/Tools/MinGW/include/c++/3.3.1/bits/stl_list.h ****       return __p;
 421:d:/MTK/MTK2503/MTK2503/11CW1418SP4_03_CORETEK03AE_11C_V1_GPRS_MMI/Tools/MinGW/include/c++/3.3.1/bits/stl_list.h ****     }
 422:d:/MTK/MTK2503/MTK2503/11CW1418SP4_03_CORETEK03AE_11C_V1_GPRS_MMI/Tools/MinGW/include/c++/3.3.1/bits/stl_list.h ****   
 423:d:/MTK/MTK2503/MTK2503/11CW1418SP4_03_CORETEK03AE_11C_V1_GPRS_MMI/Tools/MinGW/include/c++/3.3.1/bits/stl_list.h ****     /**
 424:d:/MTK/MTK2503/MTK2503/11CW1418SP4_03_CORETEK03AE_11C_V1_GPRS_MMI/Tools/MinGW/include/c++/3.3.1/bits/stl_list.h ****      *  @if maint
 425:d:/MTK/MTK2503/MTK2503/11CW1418SP4_03_CORETEK03AE_11C_V1_GPRS_MMI/Tools/MinGW/include/c++/3.3.1/bits/stl_list.h ****      *  Allocates space for a new node and default-constructs a new instance
 426:d:/MTK/MTK2503/MTK2503/11CW1418SP4_03_CORETEK03AE_11C_V1_GPRS_MMI/Tools/MinGW/include/c++/3.3.1/bits/stl_list.h ****      *  of @c value_type in it.
 427:d:/MTK/MTK2503/MTK2503/11CW1418SP4_03_CORETEK03AE_11C_V1_GPRS_MMI/Tools/MinGW/include/c++/3.3.1/bits/stl_list.h ****      *  @endif
 428:d:/MTK/MTK2503/MTK2503/11CW1418SP4_03_CORETEK03AE_11C_V1_GPRS_MMI/Tools/MinGW/include/c++/3.3.1/bits/stl_list.h ****     */
 429:d:/MTK/MTK2503/MTK2503/11CW1418SP4_03_CORETEK03AE_11C_V1_GPRS_MMI/Tools/MinGW/include/c++/3.3.1/bits/stl_list.h ****     _Node*
 430:d:/MTK/MTK2503/MTK2503/11CW1418SP4_03_CORETEK03AE_11C_V1_GPRS_MMI/Tools/MinGW/include/c++/3.3.1/bits/stl_list.h ****     _M_create_node()
 431:d:/MTK/MTK2503/MTK2503/11CW1418SP4_03_CORETEK03AE_11C_V1_GPRS_MMI/Tools/MinGW/include/c++/3.3.1/bits/stl_list.h ****     {
 432:d:/MTK/MTK2503/MTK2503/11CW1418SP4_03_CORETEK03AE_11C_V1_GPRS_MMI/Tools/MinGW/include/c++/3.3.1/bits/stl_list.h ****       _Node* __p = _M_get_node();
 433:d:/MTK/MTK2503/MTK2503/11CW1418SP4_03_CORETEK03AE_11C_V1_GPRS_MMI/Tools/MinGW/include/c++/3.3.1/bits/stl_list.h ****       try {
 434:d:/MTK/MTK2503/MTK2503/11CW1418SP4_03_CORETEK03AE_11C_V1_GPRS_MMI/Tools/MinGW/include/c++/3.3.1/bits/stl_list.h ****         _Construct(&__p->_M_data);
 435:d:/MTK/MTK2503/MTK2503/11CW1418SP4_03_CORETEK03AE_11C_V1_GPRS_MMI/Tools/MinGW/include/c++/3.3.1/bits/stl_list.h ****       }
 436:d:/MTK/MTK2503/MTK2503/11CW1418SP4_03_CORETEK03AE_11C_V1_GPRS_MMI/Tools/MinGW/include/c++/3.3.1/bits/stl_list.h ****       catch(...)
 437:d:/MTK/MTK2503/MTK2503/11CW1418SP4_03_CORETEK03AE_11C_V1_GPRS_MMI/Tools/MinGW/include/c++/3.3.1/bits/stl_list.h ****       {
 438:d:/MTK/MTK2503/MTK2503/11CW1418SP4_03_CORETEK03AE_11C_V1_GPRS_MMI/Tools/MinGW/include/c++/3.3.1/bits/stl_list.h ****         _M_put_node(__p);
 439:d:/MTK/MTK2503/MTK2503/11CW1418SP4_03_CORETEK03AE_11C_V1_GPRS_MMI/Tools/MinGW/include/c++/3.3.1/bits/stl_list.h ****         __throw_exception_again;
 440:d:/MTK/MTK2503/MTK2503/11CW1418SP4_03_CORETEK03AE_11C_V1_GPRS_MMI/Tools/MinGW/include/c++/3.3.1/bits/stl_list.h ****       }
 441:d:/MTK/MTK2503/MTK2503/11CW1418SP4_03_CORETEK03AE_11C_V1_GPRS_MMI/Tools/MinGW/include/c++/3.3.1/bits/stl_list.h ****       return __p;
 442:d:/MTK/MTK2503/MTK2503/11CW1418SP4_03_CORETEK03AE_11C_V1_GPRS_MMI/Tools/MinGW/include/c++/3.3.1/bits/stl_list.h ****     }
 443:d:/MTK/MTK2503/MTK2503/11CW1418SP4_03_CORETEK03AE_11C_V1_GPRS_MMI/Tools/MinGW/include/c++/3.3.1/bits/stl_list.h ****   
 444:d:/MTK/MTK2503/MTK2503/11CW1418SP4_03_CORETEK03AE_11C_V1_GPRS_MMI/Tools/MinGW/include/c++/3.3.1/bits/stl_list.h ****   public:
 445:d:/MTK/MTK2503/MTK2503/11CW1418SP4_03_CORETEK03AE_11C_V1_GPRS_MMI/Tools/MinGW/include/c++/3.3.1/bits/stl_list.h ****     // [23.2.2.1] construct/copy/destroy
 446:d:/MTK/MTK2503/MTK2503/11CW1418SP4_03_CORETEK03AE_11C_V1_GPRS_MMI/Tools/MinGW/include/c++/3.3.1/bits/stl_list.h ****     // (assign() and get_allocator() are also listed in this section)
 447:d:/MTK/MTK2503/MTK2503/11CW1418SP4_03_CORETEK03AE_11C_V1_GPRS_MMI/Tools/MinGW/include/c++/3.3.1/bits/stl_list.h ****     /**
 448:d:/MTK/MTK2503/MTK2503/11CW1418SP4_03_CORETEK03AE_11C_V1_GPRS_MMI/Tools/MinGW/include/c++/3.3.1/bits/stl_list.h ****      *  @brief  Default constructor creates no elements.
 449:d:/MTK/MTK2503/MTK2503/11CW1418SP4_03_CORETEK03AE_11C_V1_GPRS_MMI/Tools/MinGW/include/c++/3.3.1/bits/stl_list.h ****     */
 450:d:/MTK/MTK2503/MTK2503/11CW1418SP4_03_CORETEK03AE_11C_V1_GPRS_MMI/Tools/MinGW/include/c++/3.3.1/bits/stl_list.h ****     explicit
 451:d:/MTK/MTK2503/MTK2503/11CW1418SP4_03_CORETEK03AE_11C_V1_GPRS_MMI/Tools/MinGW/include/c++/3.3.1/bits/stl_list.h ****     list(const allocator_type& __a = allocator_type())
 452:d:/MTK/MTK2503/MTK2503/11CW1418SP4_03_CORETEK03AE_11C_V1_GPRS_MMI/Tools/MinGW/include/c++/3.3.1/bits/stl_list.h ****     : _Base(__a) { }
 453:d:/MTK/MTK2503/MTK2503/11CW1418SP4_03_CORETEK03AE_11C_V1_GPRS_MMI/Tools/MinGW/include/c++/3.3.1/bits/stl_list.h ****   
 454:d:/MTK/MTK2503/MTK2503/11CW1418SP4_03_CORETEK03AE_11C_V1_GPRS_MMI/Tools/MinGW/include/c++/3.3.1/bits/stl_list.h ****     /**
 455:d:/MTK/MTK2503/MTK2503/11CW1418SP4_03_CORETEK03AE_11C_V1_GPRS_MMI/Tools/MinGW/include/c++/3.3.1/bits/stl_list.h ****      *  @brief  Create a %list with copies of an exemplar element.
 456:d:/MTK/MTK2503/MTK2503/11CW1418SP4_03_CORETEK03AE_11C_V1_GPRS_MMI/Tools/MinGW/include/c++/3.3.1/bits/stl_list.h ****      *  @param  n  The number of elements to initially create.
 457:d:/MTK/MTK2503/MTK2503/11CW1418SP4_03_CORETEK03AE_11C_V1_GPRS_MMI/Tools/MinGW/include/c++/3.3.1/bits/stl_list.h ****      *  @param  value  An element to copy.
 458:d:/MTK/MTK2503/MTK2503/11CW1418SP4_03_CORETEK03AE_11C_V1_GPRS_MMI/Tools/MinGW/include/c++/3.3.1/bits/stl_list.h ****      * 
 459:d:/MTK/MTK2503/MTK2503/11CW1418SP4_03_CORETEK03AE_11C_V1_GPRS_MMI/Tools/MinGW/include/c++/3.3.1/bits/stl_list.h ****      *  This constructor fills the %list with @a n copies of @a value.
 460:d:/MTK/MTK2503/MTK2503/11CW1418SP4_03_CORETEK03AE_11C_V1_GPRS_MMI/Tools/MinGW/include/c++/3.3.1/bits/stl_list.h ****     */
 461:d:/MTK/MTK2503/MTK2503/11CW1418SP4_03_CORETEK03AE_11C_V1_GPRS_MMI/Tools/MinGW/include/c++/3.3.1/bits/stl_list.h ****     list(size_type __n, const value_type& __value,
 462:d:/MTK/MTK2503/MTK2503/11CW1418SP4_03_CORETEK03AE_11C_V1_GPRS_MMI/Tools/MinGW/include/c++/3.3.1/bits/stl_list.h ****          const allocator_type& __a = allocator_type())
 463:d:/MTK/MTK2503/MTK2503/11CW1418SP4_03_CORETEK03AE_11C_V1_GPRS_MMI/Tools/MinGW/include/c++/3.3.1/bits/stl_list.h ****       : _Base(__a)
 464:d:/MTK/MTK2503/MTK2503/11CW1418SP4_03_CORETEK03AE_11C_V1_GPRS_MMI/Tools/MinGW/include/c++/3.3.1/bits/stl_list.h ****       { this->insert(begin(), __n, __value); }
 465:d:/MTK/MTK2503/MTK2503/11CW1418SP4_03_CORETEK03AE_11C_V1_GPRS_MMI/Tools/MinGW/include/c++/3.3.1/bits/stl_list.h ****   
 466:d:/MTK/MTK2503/MTK2503/11CW1418SP4_03_CORETEK03AE_11C_V1_GPRS_MMI/Tools/MinGW/include/c++/3.3.1/bits/stl_list.h ****     /**
 467:d:/MTK/MTK2503/MTK2503/11CW1418SP4_03_CORETEK03AE_11C_V1_GPRS_MMI/Tools/MinGW/include/c++/3.3.1/bits/stl_list.h ****      *  @brief  Create a %list with default elements.
 468:d:/MTK/MTK2503/MTK2503/11CW1418SP4_03_CORETEK03AE_11C_V1_GPRS_MMI/Tools/MinGW/include/c++/3.3.1/bits/stl_list.h ****      *  @param  n  The number of elements to initially create.
 469:d:/MTK/MTK2503/MTK2503/11CW1418SP4_03_CORETEK03AE_11C_V1_GPRS_MMI/Tools/MinGW/include/c++/3.3.1/bits/stl_list.h ****      * 
 470:d:/MTK/MTK2503/MTK2503/11CW1418SP4_03_CORETEK03AE_11C_V1_GPRS_MMI/Tools/MinGW/include/c++/3.3.1/bits/stl_list.h ****      *  This constructor fills the %list with @a n copies of a
 471:d:/MTK/MTK2503/MTK2503/11CW1418SP4_03_CORETEK03AE_11C_V1_GPRS_MMI/Tools/MinGW/include/c++/3.3.1/bits/stl_list.h ****      *  default-constructed element.
 472:d:/MTK/MTK2503/MTK2503/11CW1418SP4_03_CORETEK03AE_11C_V1_GPRS_MMI/Tools/MinGW/include/c++/3.3.1/bits/stl_list.h ****     */
 473:d:/MTK/MTK2503/MTK2503/11CW1418SP4_03_CORETEK03AE_11C_V1_GPRS_MMI/Tools/MinGW/include/c++/3.3.1/bits/stl_list.h ****     explicit
GAS LISTING d:/MTK/MTK2503/MTK2503/11CW1418SP4_03_CORETEK03AE_11C_V1_GPRS_MMI/plutommi/Customer/ResGenerator/gcctmp/ccQHcaaa.s 			page 19


 474:d:/MTK/MTK2503/MTK2503/11CW1418SP4_03_CORETEK03AE_11C_V1_GPRS_MMI/Tools/MinGW/include/c++/3.3.1/bits/stl_list.h ****     list(size_type __n)
 475:d:/MTK/MTK2503/MTK2503/11CW1418SP4_03_CORETEK03AE_11C_V1_GPRS_MMI/Tools/MinGW/include/c++/3.3.1/bits/stl_list.h ****       : _Base(allocator_type())
 476:d:/MTK/MTK2503/MTK2503/11CW1418SP4_03_CORETEK03AE_11C_V1_GPRS_MMI/Tools/MinGW/include/c++/3.3.1/bits/stl_list.h ****       { this->insert(begin(), __n, value_type()); }
 477:d:/MTK/MTK2503/MTK2503/11CW1418SP4_03_CORETEK03AE_11C_V1_GPRS_MMI/Tools/MinGW/include/c++/3.3.1/bits/stl_list.h ****   
 478:d:/MTK/MTK2503/MTK2503/11CW1418SP4_03_CORETEK03AE_11C_V1_GPRS_MMI/Tools/MinGW/include/c++/3.3.1/bits/stl_list.h ****     /**
 479:d:/MTK/MTK2503/MTK2503/11CW1418SP4_03_CORETEK03AE_11C_V1_GPRS_MMI/Tools/MinGW/include/c++/3.3.1/bits/stl_list.h ****      *  @brief  %List copy constructor.
 480:d:/MTK/MTK2503/MTK2503/11CW1418SP4_03_CORETEK03AE_11C_V1_GPRS_MMI/Tools/MinGW/include/c++/3.3.1/bits/stl_list.h ****      *  @param  x  A %list of identical element and allocator types.
 481:d:/MTK/MTK2503/MTK2503/11CW1418SP4_03_CORETEK03AE_11C_V1_GPRS_MMI/Tools/MinGW/include/c++/3.3.1/bits/stl_list.h ****      * 
 482:d:/MTK/MTK2503/MTK2503/11CW1418SP4_03_CORETEK03AE_11C_V1_GPRS_MMI/Tools/MinGW/include/c++/3.3.1/bits/stl_list.h ****      *  The newly-created %list uses a copy of the allocation object used
 483:d:/MTK/MTK2503/MTK2503/11CW1418SP4_03_CORETEK03AE_11C_V1_GPRS_MMI/Tools/MinGW/include/c++/3.3.1/bits/stl_list.h ****      *  by @a x.
 484:d:/MTK/MTK2503/MTK2503/11CW1418SP4_03_CORETEK03AE_11C_V1_GPRS_MMI/Tools/MinGW/include/c++/3.3.1/bits/stl_list.h ****     */
 485:d:/MTK/MTK2503/MTK2503/11CW1418SP4_03_CORETEK03AE_11C_V1_GPRS_MMI/Tools/MinGW/include/c++/3.3.1/bits/stl_list.h ****     list(const list& __x)
 486:d:/MTK/MTK2503/MTK2503/11CW1418SP4_03_CORETEK03AE_11C_V1_GPRS_MMI/Tools/MinGW/include/c++/3.3.1/bits/stl_list.h ****       : _Base(__x.get_allocator())
 487:d:/MTK/MTK2503/MTK2503/11CW1418SP4_03_CORETEK03AE_11C_V1_GPRS_MMI/Tools/MinGW/include/c++/3.3.1/bits/stl_list.h ****       { this->insert(begin(), __x.begin(), __x.end()); }
 488:d:/MTK/MTK2503/MTK2503/11CW1418SP4_03_CORETEK03AE_11C_V1_GPRS_MMI/Tools/MinGW/include/c++/3.3.1/bits/stl_list.h ****   
 489:d:/MTK/MTK2503/MTK2503/11CW1418SP4_03_CORETEK03AE_11C_V1_GPRS_MMI/Tools/MinGW/include/c++/3.3.1/bits/stl_list.h ****     /**
 490:d:/MTK/MTK2503/MTK2503/11CW1418SP4_03_CORETEK03AE_11C_V1_GPRS_MMI/Tools/MinGW/include/c++/3.3.1/bits/stl_list.h ****      *  @brief  Builds a %list from a range.
 491:d:/MTK/MTK2503/MTK2503/11CW1418SP4_03_CORETEK03AE_11C_V1_GPRS_MMI/Tools/MinGW/include/c++/3.3.1/bits/stl_list.h ****      *  @param  first  An input iterator.
 492:d:/MTK/MTK2503/MTK2503/11CW1418SP4_03_CORETEK03AE_11C_V1_GPRS_MMI/Tools/MinGW/include/c++/3.3.1/bits/stl_list.h ****      *  @param  last  An input iterator.
 493:d:/MTK/MTK2503/MTK2503/11CW1418SP4_03_CORETEK03AE_11C_V1_GPRS_MMI/Tools/MinGW/include/c++/3.3.1/bits/stl_list.h ****      * 
 494:d:/MTK/MTK2503/MTK2503/11CW1418SP4_03_CORETEK03AE_11C_V1_GPRS_MMI/Tools/MinGW/include/c++/3.3.1/bits/stl_list.h ****      *  Create a %list consisting of copies of the elements from [first,last).
 495:d:/MTK/MTK2503/MTK2503/11CW1418SP4_03_CORETEK03AE_11C_V1_GPRS_MMI/Tools/MinGW/include/c++/3.3.1/bits/stl_list.h ****      *  This is linear in N (where N is distance(first,last)).
 496:d:/MTK/MTK2503/MTK2503/11CW1418SP4_03_CORETEK03AE_11C_V1_GPRS_MMI/Tools/MinGW/include/c++/3.3.1/bits/stl_list.h ****      *
 497:d:/MTK/MTK2503/MTK2503/11CW1418SP4_03_CORETEK03AE_11C_V1_GPRS_MMI/Tools/MinGW/include/c++/3.3.1/bits/stl_list.h ****      *  @if maint
 498:d:/MTK/MTK2503/MTK2503/11CW1418SP4_03_CORETEK03AE_11C_V1_GPRS_MMI/Tools/MinGW/include/c++/3.3.1/bits/stl_list.h ****      *  We don't need any dispatching tricks here, because insert does all of
 499:d:/MTK/MTK2503/MTK2503/11CW1418SP4_03_CORETEK03AE_11C_V1_GPRS_MMI/Tools/MinGW/include/c++/3.3.1/bits/stl_list.h ****      *  that anyway.
 500:d:/MTK/MTK2503/MTK2503/11CW1418SP4_03_CORETEK03AE_11C_V1_GPRS_MMI/Tools/MinGW/include/c++/3.3.1/bits/stl_list.h ****      *  @endif
 501:d:/MTK/MTK2503/MTK2503/11CW1418SP4_03_CORETEK03AE_11C_V1_GPRS_MMI/Tools/MinGW/include/c++/3.3.1/bits/stl_list.h ****     */
 502:d:/MTK/MTK2503/MTK2503/11CW1418SP4_03_CORETEK03AE_11C_V1_GPRS_MMI/Tools/MinGW/include/c++/3.3.1/bits/stl_list.h ****     template<typename _InputIterator>
 503:d:/MTK/MTK2503/MTK2503/11CW1418SP4_03_CORETEK03AE_11C_V1_GPRS_MMI/Tools/MinGW/include/c++/3.3.1/bits/stl_list.h ****       list(_InputIterator __first, _InputIterator __last,
 504:d:/MTK/MTK2503/MTK2503/11CW1418SP4_03_CORETEK03AE_11C_V1_GPRS_MMI/Tools/MinGW/include/c++/3.3.1/bits/stl_list.h ****            const allocator_type& __a = allocator_type())
 505:d:/MTK/MTK2503/MTK2503/11CW1418SP4_03_CORETEK03AE_11C_V1_GPRS_MMI/Tools/MinGW/include/c++/3.3.1/bits/stl_list.h ****       : _Base(__a)
 506:d:/MTK/MTK2503/MTK2503/11CW1418SP4_03_CORETEK03AE_11C_V1_GPRS_MMI/Tools/MinGW/include/c++/3.3.1/bits/stl_list.h ****       { this->insert(begin(), __first, __last); }
 507:d:/MTK/MTK2503/MTK2503/11CW1418SP4_03_CORETEK03AE_11C_V1_GPRS_MMI/Tools/MinGW/include/c++/3.3.1/bits/stl_list.h ****   
 508:d:/MTK/MTK2503/MTK2503/11CW1418SP4_03_CORETEK03AE_11C_V1_GPRS_MMI/Tools/MinGW/include/c++/3.3.1/bits/stl_list.h ****     /**
 509:d:/MTK/MTK2503/MTK2503/11CW1418SP4_03_CORETEK03AE_11C_V1_GPRS_MMI/Tools/MinGW/include/c++/3.3.1/bits/stl_list.h ****      *  The dtor only erases the elements, and note that if the elements
 510:d:/MTK/MTK2503/MTK2503/11CW1418SP4_03_CORETEK03AE_11C_V1_GPRS_MMI/Tools/MinGW/include/c++/3.3.1/bits/stl_list.h ****      *  themselves are pointers, the pointed-to memory is not touched in any
 511:d:/MTK/MTK2503/MTK2503/11CW1418SP4_03_CORETEK03AE_11C_V1_GPRS_MMI/Tools/MinGW/include/c++/3.3.1/bits/stl_list.h ****      *  way.  Managing the pointer is the user's responsibilty.
 512:d:/MTK/MTK2503/MTK2503/11CW1418SP4_03_CORETEK03AE_11C_V1_GPRS_MMI/Tools/MinGW/include/c++/3.3.1/bits/stl_list.h ****     */
 513:d:/MTK/MTK2503/MTK2503/11CW1418SP4_03_CORETEK03AE_11C_V1_GPRS_MMI/Tools/MinGW/include/c++/3.3.1/bits/stl_list.h ****     ~list() { }
 3290              	LM23:
 3291              	L45:
 3292 0000 55       		pushl	%ebp
 3293 0001 89E5     		movl	%esp, %ebp
 3294 0003 83EC08   		subl	$8, %esp
 3296              	LM24:
 3297              	LBB4:
 3298 0006 8B4508   		movl	8(%ebp), %eax
 3299 0009 890424   		movl	%eax, (%esp)
 3300 000c E8000000 		call	__ZNSt10_List_baseIN10ThreadPool7JobDataESaIS1_EED2Ev
 3300      00
 3301 0011 C9       		leave
 3302 0012 C3       		ret
 3303              	L43:
 3304              	LBE4:
 3305              	Lscope2:
 3307 0013 90       		.text
GAS LISTING d:/MTK/MTK2503/MTK2503/11CW1418SP4_03_CORETEK03AE_11C_V1_GPRS_MMI/plutommi/Customer/ResGenerator/gcctmp/ccQHcaaa.s 			page 20


 3308 0525 90       		.align 2
 3311              	.globl __ZN10ThreadPoolD2Ev
 3313              	__ZN10ThreadPoolD2Ev:
 3315              	Ltext2:
  29:../../MMI/Resource/ThreadPool.cpp **** 
  30:../../MMI/Resource/ThreadPool.cpp **** ThreadPool::~ThreadPool()
  31:../../MMI/Resource/ThreadPool.cpp **** {
 3317              	LM25:
 3318 0526 55       		pushl	%ebp
 3319 0527 89E5     		movl	%esp, %ebp
 3320 0529 57       		pushl	%edi
 3321 052a 56       		pushl	%esi
 3322 052b 53       		pushl	%ebx
 3323 052c 83EC4C   		subl	$76, %esp
 3324 052f C745E000 		movl	$___gxx_personality_sj0, -32(%ebp)
 3324      000000
 3325 0536 C745E414 		movl	$LLSDA666, -28(%ebp)
 3325      000000
 3326 053d 8D45E8   		leal	-24(%ebp), %eax
 3327 0540 8D55F4   		leal	-12(%ebp), %edx
 3328 0543 8910     		movl	%edx, (%eax)
 3329 0545 BA890500 		movl	$L60, %edx
 3329      00
 3330 054a 895004   		movl	%edx, 4(%eax)
 3331 054d 896008   		movl	%esp, 8(%eax)
 3332 0550 8D45C8   		leal	-56(%ebp), %eax
 3333 0553 890424   		movl	%eax, (%esp)
 3334 0556 E8000000 		call	__Unwind_SjLj_Register
 3334      00
 3336              	LM26:
 3337              	LBB5:
 3338 055b 8B4508   		movl	8(%ebp), %eax
 3339 055e C7000800 		movl	$__ZTV10ThreadPool+8, (%eax)
 3339      0000
  32:../../MMI/Resource/ThreadPool.cpp ****     Destroy();
 3341              	LM27:
 3342 0564 8B4508   		movl	8(%ebp), %eax
 3343 0567 890424   		movl	%eax, (%esp)
 3344 056a C745CC01 		movl	$1, -52(%ebp)
 3344      000000
 3345 0571 E8960700 		call	__ZN10ThreadPool7DestroyEv
 3345      00
  33:../../MMI/Resource/ThreadPool.cpp ****     DeleteCriticalSection(&m_cs);
 3347              	LM28:
 3348 0576 8B4508   		movl	8(%ebp), %eax
 3349 0579 83C01C   		addl	$28, %eax
 3350 057c 890424   		movl	%eax, (%esp)
 3351 057f E8000000 		call	_DeleteCriticalSection@4
 3351      00
 3352 0584 83EC04   		subl	$4, %esp
 3353 0587 EB34     		jmp	L51
 3354              	L60:
 3355 0589 8D6D0C   		leal	12(%ebp), %ebp
 3356 058c 8B45CC   		movl	-52(%ebp), %eax
 3357 058f 8B55D0   		movl	-48(%ebp), %edx
 3358 0592 8955C0   		movl	%edx, -64(%ebp)
 3359 0595 83F801   		cmpl	$1, %eax
GAS LISTING d:/MTK/MTK2503/MTK2503/11CW1418SP4_03_CORETEK03AE_11C_V1_GPRS_MMI/plutommi/Customer/ResGenerator/gcctmp/ccQHcaaa.s 			page 21


 3360 0598 743A     		je	L54
 3361              	L50:
 3362 059a 8B45C0   		movl	-64(%ebp), %eax
 3363 059d 8945C4   		movl	%eax, -60(%ebp)
 3364 05a0 8B4508   		movl	8(%ebp), %eax
 3365 05a3 83C008   		addl	$8, %eax
 3366 05a6 890424   		movl	%eax, (%esp)
 3367 05a9 C745CC00 		movl	$0, -52(%ebp)
 3367      000000
 3368 05b0 E8000000 		call	__ZNSt6vectorIN10ThreadPool10ThreadDataESaIS1_EED1Ev
 3368      00
 3369 05b5 8B55C4   		movl	-60(%ebp), %edx
 3370 05b8 8955C0   		movl	%edx, -64(%ebp)
 3371              	L52:
 3372 05bb EB17     		jmp	L54
 3373              	L51:
 3374 05bd 8B4508   		movl	8(%ebp), %eax
 3375 05c0 83C008   		addl	$8, %eax
 3376 05c3 890424   		movl	%eax, (%esp)
 3377 05c6 C745CC02 		movl	$2, -52(%ebp)
 3377      000000
 3378 05cd E8000000 		call	__ZNSt6vectorIN10ThreadPool10ThreadDataESaIS1_EED1Ev
 3378      00
 3379 05d2 EB33     		jmp	L55
 3380              	L54:
 3381 05d4 8B45C0   		movl	-64(%ebp), %eax
 3382 05d7 8945BC   		movl	%eax, -68(%ebp)
 3383 05da 8B4508   		movl	8(%ebp), %eax
 3384 05dd 83C004   		addl	$4, %eax
 3385 05e0 890424   		movl	%eax, (%esp)
 3386 05e3 C745CC00 		movl	$0, -52(%ebp)
 3386      000000
 3387 05ea E8000000 		call	__ZNSt4listIN10ThreadPool7JobDataESaIS1_EED1Ev
 3387      00
 3388 05ef 8B55BC   		movl	-68(%ebp), %edx
 3389 05f2 8955C0   		movl	%edx, -64(%ebp)
 3390              	L56:
 3391 05f5 8B45C0   		movl	-64(%ebp), %eax
 3392 05f8 890424   		movl	%eax, (%esp)
 3393 05fb C745CCFF 		movl	$-1, -52(%ebp)
 3393      FFFFFF
 3394 0602 E8000000 		call	__Unwind_SjLj_Resume
 3394      00
 3395              	L55:
 3396 0607 8B4508   		movl	8(%ebp), %eax
 3397 060a 83C004   		addl	$4, %eax
 3398 060d 890424   		movl	%eax, (%esp)
 3399 0610 C745CCFF 		movl	$-1, -52(%ebp)
 3399      FFFFFF
 3400 0617 E8000000 		call	__ZNSt4listIN10ThreadPool7JobDataESaIS1_EED1Ev
 3400      00
  34:../../MMI/Resource/ThreadPool.cpp **** }
 3402              	LM29:
 3403              	LBE5:
 3404 061c B8010000 		movl	$1, %eax
 3404      00
 3405 0621 83E000   		andl	$0, %eax
GAS LISTING d:/MTK/MTK2503/MTK2503/11CW1418SP4_03_CORETEK03AE_11C_V1_GPRS_MMI/plutommi/Customer/ResGenerator/gcctmp/ccQHcaaa.s 			page 22


 3406 0624 84C0     		testb	%al, %al
 3407 0626 740B     		je	L48
 3408 0628 8B4508   		movl	8(%ebp), %eax
 3409 062b 890424   		movl	%eax, (%esp)
 3410 062e E8000000 		call	__ZdlPv
 3410      00
 3411              	L48:
 3412 0633 8D45C8   		leal	-56(%ebp), %eax
 3413 0636 890424   		movl	%eax, (%esp)
 3414 0639 E8000000 		call	__Unwind_SjLj_Unregister
 3414      00
 3415 063e 8D65F4   		leal	-12(%ebp), %esp
 3416 0641 5B       		popl	%ebx
 3417 0642 5E       		popl	%esi
 3418 0643 5F       		popl	%edi
 3419 0644 5D       		popl	%ebp
 3420 0645 C3       		ret
 3421              		.section	.gcc_except_table,""
 3422              	LLSDA666:
 3423 0014 FF       		.byte	0xff
 3424 0015 FF       		.byte	0xff
 3425 0016 01       		.byte	0x1
 3426 0017 04       		.uleb128 LLSDACSE666-LLSDACSB666
 3427              	LLSDACSB666:
 3428 0018 00       		.uleb128 0x0
 3429 0019 00       		.uleb128 0x0
 3430 001a 01       		.uleb128 0x1
 3431 001b 00       		.uleb128 0x0
 3432              	LLSDACSE666:
 3433              		.text
 3434              	Lscope3:
 3436              		.align 2
 3439              	.globl __ZN10ThreadPoolD1Ev
 3441              	__ZN10ThreadPoolD1Ev:
 3443              	LM30:
 3444 0646 55       		pushl	%ebp
 3445 0647 89E5     		movl	%esp, %ebp
 3446 0649 57       		pushl	%edi
 3447 064a 56       		pushl	%esi
 3448 064b 53       		pushl	%ebx
 3449 064c 83EC4C   		subl	$76, %esp
 3450 064f C745E000 		movl	$___gxx_personality_sj0, -32(%ebp)
 3450      000000
 3451 0656 C745E41C 		movl	$LLSDA668, -28(%ebp)
 3451      000000
 3452 065d 8D45E8   		leal	-24(%ebp), %eax
 3453 0660 8D55F4   		leal	-12(%ebp), %edx
 3454 0663 8910     		movl	%edx, (%eax)
 3455 0665 BAA90600 		movl	$L73, %edx
 3455      00
 3456 066a 895004   		movl	%edx, 4(%eax)
 3457 066d 896008   		movl	%esp, 8(%eax)
 3458 0670 8D45C8   		leal	-56(%ebp), %eax
 3459 0673 890424   		movl	%eax, (%esp)
 3460 0676 E8000000 		call	__Unwind_SjLj_Register
 3460      00
 3462              	LM31:
GAS LISTING d:/MTK/MTK2503/MTK2503/11CW1418SP4_03_CORETEK03AE_11C_V1_GPRS_MMI/plutommi/Customer/ResGenerator/gcctmp/ccQHcaaa.s 			page 23


 3463              	LBB6:
 3464 067b 8B4508   		movl	8(%ebp), %eax
 3465 067e C7000800 		movl	$__ZTV10ThreadPool+8, (%eax)
 3465      0000
 3467              	LM32:
 3468 0684 8B4508   		movl	8(%ebp), %eax
 3469 0687 890424   		movl	%eax, (%esp)
 3470 068a C745CC01 		movl	$1, -52(%ebp)
 3470      000000
 3471 0691 E8760600 		call	__ZN10ThreadPool7DestroyEv
 3471      00
 3473              	LM33:
 3474 0696 8B4508   		movl	8(%ebp), %eax
 3475 0699 83C01C   		addl	$28, %eax
 3476 069c 890424   		movl	%eax, (%esp)
 3477 069f E8000000 		call	_DeleteCriticalSection@4
 3477      00
 3478 06a4 83EC04   		subl	$4, %esp
 3479 06a7 EB34     		jmp	L64
 3480              	L73:
 3481 06a9 8D6D0C   		leal	12(%ebp), %ebp
 3482 06ac 8B45CC   		movl	-52(%ebp), %eax
 3483 06af 8B55D0   		movl	-48(%ebp), %edx
 3484 06b2 8955C0   		movl	%edx, -64(%ebp)
 3485 06b5 83F801   		cmpl	$1, %eax
 3486 06b8 743A     		je	L67
 3487              	L63:
 3488 06ba 8B45C0   		movl	-64(%ebp), %eax
 3489 06bd 8945C4   		movl	%eax, -60(%ebp)
 3490 06c0 8B4508   		movl	8(%ebp), %eax
 3491 06c3 83C008   		addl	$8, %eax
 3492 06c6 890424   		movl	%eax, (%esp)
 3493 06c9 C745CC00 		movl	$0, -52(%ebp)
 3493      000000
 3494 06d0 E8000000 		call	__ZNSt6vectorIN10ThreadPool10ThreadDataESaIS1_EED1Ev
 3494      00
 3495 06d5 8B55C4   		movl	-60(%ebp), %edx
 3496 06d8 8955C0   		movl	%edx, -64(%ebp)
 3497              	L65:
 3498 06db EB17     		jmp	L67
 3499              	L64:
 3500 06dd 8B4508   		movl	8(%ebp), %eax
 3501 06e0 83C008   		addl	$8, %eax
 3502 06e3 890424   		movl	%eax, (%esp)
 3503 06e6 C745CC02 		movl	$2, -52(%ebp)
 3503      000000
 3504 06ed E8000000 		call	__ZNSt6vectorIN10ThreadPool10ThreadDataESaIS1_EED1Ev
 3504      00
 3505 06f2 EB33     		jmp	L68
 3506              	L67:
 3507 06f4 8B45C0   		movl	-64(%ebp), %eax
 3508 06f7 8945BC   		movl	%eax, -68(%ebp)
 3509 06fa 8B4508   		movl	8(%ebp), %eax
 3510 06fd 83C004   		addl	$4, %eax
 3511 0700 890424   		movl	%eax, (%esp)
 3512 0703 C745CC00 		movl	$0, -52(%ebp)
 3512      000000
GAS LISTING d:/MTK/MTK2503/MTK2503/11CW1418SP4_03_CORETEK03AE_11C_V1_GPRS_MMI/plutommi/Customer/ResGenerator/gcctmp/ccQHcaaa.s 			page 24


 3513 070a E8000000 		call	__ZNSt4listIN10ThreadPool7JobDataESaIS1_EED1Ev
 3513      00
 3514 070f 8B55BC   		movl	-68(%ebp), %edx
 3515 0712 8955C0   		movl	%edx, -64(%ebp)
 3516              	L69:
 3517 0715 8B45C0   		movl	-64(%ebp), %eax
 3518 0718 890424   		movl	%eax, (%esp)
 3519 071b C745CCFF 		movl	$-1, -52(%ebp)
 3519      FFFFFF
 3520 0722 E8000000 		call	__Unwind_SjLj_Resume
 3520      00
 3521              	L68:
 3522 0727 8B4508   		movl	8(%ebp), %eax
 3523 072a 83C004   		addl	$4, %eax
 3524 072d 890424   		movl	%eax, (%esp)
 3525 0730 C745CCFF 		movl	$-1, -52(%ebp)
 3525      FFFFFF
 3526 0737 E8000000 		call	__ZNSt4listIN10ThreadPool7JobDataESaIS1_EED1Ev
 3526      00
 3528              	LM34:
 3529              	LBE6:
 3530 073c B8010000 		movl	$1, %eax
 3530      00
 3531 0741 83E002   		andl	$2, %eax
 3532 0744 84C0     		testb	%al, %al
 3533 0746 740B     		je	L61
 3534 0748 8B4508   		movl	8(%ebp), %eax
 3535 074b 890424   		movl	%eax, (%esp)
 3536 074e E8000000 		call	__ZdlPv
 3536      00
 3537              	L61:
 3538 0753 8D45C8   		leal	-56(%ebp), %eax
 3539 0756 890424   		movl	%eax, (%esp)
 3540 0759 E8000000 		call	__Unwind_SjLj_Unregister
 3540      00
 3541 075e 8D65F4   		leal	-12(%ebp), %esp
 3542 0761 5B       		popl	%ebx
 3543 0762 5E       		popl	%esi
 3544 0763 5F       		popl	%edi
 3545 0764 5D       		popl	%ebp
 3546 0765 C3       		ret
 3547              		.section	.gcc_except_table,""
 3548              	LLSDA668:
 3549 001c FF       		.byte	0xff
 3550 001d FF       		.byte	0xff
 3551 001e 01       		.byte	0x1
 3552 001f 04       		.uleb128 LLSDACSE668-LLSDACSB668
 3553              	LLSDACSB668:
 3554 0020 00       		.uleb128 0x0
 3555 0021 00       		.uleb128 0x0
 3556 0022 01       		.uleb128 0x1
 3557 0023 00       		.uleb128 0x0
 3558              	LLSDACSE668:
 3559              		.text
 3560              	Lscope4:
 3562              		.align 2
 3565              	.globl __ZN10ThreadPoolD0Ev
GAS LISTING d:/MTK/MTK2503/MTK2503/11CW1418SP4_03_CORETEK03AE_11C_V1_GPRS_MMI/plutommi/Customer/ResGenerator/gcctmp/ccQHcaaa.s 			page 25


 3567              	__ZN10ThreadPoolD0Ev:
 3569              	LM35:
 3570 0766 55       		pushl	%ebp
 3571 0767 89E5     		movl	%esp, %ebp
 3572 0769 57       		pushl	%edi
 3573 076a 56       		pushl	%esi
 3574 076b 53       		pushl	%ebx
 3575 076c 83EC4C   		subl	$76, %esp
 3576 076f C745E000 		movl	$___gxx_personality_sj0, -32(%ebp)
 3576      000000
 3577 0776 C745E424 		movl	$LLSDA670, -28(%ebp)
 3577      000000
 3578 077d 8D45E8   		leal	-24(%ebp), %eax
 3579 0780 8D55F4   		leal	-12(%ebp), %edx
 3580 0783 8910     		movl	%edx, (%eax)
 3581 0785 BAC90700 		movl	$L86, %edx
 3581      00
 3582 078a 895004   		movl	%edx, 4(%eax)
 3583 078d 896008   		movl	%esp, 8(%eax)
 3584 0790 8D45C8   		leal	-56(%ebp), %eax
 3585 0793 890424   		movl	%eax, (%esp)
 3586 0796 E8000000 		call	__Unwind_SjLj_Register
 3586      00
 3588              	LM36:
 3589              	LBB7:
 3590 079b 8B4508   		movl	8(%ebp), %eax
 3591 079e C7000800 		movl	$__ZTV10ThreadPool+8, (%eax)
 3591      0000
 3593              	LM37:
 3594 07a4 8B4508   		movl	8(%ebp), %eax
 3595 07a7 890424   		movl	%eax, (%esp)
 3596 07aa C745CC01 		movl	$1, -52(%ebp)
 3596      000000
 3597 07b1 E8560500 		call	__ZN10ThreadPool7DestroyEv
 3597      00
 3599              	LM38:
 3600 07b6 8B4508   		movl	8(%ebp), %eax
 3601 07b9 83C01C   		addl	$28, %eax
 3602 07bc 890424   		movl	%eax, (%esp)
 3603 07bf E8000000 		call	_DeleteCriticalSection@4
 3603      00
 3604 07c4 83EC04   		subl	$4, %esp
 3605 07c7 EB34     		jmp	L77
 3606              	L86:
 3607 07c9 8D6D0C   		leal	12(%ebp), %ebp
 3608 07cc 8B45CC   		movl	-52(%ebp), %eax
 3609 07cf 8B55D0   		movl	-48(%ebp), %edx
 3610 07d2 8955C0   		movl	%edx, -64(%ebp)
 3611 07d5 83F801   		cmpl	$1, %eax
 3612 07d8 743A     		je	L80
 3613              	L76:
 3614 07da 8B45C0   		movl	-64(%ebp), %eax
 3615 07dd 8945C4   		movl	%eax, -60(%ebp)
 3616 07e0 8B4508   		movl	8(%ebp), %eax
 3617 07e3 83C008   		addl	$8, %eax
 3618 07e6 890424   		movl	%eax, (%esp)
 3619 07e9 C745CC00 		movl	$0, -52(%ebp)
GAS LISTING d:/MTK/MTK2503/MTK2503/11CW1418SP4_03_CORETEK03AE_11C_V1_GPRS_MMI/plutommi/Customer/ResGenerator/gcctmp/ccQHcaaa.s 			page 26


 3619      000000
 3620 07f0 E8000000 		call	__ZNSt6vectorIN10ThreadPool10ThreadDataESaIS1_EED1Ev
 3620      00
 3621 07f5 8B55C4   		movl	-60(%ebp), %edx
 3622 07f8 8955C0   		movl	%edx, -64(%ebp)
 3623              	L78:
 3624 07fb EB17     		jmp	L80
 3625              	L77:
 3626 07fd 8B4508   		movl	8(%ebp), %eax
 3627 0800 83C008   		addl	$8, %eax
 3628 0803 890424   		movl	%eax, (%esp)
 3629 0806 C745CC02 		movl	$2, -52(%ebp)
 3629      000000
 3630 080d E8000000 		call	__ZNSt6vectorIN10ThreadPool10ThreadDataESaIS1_EED1Ev
 3630      00
 3631 0812 EB33     		jmp	L81
 3632              	L80:
 3633 0814 8B45C0   		movl	-64(%ebp), %eax
 3634 0817 8945BC   		movl	%eax, -68(%ebp)
 3635 081a 8B4508   		movl	8(%ebp), %eax
 3636 081d 83C004   		addl	$4, %eax
 3637 0820 890424   		movl	%eax, (%esp)
 3638 0823 C745CC00 		movl	$0, -52(%ebp)
 3638      000000
 3639 082a E8000000 		call	__ZNSt4listIN10ThreadPool7JobDataESaIS1_EED1Ev
 3639      00
 3640 082f 8B55BC   		movl	-68(%ebp), %edx
 3641 0832 8955C0   		movl	%edx, -64(%ebp)
 3642              	L82:
 3643 0835 8B45C0   		movl	-64(%ebp), %eax
 3644 0838 890424   		movl	%eax, (%esp)
 3645 083b C745CCFF 		movl	$-1, -52(%ebp)
 3645      FFFFFF
 3646 0842 E8000000 		call	__Unwind_SjLj_Resume
 3646      00
 3647              	L81:
 3648 0847 8B4508   		movl	8(%ebp), %eax
 3649 084a 83C004   		addl	$4, %eax
 3650 084d 890424   		movl	%eax, (%esp)
 3651 0850 C745CCFF 		movl	$-1, -52(%ebp)
 3651      FFFFFF
 3652 0857 E8000000 		call	__ZNSt4listIN10ThreadPool7JobDataESaIS1_EED1Ev
 3652      00
 3654              	LM39:
 3655              	LBE7:
 3656 085c B8010000 		movl	$1, %eax
 3656      00
 3657 0861 83E003   		andl	$3, %eax
 3658 0864 84C0     		testb	%al, %al
 3659 0866 740B     		je	L74
 3660 0868 8B4508   		movl	8(%ebp), %eax
 3661 086b 890424   		movl	%eax, (%esp)
 3662 086e E8000000 		call	__ZdlPv
 3662      00
 3663              	L74:
 3664 0873 8D45C8   		leal	-56(%ebp), %eax
 3665 0876 890424   		movl	%eax, (%esp)
GAS LISTING d:/MTK/MTK2503/MTK2503/11CW1418SP4_03_CORETEK03AE_11C_V1_GPRS_MMI/plutommi/Customer/ResGenerator/gcctmp/ccQHcaaa.s 			page 27


 3666 0879 E8000000 		call	__Unwind_SjLj_Unregister
 3666      00
 3667 087e 8D65F4   		leal	-12(%ebp), %esp
 3668 0881 5B       		popl	%ebx
 3669 0882 5E       		popl	%esi
 3670 0883 5F       		popl	%edi
 3671 0884 5D       		popl	%ebp
 3672 0885 C3       		ret
 3673              		.section	.gcc_except_table,""
 3674              	LLSDA670:
 3675 0024 FF       		.byte	0xff
 3676 0025 FF       		.byte	0xff
 3677 0026 01       		.byte	0x1
 3678 0027 04       		.uleb128 LLSDACSE670-LLSDACSB670
 3679              	LLSDACSB670:
 3680 0028 00       		.uleb128 0x0
 3681 0029 00       		.uleb128 0x0
 3682 002a 01       		.uleb128 0x1
 3683 002b 00       		.uleb128 0x0
 3684              	LLSDACSE670:
 3685              		.text
 3686              	Lscope5:
 3688 0886 90909090 		.align 32
 3688      90909090 
 3688      90909090 
 3688      90909090 
 3688      90909090 
 3689              	LC5:
 3690 08a0 43726561 		.ascii "CreateEvent(): threadError = %d\0"
 3690      74654576 
 3690      656E7428 
 3690      293A2074 
 3690      68726561 
 3691              		.align 32
 3692              	LC6:
 3693 08c0 2E2E2F2E 		.ascii "../../MMI/Resource/ThreadPool.cpp\0"
 3693      2E2F4D4D 
 3693      492F5265 
 3693      736F7572 
 3693      63652F54 
 3694              	LC7:
 3695 08e2 6D5F684E 		.ascii "m_hNotifyShutdown != NULL\0"
 3695      6F746966 
 3695      79536875 
 3695      74646F77 
 3695      6E20213D 
 3696              	LC8:
 3697 08fc 5F626567 		.ascii "_beginthreadex\0"
 3697      696E7468 
 3697      72656164 
 3697      657800
 3698 090b 90909090 		.align 32
 3698      90909090 
 3698      90909090 
 3698      90909090 
 3698      90909090 
 3699              	LC9:
GAS LISTING d:/MTK/MTK2503/MTK2503/11CW1418SP4_03_CORETEK03AE_11C_V1_GPRS_MMI/plutommi/Customer/ResGenerator/gcctmp/ccQHcaaa.s 			page 28


 3700 0920 5F626567 		.ascii "_beginthreadex() threadError = %d\0"
 3700      696E7468 
 3700      72656164 
 3700      65782829 
 3700      20746872 
 3701 0942 90909090 		.align 32
 3701      90909090 
 3701      90909090 
 3701      90909090 
 3701      90909090 
 3702              	LC10:
 3703 0960 494E5641 		.ascii "INVALID_HANDLE_VALUE != hThread\0"
 3703      4C49445F 
 3703      48414E44 
 3703      4C455F56 
 3703      414C5545 
 3704              		.align 32
 3705              	LC11:
 3706 0980 54687265 		.ascii "Thread %d creation failed in ThreadPool::Create()\0"
 3706      61642025 
 3706      64206372 
 3706      65617469 
 3706      6F6E2066 
 3707              	LC12:
 3708 09b2 43726561 		.ascii "Create Thread, ID = %d\0"
 3708      74652054 
 3708      68726561 
 3708      642C2049 
 3708      44203D20 
 3709 09c9 90       		.align 2
 3713              	.globl __ZN10ThreadPool6CreateEi
 3715              	__ZN10ThreadPool6CreateEi:
  35:../../MMI/Resource/ThreadPool.cpp **** 
  36:../../MMI/Resource/ThreadPool.cpp **** bool ThreadPool::Create(int poolSize)
  37:../../MMI/Resource/ThreadPool.cpp **** {
 3717              	LM40:
 3718 09ca 55       		pushl	%ebp
 3719 09cb 89E5     		movl	%esp, %ebp
 3720 09cd 53       		pushl	%ebx
 3721 09ce 83EC54   		subl	$84, %esp
  38:../../MMI/Resource/ThreadPool.cpp ****     Destroy();
 3723              	LM41:
 3724              	LBB8:
 3725 09d1 8B4508   		movl	8(%ebp), %eax
 3726 09d4 890424   		movl	%eax, (%esp)
 3727 09d7 E8300300 		call	__ZN10ThreadPool7DestroyEv
 3727      00
  39:../../MMI/Resource/ThreadPool.cpp ****     if (poolSize == 0)
 3729              	LM42:
 3730 09dc 837D0C00 		cmpl	$0, 12(%ebp)
 3731 09e0 750C     		jne	L88
  40:../../MMI/Resource/ThreadPool.cpp ****         return true;
 3733              	LM43:
 3734 09e2 C745D401 		movl	$1, -44(%ebp)
 3734      000000
 3735 09e9 E91B0200 		jmp	L87
 3735      00
GAS LISTING d:/MTK/MTK2503/MTK2503/11CW1418SP4_03_CORETEK03AE_11C_V1_GPRS_MMI/plutommi/Customer/ResGenerator/gcctmp/ccQHcaaa.s 			page 29


 3736              	L88:
  41:../../MMI/Resource/ThreadPool.cpp **** 
  42:../../MMI/Resource/ThreadPool.cpp ****     // create the event which will signal the threads to stop
  43:../../MMI/Resource/ThreadPool.cpp ****     m_hNotifyShutdown = CreateEvent(NULL, TRUE, FALSE, NULL);
 3738              	LM44:
 3739 09ee 8B5D08   		movl	8(%ebp), %ebx
 3740 09f1 C744240C 		movl	$0, 12(%esp)
 3740      00000000 
 3741 09f9 C7442408 		movl	$0, 8(%esp)
 3741      00000000 
 3742 0a01 C7442404 		movl	$1, 4(%esp)
 3742      01000000 
 3743 0a09 C7042400 		movl	$0, (%esp)
 3743      000000
 3744 0a10 E8000000 		call	_CreateEventA@16
 3744      00
 3745 0a15 83EC10   		subl	$16, %esp
 3746 0a18 894318   		movl	%eax, 24(%ebx)
  44:../../MMI/Resource/ThreadPool.cpp ****     if (m_hNotifyShutdown == NULL)
 3748              	LM45:
 3749              	LBB9:
 3750 0a1b 8B4508   		movl	8(%ebp), %eax
 3751 0a1e 83781800 		cmpl	$0, 24(%eax)
 3752 0a22 752B     		jne	L89
  45:../../MMI/Resource/ThreadPool.cpp ****     {
  46:../../MMI/Resource/ThreadPool.cpp **** 	    DWORD threadError = GetLastError();
 3754              	LM46:
 3755              	LBB10:
 3756 0a24 E8000000 		call	_GetLastError@0
 3756      00
 3757 0a29 8945F4   		movl	%eax, -12(%ebp)
  47:../../MMI/Resource/ThreadPool.cpp **** 		THREADP_LOG_E("CreateEvent(): threadError = %d", threadError);
 3759              	LM47:
 3760 0a2c 8B45F4   		movl	-12(%ebp), %eax
 3761 0a2f 8944240C 		movl	%eax, 12(%esp)
 3762 0a33 C7442408 		movl	$LC5, 8(%esp)
 3762      A0080000 
 3763 0a3b C7442404 		movl	$LC1, 4(%esp)
 3763      1A000000 
 3764 0a43 C7042403 		movl	$3, (%esp)
 3764      000000
 3765 0a4a E8000000 		call	_reslog_adaptor_log
 3765      00
 3766              	L89:
  48:../../MMI/Resource/ThreadPool.cpp ****     }
  49:../../MMI/Resource/ThreadPool.cpp ****     assert(m_hNotifyShutdown != NULL);
 3768              	LM48:
 3769              	LBE10:
 3770              	LBE9:
 3771 0a4f 8B4508   		movl	8(%ebp), %eax
 3772 0a52 83781800 		cmpl	$0, 24(%eax)
 3773 0a56 751C     		jne	L91
 3774 0a58 C7442408 		movl	$49, 8(%esp)
 3774      31000000 
 3775 0a60 C7442404 		movl	$LC6, 4(%esp)
 3775      C0080000 
 3776 0a68 C70424E2 		movl	$LC7, (%esp)
GAS LISTING d:/MTK/MTK2503/MTK2503/11CW1418SP4_03_CORETEK03AE_11C_V1_GPRS_MMI/plutommi/Customer/ResGenerator/gcctmp/ccQHcaaa.s 			page 30


 3776      080000
 3777 0a6f E8000000 		call	__assert
 3777      00
 3778              	L91:
  50:../../MMI/Resource/ThreadPool.cpp ****     if (m_hNotifyShutdown == NULL)
 3780              	LM49:
 3781 0a74 8B4508   		movl	8(%ebp), %eax
 3782 0a77 83781800 		cmpl	$0, 24(%eax)
 3783 0a7b 750C     		jne	L92
  51:../../MMI/Resource/ThreadPool.cpp ****         return false;
 3785              	LM50:
 3786 0a7d C745D400 		movl	$0, -44(%ebp)
 3786      000000
 3787 0a84 E9800100 		jmp	L87
 3787      00
 3788              	L92:
  52:../../MMI/Resource/ThreadPool.cpp **** 
  53:../../MMI/Resource/ThreadPool.cpp ****     // create the threads
  54:../../MMI/Resource/ThreadPool.cpp ****     for (int nIndex = 0; nIndex < poolSize; ++nIndex)
 3790              	LM51:
 3791              	LBB11:
 3792 0a89 C745F400 		movl	$0, -12(%ebp)
 3792      000000
 3793              	L93:
 3794 0a90 8B45F4   		movl	-12(%ebp), %eax
 3795 0a93 3B450C   		cmpl	12(%ebp), %eax
 3796 0a96 7C05     		jl	L96
 3797 0a98 E9650100 		jmp	L94
 3797      00
 3798              	L96:
  55:../../MMI/Resource/ThreadPool.cpp ****     {
  56:../../MMI/Resource/ThreadPool.cpp ****         UINT uThreadId;
  57:../../MMI/Resource/ThreadPool.cpp **** 		THREADP_LOG_V("_beginthreadex");
 3800              	LM52:
 3801              	LBB12:
 3802              	LBB13:
 3803 0a9d C7442408 		movl	$LC8, 8(%esp)
 3803      FC080000 
 3804 0aa5 C7442404 		movl	$LC1, 4(%esp)
 3804      1A000000 
 3805 0aad C7042401 		movl	$1, (%esp)
 3805      000000
 3806 0ab4 E8000000 		call	_reslog_adaptor_log
 3806      00
  58:../../MMI/Resource/ThreadPool.cpp ****         HANDLE hThread = (HANDLE)_beginthreadex(
 3808              	LM53:
 3809 0ab9 8D45F0   		leal	-16(%ebp), %eax
 3810 0abc 89442414 		movl	%eax, 20(%esp)
 3811 0ac0 C7442410 		movl	$4, 16(%esp)
 3811      04000000 
 3812 0ac8 8B4508   		movl	8(%ebp), %eax
 3813 0acb 8944240C 		movl	%eax, 12(%esp)
 3814 0acf C7442408 		movl	$__ZN10ThreadPool10ThreadProcEPv@4, 8(%esp)
 3814      80120000 
 3815 0ad7 C7442404 		movl	$0, 4(%esp)
 3815      00000000 
 3816 0adf C7042400 		movl	$0, (%esp)
GAS LISTING d:/MTK/MTK2503/MTK2503/11CW1418SP4_03_CORETEK03AE_11C_V1_GPRS_MMI/plutommi/Customer/ResGenerator/gcctmp/ccQHcaaa.s 			page 31


 3816      000000
 3817 0ae6 E8000000 		call	__beginthreadex
 3817      00
 3818 0aeb 8945EC   		movl	%eax, -20(%ebp)
  59:../../MMI/Resource/ThreadPool.cpp ****             NULL, 0, ThreadPool::ThreadProc, this,
  60:../../MMI/Resource/ThreadPool.cpp ****             CREATE_SUSPENDED, (UINT*)&uThreadId);
  61:../../MMI/Resource/ThreadPool.cpp **** 		if (hThread == INVALID_HANDLE_VALUE)
 3820              	LM54:
 3821              	LBB14:
 3822 0aee 837DECFF 		cmpl	$-1, -20(%ebp)
 3823 0af2 752B     		jne	L97
  62:../../MMI/Resource/ThreadPool.cpp **** 		{
  63:../../MMI/Resource/ThreadPool.cpp **** 		    DWORD threadError = GetLastError();
 3825              	LM55:
 3826              	LBB15:
 3827 0af4 E8000000 		call	_GetLastError@0
 3827      00
 3828 0af9 8945E8   		movl	%eax, -24(%ebp)
  64:../../MMI/Resource/ThreadPool.cpp **** 			THREADP_LOG_E("_beginthreadex() threadError = %d", threadError);
 3830              	LM56:
 3831 0afc 8B45E8   		movl	-24(%ebp), %eax
 3832 0aff 8944240C 		movl	%eax, 12(%esp)
 3833 0b03 C7442408 		movl	$LC9, 8(%esp)
 3833      20090000 
 3834 0b0b C7442404 		movl	$LC1, 4(%esp)
 3834      1A000000 
 3835 0b13 C7042403 		movl	$3, (%esp)
 3835      000000
 3836 0b1a E8000000 		call	_reslog_adaptor_log
 3836      00
 3837              	L97:
  65:../../MMI/Resource/ThreadPool.cpp **** 		}
  66:../../MMI/Resource/ThreadPool.cpp **** 		
  67:../../MMI/Resource/ThreadPool.cpp ****         DWORD dwThreadId = uThreadId;
 3839              	LM57:
 3840              	LBE15:
 3841              	LBE14:
 3842 0b1f 8B45F0   		movl	-16(%ebp), %eax
 3843 0b22 8945E8   		movl	%eax, -24(%ebp)
  68:../../MMI/Resource/ThreadPool.cpp ****         assert(INVALID_HANDLE_VALUE != hThread);
 3845              	LM58:
 3846 0b25 837DECFF 		cmpl	$-1, -20(%ebp)
 3847 0b29 751C     		jne	L99
 3848 0b2b C7442408 		movl	$68, 8(%esp)
 3848      44000000 
 3849 0b33 C7442404 		movl	$LC6, 4(%esp)
 3849      C0080000 
 3850 0b3b C7042460 		movl	$LC10, (%esp)
 3850      090000
 3851 0b42 E8000000 		call	__assert
 3851      00
 3852              	L99:
  69:../../MMI/Resource/ThreadPool.cpp **** 
  70:../../MMI/Resource/ThreadPool.cpp ****         if (hThread == INVALID_HANDLE_VALUE){
 3854              	LM59:
 3855 0b47 837DECFF 		cmpl	$-1, -20(%ebp)
 3856 0b4b 752F     		jne	L100
GAS LISTING d:/MTK/MTK2503/MTK2503/11CW1418SP4_03_CORETEK03AE_11C_V1_GPRS_MMI/plutommi/Customer/ResGenerator/gcctmp/ccQHcaaa.s 			page 32


  71:../../MMI/Resource/ThreadPool.cpp ****             THREADP_LOG_E("Thread %d creation failed in ThreadPool::Create()", nIndex);
 3858              	LM60:
 3859 0b4d 8B45F4   		movl	-12(%ebp), %eax
 3860 0b50 8944240C 		movl	%eax, 12(%esp)
 3861 0b54 C7442408 		movl	$LC11, 8(%esp)
 3861      80090000 
 3862 0b5c C7442404 		movl	$LC1, 4(%esp)
 3862      1A000000 
 3863 0b64 C7042403 		movl	$3, (%esp)
 3863      000000
 3864 0b6b E8000000 		call	_reslog_adaptor_log
 3864      00
  72:../../MMI/Resource/ThreadPool.cpp ****             return false;
 3866              	LM61:
 3867 0b70 C745D400 		movl	$0, -44(%ebp)
 3867      000000
 3868 0b77 E98D0000 		jmp	L87
 3868      00
 3869              	L100:
  73:../../MMI/Resource/ThreadPool.cpp ****         }
  74:../../MMI/Resource/ThreadPool.cpp **** 
  75:../../MMI/Resource/ThreadPool.cpp ****         // add the entry to the thread list
  76:../../MMI/Resource/ThreadPool.cpp ****         ThreadData td;
  77:../../MMI/Resource/ThreadPool.cpp ****         td.hWait = CreateEvent(NULL, TRUE, FALSE, NULL);
 3871              	LM62:
 3872 0b7c C744240C 		movl	$0, 12(%esp)
 3872      00000000 
 3873 0b84 C7442408 		movl	$0, 8(%esp)
 3873      00000000 
 3874 0b8c C7442404 		movl	$1, 4(%esp)
 3874      01000000 
 3875 0b94 C7042400 		movl	$0, (%esp)
 3875      000000
 3876 0b9b E8000000 		call	_CreateEventA@16
 3876      00
 3877 0ba0 83EC10   		subl	$16, %esp
 3878 0ba3 8945D8   		movl	%eax, -40(%ebp)
  78:../../MMI/Resource/ThreadPool.cpp ****         td.hThread = hThread;
 3880              	LM63:
 3881 0ba6 8B45EC   		movl	-20(%ebp), %eax
 3882 0ba9 8945DC   		movl	%eax, -36(%ebp)
  79:../../MMI/Resource/ThreadPool.cpp ****         td.dwThreadId = dwThreadId;
 3884              	LM64:
 3885 0bac 8B45E8   		movl	-24(%ebp), %eax
 3886 0baf 8945E0   		movl	%eax, -32(%ebp)
  80:../../MMI/Resource/ThreadPool.cpp ****         THREADP_LOG_V("Create Thread, ID = %d", td.dwThreadId);
 3888              	LM65:
 3889 0bb2 8B45E0   		movl	-32(%ebp), %eax
 3890 0bb5 8944240C 		movl	%eax, 12(%esp)
 3891 0bb9 C7442408 		movl	$LC12, 8(%esp)
 3891      B2090000 
 3892 0bc1 C7442404 		movl	$LC1, 4(%esp)
 3892      1A000000 
 3893 0bc9 C7042401 		movl	$1, (%esp)
 3893      000000
 3894 0bd0 E8000000 		call	_reslog_adaptor_log
 3894      00
GAS LISTING d:/MTK/MTK2503/MTK2503/11CW1418SP4_03_CORETEK03AE_11C_V1_GPRS_MMI/plutommi/Customer/ResGenerator/gcctmp/ccQHcaaa.s 			page 33


  81:../../MMI/Resource/ThreadPool.cpp ****         m_threads.push_back(td);
 3896              	LM66:
 3897 0bd5 8D45D8   		leal	-40(%ebp), %eax
 3898 0bd8 89442404 		movl	%eax, 4(%esp)
 3899 0bdc 8B4508   		movl	8(%ebp), %eax
 3900 0bdf 83C008   		addl	$8, %eax
 3901 0be2 890424   		movl	%eax, (%esp)
 3902 0be5 E8000000 		call	__ZNSt6vectorIN10ThreadPool10ThreadDataESaIS1_EE9push_backERKS1_
 3902      00
  82:../../MMI/Resource/ThreadPool.cpp ****         ResumeThread(hThread);
 3904              	LM67:
 3905 0bea 8B45EC   		movl	-20(%ebp), %eax
 3906 0bed 890424   		movl	%eax, (%esp)
 3907 0bf0 E8000000 		call	_ResumeThread@4
 3907      00
 3908 0bf5 83EC04   		subl	$4, %esp
 3910              	LM68:
 3911 0bf8 8D45F4   		leal	-12(%ebp), %eax
 3912              	LBE13:
 3913              	LBE12:
 3914 0bfb FF00     		incl	(%eax)
 3915 0bfd E98EFEFF 		jmp	L93
 3915      FF
 3916              	L94:
  83:../../MMI/Resource/ThreadPool.cpp ****     }
  84:../../MMI/Resource/ThreadPool.cpp ****     return true;
 3918              	LM69:
 3919              	LBE11:
 3920 0c02 C745D401 		movl	$1, -44(%ebp)
 3920      000000
  85:../../MMI/Resource/ThreadPool.cpp **** }
 3922              	LM70:
 3923              	L87:
 3924              	LBE8:
 3925 0c09 8B45D4   		movl	-44(%ebp), %eax
 3926 0c0c 8B5DFC   		movl	-4(%ebp), %ebx
 3927 0c0f C9       		leave
 3928 0c10 C3       		ret
 3944              	Lscope6:
 3950 0c11 EB0D9090 		.align 32
 3950      90909090 
 3950      90909090 
 3950      909090
 3951              	LC13:
 3952 0c20 436C6F73 		.ascii "Close hWait handle: 0x%x, thread ID = %d\0"
 3952      65206857 
 3952      61697420 
 3952      68616E64 
 3952      6C653A20 
 3953 0c49 90909090 		.align 32
 3953      90909090 
 3953      90909090 
 3953      90909090 
 3953      90909090 
 3954              	LC14:
 3955 0c60 43616E6E 		.ascii "Cannnot close hWait handle, error = 0x%x\0"
 3955      6E6F7420 
GAS LISTING d:/MTK/MTK2503/MTK2503/11CW1418SP4_03_CORETEK03AE_11C_V1_GPRS_MMI/plutommi/Customer/ResGenerator/gcctmp/ccQHcaaa.s 			page 34


 3955      636C6F73 
 3955      65206857 
 3955      61697420 
 3956 0c89 90909090 		.align 32
 3956      90909090 
 3956      90909090 
 3956      90909090 
 3956      90909090 
 3957              	LC15:
 3958 0ca0 436C6F73 		.ascii "Close hThread handle: 0x%x, thread ID = %d\0"
 3958      65206854 
 3958      68726561 
 3958      64206861 
 3958      6E646C65 
 3959 0ccb 90909090 		.align 32
 3959      90909090 
 3959      90909090 
 3959      90909090 
 3959      90909090 
 3960              	LC16:
 3961 0ce0 43616E6E 		.ascii "Cannnot close hThread handle, error = 0x%x\0"
 3961      6E6F7420 
 3961      636C6F73 
 3961      65206854 
 3961      68726561 
 3962 0d0b 90       		.align 2
 3965              	.globl __ZN10ThreadPool7DestroyEv
 3967              	__ZN10ThreadPool7DestroyEv:
  86:../../MMI/Resource/ThreadPool.cpp **** 
  87:../../MMI/Resource/ThreadPool.cpp **** void ThreadPool::Destroy()
  88:../../MMI/Resource/ThreadPool.cpp **** {
 3969              	LM71:
 3970 0d0c 55       		pushl	%ebp
 3971 0d0d 89E5     		movl	%esp, %ebp
 3972 0d0f 53       		pushl	%ebx
 3973 0d10 83EC74   		subl	$116, %esp
  89:../../MMI/Resource/ThreadPool.cpp ****     // Never created?
  90:../../MMI/Resource/ThreadPool.cpp ****     if (!m_hNotifyShutdown)
 3975              	LM72:
 3976              	LBB16:
 3977 0d13 8B4508   		movl	8(%ebp), %eax
 3978 0d16 83781800 		cmpl	$0, 24(%eax)
 3979 0d1a 7505     		jne	L102
  91:../../MMI/Resource/ThreadPool.cpp ****         return;
 3981              	LM73:
 3982 0d1c E99B0200 		jmp	L101
 3982      00
 3983              	L102:
  92:../../MMI/Resource/ThreadPool.cpp **** 
  93:../../MMI/Resource/ThreadPool.cpp ****     // tell all threads to shutdown.
  94:../../MMI/Resource/ThreadPool.cpp ****     SetEvent(m_hNotifyShutdown);
 3985              	LM74:
 3986 0d21 8B4508   		movl	8(%ebp), %eax
 3987 0d24 8B4018   		movl	24(%eax), %eax
 3988 0d27 890424   		movl	%eax, (%esp)
 3989 0d2a E8000000 		call	_SetEvent@4
 3989      00
GAS LISTING d:/MTK/MTK2503/MTK2503/11CW1418SP4_03_CORETEK03AE_11C_V1_GPRS_MMI/plutommi/Customer/ResGenerator/gcctmp/ccQHcaaa.s 			page 35


 3990 0d2f 83EC04   		subl	$4, %esp
  95:../../MMI/Resource/ThreadPool.cpp ****     int timElapsed = 0;
 3992              	LM75:
 3993 0d32 C745F400 		movl	$0, -12(%ebp)
 3993      000000
  96:../../MMI/Resource/ThreadPool.cpp ****     while (GetWorkingThreadCount() > 0 && timElapsed < m_nWaitForThreadsToDieMS)
 3995              	LM76:
 3996              	L103:
 3997 0d39 8B4508   		movl	8(%ebp), %eax
 3998 0d3c 890424   		movl	%eax, (%esp)
 3999 0d3f E87E0200 		call	__ZN10ThreadPool21GetWorkingThreadCountEv
 3999      00
 4000 0d44 85C0     		testl	%eax, %eax
 4001 0d46 7E24     		jle	L104
 4002 0d48 8B5508   		movl	8(%ebp), %edx
 4003 0d4b 8B45F4   		movl	-12(%ebp), %eax
 4004 0d4e 3B4214   		cmpl	20(%edx), %eax
 4005 0d51 7C02     		jl	L105
 4006 0d53 EB17     		jmp	L104
 4007              	L105:
  97:../../MMI/Resource/ThreadPool.cpp ****     {
  98:../../MMI/Resource/ThreadPool.cpp ****         Sleep(100); // give the threads a chance to complete
 4009              	LM77:
 4010 0d55 C7042464 		movl	$100, (%esp)
 4010      000000
 4011 0d5c E8000000 		call	_Sleep@4
 4011      00
 4012 0d61 83EC04   		subl	$4, %esp
  99:../../MMI/Resource/ThreadPool.cpp ****         timElapsed += 100;
 4014              	LM78:
 4015 0d64 8D45F4   		leal	-12(%ebp), %eax
 4016 0d67 830064   		addl	$100, (%eax)
 4017 0d6a EBCD     		jmp	L103
 4018              	L104:
 100:../../MMI/Resource/ThreadPool.cpp ****     }
 101:../../MMI/Resource/ThreadPool.cpp **** 
 102:../../MMI/Resource/ThreadPool.cpp ****     // walk through the events and threads and close them all
 103:../../MMI/Resource/ThreadPool.cpp ****     for (ThreadList::iterator iter = m_threads.begin(); iter != m_threads.end(); ++iter)
 4020              	LM79:
 4021 0d6c 8B4508   		movl	8(%ebp), %eax
 4022              	LBB17:
 4023 0d6f 83C008   		addl	$8, %eax
 4024 0d72 890424   		movl	%eax, (%esp)
 4025 0d75 E8000000 		call	__ZNSt6vectorIN10ThreadPool10ThreadDataESaIS1_EE5beginEv
 4025      00
 4026 0d7a 8945F0   		movl	%eax, -16(%ebp)
 4027              	L107:
 4028 0d7d 8B4508   		movl	8(%ebp), %eax
 4029 0d80 83C008   		addl	$8, %eax
 4030 0d83 890424   		movl	%eax, (%esp)
 4031 0d86 E8000000 		call	__ZNSt6vectorIN10ThreadPool10ThreadDataESaIS1_EE3endEv
 4031      00
 4032 0d8b 8945EC   		movl	%eax, -20(%ebp)
 4033 0d8e 8D45EC   		leal	-20(%ebp), %eax
 4034 0d91 89442404 		movl	%eax, 4(%esp)
 4035 0d95 8D45F0   		leal	-16(%ebp), %eax
 4036 0d98 890424   		movl	%eax, (%esp)
GAS LISTING d:/MTK/MTK2503/MTK2503/11CW1418SP4_03_CORETEK03AE_11C_V1_GPRS_MMI/plutommi/Customer/ResGenerator/gcctmp/ccQHcaaa.s 			page 36


 4037 0d9b E8000000 		call	__ZN9__gnu_cxxneIPN10ThreadPool10ThreadDataESt6vectorIS2_SaIS2_EEEEbRKNS_17__normal_iteratorI
 4037      00
 4038 0da0 84C0     		testb	%al, %al
 4039 0da2 7505     		jne	L110
 4040 0da4 E91A0100 		jmp	L108
 4040      00
 4041              	L110:
 104:../../MMI/Resource/ThreadPool.cpp ****     {
 105:../../MMI/Resource/ThreadPool.cpp ****         THREADP_LOG_V("Close hWait handle: 0x%x, thread ID = %d", iter->hWait, iter->dwThreadId);
 4043              	LM80:
 4044 0da9 8D45F0   		leal	-16(%ebp), %eax
 4045 0dac 890424   		movl	%eax, (%esp)
 4046 0daf E8000000 		call	__ZNK9__gnu_cxx17__normal_iteratorIPN10ThreadPool10ThreadDataESt6vectorIS2_SaIS2_EEEptEv
 4046      00
 4047 0db4 89C3     		movl	%eax, %ebx
 4048 0db6 8D45F0   		leal	-16(%ebp), %eax
 4049 0db9 890424   		movl	%eax, (%esp)
 4050 0dbc E8000000 		call	__ZNK9__gnu_cxx17__normal_iteratorIPN10ThreadPool10ThreadDataESt6vectorIS2_SaIS2_EEEptEv
 4050      00
 4051 0dc1 89C2     		movl	%eax, %edx
 4052 0dc3 8B4308   		movl	8(%ebx), %eax
 4053 0dc6 89442410 		movl	%eax, 16(%esp)
 4054 0dca 8B02     		movl	(%edx), %eax
 4055 0dcc 8944240C 		movl	%eax, 12(%esp)
 4056 0dd0 C7442408 		movl	$LC13, 8(%esp)
 4056      200C0000 
 4057 0dd8 C7442404 		movl	$LC1, 4(%esp)
 4057      1A000000 
 4058 0de0 C7042401 		movl	$1, (%esp)
 4058      000000
 4059 0de7 E8000000 		call	_reslog_adaptor_log
 4059      00
 106:../../MMI/Resource/ThreadPool.cpp ****         if(CloseHandle(iter->hWait)== 0){
 4061              	LM81:
 4062 0dec 8D45F0   		leal	-16(%ebp), %eax
 4063 0def 890424   		movl	%eax, (%esp)
 4064 0df2 E8000000 		call	__ZNK9__gnu_cxx17__normal_iteratorIPN10ThreadPool10ThreadDataESt6vectorIS2_SaIS2_EEEptEv
 4064      00
 4065 0df7 8B00     		movl	(%eax), %eax
 4066 0df9 890424   		movl	%eax, (%esp)
 4067 0dfc E8000000 		call	_CloseHandle@4
 4067      00
 4068 0e01 83EC04   		subl	$4, %esp
 4069 0e04 85C0     		testl	%eax, %eax
 4070 0e06 7525     		jne	L111
 107:../../MMI/Resource/ThreadPool.cpp ****             THREADP_LOG_E("Cannnot close hWait handle, error = 0x%x", GetLastError());
 4072              	LM82:
 4073 0e08 E8000000 		call	_GetLastError@0
 4073      00
 4074 0e0d 8944240C 		movl	%eax, 12(%esp)
 4075 0e11 C7442408 		movl	$LC14, 8(%esp)
 4075      600C0000 
 4076 0e19 C7442404 		movl	$LC1, 4(%esp)
 4076      1A000000 
 4077 0e21 C7042403 		movl	$3, (%esp)
 4077      000000
 4078 0e28 E8000000 		call	_reslog_adaptor_log
GAS LISTING d:/MTK/MTK2503/MTK2503/11CW1418SP4_03_CORETEK03AE_11C_V1_GPRS_MMI/plutommi/Customer/ResGenerator/gcctmp/ccQHcaaa.s 			page 37


 4078      00
 4079              	L111:
 108:../../MMI/Resource/ThreadPool.cpp ****         }
 109:../../MMI/Resource/ThreadPool.cpp **** 
 110:../../MMI/Resource/ThreadPool.cpp ****         THREADP_LOG_V("Close hThread handle: 0x%x, thread ID = %d", iter->hThread, iter->dwThreadId
 4081              	LM83:
 4082 0e2d 8D45F0   		leal	-16(%ebp), %eax
 4083 0e30 890424   		movl	%eax, (%esp)
 4084 0e33 E8000000 		call	__ZNK9__gnu_cxx17__normal_iteratorIPN10ThreadPool10ThreadDataESt6vectorIS2_SaIS2_EEEptEv
 4084      00
 4085 0e38 89C3     		movl	%eax, %ebx
 4086 0e3a 8D45F0   		leal	-16(%ebp), %eax
 4087 0e3d 890424   		movl	%eax, (%esp)
 4088 0e40 E8000000 		call	__ZNK9__gnu_cxx17__normal_iteratorIPN10ThreadPool10ThreadDataESt6vectorIS2_SaIS2_EEEptEv
 4088      00
 4089 0e45 89C2     		movl	%eax, %edx
 4090 0e47 8B4308   		movl	8(%ebx), %eax
 4091 0e4a 89442410 		movl	%eax, 16(%esp)
 4092 0e4e 8B4204   		movl	4(%edx), %eax
 4093 0e51 8944240C 		movl	%eax, 12(%esp)
 4094 0e55 C7442408 		movl	$LC15, 8(%esp)
 4094      A00C0000 
 4095 0e5d C7442404 		movl	$LC1, 4(%esp)
 4095      1A000000 
 4096 0e65 C7042401 		movl	$1, (%esp)
 4096      000000
 4097 0e6c E8000000 		call	_reslog_adaptor_log
 4097      00
 111:../../MMI/Resource/ThreadPool.cpp ****         if(CloseHandle(iter->hThread)==0){
 4099              	LM84:
 4100 0e71 8D45F0   		leal	-16(%ebp), %eax
 4101 0e74 890424   		movl	%eax, (%esp)
 4102 0e77 E8000000 		call	__ZNK9__gnu_cxx17__normal_iteratorIPN10ThreadPool10ThreadDataESt6vectorIS2_SaIS2_EEEptEv
 4102      00
 4103 0e7c 8B4004   		movl	4(%eax), %eax
 4104 0e7f 890424   		movl	%eax, (%esp)
 4105 0e82 E8000000 		call	_CloseHandle@4
 4105      00
 4106 0e87 83EC04   		subl	$4, %esp
 4107 0e8a 85C0     		testl	%eax, %eax
 4108 0e8c 7525     		jne	L109
 112:../../MMI/Resource/ThreadPool.cpp ****             THREADP_LOG_E("Cannnot close hThread handle, error = 0x%x", GetLastError());
 4110              	LM85:
 4111 0e8e E8000000 		call	_GetLastError@0
 4111      00
 4112 0e93 8944240C 		movl	%eax, 12(%esp)
 4113 0e97 C7442408 		movl	$LC16, 8(%esp)
 4113      E00C0000 
 4114 0e9f C7442404 		movl	$LC1, 4(%esp)
 4114      1A000000 
 4115 0ea7 C7042403 		movl	$3, (%esp)
 4115      000000
 4116 0eae E8000000 		call	_reslog_adaptor_log
 4116      00
 4118              	LM86:
 4119              	L109:
 4120 0eb3 8D45F0   		leal	-16(%ebp), %eax
GAS LISTING d:/MTK/MTK2503/MTK2503/11CW1418SP4_03_CORETEK03AE_11C_V1_GPRS_MMI/plutommi/Customer/ResGenerator/gcctmp/ccQHcaaa.s 			page 38


 4121 0eb6 890424   		movl	%eax, (%esp)
 4122 0eb9 E8000000 		call	__ZN9__gnu_cxx17__normal_iteratorIPN10ThreadPool10ThreadDataESt6vectorIS2_SaIS2_EEEppEv
 4122      00
 4123 0ebe E9BAFEFF 		jmp	L107
 4123      FF
 4124              	L108:
 113:../../MMI/Resource/ThreadPool.cpp ****         }
 114:../../MMI/Resource/ThreadPool.cpp ****     }
 115:../../MMI/Resource/ThreadPool.cpp **** 
 116:../../MMI/Resource/ThreadPool.cpp ****     // close the shutdown event
 117:../../MMI/Resource/ThreadPool.cpp ****     CloseHandle(m_hNotifyShutdown);
 4126              	LM87:
 4127              	LBE17:
 4128 0ec3 8B4508   		movl	8(%ebp), %eax
 4129 0ec6 8B4018   		movl	24(%eax), %eax
 4130 0ec9 890424   		movl	%eax, (%esp)
 4131 0ecc E8000000 		call	_CloseHandle@4
 4131      00
 4132 0ed1 83EC04   		subl	$4, %esp
 118:../../MMI/Resource/ThreadPool.cpp ****     m_hNotifyShutdown = NULL;
 4134              	LM88:
 4135 0ed4 8B4508   		movl	8(%ebp), %eax
 4136 0ed7 C7401800 		movl	$0, 24(%eax)
 4136      000000
 119:../../MMI/Resource/ThreadPool.cpp **** 
 120:../../MMI/Resource/ThreadPool.cpp ****     // free any jobs not released
 121:../../MMI/Resource/ThreadPool.cpp ****     for (JobList::iterator funcIter = m_jobList.begin();
 4138              	LM89:
 4139              	LBB18:
 4140 0ede 8D55D8   		leal	-40(%ebp), %edx
 4141 0ee1 8B4508   		movl	8(%ebp), %eax
 4142 0ee4 83C004   		addl	$4, %eax
 4143 0ee7 89442404 		movl	%eax, 4(%esp)
 4144 0eeb 891424   		movl	%edx, (%esp)
 4145 0eee E8000000 		call	__ZNSt4listIN10ThreadPool7JobDataESaIS1_EE5beginEv
 4145      00
 4146 0ef3 83EC04   		subl	$4, %esp
 4147              	L113:
 4148 0ef6 8D55C8   		leal	-56(%ebp), %edx
 4149 0ef9 8B4508   		movl	8(%ebp), %eax
 4150 0efc 83C004   		addl	$4, %eax
 4151 0eff 89442404 		movl	%eax, 4(%esp)
 4152 0f03 891424   		movl	%edx, (%esp)
 4153 0f06 E8000000 		call	__ZNSt4listIN10ThreadPool7JobDataESaIS1_EE3endEv
 4153      00
 4154 0f0b 83EC04   		subl	$4, %esp
 4155 0f0e 8D45C8   		leal	-56(%ebp), %eax
 4156 0f11 89442404 		movl	%eax, 4(%esp)
 4157 0f15 8D45D8   		leal	-40(%ebp), %eax
 4158 0f18 890424   		movl	%eax, (%esp)
 4159 0f1b E8000000 		call	__ZNKSt19_List_iterator_baseneERKS_
 4159      00
 4160 0f20 84C0     		testb	%al, %al
 4161 0f22 7502     		jne	L116
 4162 0f24 EB7A     		jmp	L114
 4163              	L116:
 122:../../MMI/Resource/ThreadPool.cpp ****         funcIter != m_jobList.end(); funcIter++)
GAS LISTING d:/MTK/MTK2503/MTK2503/11CW1418SP4_03_CORETEK03AE_11C_V1_GPRS_MMI/plutommi/Customer/ResGenerator/gcctmp/ccQHcaaa.s 			page 39


 123:../../MMI/Resource/ThreadPool.cpp ****         if (funcIter->runObject && funcIter->runObject->AutoDelete())
 4165              	LM90:
 4166 0f26 8D45D8   		leal	-40(%ebp), %eax
 4167 0f29 890424   		movl	%eax, (%esp)
 4168 0f2c E8000000 		call	__ZNKSt14_List_iteratorIN10ThreadPool7JobDataERS1_PS1_EptEv
 4168      00
 4169 0f31 83780800 		cmpl	$0, 8(%eax)
 4170 0f35 7447     		je	L115
 4171 0f37 8D45D8   		leal	-40(%ebp), %eax
 4172 0f3a 890424   		movl	%eax, (%esp)
 4173 0f3d E8000000 		call	__ZNKSt14_List_iteratorIN10ThreadPool7JobDataERS1_PS1_EptEv
 4173      00
 4174 0f42 8B4008   		movl	8(%eax), %eax
 4175 0f45 8B10     		movl	(%eax), %edx
 4176 0f47 83C20C   		addl	$12, %edx
 4177 0f4a 890424   		movl	%eax, (%esp)
 4178 0f4d 8B02     		movl	(%edx), %eax
 4179 0f4f FFD0     		call	*%eax
 4180 0f51 84C0     		testb	%al, %al
 4181 0f53 7429     		je	L115
 124:../../MMI/Resource/ThreadPool.cpp ****             delete funcIter->runObject;
 4183              	LM91:
 4184 0f55 8D45D8   		leal	-40(%ebp), %eax
 4185 0f58 890424   		movl	%eax, (%esp)
 4186 0f5b E8000000 		call	__ZNKSt14_List_iteratorIN10ThreadPool7JobDataERS1_PS1_EptEv
 4186      00
 4187 0f60 8B4008   		movl	8(%eax), %eax
 4188 0f63 8945B4   		movl	%eax, -76(%ebp)
 4189 0f66 837DB400 		cmpl	$0, -76(%ebp)
 4190 0f6a 7412     		je	L115
 4191 0f6c 8B55B4   		movl	-76(%ebp), %edx
 4192 0f6f 8B02     		movl	(%edx), %eax
 4193 0f71 83C004   		addl	$4, %eax
 4194 0f74 8B55B4   		movl	-76(%ebp), %edx
 4195 0f77 891424   		movl	%edx, (%esp)
 4196 0f7a 8B00     		movl	(%eax), %eax
 4197 0f7c FFD0     		call	*%eax
 4199              	LM92:
 4200              	L115:
 4201 0f7e 8D55B8   		leal	-72(%ebp), %edx
 4202 0f81 C7442408 		movl	$0, 8(%esp)
 4202      00000000 
 4203 0f89 8D45D8   		leal	-40(%ebp), %eax
 4204 0f8c 89442404 		movl	%eax, 4(%esp)
 4205 0f90 891424   		movl	%edx, (%esp)
 4206 0f93 E8000000 		call	__ZNSt14_List_iteratorIN10ThreadPool7JobDataERS1_PS1_EppEi
 4206      00
 4207 0f98 83EC04   		subl	$4, %esp
 4208 0f9b E956FFFF 		jmp	L113
 4208      FF
 4209              	L114:
 125:../../MMI/Resource/ThreadPool.cpp **** 
 126:../../MMI/Resource/ThreadPool.cpp ****     // empty all collections
 127:../../MMI/Resource/ThreadPool.cpp ****     m_jobList.clear();
 4211              	LM93:
 4212 0fa0 8B4508   		movl	8(%ebp), %eax
 4213              	LBE18:
GAS LISTING d:/MTK/MTK2503/MTK2503/11CW1418SP4_03_CORETEK03AE_11C_V1_GPRS_MMI/plutommi/Customer/ResGenerator/gcctmp/ccQHcaaa.s 			page 40


 4214 0fa3 83C004   		addl	$4, %eax
 4215 0fa6 890424   		movl	%eax, (%esp)
 4216 0fa9 E8000000 		call	__ZNSt4listIN10ThreadPool7JobDataESaIS1_EE5clearEv
 4216      00
 128:../../MMI/Resource/ThreadPool.cpp ****     m_threads.clear();
 4218              	LM94:
 4219 0fae 8B4508   		movl	8(%ebp), %eax
 4220 0fb1 83C008   		addl	$8, %eax
 4221 0fb4 890424   		movl	%eax, (%esp)
 4222 0fb7 E8000000 		call	__ZNSt6vectorIN10ThreadPool10ThreadDataESaIS1_EE5clearEv
 4222      00
 129:../../MMI/Resource/ThreadPool.cpp **** }
 4224              	LM95:
 4225              	L101:
 4226 0fbc 8B5DFC   		movl	-4(%ebp), %ebx
 4227 0fbf C9       		leave
 4228 0fc0 C3       		ret
 4229              	LBE16:
 4239              	Lscope7:
 4241 0fc1 90       		.align 2
 4244              	.globl __ZN10ThreadPool21GetWorkingThreadCountEv
 4246              	__ZN10ThreadPool21GetWorkingThreadCountEv:
 130:../../MMI/Resource/ThreadPool.cpp **** 
 131:../../MMI/Resource/ThreadPool.cpp **** int ThreadPool::GetWorkingThreadCount()
 132:../../MMI/Resource/ThreadPool.cpp **** {
 4248              	LM96:
 4249 0fc2 55       		pushl	%ebp
 4250 0fc3 89E5     		movl	%esp, %ebp
 4251 0fc5 83EC18   		subl	$24, %esp
 133:../../MMI/Resource/ThreadPool.cpp ****     int nCount = 0;
 4253              	LM97:
 4254              	LBB19:
 4255 0fc8 C745FC00 		movl	$0, -4(%ebp)
 4255      000000
 134:../../MMI/Resource/ThreadPool.cpp ****     EnterCriticalSection(&m_cs);
 4257              	LM98:
 4258 0fcf 8B4508   		movl	8(%ebp), %eax
 4259 0fd2 83C01C   		addl	$28, %eax
 4260 0fd5 890424   		movl	%eax, (%esp)
 4261 0fd8 E8000000 		call	_EnterCriticalSection@4
 4261      00
 4262 0fdd 83EC04   		subl	$4, %esp
 135:../../MMI/Resource/ThreadPool.cpp ****     for (ThreadList::iterator iter = m_threads.begin(); iter != m_threads.end(); ++iter)
 4264              	LM99:
 4265 0fe0 8B4508   		movl	8(%ebp), %eax
 4266              	LBB20:
 4267 0fe3 83C008   		addl	$8, %eax
 4268 0fe6 890424   		movl	%eax, (%esp)
 4269 0fe9 E8000000 		call	__ZNSt6vectorIN10ThreadPool10ThreadDataESaIS1_EE5beginEv
 4269      00
 4270 0fee 8945F8   		movl	%eax, -8(%ebp)
 4271              	L121:
 4272 0ff1 8B4508   		movl	8(%ebp), %eax
 4273 0ff4 83C008   		addl	$8, %eax
 4274 0ff7 890424   		movl	%eax, (%esp)
 4275 0ffa E8000000 		call	__ZNSt6vectorIN10ThreadPool10ThreadDataESaIS1_EE3endEv
 4275      00
GAS LISTING d:/MTK/MTK2503/MTK2503/11CW1418SP4_03_CORETEK03AE_11C_V1_GPRS_MMI/plutommi/Customer/ResGenerator/gcctmp/ccQHcaaa.s 			page 41


 4276 0fff 8945F4   		movl	%eax, -12(%ebp)
 4277 1002 8D45F4   		leal	-12(%ebp), %eax
 4278 1005 89442404 		movl	%eax, 4(%esp)
 4279 1009 8D45F8   		leal	-8(%ebp), %eax
 4280 100c 890424   		movl	%eax, (%esp)
 4281 100f E8000000 		call	__ZN9__gnu_cxxneIPN10ThreadPool10ThreadDataESt6vectorIS2_SaIS2_EEEEbRKNS_17__normal_iteratorI
 4281      00
 4282 1014 84C0     		testb	%al, %al
 4283 1016 7502     		jne	L124
 4284 1018 EB36     		jmp	L122
 4285              	L124:
 136:../../MMI/Resource/ThreadPool.cpp ****         if (WaitForSingleObject(iter->hWait, 0) == WAIT_OBJECT_0)
 4287              	LM100:
 4288 101a 8D45F8   		leal	-8(%ebp), %eax
 4289 101d 890424   		movl	%eax, (%esp)
 4290 1020 E8000000 		call	__ZNK9__gnu_cxx17__normal_iteratorIPN10ThreadPool10ThreadDataESt6vectorIS2_SaIS2_EEEptEv
 4290      00
 4291 1025 C7442404 		movl	$0, 4(%esp)
 4291      00000000 
 4292 102d 8B00     		movl	(%eax), %eax
 4293 102f 890424   		movl	%eax, (%esp)
 4294 1032 E8000000 		call	_WaitForSingleObject@8
 4294      00
 4295 1037 83EC08   		subl	$8, %esp
 4296 103a 85C0     		testl	%eax, %eax
 4297 103c 7505     		jne	L123
 137:../../MMI/Resource/ThreadPool.cpp ****             ++nCount;
 4299              	LM101:
 4300 103e 8D45FC   		leal	-4(%ebp), %eax
 4301 1041 FF00     		incl	(%eax)
 4303              	LM102:
 4304              	L123:
 4305 1043 8D45F8   		leal	-8(%ebp), %eax
 4306 1046 890424   		movl	%eax, (%esp)
 4307 1049 E8000000 		call	__ZN9__gnu_cxx17__normal_iteratorIPN10ThreadPool10ThreadDataESt6vectorIS2_SaIS2_EEEppEv
 4307      00
 4308 104e EBA1     		jmp	L121
 4309              	L122:
 138:../../MMI/Resource/ThreadPool.cpp ****     LeaveCriticalSection(&m_cs);
 4311              	LM103:
 4312 1050 8B4508   		movl	8(%ebp), %eax
 4313              	LBE20:
 4314 1053 83C01C   		addl	$28, %eax
 4315 1056 890424   		movl	%eax, (%esp)
 4316 1059 E8000000 		call	_LeaveCriticalSection@4
 4316      00
 4317 105e 83EC04   		subl	$4, %esp
 139:../../MMI/Resource/ThreadPool.cpp ****     return nCount;
 4319              	LM104:
 4320 1061 8B45FC   		movl	-4(%ebp), %eax
 140:../../MMI/Resource/ThreadPool.cpp **** }
 4322              	LM105:
 4323 1064 C9       		leave
 4324 1065 C3       		ret
 4325              	LBE19:
 4332              	Lscope8:
 4334 1066 90909090 		.align 32
GAS LISTING d:/MTK/MTK2503/MTK2503/11CW1418SP4_03_CORETEK03AE_11C_V1_GPRS_MMI/plutommi/Customer/ResGenerator/gcctmp/ccQHcaaa.s 			page 42


 4334      90909090 
 4334      90909090 
 4334      90909090 
 4334      90909090 
 4335              	LC17:
 4336 1080 7046756E 		.ascii "pFunc != NULL || runObject != NULL\0"
 4336      6320213D 
 4336      204E554C 
 4336      4C207C7C 
 4336      2072756E 
 4337 10a3 90       		.align 2
 4344              	.globl __ZN10ThreadPool13AddJobToQueueEPFmPvES0_PNS_10IRunObjectENS_14ThreadPriorityE
 4346              	__ZN10ThreadPool13AddJobToQueueEPFmPvES0_PNS_10IRunObjectENS_14ThreadPriorityE:
 141:../../MMI/Resource/ThreadPool.cpp **** 
 142:../../MMI/Resource/ThreadPool.cpp **** void ThreadPool::AddJobToQueue(
 143:../../MMI/Resource/ThreadPool.cpp ****     LPTHREAD_START_ROUTINE pFunc, LPVOID pData,
 144:../../MMI/Resource/ThreadPool.cpp ****     IRunObject* runObject, ThreadPriority priority)
 145:../../MMI/Resource/ThreadPool.cpp **** {
 4348              	LM106:
 4349 10a4 55       		pushl	%ebp
 4350 10a5 89E5     		movl	%esp, %ebp
 4351 10a7 83EC38   		subl	$56, %esp
 146:../../MMI/Resource/ThreadPool.cpp ****     assert(pFunc != NULL || runObject != NULL);
 4353              	LM107:
 4354              	LBB21:
 4355 10aa 837D0C00 		cmpl	$0, 12(%ebp)
 4356 10ae 7522     		jne	L128
 4357 10b0 837D1400 		cmpl	$0, 20(%ebp)
 4358 10b4 751C     		jne	L128
 4359 10b6 C7442408 		movl	$146, 8(%esp)
 4359      92000000 
 4360 10be C7442404 		movl	$LC6, 4(%esp)
 4360      C0080000 
 4361 10c6 C7042480 		movl	$LC17, (%esp)
 4361      100000
 4362 10cd E8000000 		call	__assert
 4362      00
 4363              	L128:
 147:../../MMI/Resource/ThreadPool.cpp ****     JobData jobData;
 148:../../MMI/Resource/ThreadPool.cpp ****     jobData.lpStartAddress = pFunc;
 4365              	LM108:
 4366 10d2 8B450C   		movl	12(%ebp), %eax
 4367 10d5 8945E8   		movl	%eax, -24(%ebp)
 149:../../MMI/Resource/ThreadPool.cpp ****     jobData.pData = pData;
 4369              	LM109:
 4370 10d8 8B4510   		movl	16(%ebp), %eax
 4371 10db 8945EC   		movl	%eax, -20(%ebp)
 150:../../MMI/Resource/ThreadPool.cpp ****     jobData.runObject = runObject;
 4373              	LM110:
 4374 10de 8B4514   		movl	20(%ebp), %eax
 4375 10e1 8945F0   		movl	%eax, -16(%ebp)
 151:../../MMI/Resource/ThreadPool.cpp **** 
 152:../../MMI/Resource/ThreadPool.cpp ****     // add it to the list
 153:../../MMI/Resource/ThreadPool.cpp ****     EnterCriticalSection(&m_cs);
 4377              	LM111:
 4378 10e4 8B4508   		movl	8(%ebp), %eax
 4379 10e7 83C01C   		addl	$28, %eax
GAS LISTING d:/MTK/MTK2503/MTK2503/11CW1418SP4_03_CORETEK03AE_11C_V1_GPRS_MMI/plutommi/Customer/ResGenerator/gcctmp/ccQHcaaa.s 			page 43


 4380 10ea 890424   		movl	%eax, (%esp)
 4381 10ed E8000000 		call	_EnterCriticalSection@4
 4381      00
 4382 10f2 83EC04   		subl	$4, %esp
 154:../../MMI/Resource/ThreadPool.cpp ****     {
 155:../../MMI/Resource/ThreadPool.cpp ****         if (priority == Low)
 4384              	LM112:
 4385              	LBB22:
 4386 10f5 837D1801 		cmpl	$1, 24(%ebp)
 4387 10f9 7517     		jne	L129
 156:../../MMI/Resource/ThreadPool.cpp ****             m_jobList.push_back(jobData);
 4389              	LM113:
 4390 10fb 8D45E8   		leal	-24(%ebp), %eax
 4391 10fe 89442404 		movl	%eax, 4(%esp)
 4392 1102 8B4508   		movl	8(%ebp), %eax
 4393 1105 83C004   		addl	$4, %eax
 4394 1108 890424   		movl	%eax, (%esp)
 4395 110b E8000000 		call	__ZNSt4listIN10ThreadPool7JobDataESaIS1_EE9push_backERKS1_
 4395      00
 4396 1110 EB15     		jmp	L130
 4397              	L129:
 157:../../MMI/Resource/ThreadPool.cpp ****         else
 158:../../MMI/Resource/ThreadPool.cpp ****             m_jobList.push_front(jobData);
 4399              	LM114:
 4400 1112 8D45E8   		leal	-24(%ebp), %eax
 4401 1115 89442404 		movl	%eax, 4(%esp)
 4402 1119 8B4508   		movl	8(%ebp), %eax
 4403 111c 83C004   		addl	$4, %eax
 4404 111f 890424   		movl	%eax, (%esp)
 4405 1122 E8000000 		call	__ZNSt4listIN10ThreadPool7JobDataESaIS1_EE10push_frontERKS1_
 4405      00
 4406              	L130:
 159:../../MMI/Resource/ThreadPool.cpp **** 
 160:../../MMI/Resource/ThreadPool.cpp ****         // See if any threads are free
 161:../../MMI/Resource/ThreadPool.cpp ****         for (ThreadList::iterator iter = m_threads.begin(); iter != m_threads.end(); ++iter)
 4408              	LM115:
 4409 1127 8B4508   		movl	8(%ebp), %eax
 4410              	LBB23:
 4411 112a 83C008   		addl	$8, %eax
 4412 112d 890424   		movl	%eax, (%esp)
 4413 1130 E8000000 		call	__ZNSt6vectorIN10ThreadPool10ThreadDataESaIS1_EE5beginEv
 4413      00
 4414 1135 8945E4   		movl	%eax, -28(%ebp)
 4415              	L131:
 4416 1138 8B4508   		movl	8(%ebp), %eax
 4417 113b 83C008   		addl	$8, %eax
 4418 113e 890424   		movl	%eax, (%esp)
 4419 1141 E8000000 		call	__ZNSt6vectorIN10ThreadPool10ThreadDataESaIS1_EE3endEv
 4419      00
 4420 1146 8945E0   		movl	%eax, -32(%ebp)
 4421 1149 8D45E0   		leal	-32(%ebp), %eax
 4422 114c 89442404 		movl	%eax, 4(%esp)
 4423 1150 8D45E4   		leal	-28(%ebp), %eax
 4424 1153 890424   		movl	%eax, (%esp)
 4425 1156 E8000000 		call	__ZN9__gnu_cxxneIPN10ThreadPool10ThreadDataESt6vectorIS2_SaIS2_EEEEbRKNS_17__normal_iteratorI
 4425      00
 4426 115b 84C0     		testb	%al, %al
GAS LISTING d:/MTK/MTK2503/MTK2503/11CW1418SP4_03_CORETEK03AE_11C_V1_GPRS_MMI/plutommi/Customer/ResGenerator/gcctmp/ccQHcaaa.s 			page 44


 4427 115d 7502     		jne	L134
 4428 115f EB4E     		jmp	L132
 4429              	L134:
 162:../../MMI/Resource/ThreadPool.cpp ****         {
 163:../../MMI/Resource/ThreadPool.cpp ****             if (WaitForSingleObject(iter->hWait, 0) == WAIT_TIMEOUT)
 4431              	LM116:
 4432 1161 8D45E4   		leal	-28(%ebp), %eax
 4433 1164 890424   		movl	%eax, (%esp)
 4434 1167 E8000000 		call	__ZNK9__gnu_cxx17__normal_iteratorIPN10ThreadPool10ThreadDataESt6vectorIS2_SaIS2_EEEptEv
 4434      00
 4435 116c C7442404 		movl	$0, 4(%esp)
 4435      00000000 
 4436 1174 8B00     		movl	(%eax), %eax
 4437 1176 890424   		movl	%eax, (%esp)
 4438 1179 E8000000 		call	_WaitForSingleObject@8
 4438      00
 4439 117e 83EC08   		subl	$8, %esp
 4440 1181 3D020100 		cmpl	$258, %eax
 4440      00
 4441 1186 751A     		jne	L133
 164:../../MMI/Resource/ThreadPool.cpp ****             {
 165:../../MMI/Resource/ThreadPool.cpp ****                 // here is a free thread, wake it up
 166:../../MMI/Resource/ThreadPool.cpp ****                 SetEvent(iter->hWait);
 4443              	LM117:
 4444 1188 8D45E4   		leal	-28(%ebp), %eax
 4445 118b 890424   		movl	%eax, (%esp)
 4446 118e E8000000 		call	__ZNK9__gnu_cxx17__normal_iteratorIPN10ThreadPool10ThreadDataESt6vectorIS2_SaIS2_EEEptEv
 4446      00
 4447 1193 8B00     		movl	(%eax), %eax
 4448 1195 890424   		movl	%eax, (%esp)
 4449 1198 E8000000 		call	_SetEvent@4
 4449      00
 4450 119d 83EC04   		subl	$4, %esp
 167:../../MMI/Resource/ThreadPool.cpp ****                 break;
 4452              	LM118:
 4453 11a0 EB0D     		jmp	L132
 4455              	LM119:
 4456              	L133:
 4457 11a2 8D45E4   		leal	-28(%ebp), %eax
 4458 11a5 890424   		movl	%eax, (%esp)
 4459 11a8 E8000000 		call	__ZN9__gnu_cxx17__normal_iteratorIPN10ThreadPool10ThreadDataESt6vectorIS2_SaIS2_EEEppEv
 4459      00
 4460 11ad EB89     		jmp	L131
 4461              	L132:
 168:../../MMI/Resource/ThreadPool.cpp ****             }
 169:../../MMI/Resource/ThreadPool.cpp ****         }
 170:../../MMI/Resource/ThreadPool.cpp ****     }
 171:../../MMI/Resource/ThreadPool.cpp ****     LeaveCriticalSection(&m_cs);
 4463              	LM120:
 4464 11af 8B4508   		movl	8(%ebp), %eax
 4465              	LBE23:
 4466              	LBE22:
 4467 11b2 83C01C   		addl	$28, %eax
 4468 11b5 890424   		movl	%eax, (%esp)
 4469 11b8 E8000000 		call	_LeaveCriticalSection@4
 4469      00
 4470 11bd 83EC04   		subl	$4, %esp
GAS LISTING d:/MTK/MTK2503/MTK2503/11CW1418SP4_03_CORETEK03AE_11C_V1_GPRS_MMI/plutommi/Customer/ResGenerator/gcctmp/ccQHcaaa.s 			page 45


 172:../../MMI/Resource/ThreadPool.cpp **** }
 4472              	LM121:
 4473 11c0 C9       		leave
 4474 11c1 C3       		ret
 4475              	LBE21:
 4482              	Lscope9:
 4484              		.align 2
 4488              	.globl __ZN10ThreadPool13GetWaitHandleEm
 4490              	__ZN10ThreadPool13GetWaitHandleEm:
 173:../../MMI/Resource/ThreadPool.cpp **** 
 174:../../MMI/Resource/ThreadPool.cpp **** // Called by the worker thread to get its wake-up event handle
 175:../../MMI/Resource/ThreadPool.cpp **** HANDLE ThreadPool::GetWaitHandle(DWORD dwThreadId)
 176:../../MMI/Resource/ThreadPool.cpp **** {
 4492              	LM122:
 4493 11c2 55       		pushl	%ebp
 4494 11c3 89E5     		movl	%esp, %ebp
 4495 11c5 83EC18   		subl	$24, %esp
 177:../../MMI/Resource/ThreadPool.cpp ****     HANDLE hWait = NULL;
 4497              	LM123:
 4498              	LBB24:
 4499 11c8 C745FC00 		movl	$0, -4(%ebp)
 4499      000000
 178:../../MMI/Resource/ThreadPool.cpp ****     EnterCriticalSection(&m_cs);
 4501              	LM124:
 4502 11cf 8B4508   		movl	8(%ebp), %eax
 4503 11d2 83C01C   		addl	$28, %eax
 4504 11d5 890424   		movl	%eax, (%esp)
 4505 11d8 E8000000 		call	_EnterCriticalSection@4
 4505      00
 4506 11dd 83EC04   		subl	$4, %esp
 179:../../MMI/Resource/ThreadPool.cpp ****     for (ThreadList::iterator iter = m_threads.begin(); !hWait && iter != m_threads.end(); ++iter)
 4508              	LM125:
 4509 11e0 8B4508   		movl	8(%ebp), %eax
 4510              	LBB25:
 4511 11e3 83C008   		addl	$8, %eax
 4512 11e6 890424   		movl	%eax, (%esp)
 4513 11e9 E8000000 		call	__ZNSt6vectorIN10ThreadPool10ThreadDataESaIS1_EE5beginEv
 4513      00
 4514 11ee 8945F8   		movl	%eax, -8(%ebp)
 4515              	L137:
 4516 11f1 837DFC00 		cmpl	$0, -4(%ebp)
 4517 11f5 7559     		jne	L138
 4518 11f7 8B4508   		movl	8(%ebp), %eax
 4519 11fa 83C008   		addl	$8, %eax
 4520 11fd 890424   		movl	%eax, (%esp)
 4521 1200 E8000000 		call	__ZNSt6vectorIN10ThreadPool10ThreadDataESaIS1_EE3endEv
 4521      00
 4522 1205 8945F4   		movl	%eax, -12(%ebp)
 4523 1208 8D45F4   		leal	-12(%ebp), %eax
 4524 120b 89442404 		movl	%eax, 4(%esp)
 4525 120f 8D45F8   		leal	-8(%ebp), %eax
 4526 1212 890424   		movl	%eax, (%esp)
 4527 1215 E8000000 		call	__ZN9__gnu_cxxneIPN10ThreadPool10ThreadDataESt6vectorIS2_SaIS2_EEEEbRKNS_17__normal_iteratorI
 4527      00
 4528 121a 84C0     		testb	%al, %al
 4529 121c 7502     		jne	L140
 4530 121e EB30     		jmp	L138
GAS LISTING d:/MTK/MTK2503/MTK2503/11CW1418SP4_03_CORETEK03AE_11C_V1_GPRS_MMI/plutommi/Customer/ResGenerator/gcctmp/ccQHcaaa.s 			page 46


 4531              	L140:
 180:../../MMI/Resource/ThreadPool.cpp ****         if (iter->dwThreadId == dwThreadId)
 4533              	LM126:
 4534 1220 8D45F8   		leal	-8(%ebp), %eax
 4535 1223 890424   		movl	%eax, (%esp)
 4536 1226 E8000000 		call	__ZNK9__gnu_cxx17__normal_iteratorIPN10ThreadPool10ThreadDataESt6vectorIS2_SaIS2_EEEptEv
 4536      00
 4537 122b 8B4008   		movl	8(%eax), %eax
 4538 122e 3B450C   		cmpl	12(%ebp), %eax
 4539 1231 7510     		jne	L139
 181:../../MMI/Resource/ThreadPool.cpp ****             hWait = iter->hWait;
 4541              	LM127:
 4542 1233 8D45F8   		leal	-8(%ebp), %eax
 4543 1236 890424   		movl	%eax, (%esp)
 4544 1239 E8000000 		call	__ZNK9__gnu_cxx17__normal_iteratorIPN10ThreadPool10ThreadDataESt6vectorIS2_SaIS2_EEEptEv
 4544      00
 4545 123e 8B00     		movl	(%eax), %eax
 4546 1240 8945FC   		movl	%eax, -4(%ebp)
 4548              	LM128:
 4549              	L139:
 4550 1243 8D45F8   		leal	-8(%ebp), %eax
 4551 1246 890424   		movl	%eax, (%esp)
 4552 1249 E8000000 		call	__ZN9__gnu_cxx17__normal_iteratorIPN10ThreadPool10ThreadDataESt6vectorIS2_SaIS2_EEEppEv
 4552      00
 4553 124e EBA1     		jmp	L137
 4554              	L138:
 182:../../MMI/Resource/ThreadPool.cpp ****     LeaveCriticalSection(&m_cs);
 4556              	LM129:
 4557 1250 8B4508   		movl	8(%ebp), %eax
 4558              	LBE25:
 4559 1253 83C01C   		addl	$28, %eax
 4560 1256 890424   		movl	%eax, (%esp)
 4561 1259 E8000000 		call	_LeaveCriticalSection@4
 4561      00
 4562 125e 83EC04   		subl	$4, %esp
 183:../../MMI/Resource/ThreadPool.cpp ****     return hWait;
 4564              	LM130:
 4565 1261 8B45FC   		movl	-4(%ebp), %eax
 184:../../MMI/Resource/ThreadPool.cpp **** }
 4567              	LM131:
 4568 1264 C9       		leave
 4569 1265 C3       		ret
 4570              	LBE24:
 4577              	Lscope10:
 4579              	LC18:
 4580 1266 4E554C4C 		.ascii "NULL != pool\0"
 4580      20213D20 
 4580      706F6F6C 
 4580      00
 4581              	LC19:
 4582 1273 57616974 		.ascii "Wait failed\0"
 4582      20666169 
 4582      6C656400 
 4583 127f 90       		.align 2
 4586              	.globl __ZN10ThreadPool10ThreadProcEPv@4
 4588              	__ZN10ThreadPool10ThreadProcEPv@4:
 185:../../MMI/Resource/ThreadPool.cpp **** 
GAS LISTING d:/MTK/MTK2503/MTK2503/11CW1418SP4_03_CORETEK03AE_11C_V1_GPRS_MMI/plutommi/Customer/ResGenerator/gcctmp/ccQHcaaa.s 			page 47


 186:../../MMI/Resource/ThreadPool.cpp **** // static method:
 187:../../MMI/Resource/ThreadPool.cpp **** // This is the worker thread function which will run
 188:../../MMI/Resource/ThreadPool.cpp **** // continuously till the Thread Pool is deleted.
 189:../../MMI/Resource/ThreadPool.cpp **** UINT __stdcall ThreadPool::ThreadProc(LPVOID pParam)
 190:../../MMI/Resource/ThreadPool.cpp **** {
 4590              	LM132:
 4591 1280 55       		pushl	%ebp
 4592 1281 89E5     		movl	%esp, %ebp
 4593 1283 56       		pushl	%esi
 4594 1284 53       		pushl	%ebx
 4595 1285 83EC70   		subl	$112, %esp
 191:../../MMI/Resource/ThreadPool.cpp ****     ThreadPool* pool = static_cast<ThreadPool*>(pParam);
 4597              	LM133:
 4598              	LBB26:
 4599 1288 8B4508   		movl	8(%ebp), %eax
 4600 128b 8945F4   		movl	%eax, -12(%ebp)
 192:../../MMI/Resource/ThreadPool.cpp ****     assert(NULL != pool);
 4602              	LM134:
 4603 128e 837DF400 		cmpl	$0, -12(%ebp)
 4604 1292 751C     		jne	L145
 4605 1294 C7442408 		movl	$192, 8(%esp)
 4605      C0000000 
 4606 129c C7442404 		movl	$LC6, 4(%esp)
 4606      C0080000 
 4607 12a4 C7042466 		movl	$LC18, (%esp)
 4607      120000
 4608 12ab E8000000 		call	__assert
 4608      00
 4609              	L145:
 193:../../MMI/Resource/ThreadPool.cpp ****     if (pool == NULL)
 4611              	LM135:
 4612 12b0 837DF400 		cmpl	$0, -12(%ebp)
 4613 12b4 750C     		jne	L146
 194:../../MMI/Resource/ThreadPool.cpp ****         return 1;
 4615              	LM136:
 4616 12b6 C745A401 		movl	$1, -92(%ebp)
 4616      000000
 4617 12bd E9080200 		jmp	L143
 4617      00
 4618              	L146:
 195:../../MMI/Resource/ThreadPool.cpp **** 
 196:../../MMI/Resource/ThreadPool.cpp ****     DWORD dwThreadId = GetCurrentThreadId();
 4620              	LM137:
 4621 12c2 E8000000 		call	_GetCurrentThreadId@0
 4621      00
 4622 12c7 8945F0   		movl	%eax, -16(%ebp)
 197:../../MMI/Resource/ThreadPool.cpp ****     HANDLE hWaits[2] = { pool->GetWaitHandle(dwThreadId), pool->m_hNotifyShutdown };
 4624              	LM138:
 4625 12ca 8B45F0   		movl	-16(%ebp), %eax
 4626 12cd 89442404 		movl	%eax, 4(%esp)
 4627 12d1 8B45F4   		movl	-12(%ebp), %eax
 4628 12d4 890424   		movl	%eax, (%esp)
 4629 12d7 E8E6FEFF 		call	__ZN10ThreadPool13GetWaitHandleEm
 4629      FF
 4630 12dc 89C3     		movl	%eax, %ebx
 4631 12de 8B45F4   		movl	-12(%ebp), %eax
 4632 12e1 8B7018   		movl	24(%eax), %esi
GAS LISTING d:/MTK/MTK2503/MTK2503/11CW1418SP4_03_CORETEK03AE_11C_V1_GPRS_MMI/plutommi/Customer/ResGenerator/gcctmp/ccQHcaaa.s 			page 48


 4633 12e4 895DE8   		movl	%ebx, -24(%ebp)
 4634 12e7 8975EC   		movl	%esi, -20(%ebp)
 198:../../MMI/Resource/ThreadPool.cpp ****     bool bContinue = true;
 4636              	LM139:
 4637 12ea C645E701 		movb	$1, -25(%ebp)
 199:../../MMI/Resource/ThreadPool.cpp ****     while (bContinue)
 4639              	LM140:
 4640              	L147:
 4641 12ee 807DE700 		cmpb	$0, -25(%ebp)
 4642 12f2 7505     		jne	L149
 4643 12f4 E9BC0100 		jmp	L148
 4643      00
 4644              	L149:
 200:../../MMI/Resource/ThreadPool.cpp ****     {
 201:../../MMI/Resource/ThreadPool.cpp ****         DWORD waitResult = WaitForMultipleObjects(2, hWaits, FALSE, INFINITE);
 4646              	LM141:
 4647              	LBB27:
 4648              	LBB28:
 4649 12f9 C744240C 		movl	$-1, 12(%esp)
 4649      FFFFFFFF 
 4650 1301 C7442408 		movl	$0, 8(%esp)
 4650      00000000 
 4651 1309 8D45E8   		leal	-24(%ebp), %eax
 4652 130c 89442404 		movl	%eax, 4(%esp)
 4653 1310 C7042402 		movl	$2, (%esp)
 4653      000000
 4654 1317 E8000000 		call	_WaitForMultipleObjects@16
 4654      00
 4655 131c 83EC10   		subl	$16, %esp
 4656 131f 8945E0   		movl	%eax, -32(%ebp)
 202:../../MMI/Resource/ThreadPool.cpp ****         if (waitResult == WAIT_FAILED)
 4658              	LM142:
 4659 1322 837DE0FF 		cmpl	$-1, -32(%ebp)
 4660 1326 752A     		jne	L150
 203:../../MMI/Resource/ThreadPool.cpp ****             throw "Wait failed";
 4662              	LM143:
 4663 1328 C7042404 		movl	$4, (%esp)
 4663      000000
 4664 132f E8000000 		call	___cxa_allocate_exception
 4664      00
 4665 1334 C7007312 		movl	$LC19, (%eax)
 4665      0000
 4666              	L151:
 4667 133a C7442408 		movl	$0, 8(%esp)
 4667      00000000 
 4668 1342 C7442404 		movl	$__ZTIPKc, 4(%esp)
 4668      00000000 
 4669 134a 890424   		movl	%eax, (%esp)
 4670 134d E8000000 		call	___cxa_throw
 4670      00
 4671              	L150:
 204:../../MMI/Resource/ThreadPool.cpp ****         if (waitResult == WAIT_OBJECT_0 || waitResult == WAIT_OBJECT_0 + 1)
 4673              	LM144:
 4674              	LBB29:
 4675 1352 837DE000 		cmpl	$0, -32(%ebp)
 4676 1356 7408     		je	L154
 4677 1358 837DE001 		cmpl	$1, -32(%ebp)
GAS LISTING d:/MTK/MTK2503/MTK2503/11CW1418SP4_03_CORETEK03AE_11C_V1_GPRS_MMI/plutommi/Customer/ResGenerator/gcctmp/ccQHcaaa.s 			page 49


 4678 135c 7402     		je	L154
 4679 135e EB8E     		jmp	L147
 4680              	L154:
 205:../../MMI/Resource/ThreadPool.cpp ****         {
 206:../../MMI/Resource/ThreadPool.cpp ****             // Shutting down?
 207:../../MMI/Resource/ThreadPool.cpp ****             if (pool->CheckThreadStop())
 4682              	LM145:
 4683              	LBB30:
 4684 1360 8B45F4   		movl	-12(%ebp), %eax
 4685 1363 890424   		movl	%eax, (%esp)
 4686 1366 E8000000 		call	__ZN10ThreadPool15CheckThreadStopEv
 4686      00
 4687 136b 84C0     		testb	%al, %al
 4688 136d 7405     		je	L155
 208:../../MMI/Resource/ThreadPool.cpp ****                 break;
 4690              	LM146:
 4691 136f E9410100 		jmp	L148
 4691      00
 4692              	L155:
 209:../../MMI/Resource/ThreadPool.cpp **** 
 210:../../MMI/Resource/ThreadPool.cpp ****             // We have been woken up.  Get the next available job
 211:../../MMI/Resource/ThreadPool.cpp ****             EnterCriticalSection(&pool->m_cs);
 4694              	LM147:
 4695 1374 8B45F4   		movl	-12(%ebp), %eax
 4696 1377 83C01C   		addl	$28, %eax
 4697 137a 890424   		movl	%eax, (%esp)
 4698 137d E8000000 		call	_EnterCriticalSection@4
 4698      00
 4699 1382 83EC04   		subl	$4, %esp
 212:../../MMI/Resource/ThreadPool.cpp ****             JobList::iterator iter = pool->m_jobList.begin();
 4701              	LM148:
 4702 1385 8D55C8   		leal	-56(%ebp), %edx
 4703 1388 8B45F4   		movl	-12(%ebp), %eax
 4704 138b 83C004   		addl	$4, %eax
 4705 138e 89442404 		movl	%eax, 4(%esp)
 4706 1392 891424   		movl	%edx, (%esp)
 4707 1395 E8000000 		call	__ZNSt4listIN10ThreadPool7JobDataESaIS1_EE5beginEv
 4707      00
 4708 139a 83EC04   		subl	$4, %esp
 213:../../MMI/Resource/ThreadPool.cpp ****             if (iter == pool->m_jobList.end())
 4710              	LM149:
 4711              	LBB31:
 4712 139d 8D55B8   		leal	-72(%ebp), %edx
 4713 13a0 8B45F4   		movl	-12(%ebp), %eax
 4714 13a3 83C004   		addl	$4, %eax
 4715 13a6 89442404 		movl	%eax, 4(%esp)
 4716 13aa 891424   		movl	%edx, (%esp)
 4717 13ad E8000000 		call	__ZNSt4listIN10ThreadPool7JobDataESaIS1_EE3endEv
 4717      00
 4718 13b2 83EC04   		subl	$4, %esp
 4719 13b5 8D45B8   		leal	-72(%ebp), %eax
 4720 13b8 89442404 		movl	%eax, 4(%esp)
 4721 13bc 8D45C8   		leal	-56(%ebp), %eax
 4722 13bf 890424   		movl	%eax, (%esp)
 4723 13c2 E8000000 		call	__ZNKSt19_List_iterator_baseeqERKS_
 4723      00
 4724 13c7 84C0     		testb	%al, %al
GAS LISTING d:/MTK/MTK2503/MTK2503/11CW1418SP4_03_CORETEK03AE_11C_V1_GPRS_MMI/plutommi/Customer/ResGenerator/gcctmp/ccQHcaaa.s 			page 50


 4725 13c9 7424     		je	L156
 214:../../MMI/Resource/ThreadPool.cpp ****             {
 215:../../MMI/Resource/ThreadPool.cpp ****                 // No job available, go back to sleep
 216:../../MMI/Resource/ThreadPool.cpp ****                 ResetEvent(hWaits[0]);
 4727              	LM150:
 4728 13cb 8B45E8   		movl	-24(%ebp), %eax
 4729 13ce 890424   		movl	%eax, (%esp)
 4730 13d1 E8000000 		call	_ResetEvent@4
 4730      00
 4731 13d6 83EC04   		subl	$4, %esp
 217:../../MMI/Resource/ThreadPool.cpp ****                 LeaveCriticalSection(&pool->m_cs);
 4733              	LM151:
 4734 13d9 8B45F4   		movl	-12(%ebp), %eax
 4735 13dc 83C01C   		addl	$28, %eax
 4736 13df 890424   		movl	%eax, (%esp)
 4737 13e2 E8000000 		call	_LeaveCriticalSection@4
 4737      00
 4738 13e7 83EC04   		subl	$4, %esp
 218:../../MMI/Resource/ThreadPool.cpp ****                 continue;
 4740              	LM152:
 4741 13ea E9FFFEFF 		jmp	L147
 4741      FF
 4742              	L156:
 219:../../MMI/Resource/ThreadPool.cpp ****             }
 220:../../MMI/Resource/ThreadPool.cpp ****             else
 221:../../MMI/Resource/ThreadPool.cpp ****             {
 222:../../MMI/Resource/ThreadPool.cpp ****                 // Get the job and remove it from the queue
 223:../../MMI/Resource/ThreadPool.cpp ****                 LPTHREAD_START_ROUTINE proc = iter->lpStartAddress;
 4744              	LM153:
 4745              	LBB32:
 4746 13ef 8D45C8   		leal	-56(%ebp), %eax
 4747 13f2 890424   		movl	%eax, (%esp)
 4748 13f5 E8000000 		call	__ZNKSt14_List_iteratorIN10ThreadPool7JobDataERS1_PS1_EptEv
 4748      00
 4749 13fa 8B00     		movl	(%eax), %eax
 4750 13fc 8945B4   		movl	%eax, -76(%ebp)
 224:../../MMI/Resource/ThreadPool.cpp ****                 LPVOID data = iter->pData;
 4752              	LM154:
 4753 13ff 8D45C8   		leal	-56(%ebp), %eax
 4754 1402 890424   		movl	%eax, (%esp)
 4755 1405 E8000000 		call	__ZNKSt14_List_iteratorIN10ThreadPool7JobDataERS1_PS1_EptEv
 4755      00
 4756 140a 8B4004   		movl	4(%eax), %eax
 4757 140d 8945B0   		movl	%eax, -80(%ebp)
 225:../../MMI/Resource/ThreadPool.cpp ****                 IRunObject* runObject = iter->runObject;
 4759              	LM155:
 4760 1410 8D45C8   		leal	-56(%ebp), %eax
 4761 1413 890424   		movl	%eax, (%esp)
 4762 1416 E8000000 		call	__ZNKSt14_List_iteratorIN10ThreadPool7JobDataERS1_PS1_EptEv
 4762      00
 4763 141b 8B4008   		movl	8(%eax), %eax
 4764 141e 8945AC   		movl	%eax, -84(%ebp)
 226:../../MMI/Resource/ThreadPool.cpp ****                 pool->m_jobList.pop_front();
 4766              	LM156:
 4767 1421 8B45F4   		movl	-12(%ebp), %eax
 4768 1424 83C004   		addl	$4, %eax
 4769 1427 890424   		movl	%eax, (%esp)
GAS LISTING d:/MTK/MTK2503/MTK2503/11CW1418SP4_03_CORETEK03AE_11C_V1_GPRS_MMI/plutommi/Customer/ResGenerator/gcctmp/ccQHcaaa.s 			page 51


 4770 142a E8000000 		call	__ZNSt4listIN10ThreadPool7JobDataESaIS1_EE9pop_frontEv
 4770      00
 227:../../MMI/Resource/ThreadPool.cpp ****                 LeaveCriticalSection(&pool->m_cs);
 4772              	LM157:
 4773 142f 8B45F4   		movl	-12(%ebp), %eax
 4774 1432 83C01C   		addl	$28, %eax
 4775 1435 890424   		movl	%eax, (%esp)
 4776 1438 E8000000 		call	_LeaveCriticalSection@4
 4776      00
 4777 143d 83EC04   		subl	$4, %esp
 228:../../MMI/Resource/ThreadPool.cpp **** 
 229:../../MMI/Resource/ThreadPool.cpp ****                 // Run the job
 230:../../MMI/Resource/ThreadPool.cpp ****                 if (proc)
 4779              	LM158:
 4780              	LBB33:
 4781 1440 837DB400 		cmpl	$0, -76(%ebp)
 4782 1444 7413     		je	L158
 231:../../MMI/Resource/ThreadPool.cpp ****                     proc(data);
 4784              	LM159:
 4785 1446 8B45B0   		movl	-80(%ebp), %eax
 4786 1449 890424   		movl	%eax, (%esp)
 4787 144c 8B45B4   		movl	-76(%ebp), %eax
 4788 144f FFD0     		call	*%eax
 4789 1451 83EC04   		subl	$4, %esp
 4790 1454 E995FEFF 		jmp	L147
 4790      FF
 4791              	L158:
 232:../../MMI/Resource/ThreadPool.cpp ****                 else if (runObject)
 4793              	LM160:
 4794              	LBB34:
 4795              	LBB35:
 4796 1459 837DAC00 		cmpl	$0, -84(%ebp)
 4797 145d 0F848BFE 		je	L147
 4797      FFFF
 233:../../MMI/Resource/ThreadPool.cpp ****                 {
 234:../../MMI/Resource/ThreadPool.cpp ****                     bool autoDelete = runObject->AutoDelete();
 4799              	LM161:
 4800              	LBB36:
 4801 1463 8B45AC   		movl	-84(%ebp), %eax
 4802 1466 8B10     		movl	(%eax), %edx
 4803 1468 83C20C   		addl	$12, %edx
 4804 146b 8B45AC   		movl	-84(%ebp), %eax
 4805 146e 890424   		movl	%eax, (%esp)
 4806 1471 8B02     		movl	(%edx), %eax
 4807 1473 FFD0     		call	*%eax
 4808 1475 8845AB   		movb	%al, -85(%ebp)
 235:../../MMI/Resource/ThreadPool.cpp ****                     runObject->Run(); // may execute "delete this"
 4810              	LM162:
 4811 1478 8B45AC   		movl	-84(%ebp), %eax
 4812 147b 8B10     		movl	(%eax), %edx
 4813 147d 83C208   		addl	$8, %edx
 4814 1480 8B45AC   		movl	-84(%ebp), %eax
 4815 1483 890424   		movl	%eax, (%esp)
 4816 1486 8B02     		movl	(%edx), %eax
 4817 1488 FFD0     		call	*%eax
 236:../../MMI/Resource/ThreadPool.cpp ****                     if (autoDelete)
 4819              	LM163:
GAS LISTING d:/MTK/MTK2503/MTK2503/11CW1418SP4_03_CORETEK03AE_11C_V1_GPRS_MMI/plutommi/Customer/ResGenerator/gcctmp/ccQHcaaa.s 			page 52


 4820 148a 807DAB00 		cmpb	$0, -85(%ebp)
 4821 148e 0F845AFE 		je	L147
 4821      FFFF
 237:../../MMI/Resource/ThreadPool.cpp ****                         delete runObject;
 4823              	LM164:
 4824 1494 837DAC00 		cmpl	$0, -84(%ebp)
 4825 1498 0F8450FE 		je	L147
 4825      FFFF
 4826 149e 8B45AC   		movl	-84(%ebp), %eax
 4827 14a1 8B10     		movl	(%eax), %edx
 4828 14a3 83C204   		addl	$4, %edx
 4829 14a6 8B45AC   		movl	-84(%ebp), %eax
 4830 14a9 890424   		movl	%eax, (%esp)
 4831 14ac 8B02     		movl	(%edx), %eax
 4832 14ae FFD0     		call	*%eax
 4833 14b0 E939FEFF 		jmp	L147
 4833      FF
 4834              	L148:
 238:../../MMI/Resource/ThreadPool.cpp ****                 }
 239:../../MMI/Resource/ThreadPool.cpp ****             }
 240:../../MMI/Resource/ThreadPool.cpp ****         }
 241:../../MMI/Resource/ThreadPool.cpp ****     }
 242:../../MMI/Resource/ThreadPool.cpp ****     // Thread is shutting down
 243:../../MMI/Resource/ThreadPool.cpp ****     ResetEvent(hWaits[0]);
 4836              	LM165:
 4837              	LBE36:
 4838              	LBE35:
 4839              	LBE34:
 4840              	LBE33:
 4841              	LBE32:
 4842              	LBE31:
 4843              	LBE30:
 4844              	LBE29:
 4845              	LBE28:
 4846              	LBE27:
 4847 14b5 8B45E8   		movl	-24(%ebp), %eax
 4848 14b8 890424   		movl	%eax, (%esp)
 4849 14bb E8000000 		call	_ResetEvent@4
 4849      00
 4850 14c0 83EC04   		subl	$4, %esp
 244:../../MMI/Resource/ThreadPool.cpp ****     return 0;
 4852              	LM166:
 4853 14c3 C745A400 		movl	$0, -92(%ebp)
 4853      000000
 245:../../MMI/Resource/ThreadPool.cpp **** }
 4855              	LM167:
 4856              	L143:
 4857              	LBE26:
 4858 14ca 8B45A4   		movl	-92(%ebp), %eax
 4859 14cd 8D65F8   		leal	-8(%ebp), %esp
 4860 14d0 5B       		popl	%ebx
 4861 14d1 5E       		popl	%esi
 4862 14d2 5D       		popl	%ebp
 4863 14d3 C20400   		ret	$4
 4884              	Lscope11:
 4886              		.section	.text$_ZNSaIN10ThreadPool7JobDataEEC1Ev,"x"
 4887              		.linkonce discard
GAS LISTING d:/MTK/MTK2503/MTK2503/11CW1418SP4_03_CORETEK03AE_11C_V1_GPRS_MMI/plutommi/Customer/ResGenerator/gcctmp/ccQHcaaa.s 			page 53


 4888              		.align 2
 4891              	.globl __ZNSaIN10ThreadPool7JobDataEEC1Ev
 4893              	__ZNSaIN10ThreadPool7JobDataEEC1Ev:
 4895              	Ltext3:
   1:d:/MTK/MTK2503/MTK2503/11CW1418SP4_03_CORETEK03AE_11C_V1_GPRS_MMI/Tools/MinGW/include/c++/3.3.1/bits/stl_alloc.h **** // Allocators -*- C++ -*-
   2:d:/MTK/MTK2503/MTK2503/11CW1418SP4_03_CORETEK03AE_11C_V1_GPRS_MMI/Tools/MinGW/include/c++/3.3.1/bits/stl_alloc.h **** 
   3:d:/MTK/MTK2503/MTK2503/11CW1418SP4_03_CORETEK03AE_11C_V1_GPRS_MMI/Tools/MinGW/include/c++/3.3.1/bits/stl_alloc.h **** // Copyright (C) 2001, 2002, 2003 Free Software Foundation, Inc.
   4:d:/MTK/MTK2503/MTK2503/11CW1418SP4_03_CORETEK03AE_11C_V1_GPRS_MMI/Tools/MinGW/include/c++/3.3.1/bits/stl_alloc.h **** //
   5:d:/MTK/MTK2503/MTK2503/11CW1418SP4_03_CORETEK03AE_11C_V1_GPRS_MMI/Tools/MinGW/include/c++/3.3.1/bits/stl_alloc.h **** // This file is part of the GNU ISO C++ Library.  This library is free
   6:d:/MTK/MTK2503/MTK2503/11CW1418SP4_03_CORETEK03AE_11C_V1_GPRS_MMI/Tools/MinGW/include/c++/3.3.1/bits/stl_alloc.h **** // software; you can redistribute it and/or modify it under the
   7:d:/MTK/MTK2503/MTK2503/11CW1418SP4_03_CORETEK03AE_11C_V1_GPRS_MMI/Tools/MinGW/include/c++/3.3.1/bits/stl_alloc.h **** // terms of the GNU General Public License as published by the
   8:d:/MTK/MTK2503/MTK2503/11CW1418SP4_03_CORETEK03AE_11C_V1_GPRS_MMI/Tools/MinGW/include/c++/3.3.1/bits/stl_alloc.h **** // Free Software Foundation; either version 2, or (at your option)
   9:d:/MTK/MTK2503/MTK2503/11CW1418SP4_03_CORETEK03AE_11C_V1_GPRS_MMI/Tools/MinGW/include/c++/3.3.1/bits/stl_alloc.h **** // any later version.
  10:d:/MTK/MTK2503/MTK2503/11CW1418SP4_03_CORETEK03AE_11C_V1_GPRS_MMI/Tools/MinGW/include/c++/3.3.1/bits/stl_alloc.h **** 
  11:d:/MTK/MTK2503/MTK2503/11CW1418SP4_03_CORETEK03AE_11C_V1_GPRS_MMI/Tools/MinGW/include/c++/3.3.1/bits/stl_alloc.h **** // This library is distributed in the hope that it will be useful,
  12:d:/MTK/MTK2503/MTK2503/11CW1418SP4_03_CORETEK03AE_11C_V1_GPRS_MMI/Tools/MinGW/include/c++/3.3.1/bits/stl_alloc.h **** // but WITHOUT ANY WARRANTY; without even the implied warranty of
  13:d:/MTK/MTK2503/MTK2503/11CW1418SP4_03_CORETEK03AE_11C_V1_GPRS_MMI/Tools/MinGW/include/c++/3.3.1/bits/stl_alloc.h **** // MERCHANTABILITY or FITNESS FOR A PARTICULAR PURPOSE.  See the
  14:d:/MTK/MTK2503/MTK2503/11CW1418SP4_03_CORETEK03AE_11C_V1_GPRS_MMI/Tools/MinGW/include/c++/3.3.1/bits/stl_alloc.h **** // GNU General Public License for more details.
  15:d:/MTK/MTK2503/MTK2503/11CW1418SP4_03_CORETEK03AE_11C_V1_GPRS_MMI/Tools/MinGW/include/c++/3.3.1/bits/stl_alloc.h **** 
  16:d:/MTK/MTK2503/MTK2503/11CW1418SP4_03_CORETEK03AE_11C_V1_GPRS_MMI/Tools/MinGW/include/c++/3.3.1/bits/stl_alloc.h **** // You should have received a copy of the GNU General Public License along
  17:d:/MTK/MTK2503/MTK2503/11CW1418SP4_03_CORETEK03AE_11C_V1_GPRS_MMI/Tools/MinGW/include/c++/3.3.1/bits/stl_alloc.h **** // with this library; see the file COPYING.  If not, write to the Free
  18:d:/MTK/MTK2503/MTK2503/11CW1418SP4_03_CORETEK03AE_11C_V1_GPRS_MMI/Tools/MinGW/include/c++/3.3.1/bits/stl_alloc.h **** // Software Foundation, 59 Temple Place - Suite 330, Boston, MA 02111-1307,
  19:d:/MTK/MTK2503/MTK2503/11CW1418SP4_03_CORETEK03AE_11C_V1_GPRS_MMI/Tools/MinGW/include/c++/3.3.1/bits/stl_alloc.h **** // USA.
  20:d:/MTK/MTK2503/MTK2503/11CW1418SP4_03_CORETEK03AE_11C_V1_GPRS_MMI/Tools/MinGW/include/c++/3.3.1/bits/stl_alloc.h **** 
  21:d:/MTK/MTK2503/MTK2503/11CW1418SP4_03_CORETEK03AE_11C_V1_GPRS_MMI/Tools/MinGW/include/c++/3.3.1/bits/stl_alloc.h **** // As a special exception, you may use this file as part of a free software
  22:d:/MTK/MTK2503/MTK2503/11CW1418SP4_03_CORETEK03AE_11C_V1_GPRS_MMI/Tools/MinGW/include/c++/3.3.1/bits/stl_alloc.h **** // library without restriction.  Specifically, if other files instantiate
  23:d:/MTK/MTK2503/MTK2503/11CW1418SP4_03_CORETEK03AE_11C_V1_GPRS_MMI/Tools/MinGW/include/c++/3.3.1/bits/stl_alloc.h **** // templates or use macros or inline functions from this file, or you compile
  24:d:/MTK/MTK2503/MTK2503/11CW1418SP4_03_CORETEK03AE_11C_V1_GPRS_MMI/Tools/MinGW/include/c++/3.3.1/bits/stl_alloc.h **** // this file and link it with other files to produce an executable, this
  25:d:/MTK/MTK2503/MTK2503/11CW1418SP4_03_CORETEK03AE_11C_V1_GPRS_MMI/Tools/MinGW/include/c++/3.3.1/bits/stl_alloc.h **** // file does not by itself cause the resulting executable to be covered by
  26:d:/MTK/MTK2503/MTK2503/11CW1418SP4_03_CORETEK03AE_11C_V1_GPRS_MMI/Tools/MinGW/include/c++/3.3.1/bits/stl_alloc.h **** // the GNU General Public License.  This exception does not however
  27:d:/MTK/MTK2503/MTK2503/11CW1418SP4_03_CORETEK03AE_11C_V1_GPRS_MMI/Tools/MinGW/include/c++/3.3.1/bits/stl_alloc.h **** // invalidate any other reasons why the executable file might be covered by
  28:d:/MTK/MTK2503/MTK2503/11CW1418SP4_03_CORETEK03AE_11C_V1_GPRS_MMI/Tools/MinGW/include/c++/3.3.1/bits/stl_alloc.h **** // the GNU General Public License.
  29:d:/MTK/MTK2503/MTK2503/11CW1418SP4_03_CORETEK03AE_11C_V1_GPRS_MMI/Tools/MinGW/include/c++/3.3.1/bits/stl_alloc.h **** 
  30:d:/MTK/MTK2503/MTK2503/11CW1418SP4_03_CORETEK03AE_11C_V1_GPRS_MMI/Tools/MinGW/include/c++/3.3.1/bits/stl_alloc.h **** /*
  31:d:/MTK/MTK2503/MTK2503/11CW1418SP4_03_CORETEK03AE_11C_V1_GPRS_MMI/Tools/MinGW/include/c++/3.3.1/bits/stl_alloc.h ****  * Copyright (c) 1996-1997
  32:d:/MTK/MTK2503/MTK2503/11CW1418SP4_03_CORETEK03AE_11C_V1_GPRS_MMI/Tools/MinGW/include/c++/3.3.1/bits/stl_alloc.h ****  * Silicon Graphics Computer Systems, Inc.
  33:d:/MTK/MTK2503/MTK2503/11CW1418SP4_03_CORETEK03AE_11C_V1_GPRS_MMI/Tools/MinGW/include/c++/3.3.1/bits/stl_alloc.h ****  *
  34:d:/MTK/MTK2503/MTK2503/11CW1418SP4_03_CORETEK03AE_11C_V1_GPRS_MMI/Tools/MinGW/include/c++/3.3.1/bits/stl_alloc.h ****  * Permission to use, copy, modify, distribute and sell this software
  35:d:/MTK/MTK2503/MTK2503/11CW1418SP4_03_CORETEK03AE_11C_V1_GPRS_MMI/Tools/MinGW/include/c++/3.3.1/bits/stl_alloc.h ****  * and its documentation for any purpose is hereby granted without fee,
  36:d:/MTK/MTK2503/MTK2503/11CW1418SP4_03_CORETEK03AE_11C_V1_GPRS_MMI/Tools/MinGW/include/c++/3.3.1/bits/stl_alloc.h ****  * provided that the above copyright notice appear in all copies and
  37:d:/MTK/MTK2503/MTK2503/11CW1418SP4_03_CORETEK03AE_11C_V1_GPRS_MMI/Tools/MinGW/include/c++/3.3.1/bits/stl_alloc.h ****  * that both that copyright notice and this permission notice appear
  38:d:/MTK/MTK2503/MTK2503/11CW1418SP4_03_CORETEK03AE_11C_V1_GPRS_MMI/Tools/MinGW/include/c++/3.3.1/bits/stl_alloc.h ****  * in supporting documentation.  Silicon Graphics makes no
  39:d:/MTK/MTK2503/MTK2503/11CW1418SP4_03_CORETEK03AE_11C_V1_GPRS_MMI/Tools/MinGW/include/c++/3.3.1/bits/stl_alloc.h ****  * representations about the suitability of this software for any
  40:d:/MTK/MTK2503/MTK2503/11CW1418SP4_03_CORETEK03AE_11C_V1_GPRS_MMI/Tools/MinGW/include/c++/3.3.1/bits/stl_alloc.h ****  * purpose.  It is provided "as is" without express or implied warranty.
  41:d:/MTK/MTK2503/MTK2503/11CW1418SP4_03_CORETEK03AE_11C_V1_GPRS_MMI/Tools/MinGW/include/c++/3.3.1/bits/stl_alloc.h ****  */
  42:d:/MTK/MTK2503/MTK2503/11CW1418SP4_03_CORETEK03AE_11C_V1_GPRS_MMI/Tools/MinGW/include/c++/3.3.1/bits/stl_alloc.h **** 
  43:d:/MTK/MTK2503/MTK2503/11CW1418SP4_03_CORETEK03AE_11C_V1_GPRS_MMI/Tools/MinGW/include/c++/3.3.1/bits/stl_alloc.h **** /** @file stl_alloc.h
  44:d:/MTK/MTK2503/MTK2503/11CW1418SP4_03_CORETEK03AE_11C_V1_GPRS_MMI/Tools/MinGW/include/c++/3.3.1/bits/stl_alloc.h ****  *  This is an internal header file, included by other library headers.
  45:d:/MTK/MTK2503/MTK2503/11CW1418SP4_03_CORETEK03AE_11C_V1_GPRS_MMI/Tools/MinGW/include/c++/3.3.1/bits/stl_alloc.h ****  *  You should not attempt to use it directly.
  46:d:/MTK/MTK2503/MTK2503/11CW1418SP4_03_CORETEK03AE_11C_V1_GPRS_MMI/Tools/MinGW/include/c++/3.3.1/bits/stl_alloc.h ****  */
  47:d:/MTK/MTK2503/MTK2503/11CW1418SP4_03_CORETEK03AE_11C_V1_GPRS_MMI/Tools/MinGW/include/c++/3.3.1/bits/stl_alloc.h **** 
  48:d:/MTK/MTK2503/MTK2503/11CW1418SP4_03_CORETEK03AE_11C_V1_GPRS_MMI/Tools/MinGW/include/c++/3.3.1/bits/stl_alloc.h **** #ifndef __GLIBCPP_INTERNAL_ALLOC_H
  49:d:/MTK/MTK2503/MTK2503/11CW1418SP4_03_CORETEK03AE_11C_V1_GPRS_MMI/Tools/MinGW/include/c++/3.3.1/bits/stl_alloc.h **** #define __GLIBCPP_INTERNAL_ALLOC_H
  50:d:/MTK/MTK2503/MTK2503/11CW1418SP4_03_CORETEK03AE_11C_V1_GPRS_MMI/Tools/MinGW/include/c++/3.3.1/bits/stl_alloc.h **** 
  51:d:/MTK/MTK2503/MTK2503/11CW1418SP4_03_CORETEK03AE_11C_V1_GPRS_MMI/Tools/MinGW/include/c++/3.3.1/bits/stl_alloc.h **** /**
  52:d:/MTK/MTK2503/MTK2503/11CW1418SP4_03_CORETEK03AE_11C_V1_GPRS_MMI/Tools/MinGW/include/c++/3.3.1/bits/stl_alloc.h ****  *  @defgroup Allocators Memory Allocators
  53:d:/MTK/MTK2503/MTK2503/11CW1418SP4_03_CORETEK03AE_11C_V1_GPRS_MMI/Tools/MinGW/include/c++/3.3.1/bits/stl_alloc.h ****  *  @if maint
GAS LISTING d:/MTK/MTK2503/MTK2503/11CW1418SP4_03_CORETEK03AE_11C_V1_GPRS_MMI/plutommi/Customer/ResGenerator/gcctmp/ccQHcaaa.s 			page 54


  54:d:/MTK/MTK2503/MTK2503/11CW1418SP4_03_CORETEK03AE_11C_V1_GPRS_MMI/Tools/MinGW/include/c++/3.3.1/bits/stl_alloc.h ****  *  stl_alloc.h implements some node allocators.  These are NOT the same as
  55:d:/MTK/MTK2503/MTK2503/11CW1418SP4_03_CORETEK03AE_11C_V1_GPRS_MMI/Tools/MinGW/include/c++/3.3.1/bits/stl_alloc.h ****  *  allocators in the C++ standard, nor in the original H-P STL.  They do not
  56:d:/MTK/MTK2503/MTK2503/11CW1418SP4_03_CORETEK03AE_11C_V1_GPRS_MMI/Tools/MinGW/include/c++/3.3.1/bits/stl_alloc.h ****  *  encapsulate different pointer types; we assume that there is only one
  57:d:/MTK/MTK2503/MTK2503/11CW1418SP4_03_CORETEK03AE_11C_V1_GPRS_MMI/Tools/MinGW/include/c++/3.3.1/bits/stl_alloc.h ****  *  pointer type.  The C++ standard allocators are intended to allocate
  58:d:/MTK/MTK2503/MTK2503/11CW1418SP4_03_CORETEK03AE_11C_V1_GPRS_MMI/Tools/MinGW/include/c++/3.3.1/bits/stl_alloc.h ****  *  individual objects, not pools or arenas.
  59:d:/MTK/MTK2503/MTK2503/11CW1418SP4_03_CORETEK03AE_11C_V1_GPRS_MMI/Tools/MinGW/include/c++/3.3.1/bits/stl_alloc.h ****  *
  60:d:/MTK/MTK2503/MTK2503/11CW1418SP4_03_CORETEK03AE_11C_V1_GPRS_MMI/Tools/MinGW/include/c++/3.3.1/bits/stl_alloc.h ****  *  In this file allocators are of two different styles:  "standard" and
  61:d:/MTK/MTK2503/MTK2503/11CW1418SP4_03_CORETEK03AE_11C_V1_GPRS_MMI/Tools/MinGW/include/c++/3.3.1/bits/stl_alloc.h ****  *  "SGI" (quotes included).  "Standard" allocators conform to 20.4.  "SGI"
  62:d:/MTK/MTK2503/MTK2503/11CW1418SP4_03_CORETEK03AE_11C_V1_GPRS_MMI/Tools/MinGW/include/c++/3.3.1/bits/stl_alloc.h ****  *  allocators differ in AT LEAST the following ways (add to this list as you
  63:d:/MTK/MTK2503/MTK2503/11CW1418SP4_03_CORETEK03AE_11C_V1_GPRS_MMI/Tools/MinGW/include/c++/3.3.1/bits/stl_alloc.h ****  *  discover them):
  64:d:/MTK/MTK2503/MTK2503/11CW1418SP4_03_CORETEK03AE_11C_V1_GPRS_MMI/Tools/MinGW/include/c++/3.3.1/bits/stl_alloc.h ****  *
  65:d:/MTK/MTK2503/MTK2503/11CW1418SP4_03_CORETEK03AE_11C_V1_GPRS_MMI/Tools/MinGW/include/c++/3.3.1/bits/stl_alloc.h ****  *   - "Standard" allocate() takes two parameters (n_count,hint=0) but "SGI"
  66:d:/MTK/MTK2503/MTK2503/11CW1418SP4_03_CORETEK03AE_11C_V1_GPRS_MMI/Tools/MinGW/include/c++/3.3.1/bits/stl_alloc.h ****  *     allocate() takes one paramter (n_size).
  67:d:/MTK/MTK2503/MTK2503/11CW1418SP4_03_CORETEK03AE_11C_V1_GPRS_MMI/Tools/MinGW/include/c++/3.3.1/bits/stl_alloc.h ****  *   - Likewise, "standard" deallocate()'s argument is a count, but in "SGI"
  68:d:/MTK/MTK2503/MTK2503/11CW1418SP4_03_CORETEK03AE_11C_V1_GPRS_MMI/Tools/MinGW/include/c++/3.3.1/bits/stl_alloc.h ****  *     is a byte size.
  69:d:/MTK/MTK2503/MTK2503/11CW1418SP4_03_CORETEK03AE_11C_V1_GPRS_MMI/Tools/MinGW/include/c++/3.3.1/bits/stl_alloc.h ****  *   - max_size(), construct(), and destroy() are missing in "SGI" allocators.
  70:d:/MTK/MTK2503/MTK2503/11CW1418SP4_03_CORETEK03AE_11C_V1_GPRS_MMI/Tools/MinGW/include/c++/3.3.1/bits/stl_alloc.h ****  *   - reallocate(p,oldsz,newsz) is added in "SGI", and behaves as
  71:d:/MTK/MTK2503/MTK2503/11CW1418SP4_03_CORETEK03AE_11C_V1_GPRS_MMI/Tools/MinGW/include/c++/3.3.1/bits/stl_alloc.h ****  *     if p=realloc(p,newsz).
  72:d:/MTK/MTK2503/MTK2503/11CW1418SP4_03_CORETEK03AE_11C_V1_GPRS_MMI/Tools/MinGW/include/c++/3.3.1/bits/stl_alloc.h ****  *
  73:d:/MTK/MTK2503/MTK2503/11CW1418SP4_03_CORETEK03AE_11C_V1_GPRS_MMI/Tools/MinGW/include/c++/3.3.1/bits/stl_alloc.h ****  *  "SGI" allocators may be wrapped in __allocator to convert the interface
  74:d:/MTK/MTK2503/MTK2503/11CW1418SP4_03_CORETEK03AE_11C_V1_GPRS_MMI/Tools/MinGW/include/c++/3.3.1/bits/stl_alloc.h ****  *  into a "standard" one.
  75:d:/MTK/MTK2503/MTK2503/11CW1418SP4_03_CORETEK03AE_11C_V1_GPRS_MMI/Tools/MinGW/include/c++/3.3.1/bits/stl_alloc.h ****  *  @endif
  76:d:/MTK/MTK2503/MTK2503/11CW1418SP4_03_CORETEK03AE_11C_V1_GPRS_MMI/Tools/MinGW/include/c++/3.3.1/bits/stl_alloc.h ****  *
  77:d:/MTK/MTK2503/MTK2503/11CW1418SP4_03_CORETEK03AE_11C_V1_GPRS_MMI/Tools/MinGW/include/c++/3.3.1/bits/stl_alloc.h ****  *  @note The @c reallocate member functions have been deprecated for 3.2
  78:d:/MTK/MTK2503/MTK2503/11CW1418SP4_03_CORETEK03AE_11C_V1_GPRS_MMI/Tools/MinGW/include/c++/3.3.1/bits/stl_alloc.h ****  *        and will be removed in 3.4.  You must define @c _GLIBCPP_DEPRECATED
  79:d:/MTK/MTK2503/MTK2503/11CW1418SP4_03_CORETEK03AE_11C_V1_GPRS_MMI/Tools/MinGW/include/c++/3.3.1/bits/stl_alloc.h ****  *        to make this visible in 3.2; see c++config.h.
  80:d:/MTK/MTK2503/MTK2503/11CW1418SP4_03_CORETEK03AE_11C_V1_GPRS_MMI/Tools/MinGW/include/c++/3.3.1/bits/stl_alloc.h ****  *
  81:d:/MTK/MTK2503/MTK2503/11CW1418SP4_03_CORETEK03AE_11C_V1_GPRS_MMI/Tools/MinGW/include/c++/3.3.1/bits/stl_alloc.h ****  *  The canonical description of these classes is in docs/html/ext/howto.html
  82:d:/MTK/MTK2503/MTK2503/11CW1418SP4_03_CORETEK03AE_11C_V1_GPRS_MMI/Tools/MinGW/include/c++/3.3.1/bits/stl_alloc.h ****  *  or online at http://gcc.gnu.org/onlinedocs/libstdc++/ext/howto.html#3
  83:d:/MTK/MTK2503/MTK2503/11CW1418SP4_03_CORETEK03AE_11C_V1_GPRS_MMI/Tools/MinGW/include/c++/3.3.1/bits/stl_alloc.h **** */
  84:d:/MTK/MTK2503/MTK2503/11CW1418SP4_03_CORETEK03AE_11C_V1_GPRS_MMI/Tools/MinGW/include/c++/3.3.1/bits/stl_alloc.h **** 
  85:d:/MTK/MTK2503/MTK2503/11CW1418SP4_03_CORETEK03AE_11C_V1_GPRS_MMI/Tools/MinGW/include/c++/3.3.1/bits/stl_alloc.h **** #include <cstddef>
  86:d:/MTK/MTK2503/MTK2503/11CW1418SP4_03_CORETEK03AE_11C_V1_GPRS_MMI/Tools/MinGW/include/c++/3.3.1/bits/stl_alloc.h **** #include <cstdlib>
  87:d:/MTK/MTK2503/MTK2503/11CW1418SP4_03_CORETEK03AE_11C_V1_GPRS_MMI/Tools/MinGW/include/c++/3.3.1/bits/stl_alloc.h **** #include <cstring>
  88:d:/MTK/MTK2503/MTK2503/11CW1418SP4_03_CORETEK03AE_11C_V1_GPRS_MMI/Tools/MinGW/include/c++/3.3.1/bits/stl_alloc.h **** #include <bits/functexcept.h>   // For __throw_bad_alloc
  89:d:/MTK/MTK2503/MTK2503/11CW1418SP4_03_CORETEK03AE_11C_V1_GPRS_MMI/Tools/MinGW/include/c++/3.3.1/bits/stl_alloc.h **** #include <bits/stl_threads.h>
  90:d:/MTK/MTK2503/MTK2503/11CW1418SP4_03_CORETEK03AE_11C_V1_GPRS_MMI/Tools/MinGW/include/c++/3.3.1/bits/stl_alloc.h **** 
  91:d:/MTK/MTK2503/MTK2503/11CW1418SP4_03_CORETEK03AE_11C_V1_GPRS_MMI/Tools/MinGW/include/c++/3.3.1/bits/stl_alloc.h **** #include <bits/atomicity.h>
  92:d:/MTK/MTK2503/MTK2503/11CW1418SP4_03_CORETEK03AE_11C_V1_GPRS_MMI/Tools/MinGW/include/c++/3.3.1/bits/stl_alloc.h **** 
  93:d:/MTK/MTK2503/MTK2503/11CW1418SP4_03_CORETEK03AE_11C_V1_GPRS_MMI/Tools/MinGW/include/c++/3.3.1/bits/stl_alloc.h **** namespace std
  94:d:/MTK/MTK2503/MTK2503/11CW1418SP4_03_CORETEK03AE_11C_V1_GPRS_MMI/Tools/MinGW/include/c++/3.3.1/bits/stl_alloc.h **** {
  95:d:/MTK/MTK2503/MTK2503/11CW1418SP4_03_CORETEK03AE_11C_V1_GPRS_MMI/Tools/MinGW/include/c++/3.3.1/bits/stl_alloc.h ****   /**
  96:d:/MTK/MTK2503/MTK2503/11CW1418SP4_03_CORETEK03AE_11C_V1_GPRS_MMI/Tools/MinGW/include/c++/3.3.1/bits/stl_alloc.h ****    *  @if maint
  97:d:/MTK/MTK2503/MTK2503/11CW1418SP4_03_CORETEK03AE_11C_V1_GPRS_MMI/Tools/MinGW/include/c++/3.3.1/bits/stl_alloc.h ****    *  A new-based allocator, as required by the standard.  Allocation and
  98:d:/MTK/MTK2503/MTK2503/11CW1418SP4_03_CORETEK03AE_11C_V1_GPRS_MMI/Tools/MinGW/include/c++/3.3.1/bits/stl_alloc.h ****    *  deallocation forward to global new and delete.  "SGI" style, minus
  99:d:/MTK/MTK2503/MTK2503/11CW1418SP4_03_CORETEK03AE_11C_V1_GPRS_MMI/Tools/MinGW/include/c++/3.3.1/bits/stl_alloc.h ****    *  reallocate().
 100:d:/MTK/MTK2503/MTK2503/11CW1418SP4_03_CORETEK03AE_11C_V1_GPRS_MMI/Tools/MinGW/include/c++/3.3.1/bits/stl_alloc.h ****    *  @endif
 101:d:/MTK/MTK2503/MTK2503/11CW1418SP4_03_CORETEK03AE_11C_V1_GPRS_MMI/Tools/MinGW/include/c++/3.3.1/bits/stl_alloc.h ****    *  (See @link Allocators allocators info @endlink for more.)
 102:d:/MTK/MTK2503/MTK2503/11CW1418SP4_03_CORETEK03AE_11C_V1_GPRS_MMI/Tools/MinGW/include/c++/3.3.1/bits/stl_alloc.h ****    */
 103:d:/MTK/MTK2503/MTK2503/11CW1418SP4_03_CORETEK03AE_11C_V1_GPRS_MMI/Tools/MinGW/include/c++/3.3.1/bits/stl_alloc.h ****   class __new_alloc
 104:d:/MTK/MTK2503/MTK2503/11CW1418SP4_03_CORETEK03AE_11C_V1_GPRS_MMI/Tools/MinGW/include/c++/3.3.1/bits/stl_alloc.h ****   {
 105:d:/MTK/MTK2503/MTK2503/11CW1418SP4_03_CORETEK03AE_11C_V1_GPRS_MMI/Tools/MinGW/include/c++/3.3.1/bits/stl_alloc.h ****   public:
 106:d:/MTK/MTK2503/MTK2503/11CW1418SP4_03_CORETEK03AE_11C_V1_GPRS_MMI/Tools/MinGW/include/c++/3.3.1/bits/stl_alloc.h ****     static void*
 107:d:/MTK/MTK2503/MTK2503/11CW1418SP4_03_CORETEK03AE_11C_V1_GPRS_MMI/Tools/MinGW/include/c++/3.3.1/bits/stl_alloc.h ****     allocate(size_t __n)
 108:d:/MTK/MTK2503/MTK2503/11CW1418SP4_03_CORETEK03AE_11C_V1_GPRS_MMI/Tools/MinGW/include/c++/3.3.1/bits/stl_alloc.h ****     { return ::operator new(__n); }
 109:d:/MTK/MTK2503/MTK2503/11CW1418SP4_03_CORETEK03AE_11C_V1_GPRS_MMI/Tools/MinGW/include/c++/3.3.1/bits/stl_alloc.h **** 
 110:d:/MTK/MTK2503/MTK2503/11CW1418SP4_03_CORETEK03AE_11C_V1_GPRS_MMI/Tools/MinGW/include/c++/3.3.1/bits/stl_alloc.h ****     static void
GAS LISTING d:/MTK/MTK2503/MTK2503/11CW1418SP4_03_CORETEK03AE_11C_V1_GPRS_MMI/plutommi/Customer/ResGenerator/gcctmp/ccQHcaaa.s 			page 55


 111:d:/MTK/MTK2503/MTK2503/11CW1418SP4_03_CORETEK03AE_11C_V1_GPRS_MMI/Tools/MinGW/include/c++/3.3.1/bits/stl_alloc.h ****     deallocate(void* __p, size_t)
 112:d:/MTK/MTK2503/MTK2503/11CW1418SP4_03_CORETEK03AE_11C_V1_GPRS_MMI/Tools/MinGW/include/c++/3.3.1/bits/stl_alloc.h ****     { ::operator delete(__p); }
 113:d:/MTK/MTK2503/MTK2503/11CW1418SP4_03_CORETEK03AE_11C_V1_GPRS_MMI/Tools/MinGW/include/c++/3.3.1/bits/stl_alloc.h ****   };
 114:d:/MTK/MTK2503/MTK2503/11CW1418SP4_03_CORETEK03AE_11C_V1_GPRS_MMI/Tools/MinGW/include/c++/3.3.1/bits/stl_alloc.h **** 
 115:d:/MTK/MTK2503/MTK2503/11CW1418SP4_03_CORETEK03AE_11C_V1_GPRS_MMI/Tools/MinGW/include/c++/3.3.1/bits/stl_alloc.h **** 
 116:d:/MTK/MTK2503/MTK2503/11CW1418SP4_03_CORETEK03AE_11C_V1_GPRS_MMI/Tools/MinGW/include/c++/3.3.1/bits/stl_alloc.h ****   /**
 117:d:/MTK/MTK2503/MTK2503/11CW1418SP4_03_CORETEK03AE_11C_V1_GPRS_MMI/Tools/MinGW/include/c++/3.3.1/bits/stl_alloc.h ****    *  @if maint
 118:d:/MTK/MTK2503/MTK2503/11CW1418SP4_03_CORETEK03AE_11C_V1_GPRS_MMI/Tools/MinGW/include/c++/3.3.1/bits/stl_alloc.h ****    *  A malloc-based allocator.  Typically slower than the
 119:d:/MTK/MTK2503/MTK2503/11CW1418SP4_03_CORETEK03AE_11C_V1_GPRS_MMI/Tools/MinGW/include/c++/3.3.1/bits/stl_alloc.h ****    *  __default_alloc_template (below).  Typically thread-safe and more
 120:d:/MTK/MTK2503/MTK2503/11CW1418SP4_03_CORETEK03AE_11C_V1_GPRS_MMI/Tools/MinGW/include/c++/3.3.1/bits/stl_alloc.h ****    *  storage efficient.  The template argument is unused and is only present
 121:d:/MTK/MTK2503/MTK2503/11CW1418SP4_03_CORETEK03AE_11C_V1_GPRS_MMI/Tools/MinGW/include/c++/3.3.1/bits/stl_alloc.h ****    *  to permit multiple instantiations (but see __default_alloc_template
 122:d:/MTK/MTK2503/MTK2503/11CW1418SP4_03_CORETEK03AE_11C_V1_GPRS_MMI/Tools/MinGW/include/c++/3.3.1/bits/stl_alloc.h ****    *  for caveats).  "SGI" style, plus __set_malloc_handler for OOM conditions.
 123:d:/MTK/MTK2503/MTK2503/11CW1418SP4_03_CORETEK03AE_11C_V1_GPRS_MMI/Tools/MinGW/include/c++/3.3.1/bits/stl_alloc.h ****    *  @endif
 124:d:/MTK/MTK2503/MTK2503/11CW1418SP4_03_CORETEK03AE_11C_V1_GPRS_MMI/Tools/MinGW/include/c++/3.3.1/bits/stl_alloc.h ****    *  (See @link Allocators allocators info @endlink for more.)
 125:d:/MTK/MTK2503/MTK2503/11CW1418SP4_03_CORETEK03AE_11C_V1_GPRS_MMI/Tools/MinGW/include/c++/3.3.1/bits/stl_alloc.h ****    */
 126:d:/MTK/MTK2503/MTK2503/11CW1418SP4_03_CORETEK03AE_11C_V1_GPRS_MMI/Tools/MinGW/include/c++/3.3.1/bits/stl_alloc.h ****   template<int __inst>
 127:d:/MTK/MTK2503/MTK2503/11CW1418SP4_03_CORETEK03AE_11C_V1_GPRS_MMI/Tools/MinGW/include/c++/3.3.1/bits/stl_alloc.h ****     class __malloc_alloc_template
 128:d:/MTK/MTK2503/MTK2503/11CW1418SP4_03_CORETEK03AE_11C_V1_GPRS_MMI/Tools/MinGW/include/c++/3.3.1/bits/stl_alloc.h ****     {
 129:d:/MTK/MTK2503/MTK2503/11CW1418SP4_03_CORETEK03AE_11C_V1_GPRS_MMI/Tools/MinGW/include/c++/3.3.1/bits/stl_alloc.h ****     private:
 130:d:/MTK/MTK2503/MTK2503/11CW1418SP4_03_CORETEK03AE_11C_V1_GPRS_MMI/Tools/MinGW/include/c++/3.3.1/bits/stl_alloc.h ****       static void* _S_oom_malloc(size_t);
 131:d:/MTK/MTK2503/MTK2503/11CW1418SP4_03_CORETEK03AE_11C_V1_GPRS_MMI/Tools/MinGW/include/c++/3.3.1/bits/stl_alloc.h ****       static void* _S_oom_realloc(void*, size_t);
 132:d:/MTK/MTK2503/MTK2503/11CW1418SP4_03_CORETEK03AE_11C_V1_GPRS_MMI/Tools/MinGW/include/c++/3.3.1/bits/stl_alloc.h ****       static void (* __malloc_alloc_oom_handler)();
 133:d:/MTK/MTK2503/MTK2503/11CW1418SP4_03_CORETEK03AE_11C_V1_GPRS_MMI/Tools/MinGW/include/c++/3.3.1/bits/stl_alloc.h **** 
 134:d:/MTK/MTK2503/MTK2503/11CW1418SP4_03_CORETEK03AE_11C_V1_GPRS_MMI/Tools/MinGW/include/c++/3.3.1/bits/stl_alloc.h ****     public:
 135:d:/MTK/MTK2503/MTK2503/11CW1418SP4_03_CORETEK03AE_11C_V1_GPRS_MMI/Tools/MinGW/include/c++/3.3.1/bits/stl_alloc.h ****       static void*
 136:d:/MTK/MTK2503/MTK2503/11CW1418SP4_03_CORETEK03AE_11C_V1_GPRS_MMI/Tools/MinGW/include/c++/3.3.1/bits/stl_alloc.h ****       allocate(size_t __n)
 137:d:/MTK/MTK2503/MTK2503/11CW1418SP4_03_CORETEK03AE_11C_V1_GPRS_MMI/Tools/MinGW/include/c++/3.3.1/bits/stl_alloc.h ****       {
 138:d:/MTK/MTK2503/MTK2503/11CW1418SP4_03_CORETEK03AE_11C_V1_GPRS_MMI/Tools/MinGW/include/c++/3.3.1/bits/stl_alloc.h ****         void* __result = malloc(__n);
 139:d:/MTK/MTK2503/MTK2503/11CW1418SP4_03_CORETEK03AE_11C_V1_GPRS_MMI/Tools/MinGW/include/c++/3.3.1/bits/stl_alloc.h ****         if (__builtin_expect(__result == 0, 0))
 140:d:/MTK/MTK2503/MTK2503/11CW1418SP4_03_CORETEK03AE_11C_V1_GPRS_MMI/Tools/MinGW/include/c++/3.3.1/bits/stl_alloc.h **** 	  __result = _S_oom_malloc(__n);
 141:d:/MTK/MTK2503/MTK2503/11CW1418SP4_03_CORETEK03AE_11C_V1_GPRS_MMI/Tools/MinGW/include/c++/3.3.1/bits/stl_alloc.h ****         return __result;
 142:d:/MTK/MTK2503/MTK2503/11CW1418SP4_03_CORETEK03AE_11C_V1_GPRS_MMI/Tools/MinGW/include/c++/3.3.1/bits/stl_alloc.h ****       }
 143:d:/MTK/MTK2503/MTK2503/11CW1418SP4_03_CORETEK03AE_11C_V1_GPRS_MMI/Tools/MinGW/include/c++/3.3.1/bits/stl_alloc.h **** 
 144:d:/MTK/MTK2503/MTK2503/11CW1418SP4_03_CORETEK03AE_11C_V1_GPRS_MMI/Tools/MinGW/include/c++/3.3.1/bits/stl_alloc.h ****       static void
 145:d:/MTK/MTK2503/MTK2503/11CW1418SP4_03_CORETEK03AE_11C_V1_GPRS_MMI/Tools/MinGW/include/c++/3.3.1/bits/stl_alloc.h ****       deallocate(void* __p, size_t /* __n */)
 146:d:/MTK/MTK2503/MTK2503/11CW1418SP4_03_CORETEK03AE_11C_V1_GPRS_MMI/Tools/MinGW/include/c++/3.3.1/bits/stl_alloc.h ****       { free(__p); }
 147:d:/MTK/MTK2503/MTK2503/11CW1418SP4_03_CORETEK03AE_11C_V1_GPRS_MMI/Tools/MinGW/include/c++/3.3.1/bits/stl_alloc.h **** 
 148:d:/MTK/MTK2503/MTK2503/11CW1418SP4_03_CORETEK03AE_11C_V1_GPRS_MMI/Tools/MinGW/include/c++/3.3.1/bits/stl_alloc.h ****       static void*
 149:d:/MTK/MTK2503/MTK2503/11CW1418SP4_03_CORETEK03AE_11C_V1_GPRS_MMI/Tools/MinGW/include/c++/3.3.1/bits/stl_alloc.h ****       reallocate(void* __p, size_t /* old_sz */, size_t __new_sz)
 150:d:/MTK/MTK2503/MTK2503/11CW1418SP4_03_CORETEK03AE_11C_V1_GPRS_MMI/Tools/MinGW/include/c++/3.3.1/bits/stl_alloc.h ****       {
 151:d:/MTK/MTK2503/MTK2503/11CW1418SP4_03_CORETEK03AE_11C_V1_GPRS_MMI/Tools/MinGW/include/c++/3.3.1/bits/stl_alloc.h ****         void* __result = realloc(__p, __new_sz);
 152:d:/MTK/MTK2503/MTK2503/11CW1418SP4_03_CORETEK03AE_11C_V1_GPRS_MMI/Tools/MinGW/include/c++/3.3.1/bits/stl_alloc.h ****         if (__builtin_expect(__result == 0, 0))
 153:d:/MTK/MTK2503/MTK2503/11CW1418SP4_03_CORETEK03AE_11C_V1_GPRS_MMI/Tools/MinGW/include/c++/3.3.1/bits/stl_alloc.h ****           __result = _S_oom_realloc(__p, __new_sz);
 154:d:/MTK/MTK2503/MTK2503/11CW1418SP4_03_CORETEK03AE_11C_V1_GPRS_MMI/Tools/MinGW/include/c++/3.3.1/bits/stl_alloc.h ****         return __result;
 155:d:/MTK/MTK2503/MTK2503/11CW1418SP4_03_CORETEK03AE_11C_V1_GPRS_MMI/Tools/MinGW/include/c++/3.3.1/bits/stl_alloc.h ****       }
 156:d:/MTK/MTK2503/MTK2503/11CW1418SP4_03_CORETEK03AE_11C_V1_GPRS_MMI/Tools/MinGW/include/c++/3.3.1/bits/stl_alloc.h **** 
 157:d:/MTK/MTK2503/MTK2503/11CW1418SP4_03_CORETEK03AE_11C_V1_GPRS_MMI/Tools/MinGW/include/c++/3.3.1/bits/stl_alloc.h ****       static void (* __set_malloc_handler(void (*__f)()))()
 158:d:/MTK/MTK2503/MTK2503/11CW1418SP4_03_CORETEK03AE_11C_V1_GPRS_MMI/Tools/MinGW/include/c++/3.3.1/bits/stl_alloc.h ****       {
 159:d:/MTK/MTK2503/MTK2503/11CW1418SP4_03_CORETEK03AE_11C_V1_GPRS_MMI/Tools/MinGW/include/c++/3.3.1/bits/stl_alloc.h ****         void (* __old)() = __malloc_alloc_oom_handler;
 160:d:/MTK/MTK2503/MTK2503/11CW1418SP4_03_CORETEK03AE_11C_V1_GPRS_MMI/Tools/MinGW/include/c++/3.3.1/bits/stl_alloc.h ****         __malloc_alloc_oom_handler = __f;
 161:d:/MTK/MTK2503/MTK2503/11CW1418SP4_03_CORETEK03AE_11C_V1_GPRS_MMI/Tools/MinGW/include/c++/3.3.1/bits/stl_alloc.h ****         return __old;
 162:d:/MTK/MTK2503/MTK2503/11CW1418SP4_03_CORETEK03AE_11C_V1_GPRS_MMI/Tools/MinGW/include/c++/3.3.1/bits/stl_alloc.h ****       }
 163:d:/MTK/MTK2503/MTK2503/11CW1418SP4_03_CORETEK03AE_11C_V1_GPRS_MMI/Tools/MinGW/include/c++/3.3.1/bits/stl_alloc.h ****     };
 164:d:/MTK/MTK2503/MTK2503/11CW1418SP4_03_CORETEK03AE_11C_V1_GPRS_MMI/Tools/MinGW/include/c++/3.3.1/bits/stl_alloc.h **** 
 165:d:/MTK/MTK2503/MTK2503/11CW1418SP4_03_CORETEK03AE_11C_V1_GPRS_MMI/Tools/MinGW/include/c++/3.3.1/bits/stl_alloc.h ****   // malloc_alloc out-of-memory handling
 166:d:/MTK/MTK2503/MTK2503/11CW1418SP4_03_CORETEK03AE_11C_V1_GPRS_MMI/Tools/MinGW/include/c++/3.3.1/bits/stl_alloc.h ****   template<int __inst>
 167:d:/MTK/MTK2503/MTK2503/11CW1418SP4_03_CORETEK03AE_11C_V1_GPRS_MMI/Tools/MinGW/include/c++/3.3.1/bits/stl_alloc.h ****     void (* __malloc_alloc_template<__inst>::__malloc_alloc_oom_handler)() = 0;
GAS LISTING d:/MTK/MTK2503/MTK2503/11CW1418SP4_03_CORETEK03AE_11C_V1_GPRS_MMI/plutommi/Customer/ResGenerator/gcctmp/ccQHcaaa.s 			page 56


 168:d:/MTK/MTK2503/MTK2503/11CW1418SP4_03_CORETEK03AE_11C_V1_GPRS_MMI/Tools/MinGW/include/c++/3.3.1/bits/stl_alloc.h **** 
 169:d:/MTK/MTK2503/MTK2503/11CW1418SP4_03_CORETEK03AE_11C_V1_GPRS_MMI/Tools/MinGW/include/c++/3.3.1/bits/stl_alloc.h ****   template<int __inst>
 170:d:/MTK/MTK2503/MTK2503/11CW1418SP4_03_CORETEK03AE_11C_V1_GPRS_MMI/Tools/MinGW/include/c++/3.3.1/bits/stl_alloc.h ****     void*
 171:d:/MTK/MTK2503/MTK2503/11CW1418SP4_03_CORETEK03AE_11C_V1_GPRS_MMI/Tools/MinGW/include/c++/3.3.1/bits/stl_alloc.h ****     __malloc_alloc_template<__inst>::
 172:d:/MTK/MTK2503/MTK2503/11CW1418SP4_03_CORETEK03AE_11C_V1_GPRS_MMI/Tools/MinGW/include/c++/3.3.1/bits/stl_alloc.h ****     _S_oom_malloc(size_t __n)
 173:d:/MTK/MTK2503/MTK2503/11CW1418SP4_03_CORETEK03AE_11C_V1_GPRS_MMI/Tools/MinGW/include/c++/3.3.1/bits/stl_alloc.h ****     {
 174:d:/MTK/MTK2503/MTK2503/11CW1418SP4_03_CORETEK03AE_11C_V1_GPRS_MMI/Tools/MinGW/include/c++/3.3.1/bits/stl_alloc.h ****       void (* __my_malloc_handler)();
 175:d:/MTK/MTK2503/MTK2503/11CW1418SP4_03_CORETEK03AE_11C_V1_GPRS_MMI/Tools/MinGW/include/c++/3.3.1/bits/stl_alloc.h ****       void* __result;
 176:d:/MTK/MTK2503/MTK2503/11CW1418SP4_03_CORETEK03AE_11C_V1_GPRS_MMI/Tools/MinGW/include/c++/3.3.1/bits/stl_alloc.h **** 
 177:d:/MTK/MTK2503/MTK2503/11CW1418SP4_03_CORETEK03AE_11C_V1_GPRS_MMI/Tools/MinGW/include/c++/3.3.1/bits/stl_alloc.h ****       for (;;)
 178:d:/MTK/MTK2503/MTK2503/11CW1418SP4_03_CORETEK03AE_11C_V1_GPRS_MMI/Tools/MinGW/include/c++/3.3.1/bits/stl_alloc.h ****         {
 179:d:/MTK/MTK2503/MTK2503/11CW1418SP4_03_CORETEK03AE_11C_V1_GPRS_MMI/Tools/MinGW/include/c++/3.3.1/bits/stl_alloc.h ****           __my_malloc_handler = __malloc_alloc_oom_handler;
 180:d:/MTK/MTK2503/MTK2503/11CW1418SP4_03_CORETEK03AE_11C_V1_GPRS_MMI/Tools/MinGW/include/c++/3.3.1/bits/stl_alloc.h ****           if (__builtin_expect(__my_malloc_handler == 0, 0))
 181:d:/MTK/MTK2503/MTK2503/11CW1418SP4_03_CORETEK03AE_11C_V1_GPRS_MMI/Tools/MinGW/include/c++/3.3.1/bits/stl_alloc.h ****             __throw_bad_alloc();
 182:d:/MTK/MTK2503/MTK2503/11CW1418SP4_03_CORETEK03AE_11C_V1_GPRS_MMI/Tools/MinGW/include/c++/3.3.1/bits/stl_alloc.h ****           (*__my_malloc_handler)();
 183:d:/MTK/MTK2503/MTK2503/11CW1418SP4_03_CORETEK03AE_11C_V1_GPRS_MMI/Tools/MinGW/include/c++/3.3.1/bits/stl_alloc.h ****           __result = malloc(__n);
 184:d:/MTK/MTK2503/MTK2503/11CW1418SP4_03_CORETEK03AE_11C_V1_GPRS_MMI/Tools/MinGW/include/c++/3.3.1/bits/stl_alloc.h ****           if (__result)
 185:d:/MTK/MTK2503/MTK2503/11CW1418SP4_03_CORETEK03AE_11C_V1_GPRS_MMI/Tools/MinGW/include/c++/3.3.1/bits/stl_alloc.h ****             return __result;
 186:d:/MTK/MTK2503/MTK2503/11CW1418SP4_03_CORETEK03AE_11C_V1_GPRS_MMI/Tools/MinGW/include/c++/3.3.1/bits/stl_alloc.h ****         }
 187:d:/MTK/MTK2503/MTK2503/11CW1418SP4_03_CORETEK03AE_11C_V1_GPRS_MMI/Tools/MinGW/include/c++/3.3.1/bits/stl_alloc.h ****     }
 188:d:/MTK/MTK2503/MTK2503/11CW1418SP4_03_CORETEK03AE_11C_V1_GPRS_MMI/Tools/MinGW/include/c++/3.3.1/bits/stl_alloc.h **** 
 189:d:/MTK/MTK2503/MTK2503/11CW1418SP4_03_CORETEK03AE_11C_V1_GPRS_MMI/Tools/MinGW/include/c++/3.3.1/bits/stl_alloc.h ****   template<int __inst>
 190:d:/MTK/MTK2503/MTK2503/11CW1418SP4_03_CORETEK03AE_11C_V1_GPRS_MMI/Tools/MinGW/include/c++/3.3.1/bits/stl_alloc.h ****     void*
 191:d:/MTK/MTK2503/MTK2503/11CW1418SP4_03_CORETEK03AE_11C_V1_GPRS_MMI/Tools/MinGW/include/c++/3.3.1/bits/stl_alloc.h ****     __malloc_alloc_template<__inst>::
 192:d:/MTK/MTK2503/MTK2503/11CW1418SP4_03_CORETEK03AE_11C_V1_GPRS_MMI/Tools/MinGW/include/c++/3.3.1/bits/stl_alloc.h ****     _S_oom_realloc(void* __p, size_t __n)
 193:d:/MTK/MTK2503/MTK2503/11CW1418SP4_03_CORETEK03AE_11C_V1_GPRS_MMI/Tools/MinGW/include/c++/3.3.1/bits/stl_alloc.h ****     {
 194:d:/MTK/MTK2503/MTK2503/11CW1418SP4_03_CORETEK03AE_11C_V1_GPRS_MMI/Tools/MinGW/include/c++/3.3.1/bits/stl_alloc.h ****       void (* __my_malloc_handler)();
 195:d:/MTK/MTK2503/MTK2503/11CW1418SP4_03_CORETEK03AE_11C_V1_GPRS_MMI/Tools/MinGW/include/c++/3.3.1/bits/stl_alloc.h ****       void* __result;
 196:d:/MTK/MTK2503/MTK2503/11CW1418SP4_03_CORETEK03AE_11C_V1_GPRS_MMI/Tools/MinGW/include/c++/3.3.1/bits/stl_alloc.h **** 
 197:d:/MTK/MTK2503/MTK2503/11CW1418SP4_03_CORETEK03AE_11C_V1_GPRS_MMI/Tools/MinGW/include/c++/3.3.1/bits/stl_alloc.h ****       for (;;)
 198:d:/MTK/MTK2503/MTK2503/11CW1418SP4_03_CORETEK03AE_11C_V1_GPRS_MMI/Tools/MinGW/include/c++/3.3.1/bits/stl_alloc.h ****         {
 199:d:/MTK/MTK2503/MTK2503/11CW1418SP4_03_CORETEK03AE_11C_V1_GPRS_MMI/Tools/MinGW/include/c++/3.3.1/bits/stl_alloc.h ****           __my_malloc_handler = __malloc_alloc_oom_handler;
 200:d:/MTK/MTK2503/MTK2503/11CW1418SP4_03_CORETEK03AE_11C_V1_GPRS_MMI/Tools/MinGW/include/c++/3.3.1/bits/stl_alloc.h ****           if (__builtin_expect(__my_malloc_handler == 0, 0))
 201:d:/MTK/MTK2503/MTK2503/11CW1418SP4_03_CORETEK03AE_11C_V1_GPRS_MMI/Tools/MinGW/include/c++/3.3.1/bits/stl_alloc.h ****             __throw_bad_alloc();
 202:d:/MTK/MTK2503/MTK2503/11CW1418SP4_03_CORETEK03AE_11C_V1_GPRS_MMI/Tools/MinGW/include/c++/3.3.1/bits/stl_alloc.h ****           (*__my_malloc_handler)();
 203:d:/MTK/MTK2503/MTK2503/11CW1418SP4_03_CORETEK03AE_11C_V1_GPRS_MMI/Tools/MinGW/include/c++/3.3.1/bits/stl_alloc.h ****           __result = realloc(__p, __n);
 204:d:/MTK/MTK2503/MTK2503/11CW1418SP4_03_CORETEK03AE_11C_V1_GPRS_MMI/Tools/MinGW/include/c++/3.3.1/bits/stl_alloc.h ****           if (__result)
 205:d:/MTK/MTK2503/MTK2503/11CW1418SP4_03_CORETEK03AE_11C_V1_GPRS_MMI/Tools/MinGW/include/c++/3.3.1/bits/stl_alloc.h ****             return __result;
 206:d:/MTK/MTK2503/MTK2503/11CW1418SP4_03_CORETEK03AE_11C_V1_GPRS_MMI/Tools/MinGW/include/c++/3.3.1/bits/stl_alloc.h ****         }
 207:d:/MTK/MTK2503/MTK2503/11CW1418SP4_03_CORETEK03AE_11C_V1_GPRS_MMI/Tools/MinGW/include/c++/3.3.1/bits/stl_alloc.h ****     }
 208:d:/MTK/MTK2503/MTK2503/11CW1418SP4_03_CORETEK03AE_11C_V1_GPRS_MMI/Tools/MinGW/include/c++/3.3.1/bits/stl_alloc.h **** 
 209:d:/MTK/MTK2503/MTK2503/11CW1418SP4_03_CORETEK03AE_11C_V1_GPRS_MMI/Tools/MinGW/include/c++/3.3.1/bits/stl_alloc.h ****   // Should not be referenced within the library anymore.
 210:d:/MTK/MTK2503/MTK2503/11CW1418SP4_03_CORETEK03AE_11C_V1_GPRS_MMI/Tools/MinGW/include/c++/3.3.1/bits/stl_alloc.h ****   typedef __new_alloc                 __mem_interface;
 211:d:/MTK/MTK2503/MTK2503/11CW1418SP4_03_CORETEK03AE_11C_V1_GPRS_MMI/Tools/MinGW/include/c++/3.3.1/bits/stl_alloc.h **** 
 212:d:/MTK/MTK2503/MTK2503/11CW1418SP4_03_CORETEK03AE_11C_V1_GPRS_MMI/Tools/MinGW/include/c++/3.3.1/bits/stl_alloc.h ****   /**
 213:d:/MTK/MTK2503/MTK2503/11CW1418SP4_03_CORETEK03AE_11C_V1_GPRS_MMI/Tools/MinGW/include/c++/3.3.1/bits/stl_alloc.h ****    *  @if maint
 214:d:/MTK/MTK2503/MTK2503/11CW1418SP4_03_CORETEK03AE_11C_V1_GPRS_MMI/Tools/MinGW/include/c++/3.3.1/bits/stl_alloc.h ****    *  This is used primarily (only?) in _Alloc_traits and other places to
 215:d:/MTK/MTK2503/MTK2503/11CW1418SP4_03_CORETEK03AE_11C_V1_GPRS_MMI/Tools/MinGW/include/c++/3.3.1/bits/stl_alloc.h ****    *  help provide the _Alloc_type typedef.  All it does is forward the
 216:d:/MTK/MTK2503/MTK2503/11CW1418SP4_03_CORETEK03AE_11C_V1_GPRS_MMI/Tools/MinGW/include/c++/3.3.1/bits/stl_alloc.h ****    *  requests after some minimal checking.
 217:d:/MTK/MTK2503/MTK2503/11CW1418SP4_03_CORETEK03AE_11C_V1_GPRS_MMI/Tools/MinGW/include/c++/3.3.1/bits/stl_alloc.h ****    *
 218:d:/MTK/MTK2503/MTK2503/11CW1418SP4_03_CORETEK03AE_11C_V1_GPRS_MMI/Tools/MinGW/include/c++/3.3.1/bits/stl_alloc.h ****    *  This is neither "standard"-conforming nor "SGI".  The _Alloc parameter
 219:d:/MTK/MTK2503/MTK2503/11CW1418SP4_03_CORETEK03AE_11C_V1_GPRS_MMI/Tools/MinGW/include/c++/3.3.1/bits/stl_alloc.h ****    *  must be "SGI" style.
 220:d:/MTK/MTK2503/MTK2503/11CW1418SP4_03_CORETEK03AE_11C_V1_GPRS_MMI/Tools/MinGW/include/c++/3.3.1/bits/stl_alloc.h ****    *  @endif
 221:d:/MTK/MTK2503/MTK2503/11CW1418SP4_03_CORETEK03AE_11C_V1_GPRS_MMI/Tools/MinGW/include/c++/3.3.1/bits/stl_alloc.h ****    *  (See @link Allocators allocators info @endlink for more.)
 222:d:/MTK/MTK2503/MTK2503/11CW1418SP4_03_CORETEK03AE_11C_V1_GPRS_MMI/Tools/MinGW/include/c++/3.3.1/bits/stl_alloc.h ****    */
 223:d:/MTK/MTK2503/MTK2503/11CW1418SP4_03_CORETEK03AE_11C_V1_GPRS_MMI/Tools/MinGW/include/c++/3.3.1/bits/stl_alloc.h ****   template<typename _Tp, typename _Alloc>
 224:d:/MTK/MTK2503/MTK2503/11CW1418SP4_03_CORETEK03AE_11C_V1_GPRS_MMI/Tools/MinGW/include/c++/3.3.1/bits/stl_alloc.h ****     class __simple_alloc
GAS LISTING d:/MTK/MTK2503/MTK2503/11CW1418SP4_03_CORETEK03AE_11C_V1_GPRS_MMI/plutommi/Customer/ResGenerator/gcctmp/ccQHcaaa.s 			page 57


 225:d:/MTK/MTK2503/MTK2503/11CW1418SP4_03_CORETEK03AE_11C_V1_GPRS_MMI/Tools/MinGW/include/c++/3.3.1/bits/stl_alloc.h ****     {
 226:d:/MTK/MTK2503/MTK2503/11CW1418SP4_03_CORETEK03AE_11C_V1_GPRS_MMI/Tools/MinGW/include/c++/3.3.1/bits/stl_alloc.h ****     public:
 227:d:/MTK/MTK2503/MTK2503/11CW1418SP4_03_CORETEK03AE_11C_V1_GPRS_MMI/Tools/MinGW/include/c++/3.3.1/bits/stl_alloc.h ****       static _Tp*
 228:d:/MTK/MTK2503/MTK2503/11CW1418SP4_03_CORETEK03AE_11C_V1_GPRS_MMI/Tools/MinGW/include/c++/3.3.1/bits/stl_alloc.h ****       allocate(size_t __n)
 229:d:/MTK/MTK2503/MTK2503/11CW1418SP4_03_CORETEK03AE_11C_V1_GPRS_MMI/Tools/MinGW/include/c++/3.3.1/bits/stl_alloc.h ****       {
 230:d:/MTK/MTK2503/MTK2503/11CW1418SP4_03_CORETEK03AE_11C_V1_GPRS_MMI/Tools/MinGW/include/c++/3.3.1/bits/stl_alloc.h **** 	_Tp* __ret = 0;
 231:d:/MTK/MTK2503/MTK2503/11CW1418SP4_03_CORETEK03AE_11C_V1_GPRS_MMI/Tools/MinGW/include/c++/3.3.1/bits/stl_alloc.h **** 	if (__n)
 232:d:/MTK/MTK2503/MTK2503/11CW1418SP4_03_CORETEK03AE_11C_V1_GPRS_MMI/Tools/MinGW/include/c++/3.3.1/bits/stl_alloc.h **** 	  __ret = static_cast<_Tp*>(_Alloc::allocate(__n * sizeof(_Tp)));
 233:d:/MTK/MTK2503/MTK2503/11CW1418SP4_03_CORETEK03AE_11C_V1_GPRS_MMI/Tools/MinGW/include/c++/3.3.1/bits/stl_alloc.h **** 	return __ret;
 234:d:/MTK/MTK2503/MTK2503/11CW1418SP4_03_CORETEK03AE_11C_V1_GPRS_MMI/Tools/MinGW/include/c++/3.3.1/bits/stl_alloc.h ****       }
 235:d:/MTK/MTK2503/MTK2503/11CW1418SP4_03_CORETEK03AE_11C_V1_GPRS_MMI/Tools/MinGW/include/c++/3.3.1/bits/stl_alloc.h ****   
 236:d:/MTK/MTK2503/MTK2503/11CW1418SP4_03_CORETEK03AE_11C_V1_GPRS_MMI/Tools/MinGW/include/c++/3.3.1/bits/stl_alloc.h ****       static _Tp*
 237:d:/MTK/MTK2503/MTK2503/11CW1418SP4_03_CORETEK03AE_11C_V1_GPRS_MMI/Tools/MinGW/include/c++/3.3.1/bits/stl_alloc.h ****       allocate()
 238:d:/MTK/MTK2503/MTK2503/11CW1418SP4_03_CORETEK03AE_11C_V1_GPRS_MMI/Tools/MinGW/include/c++/3.3.1/bits/stl_alloc.h ****       { return (_Tp*) _Alloc::allocate(sizeof (_Tp)); }
 239:d:/MTK/MTK2503/MTK2503/11CW1418SP4_03_CORETEK03AE_11C_V1_GPRS_MMI/Tools/MinGW/include/c++/3.3.1/bits/stl_alloc.h ****   
 240:d:/MTK/MTK2503/MTK2503/11CW1418SP4_03_CORETEK03AE_11C_V1_GPRS_MMI/Tools/MinGW/include/c++/3.3.1/bits/stl_alloc.h ****       static void
 241:d:/MTK/MTK2503/MTK2503/11CW1418SP4_03_CORETEK03AE_11C_V1_GPRS_MMI/Tools/MinGW/include/c++/3.3.1/bits/stl_alloc.h ****       deallocate(_Tp* __p, size_t __n)
 242:d:/MTK/MTK2503/MTK2503/11CW1418SP4_03_CORETEK03AE_11C_V1_GPRS_MMI/Tools/MinGW/include/c++/3.3.1/bits/stl_alloc.h ****       { if (0 != __n) _Alloc::deallocate(__p, __n * sizeof (_Tp)); }
 243:d:/MTK/MTK2503/MTK2503/11CW1418SP4_03_CORETEK03AE_11C_V1_GPRS_MMI/Tools/MinGW/include/c++/3.3.1/bits/stl_alloc.h ****   
 244:d:/MTK/MTK2503/MTK2503/11CW1418SP4_03_CORETEK03AE_11C_V1_GPRS_MMI/Tools/MinGW/include/c++/3.3.1/bits/stl_alloc.h ****       static void
 245:d:/MTK/MTK2503/MTK2503/11CW1418SP4_03_CORETEK03AE_11C_V1_GPRS_MMI/Tools/MinGW/include/c++/3.3.1/bits/stl_alloc.h ****       deallocate(_Tp* __p)
 246:d:/MTK/MTK2503/MTK2503/11CW1418SP4_03_CORETEK03AE_11C_V1_GPRS_MMI/Tools/MinGW/include/c++/3.3.1/bits/stl_alloc.h ****       { _Alloc::deallocate(__p, sizeof (_Tp)); }
 247:d:/MTK/MTK2503/MTK2503/11CW1418SP4_03_CORETEK03AE_11C_V1_GPRS_MMI/Tools/MinGW/include/c++/3.3.1/bits/stl_alloc.h ****     };
 248:d:/MTK/MTK2503/MTK2503/11CW1418SP4_03_CORETEK03AE_11C_V1_GPRS_MMI/Tools/MinGW/include/c++/3.3.1/bits/stl_alloc.h **** 
 249:d:/MTK/MTK2503/MTK2503/11CW1418SP4_03_CORETEK03AE_11C_V1_GPRS_MMI/Tools/MinGW/include/c++/3.3.1/bits/stl_alloc.h **** 
 250:d:/MTK/MTK2503/MTK2503/11CW1418SP4_03_CORETEK03AE_11C_V1_GPRS_MMI/Tools/MinGW/include/c++/3.3.1/bits/stl_alloc.h ****   /**
 251:d:/MTK/MTK2503/MTK2503/11CW1418SP4_03_CORETEK03AE_11C_V1_GPRS_MMI/Tools/MinGW/include/c++/3.3.1/bits/stl_alloc.h ****    *  @if maint
 252:d:/MTK/MTK2503/MTK2503/11CW1418SP4_03_CORETEK03AE_11C_V1_GPRS_MMI/Tools/MinGW/include/c++/3.3.1/bits/stl_alloc.h ****    *  An adaptor for an underlying allocator (_Alloc) to check the size
 253:d:/MTK/MTK2503/MTK2503/11CW1418SP4_03_CORETEK03AE_11C_V1_GPRS_MMI/Tools/MinGW/include/c++/3.3.1/bits/stl_alloc.h ****    *  arguments for debugging.
 254:d:/MTK/MTK2503/MTK2503/11CW1418SP4_03_CORETEK03AE_11C_V1_GPRS_MMI/Tools/MinGW/include/c++/3.3.1/bits/stl_alloc.h ****    *
 255:d:/MTK/MTK2503/MTK2503/11CW1418SP4_03_CORETEK03AE_11C_V1_GPRS_MMI/Tools/MinGW/include/c++/3.3.1/bits/stl_alloc.h ****    *  "There is some evidence that this can confuse Purify." - SGI comment
 256:d:/MTK/MTK2503/MTK2503/11CW1418SP4_03_CORETEK03AE_11C_V1_GPRS_MMI/Tools/MinGW/include/c++/3.3.1/bits/stl_alloc.h ****    *
 257:d:/MTK/MTK2503/MTK2503/11CW1418SP4_03_CORETEK03AE_11C_V1_GPRS_MMI/Tools/MinGW/include/c++/3.3.1/bits/stl_alloc.h ****    *  This adaptor is "SGI" style.  The _Alloc parameter must also be "SGI".
 258:d:/MTK/MTK2503/MTK2503/11CW1418SP4_03_CORETEK03AE_11C_V1_GPRS_MMI/Tools/MinGW/include/c++/3.3.1/bits/stl_alloc.h ****    *  @endif
 259:d:/MTK/MTK2503/MTK2503/11CW1418SP4_03_CORETEK03AE_11C_V1_GPRS_MMI/Tools/MinGW/include/c++/3.3.1/bits/stl_alloc.h ****    *  (See @link Allocators allocators info @endlink for more.)
 260:d:/MTK/MTK2503/MTK2503/11CW1418SP4_03_CORETEK03AE_11C_V1_GPRS_MMI/Tools/MinGW/include/c++/3.3.1/bits/stl_alloc.h ****    */
 261:d:/MTK/MTK2503/MTK2503/11CW1418SP4_03_CORETEK03AE_11C_V1_GPRS_MMI/Tools/MinGW/include/c++/3.3.1/bits/stl_alloc.h ****   template<typename _Alloc>
 262:d:/MTK/MTK2503/MTK2503/11CW1418SP4_03_CORETEK03AE_11C_V1_GPRS_MMI/Tools/MinGW/include/c++/3.3.1/bits/stl_alloc.h ****     class __debug_alloc
 263:d:/MTK/MTK2503/MTK2503/11CW1418SP4_03_CORETEK03AE_11C_V1_GPRS_MMI/Tools/MinGW/include/c++/3.3.1/bits/stl_alloc.h ****     {
 264:d:/MTK/MTK2503/MTK2503/11CW1418SP4_03_CORETEK03AE_11C_V1_GPRS_MMI/Tools/MinGW/include/c++/3.3.1/bits/stl_alloc.h ****     private:
 265:d:/MTK/MTK2503/MTK2503/11CW1418SP4_03_CORETEK03AE_11C_V1_GPRS_MMI/Tools/MinGW/include/c++/3.3.1/bits/stl_alloc.h ****       // Size of space used to store size.  Note that this must be
 266:d:/MTK/MTK2503/MTK2503/11CW1418SP4_03_CORETEK03AE_11C_V1_GPRS_MMI/Tools/MinGW/include/c++/3.3.1/bits/stl_alloc.h ****       // large enough to preserve alignment.
 267:d:/MTK/MTK2503/MTK2503/11CW1418SP4_03_CORETEK03AE_11C_V1_GPRS_MMI/Tools/MinGW/include/c++/3.3.1/bits/stl_alloc.h ****       enum {_S_extra = 8};
 268:d:/MTK/MTK2503/MTK2503/11CW1418SP4_03_CORETEK03AE_11C_V1_GPRS_MMI/Tools/MinGW/include/c++/3.3.1/bits/stl_alloc.h **** 
 269:d:/MTK/MTK2503/MTK2503/11CW1418SP4_03_CORETEK03AE_11C_V1_GPRS_MMI/Tools/MinGW/include/c++/3.3.1/bits/stl_alloc.h ****     public:
 270:d:/MTK/MTK2503/MTK2503/11CW1418SP4_03_CORETEK03AE_11C_V1_GPRS_MMI/Tools/MinGW/include/c++/3.3.1/bits/stl_alloc.h ****       static void*
 271:d:/MTK/MTK2503/MTK2503/11CW1418SP4_03_CORETEK03AE_11C_V1_GPRS_MMI/Tools/MinGW/include/c++/3.3.1/bits/stl_alloc.h ****       allocate(size_t __n)
 272:d:/MTK/MTK2503/MTK2503/11CW1418SP4_03_CORETEK03AE_11C_V1_GPRS_MMI/Tools/MinGW/include/c++/3.3.1/bits/stl_alloc.h ****       {
 273:d:/MTK/MTK2503/MTK2503/11CW1418SP4_03_CORETEK03AE_11C_V1_GPRS_MMI/Tools/MinGW/include/c++/3.3.1/bits/stl_alloc.h ****         char* __result = (char*)_Alloc::allocate(__n + (int) _S_extra);
 274:d:/MTK/MTK2503/MTK2503/11CW1418SP4_03_CORETEK03AE_11C_V1_GPRS_MMI/Tools/MinGW/include/c++/3.3.1/bits/stl_alloc.h ****         *(size_t*)__result = __n;
 275:d:/MTK/MTK2503/MTK2503/11CW1418SP4_03_CORETEK03AE_11C_V1_GPRS_MMI/Tools/MinGW/include/c++/3.3.1/bits/stl_alloc.h ****         return __result + (int) _S_extra;
 276:d:/MTK/MTK2503/MTK2503/11CW1418SP4_03_CORETEK03AE_11C_V1_GPRS_MMI/Tools/MinGW/include/c++/3.3.1/bits/stl_alloc.h ****       }
 277:d:/MTK/MTK2503/MTK2503/11CW1418SP4_03_CORETEK03AE_11C_V1_GPRS_MMI/Tools/MinGW/include/c++/3.3.1/bits/stl_alloc.h **** 
 278:d:/MTK/MTK2503/MTK2503/11CW1418SP4_03_CORETEK03AE_11C_V1_GPRS_MMI/Tools/MinGW/include/c++/3.3.1/bits/stl_alloc.h ****       static void
 279:d:/MTK/MTK2503/MTK2503/11CW1418SP4_03_CORETEK03AE_11C_V1_GPRS_MMI/Tools/MinGW/include/c++/3.3.1/bits/stl_alloc.h ****       deallocate(void* __p, size_t __n)
 280:d:/MTK/MTK2503/MTK2503/11CW1418SP4_03_CORETEK03AE_11C_V1_GPRS_MMI/Tools/MinGW/include/c++/3.3.1/bits/stl_alloc.h ****       {
 281:d:/MTK/MTK2503/MTK2503/11CW1418SP4_03_CORETEK03AE_11C_V1_GPRS_MMI/Tools/MinGW/include/c++/3.3.1/bits/stl_alloc.h ****         char* __real_p = (char*)__p - (int) _S_extra;
GAS LISTING d:/MTK/MTK2503/MTK2503/11CW1418SP4_03_CORETEK03AE_11C_V1_GPRS_MMI/plutommi/Customer/ResGenerator/gcctmp/ccQHcaaa.s 			page 58


 282:d:/MTK/MTK2503/MTK2503/11CW1418SP4_03_CORETEK03AE_11C_V1_GPRS_MMI/Tools/MinGW/include/c++/3.3.1/bits/stl_alloc.h ****         if (*(size_t*)__real_p != __n)
 283:d:/MTK/MTK2503/MTK2503/11CW1418SP4_03_CORETEK03AE_11C_V1_GPRS_MMI/Tools/MinGW/include/c++/3.3.1/bits/stl_alloc.h **** 	  abort();
 284:d:/MTK/MTK2503/MTK2503/11CW1418SP4_03_CORETEK03AE_11C_V1_GPRS_MMI/Tools/MinGW/include/c++/3.3.1/bits/stl_alloc.h ****         _Alloc::deallocate(__real_p, __n + (int) _S_extra);
 285:d:/MTK/MTK2503/MTK2503/11CW1418SP4_03_CORETEK03AE_11C_V1_GPRS_MMI/Tools/MinGW/include/c++/3.3.1/bits/stl_alloc.h ****       }
 286:d:/MTK/MTK2503/MTK2503/11CW1418SP4_03_CORETEK03AE_11C_V1_GPRS_MMI/Tools/MinGW/include/c++/3.3.1/bits/stl_alloc.h **** 
 287:d:/MTK/MTK2503/MTK2503/11CW1418SP4_03_CORETEK03AE_11C_V1_GPRS_MMI/Tools/MinGW/include/c++/3.3.1/bits/stl_alloc.h ****       static void*
 288:d:/MTK/MTK2503/MTK2503/11CW1418SP4_03_CORETEK03AE_11C_V1_GPRS_MMI/Tools/MinGW/include/c++/3.3.1/bits/stl_alloc.h ****       reallocate(void* __p, size_t __old_sz, size_t __new_sz)
 289:d:/MTK/MTK2503/MTK2503/11CW1418SP4_03_CORETEK03AE_11C_V1_GPRS_MMI/Tools/MinGW/include/c++/3.3.1/bits/stl_alloc.h ****       {
 290:d:/MTK/MTK2503/MTK2503/11CW1418SP4_03_CORETEK03AE_11C_V1_GPRS_MMI/Tools/MinGW/include/c++/3.3.1/bits/stl_alloc.h ****         char* __real_p = (char*)__p - (int) _S_extra;
 291:d:/MTK/MTK2503/MTK2503/11CW1418SP4_03_CORETEK03AE_11C_V1_GPRS_MMI/Tools/MinGW/include/c++/3.3.1/bits/stl_alloc.h ****         if (*(size_t*)__real_p != __old_sz)
 292:d:/MTK/MTK2503/MTK2503/11CW1418SP4_03_CORETEK03AE_11C_V1_GPRS_MMI/Tools/MinGW/include/c++/3.3.1/bits/stl_alloc.h **** 	  abort();
 293:d:/MTK/MTK2503/MTK2503/11CW1418SP4_03_CORETEK03AE_11C_V1_GPRS_MMI/Tools/MinGW/include/c++/3.3.1/bits/stl_alloc.h ****         char* __result = (char*) _Alloc::reallocate(__real_p, 
 294:d:/MTK/MTK2503/MTK2503/11CW1418SP4_03_CORETEK03AE_11C_V1_GPRS_MMI/Tools/MinGW/include/c++/3.3.1/bits/stl_alloc.h **** 						    __old_sz + (int) _S_extra,
 295:d:/MTK/MTK2503/MTK2503/11CW1418SP4_03_CORETEK03AE_11C_V1_GPRS_MMI/Tools/MinGW/include/c++/3.3.1/bits/stl_alloc.h **** 						    __new_sz + (int) _S_extra);
 296:d:/MTK/MTK2503/MTK2503/11CW1418SP4_03_CORETEK03AE_11C_V1_GPRS_MMI/Tools/MinGW/include/c++/3.3.1/bits/stl_alloc.h ****         *(size_t*)__result = __new_sz;
 297:d:/MTK/MTK2503/MTK2503/11CW1418SP4_03_CORETEK03AE_11C_V1_GPRS_MMI/Tools/MinGW/include/c++/3.3.1/bits/stl_alloc.h ****         return __result + (int) _S_extra;
 298:d:/MTK/MTK2503/MTK2503/11CW1418SP4_03_CORETEK03AE_11C_V1_GPRS_MMI/Tools/MinGW/include/c++/3.3.1/bits/stl_alloc.h ****       }
 299:d:/MTK/MTK2503/MTK2503/11CW1418SP4_03_CORETEK03AE_11C_V1_GPRS_MMI/Tools/MinGW/include/c++/3.3.1/bits/stl_alloc.h ****     };
 300:d:/MTK/MTK2503/MTK2503/11CW1418SP4_03_CORETEK03AE_11C_V1_GPRS_MMI/Tools/MinGW/include/c++/3.3.1/bits/stl_alloc.h **** 
 301:d:/MTK/MTK2503/MTK2503/11CW1418SP4_03_CORETEK03AE_11C_V1_GPRS_MMI/Tools/MinGW/include/c++/3.3.1/bits/stl_alloc.h **** 
 302:d:/MTK/MTK2503/MTK2503/11CW1418SP4_03_CORETEK03AE_11C_V1_GPRS_MMI/Tools/MinGW/include/c++/3.3.1/bits/stl_alloc.h ****   /**
 303:d:/MTK/MTK2503/MTK2503/11CW1418SP4_03_CORETEK03AE_11C_V1_GPRS_MMI/Tools/MinGW/include/c++/3.3.1/bits/stl_alloc.h ****    *  @if maint
 304:d:/MTK/MTK2503/MTK2503/11CW1418SP4_03_CORETEK03AE_11C_V1_GPRS_MMI/Tools/MinGW/include/c++/3.3.1/bits/stl_alloc.h ****    *  Default node allocator.  "SGI" style.  Uses various allocators to
 305:d:/MTK/MTK2503/MTK2503/11CW1418SP4_03_CORETEK03AE_11C_V1_GPRS_MMI/Tools/MinGW/include/c++/3.3.1/bits/stl_alloc.h ****    *  fulfill underlying requests (and makes as few requests as possible
 306:d:/MTK/MTK2503/MTK2503/11CW1418SP4_03_CORETEK03AE_11C_V1_GPRS_MMI/Tools/MinGW/include/c++/3.3.1/bits/stl_alloc.h ****    *  when in default high-speed pool mode).
 307:d:/MTK/MTK2503/MTK2503/11CW1418SP4_03_CORETEK03AE_11C_V1_GPRS_MMI/Tools/MinGW/include/c++/3.3.1/bits/stl_alloc.h ****    *
 308:d:/MTK/MTK2503/MTK2503/11CW1418SP4_03_CORETEK03AE_11C_V1_GPRS_MMI/Tools/MinGW/include/c++/3.3.1/bits/stl_alloc.h ****    *  Important implementation properties:
 309:d:/MTK/MTK2503/MTK2503/11CW1418SP4_03_CORETEK03AE_11C_V1_GPRS_MMI/Tools/MinGW/include/c++/3.3.1/bits/stl_alloc.h ****    *  0. If globally mandated, then allocate objects from __new_alloc
 310:d:/MTK/MTK2503/MTK2503/11CW1418SP4_03_CORETEK03AE_11C_V1_GPRS_MMI/Tools/MinGW/include/c++/3.3.1/bits/stl_alloc.h ****    *  1. If the clients request an object of size > _MAX_BYTES, the resulting
 311:d:/MTK/MTK2503/MTK2503/11CW1418SP4_03_CORETEK03AE_11C_V1_GPRS_MMI/Tools/MinGW/include/c++/3.3.1/bits/stl_alloc.h ****    *     object will be obtained directly from __new_alloc
 312:d:/MTK/MTK2503/MTK2503/11CW1418SP4_03_CORETEK03AE_11C_V1_GPRS_MMI/Tools/MinGW/include/c++/3.3.1/bits/stl_alloc.h ****    *  2. In all other cases, we allocate an object of size exactly
 313:d:/MTK/MTK2503/MTK2503/11CW1418SP4_03_CORETEK03AE_11C_V1_GPRS_MMI/Tools/MinGW/include/c++/3.3.1/bits/stl_alloc.h ****    *     _S_round_up(requested_size).  Thus the client has enough size
 314:d:/MTK/MTK2503/MTK2503/11CW1418SP4_03_CORETEK03AE_11C_V1_GPRS_MMI/Tools/MinGW/include/c++/3.3.1/bits/stl_alloc.h ****    *     information that we can return the object to the proper free list
 315:d:/MTK/MTK2503/MTK2503/11CW1418SP4_03_CORETEK03AE_11C_V1_GPRS_MMI/Tools/MinGW/include/c++/3.3.1/bits/stl_alloc.h ****    *     without permanently losing part of the object.
 316:d:/MTK/MTK2503/MTK2503/11CW1418SP4_03_CORETEK03AE_11C_V1_GPRS_MMI/Tools/MinGW/include/c++/3.3.1/bits/stl_alloc.h ****    *
 317:d:/MTK/MTK2503/MTK2503/11CW1418SP4_03_CORETEK03AE_11C_V1_GPRS_MMI/Tools/MinGW/include/c++/3.3.1/bits/stl_alloc.h ****    *  The first template parameter specifies whether more than one thread may
 318:d:/MTK/MTK2503/MTK2503/11CW1418SP4_03_CORETEK03AE_11C_V1_GPRS_MMI/Tools/MinGW/include/c++/3.3.1/bits/stl_alloc.h ****    *  use this allocator.  It is safe to allocate an object from one instance
 319:d:/MTK/MTK2503/MTK2503/11CW1418SP4_03_CORETEK03AE_11C_V1_GPRS_MMI/Tools/MinGW/include/c++/3.3.1/bits/stl_alloc.h ****    *  of a default_alloc and deallocate it with another one.  This effectively
 320:d:/MTK/MTK2503/MTK2503/11CW1418SP4_03_CORETEK03AE_11C_V1_GPRS_MMI/Tools/MinGW/include/c++/3.3.1/bits/stl_alloc.h ****    *  transfers its ownership to the second one.  This may have undesirable
 321:d:/MTK/MTK2503/MTK2503/11CW1418SP4_03_CORETEK03AE_11C_V1_GPRS_MMI/Tools/MinGW/include/c++/3.3.1/bits/stl_alloc.h ****    *  effects on reference locality.
 322:d:/MTK/MTK2503/MTK2503/11CW1418SP4_03_CORETEK03AE_11C_V1_GPRS_MMI/Tools/MinGW/include/c++/3.3.1/bits/stl_alloc.h ****    *
 323:d:/MTK/MTK2503/MTK2503/11CW1418SP4_03_CORETEK03AE_11C_V1_GPRS_MMI/Tools/MinGW/include/c++/3.3.1/bits/stl_alloc.h ****    *  The second parameter is unused and serves only to allow the creation of
 324:d:/MTK/MTK2503/MTK2503/11CW1418SP4_03_CORETEK03AE_11C_V1_GPRS_MMI/Tools/MinGW/include/c++/3.3.1/bits/stl_alloc.h ****    *  multiple default_alloc instances.  Note that containers built on different
 325:d:/MTK/MTK2503/MTK2503/11CW1418SP4_03_CORETEK03AE_11C_V1_GPRS_MMI/Tools/MinGW/include/c++/3.3.1/bits/stl_alloc.h ****    *  allocator instances have different types, limiting the utility of this
 326:d:/MTK/MTK2503/MTK2503/11CW1418SP4_03_CORETEK03AE_11C_V1_GPRS_MMI/Tools/MinGW/include/c++/3.3.1/bits/stl_alloc.h ****    *  approach.  If you do not wish to share the free lists with the main
 327:d:/MTK/MTK2503/MTK2503/11CW1418SP4_03_CORETEK03AE_11C_V1_GPRS_MMI/Tools/MinGW/include/c++/3.3.1/bits/stl_alloc.h ****    *  default_alloc instance, instantiate this with a non-zero __inst.
 328:d:/MTK/MTK2503/MTK2503/11CW1418SP4_03_CORETEK03AE_11C_V1_GPRS_MMI/Tools/MinGW/include/c++/3.3.1/bits/stl_alloc.h ****    *
 329:d:/MTK/MTK2503/MTK2503/11CW1418SP4_03_CORETEK03AE_11C_V1_GPRS_MMI/Tools/MinGW/include/c++/3.3.1/bits/stl_alloc.h ****    *  @endif
 330:d:/MTK/MTK2503/MTK2503/11CW1418SP4_03_CORETEK03AE_11C_V1_GPRS_MMI/Tools/MinGW/include/c++/3.3.1/bits/stl_alloc.h ****    *  (See @link Allocators allocators info @endlink for more.)
 331:d:/MTK/MTK2503/MTK2503/11CW1418SP4_03_CORETEK03AE_11C_V1_GPRS_MMI/Tools/MinGW/include/c++/3.3.1/bits/stl_alloc.h ****    */
 332:d:/MTK/MTK2503/MTK2503/11CW1418SP4_03_CORETEK03AE_11C_V1_GPRS_MMI/Tools/MinGW/include/c++/3.3.1/bits/stl_alloc.h ****   template<bool __threads, int __inst>
 333:d:/MTK/MTK2503/MTK2503/11CW1418SP4_03_CORETEK03AE_11C_V1_GPRS_MMI/Tools/MinGW/include/c++/3.3.1/bits/stl_alloc.h ****     class __default_alloc_template
 334:d:/MTK/MTK2503/MTK2503/11CW1418SP4_03_CORETEK03AE_11C_V1_GPRS_MMI/Tools/MinGW/include/c++/3.3.1/bits/stl_alloc.h ****     {
 335:d:/MTK/MTK2503/MTK2503/11CW1418SP4_03_CORETEK03AE_11C_V1_GPRS_MMI/Tools/MinGW/include/c++/3.3.1/bits/stl_alloc.h ****     private:
 336:d:/MTK/MTK2503/MTK2503/11CW1418SP4_03_CORETEK03AE_11C_V1_GPRS_MMI/Tools/MinGW/include/c++/3.3.1/bits/stl_alloc.h ****       enum {_ALIGN = 8};
 337:d:/MTK/MTK2503/MTK2503/11CW1418SP4_03_CORETEK03AE_11C_V1_GPRS_MMI/Tools/MinGW/include/c++/3.3.1/bits/stl_alloc.h ****       enum {_MAX_BYTES = 128};
 338:d:/MTK/MTK2503/MTK2503/11CW1418SP4_03_CORETEK03AE_11C_V1_GPRS_MMI/Tools/MinGW/include/c++/3.3.1/bits/stl_alloc.h ****       enum {_NFREELISTS = _MAX_BYTES / _ALIGN};
GAS LISTING d:/MTK/MTK2503/MTK2503/11CW1418SP4_03_CORETEK03AE_11C_V1_GPRS_MMI/plutommi/Customer/ResGenerator/gcctmp/ccQHcaaa.s 			page 59


 339:d:/MTK/MTK2503/MTK2503/11CW1418SP4_03_CORETEK03AE_11C_V1_GPRS_MMI/Tools/MinGW/include/c++/3.3.1/bits/stl_alloc.h **** 
 340:d:/MTK/MTK2503/MTK2503/11CW1418SP4_03_CORETEK03AE_11C_V1_GPRS_MMI/Tools/MinGW/include/c++/3.3.1/bits/stl_alloc.h ****       union _Obj
 341:d:/MTK/MTK2503/MTK2503/11CW1418SP4_03_CORETEK03AE_11C_V1_GPRS_MMI/Tools/MinGW/include/c++/3.3.1/bits/stl_alloc.h ****       {
 342:d:/MTK/MTK2503/MTK2503/11CW1418SP4_03_CORETEK03AE_11C_V1_GPRS_MMI/Tools/MinGW/include/c++/3.3.1/bits/stl_alloc.h ****         union _Obj* _M_free_list_link;
 343:d:/MTK/MTK2503/MTK2503/11CW1418SP4_03_CORETEK03AE_11C_V1_GPRS_MMI/Tools/MinGW/include/c++/3.3.1/bits/stl_alloc.h ****         char        _M_client_data[1];    // The client sees this.
 344:d:/MTK/MTK2503/MTK2503/11CW1418SP4_03_CORETEK03AE_11C_V1_GPRS_MMI/Tools/MinGW/include/c++/3.3.1/bits/stl_alloc.h ****       };
 345:d:/MTK/MTK2503/MTK2503/11CW1418SP4_03_CORETEK03AE_11C_V1_GPRS_MMI/Tools/MinGW/include/c++/3.3.1/bits/stl_alloc.h **** 
 346:d:/MTK/MTK2503/MTK2503/11CW1418SP4_03_CORETEK03AE_11C_V1_GPRS_MMI/Tools/MinGW/include/c++/3.3.1/bits/stl_alloc.h ****       static _Obj* volatile         _S_free_list[_NFREELISTS];
 347:d:/MTK/MTK2503/MTK2503/11CW1418SP4_03_CORETEK03AE_11C_V1_GPRS_MMI/Tools/MinGW/include/c++/3.3.1/bits/stl_alloc.h **** 
 348:d:/MTK/MTK2503/MTK2503/11CW1418SP4_03_CORETEK03AE_11C_V1_GPRS_MMI/Tools/MinGW/include/c++/3.3.1/bits/stl_alloc.h ****       // Chunk allocation state.
 349:d:/MTK/MTK2503/MTK2503/11CW1418SP4_03_CORETEK03AE_11C_V1_GPRS_MMI/Tools/MinGW/include/c++/3.3.1/bits/stl_alloc.h ****       static char*                  _S_start_free;
 350:d:/MTK/MTK2503/MTK2503/11CW1418SP4_03_CORETEK03AE_11C_V1_GPRS_MMI/Tools/MinGW/include/c++/3.3.1/bits/stl_alloc.h ****       static char*                  _S_end_free;
 351:d:/MTK/MTK2503/MTK2503/11CW1418SP4_03_CORETEK03AE_11C_V1_GPRS_MMI/Tools/MinGW/include/c++/3.3.1/bits/stl_alloc.h ****       static size_t                 _S_heap_size;
 352:d:/MTK/MTK2503/MTK2503/11CW1418SP4_03_CORETEK03AE_11C_V1_GPRS_MMI/Tools/MinGW/include/c++/3.3.1/bits/stl_alloc.h **** 
 353:d:/MTK/MTK2503/MTK2503/11CW1418SP4_03_CORETEK03AE_11C_V1_GPRS_MMI/Tools/MinGW/include/c++/3.3.1/bits/stl_alloc.h ****       static _STL_mutex_lock        _S_node_allocator_lock;
 354:d:/MTK/MTK2503/MTK2503/11CW1418SP4_03_CORETEK03AE_11C_V1_GPRS_MMI/Tools/MinGW/include/c++/3.3.1/bits/stl_alloc.h **** 
 355:d:/MTK/MTK2503/MTK2503/11CW1418SP4_03_CORETEK03AE_11C_V1_GPRS_MMI/Tools/MinGW/include/c++/3.3.1/bits/stl_alloc.h ****       static size_t
 356:d:/MTK/MTK2503/MTK2503/11CW1418SP4_03_CORETEK03AE_11C_V1_GPRS_MMI/Tools/MinGW/include/c++/3.3.1/bits/stl_alloc.h ****       _S_round_up(size_t __bytes)
 357:d:/MTK/MTK2503/MTK2503/11CW1418SP4_03_CORETEK03AE_11C_V1_GPRS_MMI/Tools/MinGW/include/c++/3.3.1/bits/stl_alloc.h ****       { return (((__bytes) + (size_t) _ALIGN-1) & ~((size_t) _ALIGN - 1)); }
 358:d:/MTK/MTK2503/MTK2503/11CW1418SP4_03_CORETEK03AE_11C_V1_GPRS_MMI/Tools/MinGW/include/c++/3.3.1/bits/stl_alloc.h **** 
 359:d:/MTK/MTK2503/MTK2503/11CW1418SP4_03_CORETEK03AE_11C_V1_GPRS_MMI/Tools/MinGW/include/c++/3.3.1/bits/stl_alloc.h ****       static size_t
 360:d:/MTK/MTK2503/MTK2503/11CW1418SP4_03_CORETEK03AE_11C_V1_GPRS_MMI/Tools/MinGW/include/c++/3.3.1/bits/stl_alloc.h ****       _S_freelist_index(size_t __bytes)
 361:d:/MTK/MTK2503/MTK2503/11CW1418SP4_03_CORETEK03AE_11C_V1_GPRS_MMI/Tools/MinGW/include/c++/3.3.1/bits/stl_alloc.h ****       { return (((__bytes) + (size_t)_ALIGN - 1)/(size_t)_ALIGN - 1); }
 362:d:/MTK/MTK2503/MTK2503/11CW1418SP4_03_CORETEK03AE_11C_V1_GPRS_MMI/Tools/MinGW/include/c++/3.3.1/bits/stl_alloc.h **** 
 363:d:/MTK/MTK2503/MTK2503/11CW1418SP4_03_CORETEK03AE_11C_V1_GPRS_MMI/Tools/MinGW/include/c++/3.3.1/bits/stl_alloc.h ****       // Returns an object of size __n, and optionally adds to size __n
 364:d:/MTK/MTK2503/MTK2503/11CW1418SP4_03_CORETEK03AE_11C_V1_GPRS_MMI/Tools/MinGW/include/c++/3.3.1/bits/stl_alloc.h ****       // free list.
 365:d:/MTK/MTK2503/MTK2503/11CW1418SP4_03_CORETEK03AE_11C_V1_GPRS_MMI/Tools/MinGW/include/c++/3.3.1/bits/stl_alloc.h ****       static void*
 366:d:/MTK/MTK2503/MTK2503/11CW1418SP4_03_CORETEK03AE_11C_V1_GPRS_MMI/Tools/MinGW/include/c++/3.3.1/bits/stl_alloc.h ****       _S_refill(size_t __n);
 367:d:/MTK/MTK2503/MTK2503/11CW1418SP4_03_CORETEK03AE_11C_V1_GPRS_MMI/Tools/MinGW/include/c++/3.3.1/bits/stl_alloc.h **** 
 368:d:/MTK/MTK2503/MTK2503/11CW1418SP4_03_CORETEK03AE_11C_V1_GPRS_MMI/Tools/MinGW/include/c++/3.3.1/bits/stl_alloc.h ****       // Allocates a chunk for nobjs of size size.  nobjs may be reduced
 369:d:/MTK/MTK2503/MTK2503/11CW1418SP4_03_CORETEK03AE_11C_V1_GPRS_MMI/Tools/MinGW/include/c++/3.3.1/bits/stl_alloc.h ****       // if it is inconvenient to allocate the requested number.
 370:d:/MTK/MTK2503/MTK2503/11CW1418SP4_03_CORETEK03AE_11C_V1_GPRS_MMI/Tools/MinGW/include/c++/3.3.1/bits/stl_alloc.h ****       static char*
 371:d:/MTK/MTK2503/MTK2503/11CW1418SP4_03_CORETEK03AE_11C_V1_GPRS_MMI/Tools/MinGW/include/c++/3.3.1/bits/stl_alloc.h ****       _S_chunk_alloc(size_t __size, int& __nobjs);
 372:d:/MTK/MTK2503/MTK2503/11CW1418SP4_03_CORETEK03AE_11C_V1_GPRS_MMI/Tools/MinGW/include/c++/3.3.1/bits/stl_alloc.h **** 
 373:d:/MTK/MTK2503/MTK2503/11CW1418SP4_03_CORETEK03AE_11C_V1_GPRS_MMI/Tools/MinGW/include/c++/3.3.1/bits/stl_alloc.h ****       // It would be nice to use _STL_auto_lock here.  But we need a
 374:d:/MTK/MTK2503/MTK2503/11CW1418SP4_03_CORETEK03AE_11C_V1_GPRS_MMI/Tools/MinGW/include/c++/3.3.1/bits/stl_alloc.h ****       // test whether threads are in use.
 375:d:/MTK/MTK2503/MTK2503/11CW1418SP4_03_CORETEK03AE_11C_V1_GPRS_MMI/Tools/MinGW/include/c++/3.3.1/bits/stl_alloc.h ****       struct _Lock
 376:d:/MTK/MTK2503/MTK2503/11CW1418SP4_03_CORETEK03AE_11C_V1_GPRS_MMI/Tools/MinGW/include/c++/3.3.1/bits/stl_alloc.h ****       {
 377:d:/MTK/MTK2503/MTK2503/11CW1418SP4_03_CORETEK03AE_11C_V1_GPRS_MMI/Tools/MinGW/include/c++/3.3.1/bits/stl_alloc.h ****         _Lock() { if (__threads) _S_node_allocator_lock._M_acquire_lock(); }
 378:d:/MTK/MTK2503/MTK2503/11CW1418SP4_03_CORETEK03AE_11C_V1_GPRS_MMI/Tools/MinGW/include/c++/3.3.1/bits/stl_alloc.h ****         ~_Lock() { if (__threads) _S_node_allocator_lock._M_release_lock(); }
 379:d:/MTK/MTK2503/MTK2503/11CW1418SP4_03_CORETEK03AE_11C_V1_GPRS_MMI/Tools/MinGW/include/c++/3.3.1/bits/stl_alloc.h ****       } __attribute__ ((__unused__));
 380:d:/MTK/MTK2503/MTK2503/11CW1418SP4_03_CORETEK03AE_11C_V1_GPRS_MMI/Tools/MinGW/include/c++/3.3.1/bits/stl_alloc.h ****       friend struct _Lock;
 381:d:/MTK/MTK2503/MTK2503/11CW1418SP4_03_CORETEK03AE_11C_V1_GPRS_MMI/Tools/MinGW/include/c++/3.3.1/bits/stl_alloc.h **** 
 382:d:/MTK/MTK2503/MTK2503/11CW1418SP4_03_CORETEK03AE_11C_V1_GPRS_MMI/Tools/MinGW/include/c++/3.3.1/bits/stl_alloc.h ****       static _Atomic_word _S_force_new;
 383:d:/MTK/MTK2503/MTK2503/11CW1418SP4_03_CORETEK03AE_11C_V1_GPRS_MMI/Tools/MinGW/include/c++/3.3.1/bits/stl_alloc.h **** 
 384:d:/MTK/MTK2503/MTK2503/11CW1418SP4_03_CORETEK03AE_11C_V1_GPRS_MMI/Tools/MinGW/include/c++/3.3.1/bits/stl_alloc.h ****     public:
 385:d:/MTK/MTK2503/MTK2503/11CW1418SP4_03_CORETEK03AE_11C_V1_GPRS_MMI/Tools/MinGW/include/c++/3.3.1/bits/stl_alloc.h ****       // __n must be > 0
 386:d:/MTK/MTK2503/MTK2503/11CW1418SP4_03_CORETEK03AE_11C_V1_GPRS_MMI/Tools/MinGW/include/c++/3.3.1/bits/stl_alloc.h ****       static void*
 387:d:/MTK/MTK2503/MTK2503/11CW1418SP4_03_CORETEK03AE_11C_V1_GPRS_MMI/Tools/MinGW/include/c++/3.3.1/bits/stl_alloc.h ****       allocate(size_t __n)
 388:d:/MTK/MTK2503/MTK2503/11CW1418SP4_03_CORETEK03AE_11C_V1_GPRS_MMI/Tools/MinGW/include/c++/3.3.1/bits/stl_alloc.h ****       {
 389:d:/MTK/MTK2503/MTK2503/11CW1418SP4_03_CORETEK03AE_11C_V1_GPRS_MMI/Tools/MinGW/include/c++/3.3.1/bits/stl_alloc.h **** 	void* __ret = 0;
 390:d:/MTK/MTK2503/MTK2503/11CW1418SP4_03_CORETEK03AE_11C_V1_GPRS_MMI/Tools/MinGW/include/c++/3.3.1/bits/stl_alloc.h **** 
 391:d:/MTK/MTK2503/MTK2503/11CW1418SP4_03_CORETEK03AE_11C_V1_GPRS_MMI/Tools/MinGW/include/c++/3.3.1/bits/stl_alloc.h **** 	// If there is a race through here, assume answer from getenv
 392:d:/MTK/MTK2503/MTK2503/11CW1418SP4_03_CORETEK03AE_11C_V1_GPRS_MMI/Tools/MinGW/include/c++/3.3.1/bits/stl_alloc.h **** 	// will resolve in same direction.  Inspired by techniques
 393:d:/MTK/MTK2503/MTK2503/11CW1418SP4_03_CORETEK03AE_11C_V1_GPRS_MMI/Tools/MinGW/include/c++/3.3.1/bits/stl_alloc.h **** 	// to efficiently support threading found in basic_string.h.
 394:d:/MTK/MTK2503/MTK2503/11CW1418SP4_03_CORETEK03AE_11C_V1_GPRS_MMI/Tools/MinGW/include/c++/3.3.1/bits/stl_alloc.h **** 	if (_S_force_new == 0)
 395:d:/MTK/MTK2503/MTK2503/11CW1418SP4_03_CORETEK03AE_11C_V1_GPRS_MMI/Tools/MinGW/include/c++/3.3.1/bits/stl_alloc.h **** 	  {
GAS LISTING d:/MTK/MTK2503/MTK2503/11CW1418SP4_03_CORETEK03AE_11C_V1_GPRS_MMI/plutommi/Customer/ResGenerator/gcctmp/ccQHcaaa.s 			page 60


 396:d:/MTK/MTK2503/MTK2503/11CW1418SP4_03_CORETEK03AE_11C_V1_GPRS_MMI/Tools/MinGW/include/c++/3.3.1/bits/stl_alloc.h **** 	    if (getenv("GLIBCPP_FORCE_NEW"))
 397:d:/MTK/MTK2503/MTK2503/11CW1418SP4_03_CORETEK03AE_11C_V1_GPRS_MMI/Tools/MinGW/include/c++/3.3.1/bits/stl_alloc.h **** 	      __atomic_add(&_S_force_new, 1);
 398:d:/MTK/MTK2503/MTK2503/11CW1418SP4_03_CORETEK03AE_11C_V1_GPRS_MMI/Tools/MinGW/include/c++/3.3.1/bits/stl_alloc.h **** 	    else
 399:d:/MTK/MTK2503/MTK2503/11CW1418SP4_03_CORETEK03AE_11C_V1_GPRS_MMI/Tools/MinGW/include/c++/3.3.1/bits/stl_alloc.h **** 	      __atomic_add(&_S_force_new, -1);
 400:d:/MTK/MTK2503/MTK2503/11CW1418SP4_03_CORETEK03AE_11C_V1_GPRS_MMI/Tools/MinGW/include/c++/3.3.1/bits/stl_alloc.h **** 	  }
 401:d:/MTK/MTK2503/MTK2503/11CW1418SP4_03_CORETEK03AE_11C_V1_GPRS_MMI/Tools/MinGW/include/c++/3.3.1/bits/stl_alloc.h **** 
 402:d:/MTK/MTK2503/MTK2503/11CW1418SP4_03_CORETEK03AE_11C_V1_GPRS_MMI/Tools/MinGW/include/c++/3.3.1/bits/stl_alloc.h **** 	if ((__n > (size_t) _MAX_BYTES) || (_S_force_new > 0))
 403:d:/MTK/MTK2503/MTK2503/11CW1418SP4_03_CORETEK03AE_11C_V1_GPRS_MMI/Tools/MinGW/include/c++/3.3.1/bits/stl_alloc.h **** 	  __ret = __new_alloc::allocate(__n);
 404:d:/MTK/MTK2503/MTK2503/11CW1418SP4_03_CORETEK03AE_11C_V1_GPRS_MMI/Tools/MinGW/include/c++/3.3.1/bits/stl_alloc.h **** 	else
 405:d:/MTK/MTK2503/MTK2503/11CW1418SP4_03_CORETEK03AE_11C_V1_GPRS_MMI/Tools/MinGW/include/c++/3.3.1/bits/stl_alloc.h **** 	  {
 406:d:/MTK/MTK2503/MTK2503/11CW1418SP4_03_CORETEK03AE_11C_V1_GPRS_MMI/Tools/MinGW/include/c++/3.3.1/bits/stl_alloc.h **** 	    _Obj* volatile* __my_free_list = _S_free_list
 407:d:/MTK/MTK2503/MTK2503/11CW1418SP4_03_CORETEK03AE_11C_V1_GPRS_MMI/Tools/MinGW/include/c++/3.3.1/bits/stl_alloc.h **** 	      + _S_freelist_index(__n);
 408:d:/MTK/MTK2503/MTK2503/11CW1418SP4_03_CORETEK03AE_11C_V1_GPRS_MMI/Tools/MinGW/include/c++/3.3.1/bits/stl_alloc.h **** 	    // Acquire the lock here with a constructor call.  This
 409:d:/MTK/MTK2503/MTK2503/11CW1418SP4_03_CORETEK03AE_11C_V1_GPRS_MMI/Tools/MinGW/include/c++/3.3.1/bits/stl_alloc.h **** 	    // ensures that it is released in exit or during stack
 410:d:/MTK/MTK2503/MTK2503/11CW1418SP4_03_CORETEK03AE_11C_V1_GPRS_MMI/Tools/MinGW/include/c++/3.3.1/bits/stl_alloc.h **** 	    // unwinding.
 411:d:/MTK/MTK2503/MTK2503/11CW1418SP4_03_CORETEK03AE_11C_V1_GPRS_MMI/Tools/MinGW/include/c++/3.3.1/bits/stl_alloc.h **** 	    _Lock __lock_instance;
 412:d:/MTK/MTK2503/MTK2503/11CW1418SP4_03_CORETEK03AE_11C_V1_GPRS_MMI/Tools/MinGW/include/c++/3.3.1/bits/stl_alloc.h **** 	    _Obj* __restrict__ __result = *__my_free_list;
 413:d:/MTK/MTK2503/MTK2503/11CW1418SP4_03_CORETEK03AE_11C_V1_GPRS_MMI/Tools/MinGW/include/c++/3.3.1/bits/stl_alloc.h **** 	    if (__builtin_expect(__result == 0, 0))
 414:d:/MTK/MTK2503/MTK2503/11CW1418SP4_03_CORETEK03AE_11C_V1_GPRS_MMI/Tools/MinGW/include/c++/3.3.1/bits/stl_alloc.h **** 	      __ret = _S_refill(_S_round_up(__n));
 415:d:/MTK/MTK2503/MTK2503/11CW1418SP4_03_CORETEK03AE_11C_V1_GPRS_MMI/Tools/MinGW/include/c++/3.3.1/bits/stl_alloc.h **** 	    else
 416:d:/MTK/MTK2503/MTK2503/11CW1418SP4_03_CORETEK03AE_11C_V1_GPRS_MMI/Tools/MinGW/include/c++/3.3.1/bits/stl_alloc.h **** 	      {
 417:d:/MTK/MTK2503/MTK2503/11CW1418SP4_03_CORETEK03AE_11C_V1_GPRS_MMI/Tools/MinGW/include/c++/3.3.1/bits/stl_alloc.h **** 		*__my_free_list = __result -> _M_free_list_link;
 418:d:/MTK/MTK2503/MTK2503/11CW1418SP4_03_CORETEK03AE_11C_V1_GPRS_MMI/Tools/MinGW/include/c++/3.3.1/bits/stl_alloc.h **** 		__ret = __result;
 419:d:/MTK/MTK2503/MTK2503/11CW1418SP4_03_CORETEK03AE_11C_V1_GPRS_MMI/Tools/MinGW/include/c++/3.3.1/bits/stl_alloc.h **** 	      }	    
 420:d:/MTK/MTK2503/MTK2503/11CW1418SP4_03_CORETEK03AE_11C_V1_GPRS_MMI/Tools/MinGW/include/c++/3.3.1/bits/stl_alloc.h **** 	    if (__builtin_expect(__ret == 0, 0))
 421:d:/MTK/MTK2503/MTK2503/11CW1418SP4_03_CORETEK03AE_11C_V1_GPRS_MMI/Tools/MinGW/include/c++/3.3.1/bits/stl_alloc.h **** 	      __throw_bad_alloc();
 422:d:/MTK/MTK2503/MTK2503/11CW1418SP4_03_CORETEK03AE_11C_V1_GPRS_MMI/Tools/MinGW/include/c++/3.3.1/bits/stl_alloc.h **** 	  }
 423:d:/MTK/MTK2503/MTK2503/11CW1418SP4_03_CORETEK03AE_11C_V1_GPRS_MMI/Tools/MinGW/include/c++/3.3.1/bits/stl_alloc.h **** 	return __ret;
 424:d:/MTK/MTK2503/MTK2503/11CW1418SP4_03_CORETEK03AE_11C_V1_GPRS_MMI/Tools/MinGW/include/c++/3.3.1/bits/stl_alloc.h ****       }
 425:d:/MTK/MTK2503/MTK2503/11CW1418SP4_03_CORETEK03AE_11C_V1_GPRS_MMI/Tools/MinGW/include/c++/3.3.1/bits/stl_alloc.h **** 
 426:d:/MTK/MTK2503/MTK2503/11CW1418SP4_03_CORETEK03AE_11C_V1_GPRS_MMI/Tools/MinGW/include/c++/3.3.1/bits/stl_alloc.h ****       // __p may not be 0
 427:d:/MTK/MTK2503/MTK2503/11CW1418SP4_03_CORETEK03AE_11C_V1_GPRS_MMI/Tools/MinGW/include/c++/3.3.1/bits/stl_alloc.h ****       static void
 428:d:/MTK/MTK2503/MTK2503/11CW1418SP4_03_CORETEK03AE_11C_V1_GPRS_MMI/Tools/MinGW/include/c++/3.3.1/bits/stl_alloc.h ****       deallocate(void* __p, size_t __n)
 429:d:/MTK/MTK2503/MTK2503/11CW1418SP4_03_CORETEK03AE_11C_V1_GPRS_MMI/Tools/MinGW/include/c++/3.3.1/bits/stl_alloc.h ****       {
 430:d:/MTK/MTK2503/MTK2503/11CW1418SP4_03_CORETEK03AE_11C_V1_GPRS_MMI/Tools/MinGW/include/c++/3.3.1/bits/stl_alloc.h **** 	if ((__n > (size_t) _MAX_BYTES) || (_S_force_new > 0))
 431:d:/MTK/MTK2503/MTK2503/11CW1418SP4_03_CORETEK03AE_11C_V1_GPRS_MMI/Tools/MinGW/include/c++/3.3.1/bits/stl_alloc.h **** 	  __new_alloc::deallocate(__p, __n);
 432:d:/MTK/MTK2503/MTK2503/11CW1418SP4_03_CORETEK03AE_11C_V1_GPRS_MMI/Tools/MinGW/include/c++/3.3.1/bits/stl_alloc.h **** 	else
 433:d:/MTK/MTK2503/MTK2503/11CW1418SP4_03_CORETEK03AE_11C_V1_GPRS_MMI/Tools/MinGW/include/c++/3.3.1/bits/stl_alloc.h **** 	  {
 434:d:/MTK/MTK2503/MTK2503/11CW1418SP4_03_CORETEK03AE_11C_V1_GPRS_MMI/Tools/MinGW/include/c++/3.3.1/bits/stl_alloc.h **** 	    _Obj* volatile*  __my_free_list = _S_free_list
 435:d:/MTK/MTK2503/MTK2503/11CW1418SP4_03_CORETEK03AE_11C_V1_GPRS_MMI/Tools/MinGW/include/c++/3.3.1/bits/stl_alloc.h **** 	      + _S_freelist_index(__n);
 436:d:/MTK/MTK2503/MTK2503/11CW1418SP4_03_CORETEK03AE_11C_V1_GPRS_MMI/Tools/MinGW/include/c++/3.3.1/bits/stl_alloc.h **** 	    _Obj* __q = (_Obj*)__p;
 437:d:/MTK/MTK2503/MTK2503/11CW1418SP4_03_CORETEK03AE_11C_V1_GPRS_MMI/Tools/MinGW/include/c++/3.3.1/bits/stl_alloc.h **** 
 438:d:/MTK/MTK2503/MTK2503/11CW1418SP4_03_CORETEK03AE_11C_V1_GPRS_MMI/Tools/MinGW/include/c++/3.3.1/bits/stl_alloc.h **** 	    // Acquire the lock here with a constructor call.  This
 439:d:/MTK/MTK2503/MTK2503/11CW1418SP4_03_CORETEK03AE_11C_V1_GPRS_MMI/Tools/MinGW/include/c++/3.3.1/bits/stl_alloc.h **** 	    // ensures that it is released in exit or during stack
 440:d:/MTK/MTK2503/MTK2503/11CW1418SP4_03_CORETEK03AE_11C_V1_GPRS_MMI/Tools/MinGW/include/c++/3.3.1/bits/stl_alloc.h **** 	    // unwinding.
 441:d:/MTK/MTK2503/MTK2503/11CW1418SP4_03_CORETEK03AE_11C_V1_GPRS_MMI/Tools/MinGW/include/c++/3.3.1/bits/stl_alloc.h **** 	    _Lock __lock_instance;
 442:d:/MTK/MTK2503/MTK2503/11CW1418SP4_03_CORETEK03AE_11C_V1_GPRS_MMI/Tools/MinGW/include/c++/3.3.1/bits/stl_alloc.h **** 	    __q -> _M_free_list_link = *__my_free_list;
 443:d:/MTK/MTK2503/MTK2503/11CW1418SP4_03_CORETEK03AE_11C_V1_GPRS_MMI/Tools/MinGW/include/c++/3.3.1/bits/stl_alloc.h **** 	    *__my_free_list = __q;
 444:d:/MTK/MTK2503/MTK2503/11CW1418SP4_03_CORETEK03AE_11C_V1_GPRS_MMI/Tools/MinGW/include/c++/3.3.1/bits/stl_alloc.h **** 	  }
 445:d:/MTK/MTK2503/MTK2503/11CW1418SP4_03_CORETEK03AE_11C_V1_GPRS_MMI/Tools/MinGW/include/c++/3.3.1/bits/stl_alloc.h ****       }
 446:d:/MTK/MTK2503/MTK2503/11CW1418SP4_03_CORETEK03AE_11C_V1_GPRS_MMI/Tools/MinGW/include/c++/3.3.1/bits/stl_alloc.h **** 
 447:d:/MTK/MTK2503/MTK2503/11CW1418SP4_03_CORETEK03AE_11C_V1_GPRS_MMI/Tools/MinGW/include/c++/3.3.1/bits/stl_alloc.h ****       static void*
 448:d:/MTK/MTK2503/MTK2503/11CW1418SP4_03_CORETEK03AE_11C_V1_GPRS_MMI/Tools/MinGW/include/c++/3.3.1/bits/stl_alloc.h ****       reallocate(void* __p, size_t __old_sz, size_t __new_sz);
 449:d:/MTK/MTK2503/MTK2503/11CW1418SP4_03_CORETEK03AE_11C_V1_GPRS_MMI/Tools/MinGW/include/c++/3.3.1/bits/stl_alloc.h ****     };
 450:d:/MTK/MTK2503/MTK2503/11CW1418SP4_03_CORETEK03AE_11C_V1_GPRS_MMI/Tools/MinGW/include/c++/3.3.1/bits/stl_alloc.h **** 
 451:d:/MTK/MTK2503/MTK2503/11CW1418SP4_03_CORETEK03AE_11C_V1_GPRS_MMI/Tools/MinGW/include/c++/3.3.1/bits/stl_alloc.h ****   template<bool __threads, int __inst> _Atomic_word
 452:d:/MTK/MTK2503/MTK2503/11CW1418SP4_03_CORETEK03AE_11C_V1_GPRS_MMI/Tools/MinGW/include/c++/3.3.1/bits/stl_alloc.h ****   __default_alloc_template<__threads, __inst>::_S_force_new = 0;
GAS LISTING d:/MTK/MTK2503/MTK2503/11CW1418SP4_03_CORETEK03AE_11C_V1_GPRS_MMI/plutommi/Customer/ResGenerator/gcctmp/ccQHcaaa.s 			page 61


 453:d:/MTK/MTK2503/MTK2503/11CW1418SP4_03_CORETEK03AE_11C_V1_GPRS_MMI/Tools/MinGW/include/c++/3.3.1/bits/stl_alloc.h **** 
 454:d:/MTK/MTK2503/MTK2503/11CW1418SP4_03_CORETEK03AE_11C_V1_GPRS_MMI/Tools/MinGW/include/c++/3.3.1/bits/stl_alloc.h ****   template<bool __threads, int __inst>
 455:d:/MTK/MTK2503/MTK2503/11CW1418SP4_03_CORETEK03AE_11C_V1_GPRS_MMI/Tools/MinGW/include/c++/3.3.1/bits/stl_alloc.h ****     inline bool
 456:d:/MTK/MTK2503/MTK2503/11CW1418SP4_03_CORETEK03AE_11C_V1_GPRS_MMI/Tools/MinGW/include/c++/3.3.1/bits/stl_alloc.h ****     operator==(const __default_alloc_template<__threads,__inst>&,
 457:d:/MTK/MTK2503/MTK2503/11CW1418SP4_03_CORETEK03AE_11C_V1_GPRS_MMI/Tools/MinGW/include/c++/3.3.1/bits/stl_alloc.h ****                const __default_alloc_template<__threads,__inst>&)
 458:d:/MTK/MTK2503/MTK2503/11CW1418SP4_03_CORETEK03AE_11C_V1_GPRS_MMI/Tools/MinGW/include/c++/3.3.1/bits/stl_alloc.h ****     { return true; }
 459:d:/MTK/MTK2503/MTK2503/11CW1418SP4_03_CORETEK03AE_11C_V1_GPRS_MMI/Tools/MinGW/include/c++/3.3.1/bits/stl_alloc.h **** 
 460:d:/MTK/MTK2503/MTK2503/11CW1418SP4_03_CORETEK03AE_11C_V1_GPRS_MMI/Tools/MinGW/include/c++/3.3.1/bits/stl_alloc.h ****   template<bool __threads, int __inst>
 461:d:/MTK/MTK2503/MTK2503/11CW1418SP4_03_CORETEK03AE_11C_V1_GPRS_MMI/Tools/MinGW/include/c++/3.3.1/bits/stl_alloc.h ****     inline bool
 462:d:/MTK/MTK2503/MTK2503/11CW1418SP4_03_CORETEK03AE_11C_V1_GPRS_MMI/Tools/MinGW/include/c++/3.3.1/bits/stl_alloc.h ****     operator!=(const __default_alloc_template<__threads,__inst>&,
 463:d:/MTK/MTK2503/MTK2503/11CW1418SP4_03_CORETEK03AE_11C_V1_GPRS_MMI/Tools/MinGW/include/c++/3.3.1/bits/stl_alloc.h ****                const __default_alloc_template<__threads,__inst>&)
 464:d:/MTK/MTK2503/MTK2503/11CW1418SP4_03_CORETEK03AE_11C_V1_GPRS_MMI/Tools/MinGW/include/c++/3.3.1/bits/stl_alloc.h ****     { return false; }
 465:d:/MTK/MTK2503/MTK2503/11CW1418SP4_03_CORETEK03AE_11C_V1_GPRS_MMI/Tools/MinGW/include/c++/3.3.1/bits/stl_alloc.h **** 
 466:d:/MTK/MTK2503/MTK2503/11CW1418SP4_03_CORETEK03AE_11C_V1_GPRS_MMI/Tools/MinGW/include/c++/3.3.1/bits/stl_alloc.h **** 
 467:d:/MTK/MTK2503/MTK2503/11CW1418SP4_03_CORETEK03AE_11C_V1_GPRS_MMI/Tools/MinGW/include/c++/3.3.1/bits/stl_alloc.h ****   // We allocate memory in large chunks in order to avoid fragmenting the
 468:d:/MTK/MTK2503/MTK2503/11CW1418SP4_03_CORETEK03AE_11C_V1_GPRS_MMI/Tools/MinGW/include/c++/3.3.1/bits/stl_alloc.h ****   // heap too much.  We assume that __size is properly aligned.  We hold
 469:d:/MTK/MTK2503/MTK2503/11CW1418SP4_03_CORETEK03AE_11C_V1_GPRS_MMI/Tools/MinGW/include/c++/3.3.1/bits/stl_alloc.h ****   // the allocation lock.
 470:d:/MTK/MTK2503/MTK2503/11CW1418SP4_03_CORETEK03AE_11C_V1_GPRS_MMI/Tools/MinGW/include/c++/3.3.1/bits/stl_alloc.h ****   template<bool __threads, int __inst>
 471:d:/MTK/MTK2503/MTK2503/11CW1418SP4_03_CORETEK03AE_11C_V1_GPRS_MMI/Tools/MinGW/include/c++/3.3.1/bits/stl_alloc.h ****     char*
 472:d:/MTK/MTK2503/MTK2503/11CW1418SP4_03_CORETEK03AE_11C_V1_GPRS_MMI/Tools/MinGW/include/c++/3.3.1/bits/stl_alloc.h ****     __default_alloc_template<__threads, __inst>::
 473:d:/MTK/MTK2503/MTK2503/11CW1418SP4_03_CORETEK03AE_11C_V1_GPRS_MMI/Tools/MinGW/include/c++/3.3.1/bits/stl_alloc.h ****     _S_chunk_alloc(size_t __size, int& __nobjs)
 474:d:/MTK/MTK2503/MTK2503/11CW1418SP4_03_CORETEK03AE_11C_V1_GPRS_MMI/Tools/MinGW/include/c++/3.3.1/bits/stl_alloc.h ****     {
 475:d:/MTK/MTK2503/MTK2503/11CW1418SP4_03_CORETEK03AE_11C_V1_GPRS_MMI/Tools/MinGW/include/c++/3.3.1/bits/stl_alloc.h ****       char* __result;
 476:d:/MTK/MTK2503/MTK2503/11CW1418SP4_03_CORETEK03AE_11C_V1_GPRS_MMI/Tools/MinGW/include/c++/3.3.1/bits/stl_alloc.h ****       size_t __total_bytes = __size * __nobjs;
 477:d:/MTK/MTK2503/MTK2503/11CW1418SP4_03_CORETEK03AE_11C_V1_GPRS_MMI/Tools/MinGW/include/c++/3.3.1/bits/stl_alloc.h ****       size_t __bytes_left = _S_end_free - _S_start_free;
 478:d:/MTK/MTK2503/MTK2503/11CW1418SP4_03_CORETEK03AE_11C_V1_GPRS_MMI/Tools/MinGW/include/c++/3.3.1/bits/stl_alloc.h **** 
 479:d:/MTK/MTK2503/MTK2503/11CW1418SP4_03_CORETEK03AE_11C_V1_GPRS_MMI/Tools/MinGW/include/c++/3.3.1/bits/stl_alloc.h ****       if (__bytes_left >= __total_bytes)
 480:d:/MTK/MTK2503/MTK2503/11CW1418SP4_03_CORETEK03AE_11C_V1_GPRS_MMI/Tools/MinGW/include/c++/3.3.1/bits/stl_alloc.h ****         {
 481:d:/MTK/MTK2503/MTK2503/11CW1418SP4_03_CORETEK03AE_11C_V1_GPRS_MMI/Tools/MinGW/include/c++/3.3.1/bits/stl_alloc.h ****           __result = _S_start_free;
 482:d:/MTK/MTK2503/MTK2503/11CW1418SP4_03_CORETEK03AE_11C_V1_GPRS_MMI/Tools/MinGW/include/c++/3.3.1/bits/stl_alloc.h ****           _S_start_free += __total_bytes;
 483:d:/MTK/MTK2503/MTK2503/11CW1418SP4_03_CORETEK03AE_11C_V1_GPRS_MMI/Tools/MinGW/include/c++/3.3.1/bits/stl_alloc.h ****           return __result ;
 484:d:/MTK/MTK2503/MTK2503/11CW1418SP4_03_CORETEK03AE_11C_V1_GPRS_MMI/Tools/MinGW/include/c++/3.3.1/bits/stl_alloc.h ****         }
 485:d:/MTK/MTK2503/MTK2503/11CW1418SP4_03_CORETEK03AE_11C_V1_GPRS_MMI/Tools/MinGW/include/c++/3.3.1/bits/stl_alloc.h ****       else if (__bytes_left >= __size)
 486:d:/MTK/MTK2503/MTK2503/11CW1418SP4_03_CORETEK03AE_11C_V1_GPRS_MMI/Tools/MinGW/include/c++/3.3.1/bits/stl_alloc.h ****         {
 487:d:/MTK/MTK2503/MTK2503/11CW1418SP4_03_CORETEK03AE_11C_V1_GPRS_MMI/Tools/MinGW/include/c++/3.3.1/bits/stl_alloc.h ****           __nobjs = (int)(__bytes_left/__size);
 488:d:/MTK/MTK2503/MTK2503/11CW1418SP4_03_CORETEK03AE_11C_V1_GPRS_MMI/Tools/MinGW/include/c++/3.3.1/bits/stl_alloc.h ****           __total_bytes = __size * __nobjs;
 489:d:/MTK/MTK2503/MTK2503/11CW1418SP4_03_CORETEK03AE_11C_V1_GPRS_MMI/Tools/MinGW/include/c++/3.3.1/bits/stl_alloc.h ****           __result = _S_start_free;
 490:d:/MTK/MTK2503/MTK2503/11CW1418SP4_03_CORETEK03AE_11C_V1_GPRS_MMI/Tools/MinGW/include/c++/3.3.1/bits/stl_alloc.h ****           _S_start_free += __total_bytes;
 491:d:/MTK/MTK2503/MTK2503/11CW1418SP4_03_CORETEK03AE_11C_V1_GPRS_MMI/Tools/MinGW/include/c++/3.3.1/bits/stl_alloc.h ****           return __result;
 492:d:/MTK/MTK2503/MTK2503/11CW1418SP4_03_CORETEK03AE_11C_V1_GPRS_MMI/Tools/MinGW/include/c++/3.3.1/bits/stl_alloc.h ****         }
 493:d:/MTK/MTK2503/MTK2503/11CW1418SP4_03_CORETEK03AE_11C_V1_GPRS_MMI/Tools/MinGW/include/c++/3.3.1/bits/stl_alloc.h ****       else
 494:d:/MTK/MTK2503/MTK2503/11CW1418SP4_03_CORETEK03AE_11C_V1_GPRS_MMI/Tools/MinGW/include/c++/3.3.1/bits/stl_alloc.h ****         {
 495:d:/MTK/MTK2503/MTK2503/11CW1418SP4_03_CORETEK03AE_11C_V1_GPRS_MMI/Tools/MinGW/include/c++/3.3.1/bits/stl_alloc.h ****           size_t __bytes_to_get =
 496:d:/MTK/MTK2503/MTK2503/11CW1418SP4_03_CORETEK03AE_11C_V1_GPRS_MMI/Tools/MinGW/include/c++/3.3.1/bits/stl_alloc.h ****             2 * __total_bytes + _S_round_up(_S_heap_size >> 4);
 497:d:/MTK/MTK2503/MTK2503/11CW1418SP4_03_CORETEK03AE_11C_V1_GPRS_MMI/Tools/MinGW/include/c++/3.3.1/bits/stl_alloc.h ****           // Try to make use of the left-over piece.
 498:d:/MTK/MTK2503/MTK2503/11CW1418SP4_03_CORETEK03AE_11C_V1_GPRS_MMI/Tools/MinGW/include/c++/3.3.1/bits/stl_alloc.h ****           if (__bytes_left > 0)
 499:d:/MTK/MTK2503/MTK2503/11CW1418SP4_03_CORETEK03AE_11C_V1_GPRS_MMI/Tools/MinGW/include/c++/3.3.1/bits/stl_alloc.h ****             {
 500:d:/MTK/MTK2503/MTK2503/11CW1418SP4_03_CORETEK03AE_11C_V1_GPRS_MMI/Tools/MinGW/include/c++/3.3.1/bits/stl_alloc.h ****               _Obj* volatile* __my_free_list =
 501:d:/MTK/MTK2503/MTK2503/11CW1418SP4_03_CORETEK03AE_11C_V1_GPRS_MMI/Tools/MinGW/include/c++/3.3.1/bits/stl_alloc.h ****                 _S_free_list + _S_freelist_index(__bytes_left);
 502:d:/MTK/MTK2503/MTK2503/11CW1418SP4_03_CORETEK03AE_11C_V1_GPRS_MMI/Tools/MinGW/include/c++/3.3.1/bits/stl_alloc.h **** 
 503:d:/MTK/MTK2503/MTK2503/11CW1418SP4_03_CORETEK03AE_11C_V1_GPRS_MMI/Tools/MinGW/include/c++/3.3.1/bits/stl_alloc.h ****               ((_Obj*)(void*)_S_start_free) -> _M_free_list_link = *__my_free_list;
 504:d:/MTK/MTK2503/MTK2503/11CW1418SP4_03_CORETEK03AE_11C_V1_GPRS_MMI/Tools/MinGW/include/c++/3.3.1/bits/stl_alloc.h ****               *__my_free_list = (_Obj*)(void*)_S_start_free;
 505:d:/MTK/MTK2503/MTK2503/11CW1418SP4_03_CORETEK03AE_11C_V1_GPRS_MMI/Tools/MinGW/include/c++/3.3.1/bits/stl_alloc.h ****             }
 506:d:/MTK/MTK2503/MTK2503/11CW1418SP4_03_CORETEK03AE_11C_V1_GPRS_MMI/Tools/MinGW/include/c++/3.3.1/bits/stl_alloc.h ****           _S_start_free = (char*) __new_alloc::allocate(__bytes_to_get);
 507:d:/MTK/MTK2503/MTK2503/11CW1418SP4_03_CORETEK03AE_11C_V1_GPRS_MMI/Tools/MinGW/include/c++/3.3.1/bits/stl_alloc.h ****           if (_S_start_free == 0)
 508:d:/MTK/MTK2503/MTK2503/11CW1418SP4_03_CORETEK03AE_11C_V1_GPRS_MMI/Tools/MinGW/include/c++/3.3.1/bits/stl_alloc.h ****             {
 509:d:/MTK/MTK2503/MTK2503/11CW1418SP4_03_CORETEK03AE_11C_V1_GPRS_MMI/Tools/MinGW/include/c++/3.3.1/bits/stl_alloc.h ****               size_t __i;
GAS LISTING d:/MTK/MTK2503/MTK2503/11CW1418SP4_03_CORETEK03AE_11C_V1_GPRS_MMI/plutommi/Customer/ResGenerator/gcctmp/ccQHcaaa.s 			page 62


 510:d:/MTK/MTK2503/MTK2503/11CW1418SP4_03_CORETEK03AE_11C_V1_GPRS_MMI/Tools/MinGW/include/c++/3.3.1/bits/stl_alloc.h ****               _Obj* volatile* __my_free_list;
 511:d:/MTK/MTK2503/MTK2503/11CW1418SP4_03_CORETEK03AE_11C_V1_GPRS_MMI/Tools/MinGW/include/c++/3.3.1/bits/stl_alloc.h ****               _Obj* __p;
 512:d:/MTK/MTK2503/MTK2503/11CW1418SP4_03_CORETEK03AE_11C_V1_GPRS_MMI/Tools/MinGW/include/c++/3.3.1/bits/stl_alloc.h ****               // Try to make do with what we have.  That can't hurt.  We
 513:d:/MTK/MTK2503/MTK2503/11CW1418SP4_03_CORETEK03AE_11C_V1_GPRS_MMI/Tools/MinGW/include/c++/3.3.1/bits/stl_alloc.h ****               // do not try smaller requests, since that tends to result
 514:d:/MTK/MTK2503/MTK2503/11CW1418SP4_03_CORETEK03AE_11C_V1_GPRS_MMI/Tools/MinGW/include/c++/3.3.1/bits/stl_alloc.h ****               // in disaster on multi-process machines.
 515:d:/MTK/MTK2503/MTK2503/11CW1418SP4_03_CORETEK03AE_11C_V1_GPRS_MMI/Tools/MinGW/include/c++/3.3.1/bits/stl_alloc.h ****               __i = __size;
 516:d:/MTK/MTK2503/MTK2503/11CW1418SP4_03_CORETEK03AE_11C_V1_GPRS_MMI/Tools/MinGW/include/c++/3.3.1/bits/stl_alloc.h ****               for (; __i <= (size_t) _MAX_BYTES; __i += (size_t) _ALIGN)
 517:d:/MTK/MTK2503/MTK2503/11CW1418SP4_03_CORETEK03AE_11C_V1_GPRS_MMI/Tools/MinGW/include/c++/3.3.1/bits/stl_alloc.h ****                 {
 518:d:/MTK/MTK2503/MTK2503/11CW1418SP4_03_CORETEK03AE_11C_V1_GPRS_MMI/Tools/MinGW/include/c++/3.3.1/bits/stl_alloc.h ****                   __my_free_list = _S_free_list + _S_freelist_index(__i);
 519:d:/MTK/MTK2503/MTK2503/11CW1418SP4_03_CORETEK03AE_11C_V1_GPRS_MMI/Tools/MinGW/include/c++/3.3.1/bits/stl_alloc.h ****                   __p = *__my_free_list;
 520:d:/MTK/MTK2503/MTK2503/11CW1418SP4_03_CORETEK03AE_11C_V1_GPRS_MMI/Tools/MinGW/include/c++/3.3.1/bits/stl_alloc.h ****                   if (__p != 0)
 521:d:/MTK/MTK2503/MTK2503/11CW1418SP4_03_CORETEK03AE_11C_V1_GPRS_MMI/Tools/MinGW/include/c++/3.3.1/bits/stl_alloc.h ****                     {
 522:d:/MTK/MTK2503/MTK2503/11CW1418SP4_03_CORETEK03AE_11C_V1_GPRS_MMI/Tools/MinGW/include/c++/3.3.1/bits/stl_alloc.h ****                       *__my_free_list = __p -> _M_free_list_link;
 523:d:/MTK/MTK2503/MTK2503/11CW1418SP4_03_CORETEK03AE_11C_V1_GPRS_MMI/Tools/MinGW/include/c++/3.3.1/bits/stl_alloc.h ****                       _S_start_free = (char*)__p;
 524:d:/MTK/MTK2503/MTK2503/11CW1418SP4_03_CORETEK03AE_11C_V1_GPRS_MMI/Tools/MinGW/include/c++/3.3.1/bits/stl_alloc.h ****                       _S_end_free = _S_start_free + __i;
 525:d:/MTK/MTK2503/MTK2503/11CW1418SP4_03_CORETEK03AE_11C_V1_GPRS_MMI/Tools/MinGW/include/c++/3.3.1/bits/stl_alloc.h ****                       return _S_chunk_alloc(__size, __nobjs);
 526:d:/MTK/MTK2503/MTK2503/11CW1418SP4_03_CORETEK03AE_11C_V1_GPRS_MMI/Tools/MinGW/include/c++/3.3.1/bits/stl_alloc.h ****                       // Any leftover piece will eventually make it to the
 527:d:/MTK/MTK2503/MTK2503/11CW1418SP4_03_CORETEK03AE_11C_V1_GPRS_MMI/Tools/MinGW/include/c++/3.3.1/bits/stl_alloc.h ****                       // right free list.
 528:d:/MTK/MTK2503/MTK2503/11CW1418SP4_03_CORETEK03AE_11C_V1_GPRS_MMI/Tools/MinGW/include/c++/3.3.1/bits/stl_alloc.h ****                     }
 529:d:/MTK/MTK2503/MTK2503/11CW1418SP4_03_CORETEK03AE_11C_V1_GPRS_MMI/Tools/MinGW/include/c++/3.3.1/bits/stl_alloc.h ****                 }
 530:d:/MTK/MTK2503/MTK2503/11CW1418SP4_03_CORETEK03AE_11C_V1_GPRS_MMI/Tools/MinGW/include/c++/3.3.1/bits/stl_alloc.h ****               _S_end_free = 0;        // In case of exception.
 531:d:/MTK/MTK2503/MTK2503/11CW1418SP4_03_CORETEK03AE_11C_V1_GPRS_MMI/Tools/MinGW/include/c++/3.3.1/bits/stl_alloc.h ****               _S_start_free = (char*)__new_alloc::allocate(__bytes_to_get);
 532:d:/MTK/MTK2503/MTK2503/11CW1418SP4_03_CORETEK03AE_11C_V1_GPRS_MMI/Tools/MinGW/include/c++/3.3.1/bits/stl_alloc.h ****               // This should either throw an exception or remedy the situation.
 533:d:/MTK/MTK2503/MTK2503/11CW1418SP4_03_CORETEK03AE_11C_V1_GPRS_MMI/Tools/MinGW/include/c++/3.3.1/bits/stl_alloc.h ****               // Thus we assume it succeeded.
 534:d:/MTK/MTK2503/MTK2503/11CW1418SP4_03_CORETEK03AE_11C_V1_GPRS_MMI/Tools/MinGW/include/c++/3.3.1/bits/stl_alloc.h ****             }
 535:d:/MTK/MTK2503/MTK2503/11CW1418SP4_03_CORETEK03AE_11C_V1_GPRS_MMI/Tools/MinGW/include/c++/3.3.1/bits/stl_alloc.h ****           _S_heap_size += __bytes_to_get;
 536:d:/MTK/MTK2503/MTK2503/11CW1418SP4_03_CORETEK03AE_11C_V1_GPRS_MMI/Tools/MinGW/include/c++/3.3.1/bits/stl_alloc.h ****           _S_end_free = _S_start_free + __bytes_to_get;
 537:d:/MTK/MTK2503/MTK2503/11CW1418SP4_03_CORETEK03AE_11C_V1_GPRS_MMI/Tools/MinGW/include/c++/3.3.1/bits/stl_alloc.h ****           return _S_chunk_alloc(__size, __nobjs);
 538:d:/MTK/MTK2503/MTK2503/11CW1418SP4_03_CORETEK03AE_11C_V1_GPRS_MMI/Tools/MinGW/include/c++/3.3.1/bits/stl_alloc.h ****         }
 539:d:/MTK/MTK2503/MTK2503/11CW1418SP4_03_CORETEK03AE_11C_V1_GPRS_MMI/Tools/MinGW/include/c++/3.3.1/bits/stl_alloc.h ****     }
 540:d:/MTK/MTK2503/MTK2503/11CW1418SP4_03_CORETEK03AE_11C_V1_GPRS_MMI/Tools/MinGW/include/c++/3.3.1/bits/stl_alloc.h **** 
 541:d:/MTK/MTK2503/MTK2503/11CW1418SP4_03_CORETEK03AE_11C_V1_GPRS_MMI/Tools/MinGW/include/c++/3.3.1/bits/stl_alloc.h **** 
 542:d:/MTK/MTK2503/MTK2503/11CW1418SP4_03_CORETEK03AE_11C_V1_GPRS_MMI/Tools/MinGW/include/c++/3.3.1/bits/stl_alloc.h ****   // Returns an object of size __n, and optionally adds to "size
 543:d:/MTK/MTK2503/MTK2503/11CW1418SP4_03_CORETEK03AE_11C_V1_GPRS_MMI/Tools/MinGW/include/c++/3.3.1/bits/stl_alloc.h ****   // __n"'s free list.  We assume that __n is properly aligned.  We
 544:d:/MTK/MTK2503/MTK2503/11CW1418SP4_03_CORETEK03AE_11C_V1_GPRS_MMI/Tools/MinGW/include/c++/3.3.1/bits/stl_alloc.h ****   // hold the allocation lock.
 545:d:/MTK/MTK2503/MTK2503/11CW1418SP4_03_CORETEK03AE_11C_V1_GPRS_MMI/Tools/MinGW/include/c++/3.3.1/bits/stl_alloc.h ****   template<bool __threads, int __inst>
 546:d:/MTK/MTK2503/MTK2503/11CW1418SP4_03_CORETEK03AE_11C_V1_GPRS_MMI/Tools/MinGW/include/c++/3.3.1/bits/stl_alloc.h ****     void*
 547:d:/MTK/MTK2503/MTK2503/11CW1418SP4_03_CORETEK03AE_11C_V1_GPRS_MMI/Tools/MinGW/include/c++/3.3.1/bits/stl_alloc.h ****     __default_alloc_template<__threads, __inst>::_S_refill(size_t __n)
 548:d:/MTK/MTK2503/MTK2503/11CW1418SP4_03_CORETEK03AE_11C_V1_GPRS_MMI/Tools/MinGW/include/c++/3.3.1/bits/stl_alloc.h ****     {
 549:d:/MTK/MTK2503/MTK2503/11CW1418SP4_03_CORETEK03AE_11C_V1_GPRS_MMI/Tools/MinGW/include/c++/3.3.1/bits/stl_alloc.h ****       int __nobjs = 20;
 550:d:/MTK/MTK2503/MTK2503/11CW1418SP4_03_CORETEK03AE_11C_V1_GPRS_MMI/Tools/MinGW/include/c++/3.3.1/bits/stl_alloc.h ****       char* __chunk = _S_chunk_alloc(__n, __nobjs);
 551:d:/MTK/MTK2503/MTK2503/11CW1418SP4_03_CORETEK03AE_11C_V1_GPRS_MMI/Tools/MinGW/include/c++/3.3.1/bits/stl_alloc.h ****       _Obj* volatile* __my_free_list;
 552:d:/MTK/MTK2503/MTK2503/11CW1418SP4_03_CORETEK03AE_11C_V1_GPRS_MMI/Tools/MinGW/include/c++/3.3.1/bits/stl_alloc.h ****       _Obj* __result;
 553:d:/MTK/MTK2503/MTK2503/11CW1418SP4_03_CORETEK03AE_11C_V1_GPRS_MMI/Tools/MinGW/include/c++/3.3.1/bits/stl_alloc.h ****       _Obj* __current_obj;
 554:d:/MTK/MTK2503/MTK2503/11CW1418SP4_03_CORETEK03AE_11C_V1_GPRS_MMI/Tools/MinGW/include/c++/3.3.1/bits/stl_alloc.h ****       _Obj* __next_obj;
 555:d:/MTK/MTK2503/MTK2503/11CW1418SP4_03_CORETEK03AE_11C_V1_GPRS_MMI/Tools/MinGW/include/c++/3.3.1/bits/stl_alloc.h ****       int __i;
 556:d:/MTK/MTK2503/MTK2503/11CW1418SP4_03_CORETEK03AE_11C_V1_GPRS_MMI/Tools/MinGW/include/c++/3.3.1/bits/stl_alloc.h **** 
 557:d:/MTK/MTK2503/MTK2503/11CW1418SP4_03_CORETEK03AE_11C_V1_GPRS_MMI/Tools/MinGW/include/c++/3.3.1/bits/stl_alloc.h ****       if (1 == __nobjs)
 558:d:/MTK/MTK2503/MTK2503/11CW1418SP4_03_CORETEK03AE_11C_V1_GPRS_MMI/Tools/MinGW/include/c++/3.3.1/bits/stl_alloc.h ****         return __chunk;
 559:d:/MTK/MTK2503/MTK2503/11CW1418SP4_03_CORETEK03AE_11C_V1_GPRS_MMI/Tools/MinGW/include/c++/3.3.1/bits/stl_alloc.h ****       __my_free_list = _S_free_list + _S_freelist_index(__n);
 560:d:/MTK/MTK2503/MTK2503/11CW1418SP4_03_CORETEK03AE_11C_V1_GPRS_MMI/Tools/MinGW/include/c++/3.3.1/bits/stl_alloc.h **** 
 561:d:/MTK/MTK2503/MTK2503/11CW1418SP4_03_CORETEK03AE_11C_V1_GPRS_MMI/Tools/MinGW/include/c++/3.3.1/bits/stl_alloc.h ****       // Build free list in chunk.
 562:d:/MTK/MTK2503/MTK2503/11CW1418SP4_03_CORETEK03AE_11C_V1_GPRS_MMI/Tools/MinGW/include/c++/3.3.1/bits/stl_alloc.h ****       __result = (_Obj*)(void*)__chunk;
 563:d:/MTK/MTK2503/MTK2503/11CW1418SP4_03_CORETEK03AE_11C_V1_GPRS_MMI/Tools/MinGW/include/c++/3.3.1/bits/stl_alloc.h ****       *__my_free_list = __next_obj = (_Obj*)(void*)(__chunk + __n);
 564:d:/MTK/MTK2503/MTK2503/11CW1418SP4_03_CORETEK03AE_11C_V1_GPRS_MMI/Tools/MinGW/include/c++/3.3.1/bits/stl_alloc.h ****       for (__i = 1; ; __i++)
 565:d:/MTK/MTK2503/MTK2503/11CW1418SP4_03_CORETEK03AE_11C_V1_GPRS_MMI/Tools/MinGW/include/c++/3.3.1/bits/stl_alloc.h ****         {
 566:d:/MTK/MTK2503/MTK2503/11CW1418SP4_03_CORETEK03AE_11C_V1_GPRS_MMI/Tools/MinGW/include/c++/3.3.1/bits/stl_alloc.h **** 	  __current_obj = __next_obj;
GAS LISTING d:/MTK/MTK2503/MTK2503/11CW1418SP4_03_CORETEK03AE_11C_V1_GPRS_MMI/plutommi/Customer/ResGenerator/gcctmp/ccQHcaaa.s 			page 63


 567:d:/MTK/MTK2503/MTK2503/11CW1418SP4_03_CORETEK03AE_11C_V1_GPRS_MMI/Tools/MinGW/include/c++/3.3.1/bits/stl_alloc.h ****           __next_obj = (_Obj*)(void*)((char*)__next_obj + __n);
 568:d:/MTK/MTK2503/MTK2503/11CW1418SP4_03_CORETEK03AE_11C_V1_GPRS_MMI/Tools/MinGW/include/c++/3.3.1/bits/stl_alloc.h **** 	  if (__nobjs - 1 == __i)
 569:d:/MTK/MTK2503/MTK2503/11CW1418SP4_03_CORETEK03AE_11C_V1_GPRS_MMI/Tools/MinGW/include/c++/3.3.1/bits/stl_alloc.h **** 	    {
 570:d:/MTK/MTK2503/MTK2503/11CW1418SP4_03_CORETEK03AE_11C_V1_GPRS_MMI/Tools/MinGW/include/c++/3.3.1/bits/stl_alloc.h **** 	      __current_obj -> _M_free_list_link = 0;
 571:d:/MTK/MTK2503/MTK2503/11CW1418SP4_03_CORETEK03AE_11C_V1_GPRS_MMI/Tools/MinGW/include/c++/3.3.1/bits/stl_alloc.h **** 	      break;
 572:d:/MTK/MTK2503/MTK2503/11CW1418SP4_03_CORETEK03AE_11C_V1_GPRS_MMI/Tools/MinGW/include/c++/3.3.1/bits/stl_alloc.h **** 	    }
 573:d:/MTK/MTK2503/MTK2503/11CW1418SP4_03_CORETEK03AE_11C_V1_GPRS_MMI/Tools/MinGW/include/c++/3.3.1/bits/stl_alloc.h **** 	  else
 574:d:/MTK/MTK2503/MTK2503/11CW1418SP4_03_CORETEK03AE_11C_V1_GPRS_MMI/Tools/MinGW/include/c++/3.3.1/bits/stl_alloc.h **** 	    __current_obj -> _M_free_list_link = __next_obj;
 575:d:/MTK/MTK2503/MTK2503/11CW1418SP4_03_CORETEK03AE_11C_V1_GPRS_MMI/Tools/MinGW/include/c++/3.3.1/bits/stl_alloc.h **** 	}
 576:d:/MTK/MTK2503/MTK2503/11CW1418SP4_03_CORETEK03AE_11C_V1_GPRS_MMI/Tools/MinGW/include/c++/3.3.1/bits/stl_alloc.h ****       return __result;
 577:d:/MTK/MTK2503/MTK2503/11CW1418SP4_03_CORETEK03AE_11C_V1_GPRS_MMI/Tools/MinGW/include/c++/3.3.1/bits/stl_alloc.h ****     }
 578:d:/MTK/MTK2503/MTK2503/11CW1418SP4_03_CORETEK03AE_11C_V1_GPRS_MMI/Tools/MinGW/include/c++/3.3.1/bits/stl_alloc.h **** 
 579:d:/MTK/MTK2503/MTK2503/11CW1418SP4_03_CORETEK03AE_11C_V1_GPRS_MMI/Tools/MinGW/include/c++/3.3.1/bits/stl_alloc.h **** 
 580:d:/MTK/MTK2503/MTK2503/11CW1418SP4_03_CORETEK03AE_11C_V1_GPRS_MMI/Tools/MinGW/include/c++/3.3.1/bits/stl_alloc.h ****   template<bool threads, int inst>
 581:d:/MTK/MTK2503/MTK2503/11CW1418SP4_03_CORETEK03AE_11C_V1_GPRS_MMI/Tools/MinGW/include/c++/3.3.1/bits/stl_alloc.h ****     void*
 582:d:/MTK/MTK2503/MTK2503/11CW1418SP4_03_CORETEK03AE_11C_V1_GPRS_MMI/Tools/MinGW/include/c++/3.3.1/bits/stl_alloc.h ****     __default_alloc_template<threads, inst>::
 583:d:/MTK/MTK2503/MTK2503/11CW1418SP4_03_CORETEK03AE_11C_V1_GPRS_MMI/Tools/MinGW/include/c++/3.3.1/bits/stl_alloc.h ****     reallocate(void* __p, size_t __old_sz, size_t __new_sz)
 584:d:/MTK/MTK2503/MTK2503/11CW1418SP4_03_CORETEK03AE_11C_V1_GPRS_MMI/Tools/MinGW/include/c++/3.3.1/bits/stl_alloc.h ****     {
 585:d:/MTK/MTK2503/MTK2503/11CW1418SP4_03_CORETEK03AE_11C_V1_GPRS_MMI/Tools/MinGW/include/c++/3.3.1/bits/stl_alloc.h ****       void* __result;
 586:d:/MTK/MTK2503/MTK2503/11CW1418SP4_03_CORETEK03AE_11C_V1_GPRS_MMI/Tools/MinGW/include/c++/3.3.1/bits/stl_alloc.h ****       size_t __copy_sz;
 587:d:/MTK/MTK2503/MTK2503/11CW1418SP4_03_CORETEK03AE_11C_V1_GPRS_MMI/Tools/MinGW/include/c++/3.3.1/bits/stl_alloc.h **** 
 588:d:/MTK/MTK2503/MTK2503/11CW1418SP4_03_CORETEK03AE_11C_V1_GPRS_MMI/Tools/MinGW/include/c++/3.3.1/bits/stl_alloc.h ****       if (__old_sz > (size_t) _MAX_BYTES && __new_sz > (size_t) _MAX_BYTES)
 589:d:/MTK/MTK2503/MTK2503/11CW1418SP4_03_CORETEK03AE_11C_V1_GPRS_MMI/Tools/MinGW/include/c++/3.3.1/bits/stl_alloc.h ****         return(realloc(__p, __new_sz));
 590:d:/MTK/MTK2503/MTK2503/11CW1418SP4_03_CORETEK03AE_11C_V1_GPRS_MMI/Tools/MinGW/include/c++/3.3.1/bits/stl_alloc.h ****       if (_S_round_up(__old_sz) == _S_round_up(__new_sz))
 591:d:/MTK/MTK2503/MTK2503/11CW1418SP4_03_CORETEK03AE_11C_V1_GPRS_MMI/Tools/MinGW/include/c++/3.3.1/bits/stl_alloc.h ****         return(__p);
 592:d:/MTK/MTK2503/MTK2503/11CW1418SP4_03_CORETEK03AE_11C_V1_GPRS_MMI/Tools/MinGW/include/c++/3.3.1/bits/stl_alloc.h ****       __result = allocate(__new_sz);
 593:d:/MTK/MTK2503/MTK2503/11CW1418SP4_03_CORETEK03AE_11C_V1_GPRS_MMI/Tools/MinGW/include/c++/3.3.1/bits/stl_alloc.h ****       __copy_sz = __new_sz > __old_sz? __old_sz : __new_sz;
 594:d:/MTK/MTK2503/MTK2503/11CW1418SP4_03_CORETEK03AE_11C_V1_GPRS_MMI/Tools/MinGW/include/c++/3.3.1/bits/stl_alloc.h ****       memcpy(__result, __p, __copy_sz);
 595:d:/MTK/MTK2503/MTK2503/11CW1418SP4_03_CORETEK03AE_11C_V1_GPRS_MMI/Tools/MinGW/include/c++/3.3.1/bits/stl_alloc.h ****       deallocate(__p, __old_sz);
 596:d:/MTK/MTK2503/MTK2503/11CW1418SP4_03_CORETEK03AE_11C_V1_GPRS_MMI/Tools/MinGW/include/c++/3.3.1/bits/stl_alloc.h ****       return __result;
 597:d:/MTK/MTK2503/MTK2503/11CW1418SP4_03_CORETEK03AE_11C_V1_GPRS_MMI/Tools/MinGW/include/c++/3.3.1/bits/stl_alloc.h ****     }
 598:d:/MTK/MTK2503/MTK2503/11CW1418SP4_03_CORETEK03AE_11C_V1_GPRS_MMI/Tools/MinGW/include/c++/3.3.1/bits/stl_alloc.h **** 
 599:d:/MTK/MTK2503/MTK2503/11CW1418SP4_03_CORETEK03AE_11C_V1_GPRS_MMI/Tools/MinGW/include/c++/3.3.1/bits/stl_alloc.h ****   template<bool __threads, int __inst>
 600:d:/MTK/MTK2503/MTK2503/11CW1418SP4_03_CORETEK03AE_11C_V1_GPRS_MMI/Tools/MinGW/include/c++/3.3.1/bits/stl_alloc.h ****     _STL_mutex_lock
 601:d:/MTK/MTK2503/MTK2503/11CW1418SP4_03_CORETEK03AE_11C_V1_GPRS_MMI/Tools/MinGW/include/c++/3.3.1/bits/stl_alloc.h ****     __default_alloc_template<__threads,__inst>::_S_node_allocator_lock
 602:d:/MTK/MTK2503/MTK2503/11CW1418SP4_03_CORETEK03AE_11C_V1_GPRS_MMI/Tools/MinGW/include/c++/3.3.1/bits/stl_alloc.h ****     __STL_MUTEX_INITIALIZER;
 603:d:/MTK/MTK2503/MTK2503/11CW1418SP4_03_CORETEK03AE_11C_V1_GPRS_MMI/Tools/MinGW/include/c++/3.3.1/bits/stl_alloc.h **** 
 604:d:/MTK/MTK2503/MTK2503/11CW1418SP4_03_CORETEK03AE_11C_V1_GPRS_MMI/Tools/MinGW/include/c++/3.3.1/bits/stl_alloc.h ****   template<bool __threads, int __inst>
 605:d:/MTK/MTK2503/MTK2503/11CW1418SP4_03_CORETEK03AE_11C_V1_GPRS_MMI/Tools/MinGW/include/c++/3.3.1/bits/stl_alloc.h ****     char* __default_alloc_template<__threads,__inst>::_S_start_free = 0;
 606:d:/MTK/MTK2503/MTK2503/11CW1418SP4_03_CORETEK03AE_11C_V1_GPRS_MMI/Tools/MinGW/include/c++/3.3.1/bits/stl_alloc.h **** 
 607:d:/MTK/MTK2503/MTK2503/11CW1418SP4_03_CORETEK03AE_11C_V1_GPRS_MMI/Tools/MinGW/include/c++/3.3.1/bits/stl_alloc.h ****   template<bool __threads, int __inst>
 608:d:/MTK/MTK2503/MTK2503/11CW1418SP4_03_CORETEK03AE_11C_V1_GPRS_MMI/Tools/MinGW/include/c++/3.3.1/bits/stl_alloc.h ****     char* __default_alloc_template<__threads,__inst>::_S_end_free = 0;
 609:d:/MTK/MTK2503/MTK2503/11CW1418SP4_03_CORETEK03AE_11C_V1_GPRS_MMI/Tools/MinGW/include/c++/3.3.1/bits/stl_alloc.h **** 
 610:d:/MTK/MTK2503/MTK2503/11CW1418SP4_03_CORETEK03AE_11C_V1_GPRS_MMI/Tools/MinGW/include/c++/3.3.1/bits/stl_alloc.h ****   template<bool __threads, int __inst>
 611:d:/MTK/MTK2503/MTK2503/11CW1418SP4_03_CORETEK03AE_11C_V1_GPRS_MMI/Tools/MinGW/include/c++/3.3.1/bits/stl_alloc.h ****     size_t __default_alloc_template<__threads,__inst>::_S_heap_size = 0;
 612:d:/MTK/MTK2503/MTK2503/11CW1418SP4_03_CORETEK03AE_11C_V1_GPRS_MMI/Tools/MinGW/include/c++/3.3.1/bits/stl_alloc.h **** 
 613:d:/MTK/MTK2503/MTK2503/11CW1418SP4_03_CORETEK03AE_11C_V1_GPRS_MMI/Tools/MinGW/include/c++/3.3.1/bits/stl_alloc.h ****   template<bool __threads, int __inst>
 614:d:/MTK/MTK2503/MTK2503/11CW1418SP4_03_CORETEK03AE_11C_V1_GPRS_MMI/Tools/MinGW/include/c++/3.3.1/bits/stl_alloc.h ****     typename __default_alloc_template<__threads,__inst>::_Obj* volatile
 615:d:/MTK/MTK2503/MTK2503/11CW1418SP4_03_CORETEK03AE_11C_V1_GPRS_MMI/Tools/MinGW/include/c++/3.3.1/bits/stl_alloc.h ****     __default_alloc_template<__threads,__inst>::_S_free_list[_NFREELISTS];
 616:d:/MTK/MTK2503/MTK2503/11CW1418SP4_03_CORETEK03AE_11C_V1_GPRS_MMI/Tools/MinGW/include/c++/3.3.1/bits/stl_alloc.h **** 
 617:d:/MTK/MTK2503/MTK2503/11CW1418SP4_03_CORETEK03AE_11C_V1_GPRS_MMI/Tools/MinGW/include/c++/3.3.1/bits/stl_alloc.h ****   typedef __default_alloc_template<true,0>    __alloc;
 618:d:/MTK/MTK2503/MTK2503/11CW1418SP4_03_CORETEK03AE_11C_V1_GPRS_MMI/Tools/MinGW/include/c++/3.3.1/bits/stl_alloc.h ****   typedef __default_alloc_template<false,0>   __single_client_alloc;
 619:d:/MTK/MTK2503/MTK2503/11CW1418SP4_03_CORETEK03AE_11C_V1_GPRS_MMI/Tools/MinGW/include/c++/3.3.1/bits/stl_alloc.h **** 
 620:d:/MTK/MTK2503/MTK2503/11CW1418SP4_03_CORETEK03AE_11C_V1_GPRS_MMI/Tools/MinGW/include/c++/3.3.1/bits/stl_alloc.h **** 
 621:d:/MTK/MTK2503/MTK2503/11CW1418SP4_03_CORETEK03AE_11C_V1_GPRS_MMI/Tools/MinGW/include/c++/3.3.1/bits/stl_alloc.h ****   /**
 622:d:/MTK/MTK2503/MTK2503/11CW1418SP4_03_CORETEK03AE_11C_V1_GPRS_MMI/Tools/MinGW/include/c++/3.3.1/bits/stl_alloc.h ****    *  @brief  The "standard" allocator, as per [20.4].
 623:d:/MTK/MTK2503/MTK2503/11CW1418SP4_03_CORETEK03AE_11C_V1_GPRS_MMI/Tools/MinGW/include/c++/3.3.1/bits/stl_alloc.h ****    *
GAS LISTING d:/MTK/MTK2503/MTK2503/11CW1418SP4_03_CORETEK03AE_11C_V1_GPRS_MMI/plutommi/Customer/ResGenerator/gcctmp/ccQHcaaa.s 			page 64


 624:d:/MTK/MTK2503/MTK2503/11CW1418SP4_03_CORETEK03AE_11C_V1_GPRS_MMI/Tools/MinGW/include/c++/3.3.1/bits/stl_alloc.h ****    *  The private _Alloc is "SGI" style.  (See comments at the top
 625:d:/MTK/MTK2503/MTK2503/11CW1418SP4_03_CORETEK03AE_11C_V1_GPRS_MMI/Tools/MinGW/include/c++/3.3.1/bits/stl_alloc.h ****    *  of stl_alloc.h.)
 626:d:/MTK/MTK2503/MTK2503/11CW1418SP4_03_CORETEK03AE_11C_V1_GPRS_MMI/Tools/MinGW/include/c++/3.3.1/bits/stl_alloc.h ****    *
 627:d:/MTK/MTK2503/MTK2503/11CW1418SP4_03_CORETEK03AE_11C_V1_GPRS_MMI/Tools/MinGW/include/c++/3.3.1/bits/stl_alloc.h ****    *  The underlying allocator behaves as follows.
 628:d:/MTK/MTK2503/MTK2503/11CW1418SP4_03_CORETEK03AE_11C_V1_GPRS_MMI/Tools/MinGW/include/c++/3.3.1/bits/stl_alloc.h ****    *    - __default_alloc_template is used via two typedefs
 629:d:/MTK/MTK2503/MTK2503/11CW1418SP4_03_CORETEK03AE_11C_V1_GPRS_MMI/Tools/MinGW/include/c++/3.3.1/bits/stl_alloc.h ****    *    - "__single_client_alloc" typedef does no locking for threads
 630:d:/MTK/MTK2503/MTK2503/11CW1418SP4_03_CORETEK03AE_11C_V1_GPRS_MMI/Tools/MinGW/include/c++/3.3.1/bits/stl_alloc.h ****    *    - "__alloc" typedef is threadsafe via the locks
 631:d:/MTK/MTK2503/MTK2503/11CW1418SP4_03_CORETEK03AE_11C_V1_GPRS_MMI/Tools/MinGW/include/c++/3.3.1/bits/stl_alloc.h ****    *    - __new_alloc is used for memory requests
 632:d:/MTK/MTK2503/MTK2503/11CW1418SP4_03_CORETEK03AE_11C_V1_GPRS_MMI/Tools/MinGW/include/c++/3.3.1/bits/stl_alloc.h ****    *
 633:d:/MTK/MTK2503/MTK2503/11CW1418SP4_03_CORETEK03AE_11C_V1_GPRS_MMI/Tools/MinGW/include/c++/3.3.1/bits/stl_alloc.h ****    *  (See @link Allocators allocators info @endlink for more.)
 634:d:/MTK/MTK2503/MTK2503/11CW1418SP4_03_CORETEK03AE_11C_V1_GPRS_MMI/Tools/MinGW/include/c++/3.3.1/bits/stl_alloc.h ****    */
 635:d:/MTK/MTK2503/MTK2503/11CW1418SP4_03_CORETEK03AE_11C_V1_GPRS_MMI/Tools/MinGW/include/c++/3.3.1/bits/stl_alloc.h ****   template<typename _Tp>
 636:d:/MTK/MTK2503/MTK2503/11CW1418SP4_03_CORETEK03AE_11C_V1_GPRS_MMI/Tools/MinGW/include/c++/3.3.1/bits/stl_alloc.h ****     class allocator
 637:d:/MTK/MTK2503/MTK2503/11CW1418SP4_03_CORETEK03AE_11C_V1_GPRS_MMI/Tools/MinGW/include/c++/3.3.1/bits/stl_alloc.h ****     {
 638:d:/MTK/MTK2503/MTK2503/11CW1418SP4_03_CORETEK03AE_11C_V1_GPRS_MMI/Tools/MinGW/include/c++/3.3.1/bits/stl_alloc.h ****       typedef __alloc _Alloc;          // The underlying allocator.
 639:d:/MTK/MTK2503/MTK2503/11CW1418SP4_03_CORETEK03AE_11C_V1_GPRS_MMI/Tools/MinGW/include/c++/3.3.1/bits/stl_alloc.h ****     public:
 640:d:/MTK/MTK2503/MTK2503/11CW1418SP4_03_CORETEK03AE_11C_V1_GPRS_MMI/Tools/MinGW/include/c++/3.3.1/bits/stl_alloc.h ****       typedef size_t     size_type;
 641:d:/MTK/MTK2503/MTK2503/11CW1418SP4_03_CORETEK03AE_11C_V1_GPRS_MMI/Tools/MinGW/include/c++/3.3.1/bits/stl_alloc.h ****       typedef ptrdiff_t  difference_type;
 642:d:/MTK/MTK2503/MTK2503/11CW1418SP4_03_CORETEK03AE_11C_V1_GPRS_MMI/Tools/MinGW/include/c++/3.3.1/bits/stl_alloc.h ****       typedef _Tp*       pointer;
 643:d:/MTK/MTK2503/MTK2503/11CW1418SP4_03_CORETEK03AE_11C_V1_GPRS_MMI/Tools/MinGW/include/c++/3.3.1/bits/stl_alloc.h ****       typedef const _Tp* const_pointer;
 644:d:/MTK/MTK2503/MTK2503/11CW1418SP4_03_CORETEK03AE_11C_V1_GPRS_MMI/Tools/MinGW/include/c++/3.3.1/bits/stl_alloc.h ****       typedef _Tp&       reference;
 645:d:/MTK/MTK2503/MTK2503/11CW1418SP4_03_CORETEK03AE_11C_V1_GPRS_MMI/Tools/MinGW/include/c++/3.3.1/bits/stl_alloc.h ****       typedef const _Tp& const_reference;
 646:d:/MTK/MTK2503/MTK2503/11CW1418SP4_03_CORETEK03AE_11C_V1_GPRS_MMI/Tools/MinGW/include/c++/3.3.1/bits/stl_alloc.h ****       typedef _Tp        value_type;
 647:d:/MTK/MTK2503/MTK2503/11CW1418SP4_03_CORETEK03AE_11C_V1_GPRS_MMI/Tools/MinGW/include/c++/3.3.1/bits/stl_alloc.h **** 
 648:d:/MTK/MTK2503/MTK2503/11CW1418SP4_03_CORETEK03AE_11C_V1_GPRS_MMI/Tools/MinGW/include/c++/3.3.1/bits/stl_alloc.h ****       template<typename _Tp1>
 649:d:/MTK/MTK2503/MTK2503/11CW1418SP4_03_CORETEK03AE_11C_V1_GPRS_MMI/Tools/MinGW/include/c++/3.3.1/bits/stl_alloc.h ****         struct rebind
 650:d:/MTK/MTK2503/MTK2503/11CW1418SP4_03_CORETEK03AE_11C_V1_GPRS_MMI/Tools/MinGW/include/c++/3.3.1/bits/stl_alloc.h ****         { typedef allocator<_Tp1> other; };
 651:d:/MTK/MTK2503/MTK2503/11CW1418SP4_03_CORETEK03AE_11C_V1_GPRS_MMI/Tools/MinGW/include/c++/3.3.1/bits/stl_alloc.h **** 
 652:d:/MTK/MTK2503/MTK2503/11CW1418SP4_03_CORETEK03AE_11C_V1_GPRS_MMI/Tools/MinGW/include/c++/3.3.1/bits/stl_alloc.h ****       allocator() throw() {}
 4897              	LM168:
 4898              	L165:
 4899              	L164:
 4900 0000 55       		pushl	%ebp
 4901 0001 89E5     		movl	%esp, %ebp
 4903              	LM169:
 4904 0003 5D       		popl	%ebp
 4905 0004 C3       		ret
 4906              	Lscope12:
 4908 0005 909090   		.section	.text$_ZNSaIN10ThreadPool7JobDataEED1Ev,"x"
 4909              		.linkonce discard
 4910              		.align 2
 4913              	.globl __ZNSaIN10ThreadPool7JobDataEED1Ev
 4915              	__ZNSaIN10ThreadPool7JobDataEED1Ev:
 653:d:/MTK/MTK2503/MTK2503/11CW1418SP4_03_CORETEK03AE_11C_V1_GPRS_MMI/Tools/MinGW/include/c++/3.3.1/bits/stl_alloc.h ****       allocator(const allocator&) throw() {}
 654:d:/MTK/MTK2503/MTK2503/11CW1418SP4_03_CORETEK03AE_11C_V1_GPRS_MMI/Tools/MinGW/include/c++/3.3.1/bits/stl_alloc.h ****       template<typename _Tp1>
 655:d:/MTK/MTK2503/MTK2503/11CW1418SP4_03_CORETEK03AE_11C_V1_GPRS_MMI/Tools/MinGW/include/c++/3.3.1/bits/stl_alloc.h ****         allocator(const allocator<_Tp1>&) throw() {}
 656:d:/MTK/MTK2503/MTK2503/11CW1418SP4_03_CORETEK03AE_11C_V1_GPRS_MMI/Tools/MinGW/include/c++/3.3.1/bits/stl_alloc.h ****       ~allocator() throw() {}
 4917              	LM170:
 4918 0000 55       		pushl	%ebp
 4919 0001 89E5     		movl	%esp, %ebp
 4921              	LM171:
 4922 0003 5D       		popl	%ebp
 4923 0004 C3       		ret
 4924              	L170:
 4925              	L167:
 4926              	Lscope13:
 4928 0005 909090   		.section	.text$_ZNSaIN10ThreadPool10ThreadDataEEC1Ev,"x"
GAS LISTING d:/MTK/MTK2503/MTK2503/11CW1418SP4_03_CORETEK03AE_11C_V1_GPRS_MMI/plutommi/Customer/ResGenerator/gcctmp/ccQHcaaa.s 			page 65


 4929              		.linkonce discard
 4930              		.align 2
 4933              	.globl __ZNSaIN10ThreadPool10ThreadDataEEC1Ev
 4935              	__ZNSaIN10ThreadPool10ThreadDataEEC1Ev:
 4937              	LM172:
 4938              	L173:
 4939              	L172:
 4940 0000 55       		pushl	%ebp
 4941 0001 89E5     		movl	%esp, %ebp
 4943              	LM173:
 4944 0003 5D       		popl	%ebp
 4945 0004 C3       		ret
 4946              	Lscope14:
 4948 0005 909090   		.section	.text$_ZNSaIN10ThreadPool10ThreadDataEED1Ev,"x"
 4949              		.linkonce discard
 4950              		.align 2
 4953              	.globl __ZNSaIN10ThreadPool10ThreadDataEED1Ev
 4955              	__ZNSaIN10ThreadPool10ThreadDataEED1Ev:
 4957              	LM174:
 4958 0000 55       		pushl	%ebp
 4959 0001 89E5     		movl	%esp, %ebp
 4961              	LM175:
 4962 0003 5D       		popl	%ebp
 4963 0004 C3       		ret
 4964              	L178:
 4965              	L175:
 4966              	Lscope15:
 4969 0005 909090   		.section	.text$_ZNSt6vectorIN10ThreadPool10ThreadDataESaIS1_EEC1ERKS2_,"x"
 4970              		.linkonce discard
 4971              		.align 2
 4975              	.globl __ZNSt6vectorIN10ThreadPool10ThreadDataESaIS1_EEC1ERKS2_
 4977              	__ZNSt6vectorIN10ThreadPool10ThreadDataESaIS1_EEC1ERKS2_:
 4979              	Ltext4:
   1:d:/MTK/MTK2503/MTK2503/11CW1418SP4_03_CORETEK03AE_11C_V1_GPRS_MMI/Tools/MinGW/include/c++/3.3.1/bits/stl_vector.h **** // Vector implementation -*- C++ -*-
   2:d:/MTK/MTK2503/MTK2503/11CW1418SP4_03_CORETEK03AE_11C_V1_GPRS_MMI/Tools/MinGW/include/c++/3.3.1/bits/stl_vector.h **** 
   3:d:/MTK/MTK2503/MTK2503/11CW1418SP4_03_CORETEK03AE_11C_V1_GPRS_MMI/Tools/MinGW/include/c++/3.3.1/bits/stl_vector.h **** // Copyright (C) 2001, 2002 Free Software Foundation, Inc.
   4:d:/MTK/MTK2503/MTK2503/11CW1418SP4_03_CORETEK03AE_11C_V1_GPRS_MMI/Tools/MinGW/include/c++/3.3.1/bits/stl_vector.h **** //
   5:d:/MTK/MTK2503/MTK2503/11CW1418SP4_03_CORETEK03AE_11C_V1_GPRS_MMI/Tools/MinGW/include/c++/3.3.1/bits/stl_vector.h **** // This file is part of the GNU ISO C++ Library.  This library is free
   6:d:/MTK/MTK2503/MTK2503/11CW1418SP4_03_CORETEK03AE_11C_V1_GPRS_MMI/Tools/MinGW/include/c++/3.3.1/bits/stl_vector.h **** // software; you can redistribute it and/or modify it under the
   7:d:/MTK/MTK2503/MTK2503/11CW1418SP4_03_CORETEK03AE_11C_V1_GPRS_MMI/Tools/MinGW/include/c++/3.3.1/bits/stl_vector.h **** // terms of the GNU General Public License as published by the
   8:d:/MTK/MTK2503/MTK2503/11CW1418SP4_03_CORETEK03AE_11C_V1_GPRS_MMI/Tools/MinGW/include/c++/3.3.1/bits/stl_vector.h **** // Free Software Foundation; either version 2, or (at your option)
   9:d:/MTK/MTK2503/MTK2503/11CW1418SP4_03_CORETEK03AE_11C_V1_GPRS_MMI/Tools/MinGW/include/c++/3.3.1/bits/stl_vector.h **** // any later version.
  10:d:/MTK/MTK2503/MTK2503/11CW1418SP4_03_CORETEK03AE_11C_V1_GPRS_MMI/Tools/MinGW/include/c++/3.3.1/bits/stl_vector.h **** 
  11:d:/MTK/MTK2503/MTK2503/11CW1418SP4_03_CORETEK03AE_11C_V1_GPRS_MMI/Tools/MinGW/include/c++/3.3.1/bits/stl_vector.h **** // This library is distributed in the hope that it will be useful,
  12:d:/MTK/MTK2503/MTK2503/11CW1418SP4_03_CORETEK03AE_11C_V1_GPRS_MMI/Tools/MinGW/include/c++/3.3.1/bits/stl_vector.h **** // but WITHOUT ANY WARRANTY; without even the implied warranty of
  13:d:/MTK/MTK2503/MTK2503/11CW1418SP4_03_CORETEK03AE_11C_V1_GPRS_MMI/Tools/MinGW/include/c++/3.3.1/bits/stl_vector.h **** // MERCHANTABILITY or FITNESS FOR A PARTICULAR PURPOSE.  See the
  14:d:/MTK/MTK2503/MTK2503/11CW1418SP4_03_CORETEK03AE_11C_V1_GPRS_MMI/Tools/MinGW/include/c++/3.3.1/bits/stl_vector.h **** // GNU General Public License for more details.
  15:d:/MTK/MTK2503/MTK2503/11CW1418SP4_03_CORETEK03AE_11C_V1_GPRS_MMI/Tools/MinGW/include/c++/3.3.1/bits/stl_vector.h **** 
  16:d:/MTK/MTK2503/MTK2503/11CW1418SP4_03_CORETEK03AE_11C_V1_GPRS_MMI/Tools/MinGW/include/c++/3.3.1/bits/stl_vector.h **** // You should have received a copy of the GNU General Public License along
  17:d:/MTK/MTK2503/MTK2503/11CW1418SP4_03_CORETEK03AE_11C_V1_GPRS_MMI/Tools/MinGW/include/c++/3.3.1/bits/stl_vector.h **** // with this library; see the file COPYING.  If not, write to the Free
  18:d:/MTK/MTK2503/MTK2503/11CW1418SP4_03_CORETEK03AE_11C_V1_GPRS_MMI/Tools/MinGW/include/c++/3.3.1/bits/stl_vector.h **** // Software Foundation, 59 Temple Place - Suite 330, Boston, MA 02111-1307,
  19:d:/MTK/MTK2503/MTK2503/11CW1418SP4_03_CORETEK03AE_11C_V1_GPRS_MMI/Tools/MinGW/include/c++/3.3.1/bits/stl_vector.h **** // USA.
  20:d:/MTK/MTK2503/MTK2503/11CW1418SP4_03_CORETEK03AE_11C_V1_GPRS_MMI/Tools/MinGW/include/c++/3.3.1/bits/stl_vector.h **** 
  21:d:/MTK/MTK2503/MTK2503/11CW1418SP4_03_CORETEK03AE_11C_V1_GPRS_MMI/Tools/MinGW/include/c++/3.3.1/bits/stl_vector.h **** // As a special exception, you may use this file as part of a free software
  22:d:/MTK/MTK2503/MTK2503/11CW1418SP4_03_CORETEK03AE_11C_V1_GPRS_MMI/Tools/MinGW/include/c++/3.3.1/bits/stl_vector.h **** // library without restriction.  Specifically, if other files instantiate
  23:d:/MTK/MTK2503/MTK2503/11CW1418SP4_03_CORETEK03AE_11C_V1_GPRS_MMI/Tools/MinGW/include/c++/3.3.1/bits/stl_vector.h **** // templates or use macros or inline functions from this file, or you compile
  24:d:/MTK/MTK2503/MTK2503/11CW1418SP4_03_CORETEK03AE_11C_V1_GPRS_MMI/Tools/MinGW/include/c++/3.3.1/bits/stl_vector.h **** // this file and link it with other files to produce an executable, this
GAS LISTING d:/MTK/MTK2503/MTK2503/11CW1418SP4_03_CORETEK03AE_11C_V1_GPRS_MMI/plutommi/Customer/ResGenerator/gcctmp/ccQHcaaa.s 			page 66


  25:d:/MTK/MTK2503/MTK2503/11CW1418SP4_03_CORETEK03AE_11C_V1_GPRS_MMI/Tools/MinGW/include/c++/3.3.1/bits/stl_vector.h **** // file does not by itself cause the resulting executable to be covered by
  26:d:/MTK/MTK2503/MTK2503/11CW1418SP4_03_CORETEK03AE_11C_V1_GPRS_MMI/Tools/MinGW/include/c++/3.3.1/bits/stl_vector.h **** // the GNU General Public License.  This exception does not however
  27:d:/MTK/MTK2503/MTK2503/11CW1418SP4_03_CORETEK03AE_11C_V1_GPRS_MMI/Tools/MinGW/include/c++/3.3.1/bits/stl_vector.h **** // invalidate any other reasons why the executable file might be covered by
  28:d:/MTK/MTK2503/MTK2503/11CW1418SP4_03_CORETEK03AE_11C_V1_GPRS_MMI/Tools/MinGW/include/c++/3.3.1/bits/stl_vector.h **** // the GNU General Public License.
  29:d:/MTK/MTK2503/MTK2503/11CW1418SP4_03_CORETEK03AE_11C_V1_GPRS_MMI/Tools/MinGW/include/c++/3.3.1/bits/stl_vector.h **** 
  30:d:/MTK/MTK2503/MTK2503/11CW1418SP4_03_CORETEK03AE_11C_V1_GPRS_MMI/Tools/MinGW/include/c++/3.3.1/bits/stl_vector.h **** /*
  31:d:/MTK/MTK2503/MTK2503/11CW1418SP4_03_CORETEK03AE_11C_V1_GPRS_MMI/Tools/MinGW/include/c++/3.3.1/bits/stl_vector.h ****  *
  32:d:/MTK/MTK2503/MTK2503/11CW1418SP4_03_CORETEK03AE_11C_V1_GPRS_MMI/Tools/MinGW/include/c++/3.3.1/bits/stl_vector.h ****  * Copyright (c) 1994
  33:d:/MTK/MTK2503/MTK2503/11CW1418SP4_03_CORETEK03AE_11C_V1_GPRS_MMI/Tools/MinGW/include/c++/3.3.1/bits/stl_vector.h ****  * Hewlett-Packard Company
  34:d:/MTK/MTK2503/MTK2503/11CW1418SP4_03_CORETEK03AE_11C_V1_GPRS_MMI/Tools/MinGW/include/c++/3.3.1/bits/stl_vector.h ****  *
  35:d:/MTK/MTK2503/MTK2503/11CW1418SP4_03_CORETEK03AE_11C_V1_GPRS_MMI/Tools/MinGW/include/c++/3.3.1/bits/stl_vector.h ****  * Permission to use, copy, modify, distribute and sell this software
  36:d:/MTK/MTK2503/MTK2503/11CW1418SP4_03_CORETEK03AE_11C_V1_GPRS_MMI/Tools/MinGW/include/c++/3.3.1/bits/stl_vector.h ****  * and its documentation for any purpose is hereby granted without fee,
  37:d:/MTK/MTK2503/MTK2503/11CW1418SP4_03_CORETEK03AE_11C_V1_GPRS_MMI/Tools/MinGW/include/c++/3.3.1/bits/stl_vector.h ****  * provided that the above copyright notice appear in all copies and
  38:d:/MTK/MTK2503/MTK2503/11CW1418SP4_03_CORETEK03AE_11C_V1_GPRS_MMI/Tools/MinGW/include/c++/3.3.1/bits/stl_vector.h ****  * that both that copyright notice and this permission notice appear
  39:d:/MTK/MTK2503/MTK2503/11CW1418SP4_03_CORETEK03AE_11C_V1_GPRS_MMI/Tools/MinGW/include/c++/3.3.1/bits/stl_vector.h ****  * in supporting documentation.  Hewlett-Packard Company makes no
  40:d:/MTK/MTK2503/MTK2503/11CW1418SP4_03_CORETEK03AE_11C_V1_GPRS_MMI/Tools/MinGW/include/c++/3.3.1/bits/stl_vector.h ****  * representations about the suitability of this software for any
  41:d:/MTK/MTK2503/MTK2503/11CW1418SP4_03_CORETEK03AE_11C_V1_GPRS_MMI/Tools/MinGW/include/c++/3.3.1/bits/stl_vector.h ****  * purpose.  It is provided "as is" without express or implied warranty.
  42:d:/MTK/MTK2503/MTK2503/11CW1418SP4_03_CORETEK03AE_11C_V1_GPRS_MMI/Tools/MinGW/include/c++/3.3.1/bits/stl_vector.h ****  *
  43:d:/MTK/MTK2503/MTK2503/11CW1418SP4_03_CORETEK03AE_11C_V1_GPRS_MMI/Tools/MinGW/include/c++/3.3.1/bits/stl_vector.h ****  *
  44:d:/MTK/MTK2503/MTK2503/11CW1418SP4_03_CORETEK03AE_11C_V1_GPRS_MMI/Tools/MinGW/include/c++/3.3.1/bits/stl_vector.h ****  * Copyright (c) 1996
  45:d:/MTK/MTK2503/MTK2503/11CW1418SP4_03_CORETEK03AE_11C_V1_GPRS_MMI/Tools/MinGW/include/c++/3.3.1/bits/stl_vector.h ****  * Silicon Graphics Computer Systems, Inc.
  46:d:/MTK/MTK2503/MTK2503/11CW1418SP4_03_CORETEK03AE_11C_V1_GPRS_MMI/Tools/MinGW/include/c++/3.3.1/bits/stl_vector.h ****  *
  47:d:/MTK/MTK2503/MTK2503/11CW1418SP4_03_CORETEK03AE_11C_V1_GPRS_MMI/Tools/MinGW/include/c++/3.3.1/bits/stl_vector.h ****  * Permission to use, copy, modify, distribute and sell this software
  48:d:/MTK/MTK2503/MTK2503/11CW1418SP4_03_CORETEK03AE_11C_V1_GPRS_MMI/Tools/MinGW/include/c++/3.3.1/bits/stl_vector.h ****  * and its documentation for any purpose is hereby granted without fee,
  49:d:/MTK/MTK2503/MTK2503/11CW1418SP4_03_CORETEK03AE_11C_V1_GPRS_MMI/Tools/MinGW/include/c++/3.3.1/bits/stl_vector.h ****  * provided that the above copyright notice appear in all copies and
  50:d:/MTK/MTK2503/MTK2503/11CW1418SP4_03_CORETEK03AE_11C_V1_GPRS_MMI/Tools/MinGW/include/c++/3.3.1/bits/stl_vector.h ****  * that both that copyright notice and this permission notice appear
  51:d:/MTK/MTK2503/MTK2503/11CW1418SP4_03_CORETEK03AE_11C_V1_GPRS_MMI/Tools/MinGW/include/c++/3.3.1/bits/stl_vector.h ****  * in supporting documentation.  Silicon Graphics makes no
  52:d:/MTK/MTK2503/MTK2503/11CW1418SP4_03_CORETEK03AE_11C_V1_GPRS_MMI/Tools/MinGW/include/c++/3.3.1/bits/stl_vector.h ****  * representations about the suitability of this  software for any
  53:d:/MTK/MTK2503/MTK2503/11CW1418SP4_03_CORETEK03AE_11C_V1_GPRS_MMI/Tools/MinGW/include/c++/3.3.1/bits/stl_vector.h ****  * purpose.  It is provided "as is" without express or implied warranty.
  54:d:/MTK/MTK2503/MTK2503/11CW1418SP4_03_CORETEK03AE_11C_V1_GPRS_MMI/Tools/MinGW/include/c++/3.3.1/bits/stl_vector.h ****  */
  55:d:/MTK/MTK2503/MTK2503/11CW1418SP4_03_CORETEK03AE_11C_V1_GPRS_MMI/Tools/MinGW/include/c++/3.3.1/bits/stl_vector.h **** 
  56:d:/MTK/MTK2503/MTK2503/11CW1418SP4_03_CORETEK03AE_11C_V1_GPRS_MMI/Tools/MinGW/include/c++/3.3.1/bits/stl_vector.h **** /** @file stl_vector.h
  57:d:/MTK/MTK2503/MTK2503/11CW1418SP4_03_CORETEK03AE_11C_V1_GPRS_MMI/Tools/MinGW/include/c++/3.3.1/bits/stl_vector.h ****  *  This is an internal header file, included by other library headers.
  58:d:/MTK/MTK2503/MTK2503/11CW1418SP4_03_CORETEK03AE_11C_V1_GPRS_MMI/Tools/MinGW/include/c++/3.3.1/bits/stl_vector.h ****  *  You should not attempt to use it directly.
  59:d:/MTK/MTK2503/MTK2503/11CW1418SP4_03_CORETEK03AE_11C_V1_GPRS_MMI/Tools/MinGW/include/c++/3.3.1/bits/stl_vector.h ****  */
  60:d:/MTK/MTK2503/MTK2503/11CW1418SP4_03_CORETEK03AE_11C_V1_GPRS_MMI/Tools/MinGW/include/c++/3.3.1/bits/stl_vector.h **** 
  61:d:/MTK/MTK2503/MTK2503/11CW1418SP4_03_CORETEK03AE_11C_V1_GPRS_MMI/Tools/MinGW/include/c++/3.3.1/bits/stl_vector.h **** #ifndef __GLIBCPP_INTERNAL_VECTOR_H
  62:d:/MTK/MTK2503/MTK2503/11CW1418SP4_03_CORETEK03AE_11C_V1_GPRS_MMI/Tools/MinGW/include/c++/3.3.1/bits/stl_vector.h **** #define __GLIBCPP_INTERNAL_VECTOR_H
  63:d:/MTK/MTK2503/MTK2503/11CW1418SP4_03_CORETEK03AE_11C_V1_GPRS_MMI/Tools/MinGW/include/c++/3.3.1/bits/stl_vector.h **** 
  64:d:/MTK/MTK2503/MTK2503/11CW1418SP4_03_CORETEK03AE_11C_V1_GPRS_MMI/Tools/MinGW/include/c++/3.3.1/bits/stl_vector.h **** #include <bits/stl_iterator_base_funcs.h>
  65:d:/MTK/MTK2503/MTK2503/11CW1418SP4_03_CORETEK03AE_11C_V1_GPRS_MMI/Tools/MinGW/include/c++/3.3.1/bits/stl_vector.h **** #include <bits/functexcept.h>
  66:d:/MTK/MTK2503/MTK2503/11CW1418SP4_03_CORETEK03AE_11C_V1_GPRS_MMI/Tools/MinGW/include/c++/3.3.1/bits/stl_vector.h **** #include <bits/concept_check.h>
  67:d:/MTK/MTK2503/MTK2503/11CW1418SP4_03_CORETEK03AE_11C_V1_GPRS_MMI/Tools/MinGW/include/c++/3.3.1/bits/stl_vector.h **** 
  68:d:/MTK/MTK2503/MTK2503/11CW1418SP4_03_CORETEK03AE_11C_V1_GPRS_MMI/Tools/MinGW/include/c++/3.3.1/bits/stl_vector.h **** namespace std
  69:d:/MTK/MTK2503/MTK2503/11CW1418SP4_03_CORETEK03AE_11C_V1_GPRS_MMI/Tools/MinGW/include/c++/3.3.1/bits/stl_vector.h **** {
  70:d:/MTK/MTK2503/MTK2503/11CW1418SP4_03_CORETEK03AE_11C_V1_GPRS_MMI/Tools/MinGW/include/c++/3.3.1/bits/stl_vector.h ****   /// @if maint Primary default version.  @endif
  71:d:/MTK/MTK2503/MTK2503/11CW1418SP4_03_CORETEK03AE_11C_V1_GPRS_MMI/Tools/MinGW/include/c++/3.3.1/bits/stl_vector.h ****   /**
  72:d:/MTK/MTK2503/MTK2503/11CW1418SP4_03_CORETEK03AE_11C_V1_GPRS_MMI/Tools/MinGW/include/c++/3.3.1/bits/stl_vector.h ****    *  @if maint
  73:d:/MTK/MTK2503/MTK2503/11CW1418SP4_03_CORETEK03AE_11C_V1_GPRS_MMI/Tools/MinGW/include/c++/3.3.1/bits/stl_vector.h ****    *  See bits/stl_deque.h's _Deque_alloc_base for an explanation.
  74:d:/MTK/MTK2503/MTK2503/11CW1418SP4_03_CORETEK03AE_11C_V1_GPRS_MMI/Tools/MinGW/include/c++/3.3.1/bits/stl_vector.h ****    *  @endif
  75:d:/MTK/MTK2503/MTK2503/11CW1418SP4_03_CORETEK03AE_11C_V1_GPRS_MMI/Tools/MinGW/include/c++/3.3.1/bits/stl_vector.h ****   */
  76:d:/MTK/MTK2503/MTK2503/11CW1418SP4_03_CORETEK03AE_11C_V1_GPRS_MMI/Tools/MinGW/include/c++/3.3.1/bits/stl_vector.h ****   template<typename _Tp, typename _Allocator, bool _IsStatic>
  77:d:/MTK/MTK2503/MTK2503/11CW1418SP4_03_CORETEK03AE_11C_V1_GPRS_MMI/Tools/MinGW/include/c++/3.3.1/bits/stl_vector.h ****     class _Vector_alloc_base
  78:d:/MTK/MTK2503/MTK2503/11CW1418SP4_03_CORETEK03AE_11C_V1_GPRS_MMI/Tools/MinGW/include/c++/3.3.1/bits/stl_vector.h ****     {
  79:d:/MTK/MTK2503/MTK2503/11CW1418SP4_03_CORETEK03AE_11C_V1_GPRS_MMI/Tools/MinGW/include/c++/3.3.1/bits/stl_vector.h ****     public:
  80:d:/MTK/MTK2503/MTK2503/11CW1418SP4_03_CORETEK03AE_11C_V1_GPRS_MMI/Tools/MinGW/include/c++/3.3.1/bits/stl_vector.h ****       typedef typename _Alloc_traits<_Tp, _Allocator>::allocator_type
  81:d:/MTK/MTK2503/MTK2503/11CW1418SP4_03_CORETEK03AE_11C_V1_GPRS_MMI/Tools/MinGW/include/c++/3.3.1/bits/stl_vector.h ****       allocator_type;
GAS LISTING d:/MTK/MTK2503/MTK2503/11CW1418SP4_03_CORETEK03AE_11C_V1_GPRS_MMI/plutommi/Customer/ResGenerator/gcctmp/ccQHcaaa.s 			page 67


  82:d:/MTK/MTK2503/MTK2503/11CW1418SP4_03_CORETEK03AE_11C_V1_GPRS_MMI/Tools/MinGW/include/c++/3.3.1/bits/stl_vector.h **** 
  83:d:/MTK/MTK2503/MTK2503/11CW1418SP4_03_CORETEK03AE_11C_V1_GPRS_MMI/Tools/MinGW/include/c++/3.3.1/bits/stl_vector.h ****       allocator_type
  84:d:/MTK/MTK2503/MTK2503/11CW1418SP4_03_CORETEK03AE_11C_V1_GPRS_MMI/Tools/MinGW/include/c++/3.3.1/bits/stl_vector.h ****       get_allocator() const { return _M_data_allocator; }
  85:d:/MTK/MTK2503/MTK2503/11CW1418SP4_03_CORETEK03AE_11C_V1_GPRS_MMI/Tools/MinGW/include/c++/3.3.1/bits/stl_vector.h ****   
  86:d:/MTK/MTK2503/MTK2503/11CW1418SP4_03_CORETEK03AE_11C_V1_GPRS_MMI/Tools/MinGW/include/c++/3.3.1/bits/stl_vector.h ****       _Vector_alloc_base(const allocator_type& __a)
  87:d:/MTK/MTK2503/MTK2503/11CW1418SP4_03_CORETEK03AE_11C_V1_GPRS_MMI/Tools/MinGW/include/c++/3.3.1/bits/stl_vector.h ****       : _M_data_allocator(__a), _M_start(0), _M_finish(0), _M_end_of_storage(0)
  88:d:/MTK/MTK2503/MTK2503/11CW1418SP4_03_CORETEK03AE_11C_V1_GPRS_MMI/Tools/MinGW/include/c++/3.3.1/bits/stl_vector.h ****       { }
  89:d:/MTK/MTK2503/MTK2503/11CW1418SP4_03_CORETEK03AE_11C_V1_GPRS_MMI/Tools/MinGW/include/c++/3.3.1/bits/stl_vector.h ****   
  90:d:/MTK/MTK2503/MTK2503/11CW1418SP4_03_CORETEK03AE_11C_V1_GPRS_MMI/Tools/MinGW/include/c++/3.3.1/bits/stl_vector.h ****     protected:
  91:d:/MTK/MTK2503/MTK2503/11CW1418SP4_03_CORETEK03AE_11C_V1_GPRS_MMI/Tools/MinGW/include/c++/3.3.1/bits/stl_vector.h ****       allocator_type _M_data_allocator;
  92:d:/MTK/MTK2503/MTK2503/11CW1418SP4_03_CORETEK03AE_11C_V1_GPRS_MMI/Tools/MinGW/include/c++/3.3.1/bits/stl_vector.h ****       _Tp*           _M_start;
  93:d:/MTK/MTK2503/MTK2503/11CW1418SP4_03_CORETEK03AE_11C_V1_GPRS_MMI/Tools/MinGW/include/c++/3.3.1/bits/stl_vector.h ****       _Tp*           _M_finish;
  94:d:/MTK/MTK2503/MTK2503/11CW1418SP4_03_CORETEK03AE_11C_V1_GPRS_MMI/Tools/MinGW/include/c++/3.3.1/bits/stl_vector.h ****       _Tp*           _M_end_of_storage;
  95:d:/MTK/MTK2503/MTK2503/11CW1418SP4_03_CORETEK03AE_11C_V1_GPRS_MMI/Tools/MinGW/include/c++/3.3.1/bits/stl_vector.h ****   
  96:d:/MTK/MTK2503/MTK2503/11CW1418SP4_03_CORETEK03AE_11C_V1_GPRS_MMI/Tools/MinGW/include/c++/3.3.1/bits/stl_vector.h ****       _Tp*
  97:d:/MTK/MTK2503/MTK2503/11CW1418SP4_03_CORETEK03AE_11C_V1_GPRS_MMI/Tools/MinGW/include/c++/3.3.1/bits/stl_vector.h ****       _M_allocate(size_t __n) { return _M_data_allocator.allocate(__n); }
  98:d:/MTK/MTK2503/MTK2503/11CW1418SP4_03_CORETEK03AE_11C_V1_GPRS_MMI/Tools/MinGW/include/c++/3.3.1/bits/stl_vector.h ****   
  99:d:/MTK/MTK2503/MTK2503/11CW1418SP4_03_CORETEK03AE_11C_V1_GPRS_MMI/Tools/MinGW/include/c++/3.3.1/bits/stl_vector.h ****       void
 100:d:/MTK/MTK2503/MTK2503/11CW1418SP4_03_CORETEK03AE_11C_V1_GPRS_MMI/Tools/MinGW/include/c++/3.3.1/bits/stl_vector.h ****       _M_deallocate(_Tp* __p, size_t __n)
 101:d:/MTK/MTK2503/MTK2503/11CW1418SP4_03_CORETEK03AE_11C_V1_GPRS_MMI/Tools/MinGW/include/c++/3.3.1/bits/stl_vector.h ****       { if (__p) _M_data_allocator.deallocate(__p, __n); }
 102:d:/MTK/MTK2503/MTK2503/11CW1418SP4_03_CORETEK03AE_11C_V1_GPRS_MMI/Tools/MinGW/include/c++/3.3.1/bits/stl_vector.h ****     };
 103:d:/MTK/MTK2503/MTK2503/11CW1418SP4_03_CORETEK03AE_11C_V1_GPRS_MMI/Tools/MinGW/include/c++/3.3.1/bits/stl_vector.h ****   
 104:d:/MTK/MTK2503/MTK2503/11CW1418SP4_03_CORETEK03AE_11C_V1_GPRS_MMI/Tools/MinGW/include/c++/3.3.1/bits/stl_vector.h ****   /// @if maint Specialization for instanceless allocators.  @endif
 105:d:/MTK/MTK2503/MTK2503/11CW1418SP4_03_CORETEK03AE_11C_V1_GPRS_MMI/Tools/MinGW/include/c++/3.3.1/bits/stl_vector.h ****   template<typename _Tp, typename _Allocator>
 106:d:/MTK/MTK2503/MTK2503/11CW1418SP4_03_CORETEK03AE_11C_V1_GPRS_MMI/Tools/MinGW/include/c++/3.3.1/bits/stl_vector.h ****     class _Vector_alloc_base<_Tp, _Allocator, true>
 107:d:/MTK/MTK2503/MTK2503/11CW1418SP4_03_CORETEK03AE_11C_V1_GPRS_MMI/Tools/MinGW/include/c++/3.3.1/bits/stl_vector.h ****     {
 108:d:/MTK/MTK2503/MTK2503/11CW1418SP4_03_CORETEK03AE_11C_V1_GPRS_MMI/Tools/MinGW/include/c++/3.3.1/bits/stl_vector.h ****     public:
 109:d:/MTK/MTK2503/MTK2503/11CW1418SP4_03_CORETEK03AE_11C_V1_GPRS_MMI/Tools/MinGW/include/c++/3.3.1/bits/stl_vector.h ****       typedef typename _Alloc_traits<_Tp, _Allocator>::allocator_type
 110:d:/MTK/MTK2503/MTK2503/11CW1418SP4_03_CORETEK03AE_11C_V1_GPRS_MMI/Tools/MinGW/include/c++/3.3.1/bits/stl_vector.h ****              allocator_type;
 111:d:/MTK/MTK2503/MTK2503/11CW1418SP4_03_CORETEK03AE_11C_V1_GPRS_MMI/Tools/MinGW/include/c++/3.3.1/bits/stl_vector.h ****   
 112:d:/MTK/MTK2503/MTK2503/11CW1418SP4_03_CORETEK03AE_11C_V1_GPRS_MMI/Tools/MinGW/include/c++/3.3.1/bits/stl_vector.h ****       allocator_type
 113:d:/MTK/MTK2503/MTK2503/11CW1418SP4_03_CORETEK03AE_11C_V1_GPRS_MMI/Tools/MinGW/include/c++/3.3.1/bits/stl_vector.h ****       get_allocator() const { return allocator_type(); }
 114:d:/MTK/MTK2503/MTK2503/11CW1418SP4_03_CORETEK03AE_11C_V1_GPRS_MMI/Tools/MinGW/include/c++/3.3.1/bits/stl_vector.h ****       
 115:d:/MTK/MTK2503/MTK2503/11CW1418SP4_03_CORETEK03AE_11C_V1_GPRS_MMI/Tools/MinGW/include/c++/3.3.1/bits/stl_vector.h ****       _Vector_alloc_base(const allocator_type&)
 116:d:/MTK/MTK2503/MTK2503/11CW1418SP4_03_CORETEK03AE_11C_V1_GPRS_MMI/Tools/MinGW/include/c++/3.3.1/bits/stl_vector.h ****       : _M_start(0), _M_finish(0), _M_end_of_storage(0)
 117:d:/MTK/MTK2503/MTK2503/11CW1418SP4_03_CORETEK03AE_11C_V1_GPRS_MMI/Tools/MinGW/include/c++/3.3.1/bits/stl_vector.h ****       { }
 118:d:/MTK/MTK2503/MTK2503/11CW1418SP4_03_CORETEK03AE_11C_V1_GPRS_MMI/Tools/MinGW/include/c++/3.3.1/bits/stl_vector.h ****   
 119:d:/MTK/MTK2503/MTK2503/11CW1418SP4_03_CORETEK03AE_11C_V1_GPRS_MMI/Tools/MinGW/include/c++/3.3.1/bits/stl_vector.h ****     protected:
 120:d:/MTK/MTK2503/MTK2503/11CW1418SP4_03_CORETEK03AE_11C_V1_GPRS_MMI/Tools/MinGW/include/c++/3.3.1/bits/stl_vector.h ****       _Tp* _M_start;
 121:d:/MTK/MTK2503/MTK2503/11CW1418SP4_03_CORETEK03AE_11C_V1_GPRS_MMI/Tools/MinGW/include/c++/3.3.1/bits/stl_vector.h ****       _Tp* _M_finish;
 122:d:/MTK/MTK2503/MTK2503/11CW1418SP4_03_CORETEK03AE_11C_V1_GPRS_MMI/Tools/MinGW/include/c++/3.3.1/bits/stl_vector.h ****       _Tp* _M_end_of_storage;
 123:d:/MTK/MTK2503/MTK2503/11CW1418SP4_03_CORETEK03AE_11C_V1_GPRS_MMI/Tools/MinGW/include/c++/3.3.1/bits/stl_vector.h ****   
 124:d:/MTK/MTK2503/MTK2503/11CW1418SP4_03_CORETEK03AE_11C_V1_GPRS_MMI/Tools/MinGW/include/c++/3.3.1/bits/stl_vector.h ****       typedef typename _Alloc_traits<_Tp, _Allocator>::_Alloc_type _Alloc_type;
 125:d:/MTK/MTK2503/MTK2503/11CW1418SP4_03_CORETEK03AE_11C_V1_GPRS_MMI/Tools/MinGW/include/c++/3.3.1/bits/stl_vector.h ****       
 126:d:/MTK/MTK2503/MTK2503/11CW1418SP4_03_CORETEK03AE_11C_V1_GPRS_MMI/Tools/MinGW/include/c++/3.3.1/bits/stl_vector.h ****       _Tp*
 127:d:/MTK/MTK2503/MTK2503/11CW1418SP4_03_CORETEK03AE_11C_V1_GPRS_MMI/Tools/MinGW/include/c++/3.3.1/bits/stl_vector.h ****       _M_allocate(size_t __n) { return _Alloc_type::allocate(__n); }
 128:d:/MTK/MTK2503/MTK2503/11CW1418SP4_03_CORETEK03AE_11C_V1_GPRS_MMI/Tools/MinGW/include/c++/3.3.1/bits/stl_vector.h ****   
 129:d:/MTK/MTK2503/MTK2503/11CW1418SP4_03_CORETEK03AE_11C_V1_GPRS_MMI/Tools/MinGW/include/c++/3.3.1/bits/stl_vector.h ****       void
 130:d:/MTK/MTK2503/MTK2503/11CW1418SP4_03_CORETEK03AE_11C_V1_GPRS_MMI/Tools/MinGW/include/c++/3.3.1/bits/stl_vector.h ****       _M_deallocate(_Tp* __p, size_t __n) { _Alloc_type::deallocate(__p, __n);}
 131:d:/MTK/MTK2503/MTK2503/11CW1418SP4_03_CORETEK03AE_11C_V1_GPRS_MMI/Tools/MinGW/include/c++/3.3.1/bits/stl_vector.h ****     };
 132:d:/MTK/MTK2503/MTK2503/11CW1418SP4_03_CORETEK03AE_11C_V1_GPRS_MMI/Tools/MinGW/include/c++/3.3.1/bits/stl_vector.h ****   
 133:d:/MTK/MTK2503/MTK2503/11CW1418SP4_03_CORETEK03AE_11C_V1_GPRS_MMI/Tools/MinGW/include/c++/3.3.1/bits/stl_vector.h ****   
 134:d:/MTK/MTK2503/MTK2503/11CW1418SP4_03_CORETEK03AE_11C_V1_GPRS_MMI/Tools/MinGW/include/c++/3.3.1/bits/stl_vector.h ****   /**
 135:d:/MTK/MTK2503/MTK2503/11CW1418SP4_03_CORETEK03AE_11C_V1_GPRS_MMI/Tools/MinGW/include/c++/3.3.1/bits/stl_vector.h ****    *  @if maint
 136:d:/MTK/MTK2503/MTK2503/11CW1418SP4_03_CORETEK03AE_11C_V1_GPRS_MMI/Tools/MinGW/include/c++/3.3.1/bits/stl_vector.h ****    *  See bits/stl_deque.h's _Deque_base for an explanation.
 137:d:/MTK/MTK2503/MTK2503/11CW1418SP4_03_CORETEK03AE_11C_V1_GPRS_MMI/Tools/MinGW/include/c++/3.3.1/bits/stl_vector.h ****    *  @endif
 138:d:/MTK/MTK2503/MTK2503/11CW1418SP4_03_CORETEK03AE_11C_V1_GPRS_MMI/Tools/MinGW/include/c++/3.3.1/bits/stl_vector.h ****   */
GAS LISTING d:/MTK/MTK2503/MTK2503/11CW1418SP4_03_CORETEK03AE_11C_V1_GPRS_MMI/plutommi/Customer/ResGenerator/gcctmp/ccQHcaaa.s 			page 68


 139:d:/MTK/MTK2503/MTK2503/11CW1418SP4_03_CORETEK03AE_11C_V1_GPRS_MMI/Tools/MinGW/include/c++/3.3.1/bits/stl_vector.h ****   template<typename _Tp, typename _Alloc>
 140:d:/MTK/MTK2503/MTK2503/11CW1418SP4_03_CORETEK03AE_11C_V1_GPRS_MMI/Tools/MinGW/include/c++/3.3.1/bits/stl_vector.h ****     struct _Vector_base
 141:d:/MTK/MTK2503/MTK2503/11CW1418SP4_03_CORETEK03AE_11C_V1_GPRS_MMI/Tools/MinGW/include/c++/3.3.1/bits/stl_vector.h ****     : public _Vector_alloc_base<_Tp, _Alloc,
 142:d:/MTK/MTK2503/MTK2503/11CW1418SP4_03_CORETEK03AE_11C_V1_GPRS_MMI/Tools/MinGW/include/c++/3.3.1/bits/stl_vector.h ****                                 _Alloc_traits<_Tp, _Alloc>::_S_instanceless>
 143:d:/MTK/MTK2503/MTK2503/11CW1418SP4_03_CORETEK03AE_11C_V1_GPRS_MMI/Tools/MinGW/include/c++/3.3.1/bits/stl_vector.h ****     {
 144:d:/MTK/MTK2503/MTK2503/11CW1418SP4_03_CORETEK03AE_11C_V1_GPRS_MMI/Tools/MinGW/include/c++/3.3.1/bits/stl_vector.h ****     public:
 145:d:/MTK/MTK2503/MTK2503/11CW1418SP4_03_CORETEK03AE_11C_V1_GPRS_MMI/Tools/MinGW/include/c++/3.3.1/bits/stl_vector.h ****       typedef _Vector_alloc_base<_Tp, _Alloc,
 146:d:/MTK/MTK2503/MTK2503/11CW1418SP4_03_CORETEK03AE_11C_V1_GPRS_MMI/Tools/MinGW/include/c++/3.3.1/bits/stl_vector.h **** 				 _Alloc_traits<_Tp, _Alloc>::_S_instanceless>
 147:d:/MTK/MTK2503/MTK2503/11CW1418SP4_03_CORETEK03AE_11C_V1_GPRS_MMI/Tools/MinGW/include/c++/3.3.1/bits/stl_vector.h ****          _Base;
 148:d:/MTK/MTK2503/MTK2503/11CW1418SP4_03_CORETEK03AE_11C_V1_GPRS_MMI/Tools/MinGW/include/c++/3.3.1/bits/stl_vector.h ****       typedef typename _Base::allocator_type allocator_type;
 149:d:/MTK/MTK2503/MTK2503/11CW1418SP4_03_CORETEK03AE_11C_V1_GPRS_MMI/Tools/MinGW/include/c++/3.3.1/bits/stl_vector.h **** 
 150:d:/MTK/MTK2503/MTK2503/11CW1418SP4_03_CORETEK03AE_11C_V1_GPRS_MMI/Tools/MinGW/include/c++/3.3.1/bits/stl_vector.h ****       _Vector_base(const allocator_type& __a)
 151:d:/MTK/MTK2503/MTK2503/11CW1418SP4_03_CORETEK03AE_11C_V1_GPRS_MMI/Tools/MinGW/include/c++/3.3.1/bits/stl_vector.h ****       : _Base(__a) { }
 152:d:/MTK/MTK2503/MTK2503/11CW1418SP4_03_CORETEK03AE_11C_V1_GPRS_MMI/Tools/MinGW/include/c++/3.3.1/bits/stl_vector.h ****       
 153:d:/MTK/MTK2503/MTK2503/11CW1418SP4_03_CORETEK03AE_11C_V1_GPRS_MMI/Tools/MinGW/include/c++/3.3.1/bits/stl_vector.h ****       _Vector_base(size_t __n, const allocator_type& __a)
 154:d:/MTK/MTK2503/MTK2503/11CW1418SP4_03_CORETEK03AE_11C_V1_GPRS_MMI/Tools/MinGW/include/c++/3.3.1/bits/stl_vector.h ****       : _Base(__a)
 155:d:/MTK/MTK2503/MTK2503/11CW1418SP4_03_CORETEK03AE_11C_V1_GPRS_MMI/Tools/MinGW/include/c++/3.3.1/bits/stl_vector.h ****       {
 156:d:/MTK/MTK2503/MTK2503/11CW1418SP4_03_CORETEK03AE_11C_V1_GPRS_MMI/Tools/MinGW/include/c++/3.3.1/bits/stl_vector.h **** 	_M_start = _M_allocate(__n);
 157:d:/MTK/MTK2503/MTK2503/11CW1418SP4_03_CORETEK03AE_11C_V1_GPRS_MMI/Tools/MinGW/include/c++/3.3.1/bits/stl_vector.h **** 	_M_finish = _M_start;
 158:d:/MTK/MTK2503/MTK2503/11CW1418SP4_03_CORETEK03AE_11C_V1_GPRS_MMI/Tools/MinGW/include/c++/3.3.1/bits/stl_vector.h **** 	_M_end_of_storage = _M_start + __n;
 159:d:/MTK/MTK2503/MTK2503/11CW1418SP4_03_CORETEK03AE_11C_V1_GPRS_MMI/Tools/MinGW/include/c++/3.3.1/bits/stl_vector.h ****       }
 160:d:/MTK/MTK2503/MTK2503/11CW1418SP4_03_CORETEK03AE_11C_V1_GPRS_MMI/Tools/MinGW/include/c++/3.3.1/bits/stl_vector.h ****       
 161:d:/MTK/MTK2503/MTK2503/11CW1418SP4_03_CORETEK03AE_11C_V1_GPRS_MMI/Tools/MinGW/include/c++/3.3.1/bits/stl_vector.h ****       ~_Vector_base() 
 162:d:/MTK/MTK2503/MTK2503/11CW1418SP4_03_CORETEK03AE_11C_V1_GPRS_MMI/Tools/MinGW/include/c++/3.3.1/bits/stl_vector.h ****       { _M_deallocate(_M_start, _M_end_of_storage - _M_start); }
 163:d:/MTK/MTK2503/MTK2503/11CW1418SP4_03_CORETEK03AE_11C_V1_GPRS_MMI/Tools/MinGW/include/c++/3.3.1/bits/stl_vector.h ****     };
 164:d:/MTK/MTK2503/MTK2503/11CW1418SP4_03_CORETEK03AE_11C_V1_GPRS_MMI/Tools/MinGW/include/c++/3.3.1/bits/stl_vector.h ****   
 165:d:/MTK/MTK2503/MTK2503/11CW1418SP4_03_CORETEK03AE_11C_V1_GPRS_MMI/Tools/MinGW/include/c++/3.3.1/bits/stl_vector.h ****   
 166:d:/MTK/MTK2503/MTK2503/11CW1418SP4_03_CORETEK03AE_11C_V1_GPRS_MMI/Tools/MinGW/include/c++/3.3.1/bits/stl_vector.h ****   /**
 167:d:/MTK/MTK2503/MTK2503/11CW1418SP4_03_CORETEK03AE_11C_V1_GPRS_MMI/Tools/MinGW/include/c++/3.3.1/bits/stl_vector.h ****    *  @brief  A standard container which offers fixed time access to individual
 168:d:/MTK/MTK2503/MTK2503/11CW1418SP4_03_CORETEK03AE_11C_V1_GPRS_MMI/Tools/MinGW/include/c++/3.3.1/bits/stl_vector.h ****    *  elements in any order.
 169:d:/MTK/MTK2503/MTK2503/11CW1418SP4_03_CORETEK03AE_11C_V1_GPRS_MMI/Tools/MinGW/include/c++/3.3.1/bits/stl_vector.h ****    *
 170:d:/MTK/MTK2503/MTK2503/11CW1418SP4_03_CORETEK03AE_11C_V1_GPRS_MMI/Tools/MinGW/include/c++/3.3.1/bits/stl_vector.h ****    *  @ingroup Containers
 171:d:/MTK/MTK2503/MTK2503/11CW1418SP4_03_CORETEK03AE_11C_V1_GPRS_MMI/Tools/MinGW/include/c++/3.3.1/bits/stl_vector.h ****    *  @ingroup Sequences
 172:d:/MTK/MTK2503/MTK2503/11CW1418SP4_03_CORETEK03AE_11C_V1_GPRS_MMI/Tools/MinGW/include/c++/3.3.1/bits/stl_vector.h ****    *
 173:d:/MTK/MTK2503/MTK2503/11CW1418SP4_03_CORETEK03AE_11C_V1_GPRS_MMI/Tools/MinGW/include/c++/3.3.1/bits/stl_vector.h ****    *  Meets the requirements of a <a href="tables.html#65">container</a>, a
 174:d:/MTK/MTK2503/MTK2503/11CW1418SP4_03_CORETEK03AE_11C_V1_GPRS_MMI/Tools/MinGW/include/c++/3.3.1/bits/stl_vector.h ****    *  <a href="tables.html#66">reversible container</a>, and a
 175:d:/MTK/MTK2503/MTK2503/11CW1418SP4_03_CORETEK03AE_11C_V1_GPRS_MMI/Tools/MinGW/include/c++/3.3.1/bits/stl_vector.h ****    *  <a href="tables.html#67">sequence</a>, including the
 176:d:/MTK/MTK2503/MTK2503/11CW1418SP4_03_CORETEK03AE_11C_V1_GPRS_MMI/Tools/MinGW/include/c++/3.3.1/bits/stl_vector.h ****    *  <a href="tables.html#68">optional sequence requirements</a> with the
 177:d:/MTK/MTK2503/MTK2503/11CW1418SP4_03_CORETEK03AE_11C_V1_GPRS_MMI/Tools/MinGW/include/c++/3.3.1/bits/stl_vector.h ****    *  %exception of @c push_front and @c pop_front.
 178:d:/MTK/MTK2503/MTK2503/11CW1418SP4_03_CORETEK03AE_11C_V1_GPRS_MMI/Tools/MinGW/include/c++/3.3.1/bits/stl_vector.h ****    *
 179:d:/MTK/MTK2503/MTK2503/11CW1418SP4_03_CORETEK03AE_11C_V1_GPRS_MMI/Tools/MinGW/include/c++/3.3.1/bits/stl_vector.h ****    *  In some terminology a %vector can be described as a dynamic C-style array,
 180:d:/MTK/MTK2503/MTK2503/11CW1418SP4_03_CORETEK03AE_11C_V1_GPRS_MMI/Tools/MinGW/include/c++/3.3.1/bits/stl_vector.h ****    *  it offers fast and efficient access to individual elements in any order
 181:d:/MTK/MTK2503/MTK2503/11CW1418SP4_03_CORETEK03AE_11C_V1_GPRS_MMI/Tools/MinGW/include/c++/3.3.1/bits/stl_vector.h ****    *  and saves the user from worrying about memory and size allocation.
 182:d:/MTK/MTK2503/MTK2503/11CW1418SP4_03_CORETEK03AE_11C_V1_GPRS_MMI/Tools/MinGW/include/c++/3.3.1/bits/stl_vector.h ****    *  Subscripting ( @c [] ) access is also provided as with C-style arrays.
 183:d:/MTK/MTK2503/MTK2503/11CW1418SP4_03_CORETEK03AE_11C_V1_GPRS_MMI/Tools/MinGW/include/c++/3.3.1/bits/stl_vector.h ****   */
 184:d:/MTK/MTK2503/MTK2503/11CW1418SP4_03_CORETEK03AE_11C_V1_GPRS_MMI/Tools/MinGW/include/c++/3.3.1/bits/stl_vector.h ****   template<typename _Tp, typename _Alloc = allocator<_Tp> >
 185:d:/MTK/MTK2503/MTK2503/11CW1418SP4_03_CORETEK03AE_11C_V1_GPRS_MMI/Tools/MinGW/include/c++/3.3.1/bits/stl_vector.h ****     class vector : protected _Vector_base<_Tp, _Alloc>
 186:d:/MTK/MTK2503/MTK2503/11CW1418SP4_03_CORETEK03AE_11C_V1_GPRS_MMI/Tools/MinGW/include/c++/3.3.1/bits/stl_vector.h ****     {
 187:d:/MTK/MTK2503/MTK2503/11CW1418SP4_03_CORETEK03AE_11C_V1_GPRS_MMI/Tools/MinGW/include/c++/3.3.1/bits/stl_vector.h ****       // Concept requirements.
 188:d:/MTK/MTK2503/MTK2503/11CW1418SP4_03_CORETEK03AE_11C_V1_GPRS_MMI/Tools/MinGW/include/c++/3.3.1/bits/stl_vector.h ****       __glibcpp_class_requires(_Tp, _SGIAssignableConcept)
 189:d:/MTK/MTK2503/MTK2503/11CW1418SP4_03_CORETEK03AE_11C_V1_GPRS_MMI/Tools/MinGW/include/c++/3.3.1/bits/stl_vector.h ****   
 190:d:/MTK/MTK2503/MTK2503/11CW1418SP4_03_CORETEK03AE_11C_V1_GPRS_MMI/Tools/MinGW/include/c++/3.3.1/bits/stl_vector.h ****       typedef _Vector_base<_Tp, _Alloc>                     _Base;
 191:d:/MTK/MTK2503/MTK2503/11CW1418SP4_03_CORETEK03AE_11C_V1_GPRS_MMI/Tools/MinGW/include/c++/3.3.1/bits/stl_vector.h ****       typedef vector<_Tp, _Alloc>                           vector_type;
 192:d:/MTK/MTK2503/MTK2503/11CW1418SP4_03_CORETEK03AE_11C_V1_GPRS_MMI/Tools/MinGW/include/c++/3.3.1/bits/stl_vector.h ****   
 193:d:/MTK/MTK2503/MTK2503/11CW1418SP4_03_CORETEK03AE_11C_V1_GPRS_MMI/Tools/MinGW/include/c++/3.3.1/bits/stl_vector.h ****     public:
 194:d:/MTK/MTK2503/MTK2503/11CW1418SP4_03_CORETEK03AE_11C_V1_GPRS_MMI/Tools/MinGW/include/c++/3.3.1/bits/stl_vector.h ****       typedef _Tp 						value_type;
 195:d:/MTK/MTK2503/MTK2503/11CW1418SP4_03_CORETEK03AE_11C_V1_GPRS_MMI/Tools/MinGW/include/c++/3.3.1/bits/stl_vector.h ****       typedef value_type* 					pointer;
GAS LISTING d:/MTK/MTK2503/MTK2503/11CW1418SP4_03_CORETEK03AE_11C_V1_GPRS_MMI/plutommi/Customer/ResGenerator/gcctmp/ccQHcaaa.s 			page 69


 196:d:/MTK/MTK2503/MTK2503/11CW1418SP4_03_CORETEK03AE_11C_V1_GPRS_MMI/Tools/MinGW/include/c++/3.3.1/bits/stl_vector.h ****       typedef const value_type* 				const_pointer;
 197:d:/MTK/MTK2503/MTK2503/11CW1418SP4_03_CORETEK03AE_11C_V1_GPRS_MMI/Tools/MinGW/include/c++/3.3.1/bits/stl_vector.h ****       typedef __gnu_cxx::__normal_iterator<pointer, vector_type> iterator;
 198:d:/MTK/MTK2503/MTK2503/11CW1418SP4_03_CORETEK03AE_11C_V1_GPRS_MMI/Tools/MinGW/include/c++/3.3.1/bits/stl_vector.h ****       typedef __gnu_cxx::__normal_iterator<const_pointer, vector_type>
 199:d:/MTK/MTK2503/MTK2503/11CW1418SP4_03_CORETEK03AE_11C_V1_GPRS_MMI/Tools/MinGW/include/c++/3.3.1/bits/stl_vector.h ****       const_iterator;
 200:d:/MTK/MTK2503/MTK2503/11CW1418SP4_03_CORETEK03AE_11C_V1_GPRS_MMI/Tools/MinGW/include/c++/3.3.1/bits/stl_vector.h ****       typedef std::reverse_iterator<const_iterator>    	const_reverse_iterator;
 201:d:/MTK/MTK2503/MTK2503/11CW1418SP4_03_CORETEK03AE_11C_V1_GPRS_MMI/Tools/MinGW/include/c++/3.3.1/bits/stl_vector.h ****       typedef std::reverse_iterator<iterator>                reverse_iterator;
 202:d:/MTK/MTK2503/MTK2503/11CW1418SP4_03_CORETEK03AE_11C_V1_GPRS_MMI/Tools/MinGW/include/c++/3.3.1/bits/stl_vector.h ****       typedef value_type& 					reference;
 203:d:/MTK/MTK2503/MTK2503/11CW1418SP4_03_CORETEK03AE_11C_V1_GPRS_MMI/Tools/MinGW/include/c++/3.3.1/bits/stl_vector.h ****       typedef const value_type& 				const_reference;
 204:d:/MTK/MTK2503/MTK2503/11CW1418SP4_03_CORETEK03AE_11C_V1_GPRS_MMI/Tools/MinGW/include/c++/3.3.1/bits/stl_vector.h ****       typedef size_t 					size_type;
 205:d:/MTK/MTK2503/MTK2503/11CW1418SP4_03_CORETEK03AE_11C_V1_GPRS_MMI/Tools/MinGW/include/c++/3.3.1/bits/stl_vector.h ****       typedef ptrdiff_t 					difference_type;
 206:d:/MTK/MTK2503/MTK2503/11CW1418SP4_03_CORETEK03AE_11C_V1_GPRS_MMI/Tools/MinGW/include/c++/3.3.1/bits/stl_vector.h ****       typedef typename _Base::allocator_type                allocator_type;
 207:d:/MTK/MTK2503/MTK2503/11CW1418SP4_03_CORETEK03AE_11C_V1_GPRS_MMI/Tools/MinGW/include/c++/3.3.1/bits/stl_vector.h ****       
 208:d:/MTK/MTK2503/MTK2503/11CW1418SP4_03_CORETEK03AE_11C_V1_GPRS_MMI/Tools/MinGW/include/c++/3.3.1/bits/stl_vector.h ****     protected:
 209:d:/MTK/MTK2503/MTK2503/11CW1418SP4_03_CORETEK03AE_11C_V1_GPRS_MMI/Tools/MinGW/include/c++/3.3.1/bits/stl_vector.h ****       /** @if maint
 210:d:/MTK/MTK2503/MTK2503/11CW1418SP4_03_CORETEK03AE_11C_V1_GPRS_MMI/Tools/MinGW/include/c++/3.3.1/bits/stl_vector.h ****        *  These two functions and three data members are all from the
 211:d:/MTK/MTK2503/MTK2503/11CW1418SP4_03_CORETEK03AE_11C_V1_GPRS_MMI/Tools/MinGW/include/c++/3.3.1/bits/stl_vector.h ****        *  top-most base class, which varies depending on the type of
 212:d:/MTK/MTK2503/MTK2503/11CW1418SP4_03_CORETEK03AE_11C_V1_GPRS_MMI/Tools/MinGW/include/c++/3.3.1/bits/stl_vector.h ****        *  %allocator.  They should be pretty self-explanatory, as
 213:d:/MTK/MTK2503/MTK2503/11CW1418SP4_03_CORETEK03AE_11C_V1_GPRS_MMI/Tools/MinGW/include/c++/3.3.1/bits/stl_vector.h ****        *  %vector uses a simple contiguous allocation scheme.  @endif
 214:d:/MTK/MTK2503/MTK2503/11CW1418SP4_03_CORETEK03AE_11C_V1_GPRS_MMI/Tools/MinGW/include/c++/3.3.1/bits/stl_vector.h ****        */
 215:d:/MTK/MTK2503/MTK2503/11CW1418SP4_03_CORETEK03AE_11C_V1_GPRS_MMI/Tools/MinGW/include/c++/3.3.1/bits/stl_vector.h ****       using _Base::_M_allocate;
 216:d:/MTK/MTK2503/MTK2503/11CW1418SP4_03_CORETEK03AE_11C_V1_GPRS_MMI/Tools/MinGW/include/c++/3.3.1/bits/stl_vector.h ****       using _Base::_M_deallocate;
 217:d:/MTK/MTK2503/MTK2503/11CW1418SP4_03_CORETEK03AE_11C_V1_GPRS_MMI/Tools/MinGW/include/c++/3.3.1/bits/stl_vector.h ****       using _Base::_M_start;
 218:d:/MTK/MTK2503/MTK2503/11CW1418SP4_03_CORETEK03AE_11C_V1_GPRS_MMI/Tools/MinGW/include/c++/3.3.1/bits/stl_vector.h ****       using _Base::_M_finish;
 219:d:/MTK/MTK2503/MTK2503/11CW1418SP4_03_CORETEK03AE_11C_V1_GPRS_MMI/Tools/MinGW/include/c++/3.3.1/bits/stl_vector.h ****       using _Base::_M_end_of_storage;
 220:d:/MTK/MTK2503/MTK2503/11CW1418SP4_03_CORETEK03AE_11C_V1_GPRS_MMI/Tools/MinGW/include/c++/3.3.1/bits/stl_vector.h ****       
 221:d:/MTK/MTK2503/MTK2503/11CW1418SP4_03_CORETEK03AE_11C_V1_GPRS_MMI/Tools/MinGW/include/c++/3.3.1/bits/stl_vector.h ****     public:
 222:d:/MTK/MTK2503/MTK2503/11CW1418SP4_03_CORETEK03AE_11C_V1_GPRS_MMI/Tools/MinGW/include/c++/3.3.1/bits/stl_vector.h ****       // [23.2.4.1] construct/copy/destroy
 223:d:/MTK/MTK2503/MTK2503/11CW1418SP4_03_CORETEK03AE_11C_V1_GPRS_MMI/Tools/MinGW/include/c++/3.3.1/bits/stl_vector.h ****       // (assign() and get_allocator() are also listed in this section)
 224:d:/MTK/MTK2503/MTK2503/11CW1418SP4_03_CORETEK03AE_11C_V1_GPRS_MMI/Tools/MinGW/include/c++/3.3.1/bits/stl_vector.h ****       /**
 225:d:/MTK/MTK2503/MTK2503/11CW1418SP4_03_CORETEK03AE_11C_V1_GPRS_MMI/Tools/MinGW/include/c++/3.3.1/bits/stl_vector.h ****        *  @brief  Default constructor creates no elements.
 226:d:/MTK/MTK2503/MTK2503/11CW1418SP4_03_CORETEK03AE_11C_V1_GPRS_MMI/Tools/MinGW/include/c++/3.3.1/bits/stl_vector.h ****        */
 227:d:/MTK/MTK2503/MTK2503/11CW1418SP4_03_CORETEK03AE_11C_V1_GPRS_MMI/Tools/MinGW/include/c++/3.3.1/bits/stl_vector.h ****       explicit
 228:d:/MTK/MTK2503/MTK2503/11CW1418SP4_03_CORETEK03AE_11C_V1_GPRS_MMI/Tools/MinGW/include/c++/3.3.1/bits/stl_vector.h ****       vector(const allocator_type& __a = allocator_type())
 229:d:/MTK/MTK2503/MTK2503/11CW1418SP4_03_CORETEK03AE_11C_V1_GPRS_MMI/Tools/MinGW/include/c++/3.3.1/bits/stl_vector.h ****       : _Base(__a) { }
 4981              	LM176:
 4982 0000 55       		pushl	%ebp
 4983 0001 89E5     		movl	%esp, %ebp
 4984 0003 83EC08   		subl	$8, %esp
 4986              	LM177:
 4987              	LBB37:
 4988 0006 8B450C   		movl	12(%ebp), %eax
 4989 0009 89442404 		movl	%eax, 4(%esp)
 4990 000d 8B4508   		movl	8(%ebp), %eax
 4991 0010 890424   		movl	%eax, (%esp)
 4992 0013 E8000000 		call	__ZNSt12_Vector_baseIN10ThreadPool10ThreadDataESaIS1_EEC2ERKS2_
 4992      00
 4993 0018 C9       		leave
 4994 0019 C3       		ret
 4995              	L181:
 4996              	L180:
 4997              	LBE37:
 4998              	Lscope16:
 5000 001a 9090     		.section	.text$_ZNSt6vectorIN10ThreadPool10ThreadDataESaIS1_EED1Ev,"x"
 5001              		.linkonce discard
 5002              		.align 2
 5005              	.globl __ZNSt6vectorIN10ThreadPool10ThreadDataESaIS1_EED1Ev
 5007              	__ZNSt6vectorIN10ThreadPool10ThreadDataESaIS1_EED1Ev:
GAS LISTING d:/MTK/MTK2503/MTK2503/11CW1418SP4_03_CORETEK03AE_11C_V1_GPRS_MMI/plutommi/Customer/ResGenerator/gcctmp/ccQHcaaa.s 			page 70


 230:d:/MTK/MTK2503/MTK2503/11CW1418SP4_03_CORETEK03AE_11C_V1_GPRS_MMI/Tools/MinGW/include/c++/3.3.1/bits/stl_vector.h ****   
 231:d:/MTK/MTK2503/MTK2503/11CW1418SP4_03_CORETEK03AE_11C_V1_GPRS_MMI/Tools/MinGW/include/c++/3.3.1/bits/stl_vector.h ****       /**
 232:d:/MTK/MTK2503/MTK2503/11CW1418SP4_03_CORETEK03AE_11C_V1_GPRS_MMI/Tools/MinGW/include/c++/3.3.1/bits/stl_vector.h ****        *  @brief  Create a %vector with copies of an exemplar element.
 233:d:/MTK/MTK2503/MTK2503/11CW1418SP4_03_CORETEK03AE_11C_V1_GPRS_MMI/Tools/MinGW/include/c++/3.3.1/bits/stl_vector.h ****        *  @param  n  The number of elements to initially create.
 234:d:/MTK/MTK2503/MTK2503/11CW1418SP4_03_CORETEK03AE_11C_V1_GPRS_MMI/Tools/MinGW/include/c++/3.3.1/bits/stl_vector.h ****        *  @param  value  An element to copy.
 235:d:/MTK/MTK2503/MTK2503/11CW1418SP4_03_CORETEK03AE_11C_V1_GPRS_MMI/Tools/MinGW/include/c++/3.3.1/bits/stl_vector.h ****        * 
 236:d:/MTK/MTK2503/MTK2503/11CW1418SP4_03_CORETEK03AE_11C_V1_GPRS_MMI/Tools/MinGW/include/c++/3.3.1/bits/stl_vector.h ****        *  This constructor fills the %vector with @a n copies of @a value.
 237:d:/MTK/MTK2503/MTK2503/11CW1418SP4_03_CORETEK03AE_11C_V1_GPRS_MMI/Tools/MinGW/include/c++/3.3.1/bits/stl_vector.h ****        */
 238:d:/MTK/MTK2503/MTK2503/11CW1418SP4_03_CORETEK03AE_11C_V1_GPRS_MMI/Tools/MinGW/include/c++/3.3.1/bits/stl_vector.h ****       vector(size_type __n, const value_type& __value,
 239:d:/MTK/MTK2503/MTK2503/11CW1418SP4_03_CORETEK03AE_11C_V1_GPRS_MMI/Tools/MinGW/include/c++/3.3.1/bits/stl_vector.h **** 	     const allocator_type& __a = allocator_type())
 240:d:/MTK/MTK2503/MTK2503/11CW1418SP4_03_CORETEK03AE_11C_V1_GPRS_MMI/Tools/MinGW/include/c++/3.3.1/bits/stl_vector.h ****       : _Base(__n, __a)
 241:d:/MTK/MTK2503/MTK2503/11CW1418SP4_03_CORETEK03AE_11C_V1_GPRS_MMI/Tools/MinGW/include/c++/3.3.1/bits/stl_vector.h ****       { _M_finish = uninitialized_fill_n(_M_start, __n, __value); }
 242:d:/MTK/MTK2503/MTK2503/11CW1418SP4_03_CORETEK03AE_11C_V1_GPRS_MMI/Tools/MinGW/include/c++/3.3.1/bits/stl_vector.h ****   
 243:d:/MTK/MTK2503/MTK2503/11CW1418SP4_03_CORETEK03AE_11C_V1_GPRS_MMI/Tools/MinGW/include/c++/3.3.1/bits/stl_vector.h ****       /**
 244:d:/MTK/MTK2503/MTK2503/11CW1418SP4_03_CORETEK03AE_11C_V1_GPRS_MMI/Tools/MinGW/include/c++/3.3.1/bits/stl_vector.h ****        *  @brief  Create a %vector with default elements.
 245:d:/MTK/MTK2503/MTK2503/11CW1418SP4_03_CORETEK03AE_11C_V1_GPRS_MMI/Tools/MinGW/include/c++/3.3.1/bits/stl_vector.h ****        *  @param  n  The number of elements to initially create.
 246:d:/MTK/MTK2503/MTK2503/11CW1418SP4_03_CORETEK03AE_11C_V1_GPRS_MMI/Tools/MinGW/include/c++/3.3.1/bits/stl_vector.h ****        * 
 247:d:/MTK/MTK2503/MTK2503/11CW1418SP4_03_CORETEK03AE_11C_V1_GPRS_MMI/Tools/MinGW/include/c++/3.3.1/bits/stl_vector.h ****        *  This constructor fills the %vector with @a n copies of a
 248:d:/MTK/MTK2503/MTK2503/11CW1418SP4_03_CORETEK03AE_11C_V1_GPRS_MMI/Tools/MinGW/include/c++/3.3.1/bits/stl_vector.h ****        *  default-constructed element.
 249:d:/MTK/MTK2503/MTK2503/11CW1418SP4_03_CORETEK03AE_11C_V1_GPRS_MMI/Tools/MinGW/include/c++/3.3.1/bits/stl_vector.h ****        */
 250:d:/MTK/MTK2503/MTK2503/11CW1418SP4_03_CORETEK03AE_11C_V1_GPRS_MMI/Tools/MinGW/include/c++/3.3.1/bits/stl_vector.h ****       explicit
 251:d:/MTK/MTK2503/MTK2503/11CW1418SP4_03_CORETEK03AE_11C_V1_GPRS_MMI/Tools/MinGW/include/c++/3.3.1/bits/stl_vector.h ****       vector(size_type __n)
 252:d:/MTK/MTK2503/MTK2503/11CW1418SP4_03_CORETEK03AE_11C_V1_GPRS_MMI/Tools/MinGW/include/c++/3.3.1/bits/stl_vector.h ****       : _Base(__n, allocator_type())
 253:d:/MTK/MTK2503/MTK2503/11CW1418SP4_03_CORETEK03AE_11C_V1_GPRS_MMI/Tools/MinGW/include/c++/3.3.1/bits/stl_vector.h ****       { _M_finish = uninitialized_fill_n(_M_start, __n, value_type()); }
 254:d:/MTK/MTK2503/MTK2503/11CW1418SP4_03_CORETEK03AE_11C_V1_GPRS_MMI/Tools/MinGW/include/c++/3.3.1/bits/stl_vector.h ****       
 255:d:/MTK/MTK2503/MTK2503/11CW1418SP4_03_CORETEK03AE_11C_V1_GPRS_MMI/Tools/MinGW/include/c++/3.3.1/bits/stl_vector.h ****       /**
 256:d:/MTK/MTK2503/MTK2503/11CW1418SP4_03_CORETEK03AE_11C_V1_GPRS_MMI/Tools/MinGW/include/c++/3.3.1/bits/stl_vector.h ****        *  @brief  %Vector copy constructor.
 257:d:/MTK/MTK2503/MTK2503/11CW1418SP4_03_CORETEK03AE_11C_V1_GPRS_MMI/Tools/MinGW/include/c++/3.3.1/bits/stl_vector.h ****        *  @param  x  A %vector of identical element and allocator types.
 258:d:/MTK/MTK2503/MTK2503/11CW1418SP4_03_CORETEK03AE_11C_V1_GPRS_MMI/Tools/MinGW/include/c++/3.3.1/bits/stl_vector.h ****        * 
 259:d:/MTK/MTK2503/MTK2503/11CW1418SP4_03_CORETEK03AE_11C_V1_GPRS_MMI/Tools/MinGW/include/c++/3.3.1/bits/stl_vector.h ****        *  The newly-created %vector uses a copy of the allocation
 260:d:/MTK/MTK2503/MTK2503/11CW1418SP4_03_CORETEK03AE_11C_V1_GPRS_MMI/Tools/MinGW/include/c++/3.3.1/bits/stl_vector.h ****        *  object used by @a x.  All the elements of @a x are copied,
 261:d:/MTK/MTK2503/MTK2503/11CW1418SP4_03_CORETEK03AE_11C_V1_GPRS_MMI/Tools/MinGW/include/c++/3.3.1/bits/stl_vector.h ****        *  but any extra memory in
 262:d:/MTK/MTK2503/MTK2503/11CW1418SP4_03_CORETEK03AE_11C_V1_GPRS_MMI/Tools/MinGW/include/c++/3.3.1/bits/stl_vector.h ****        *  @a x (for fast expansion) will not be copied.
 263:d:/MTK/MTK2503/MTK2503/11CW1418SP4_03_CORETEK03AE_11C_V1_GPRS_MMI/Tools/MinGW/include/c++/3.3.1/bits/stl_vector.h ****        */
 264:d:/MTK/MTK2503/MTK2503/11CW1418SP4_03_CORETEK03AE_11C_V1_GPRS_MMI/Tools/MinGW/include/c++/3.3.1/bits/stl_vector.h ****       vector(const vector& __x)
 265:d:/MTK/MTK2503/MTK2503/11CW1418SP4_03_CORETEK03AE_11C_V1_GPRS_MMI/Tools/MinGW/include/c++/3.3.1/bits/stl_vector.h ****       : _Base(__x.size(), __x.get_allocator())
 266:d:/MTK/MTK2503/MTK2503/11CW1418SP4_03_CORETEK03AE_11C_V1_GPRS_MMI/Tools/MinGW/include/c++/3.3.1/bits/stl_vector.h ****       { _M_finish = uninitialized_copy(__x.begin(), __x.end(), _M_start); }
 267:d:/MTK/MTK2503/MTK2503/11CW1418SP4_03_CORETEK03AE_11C_V1_GPRS_MMI/Tools/MinGW/include/c++/3.3.1/bits/stl_vector.h ****   
 268:d:/MTK/MTK2503/MTK2503/11CW1418SP4_03_CORETEK03AE_11C_V1_GPRS_MMI/Tools/MinGW/include/c++/3.3.1/bits/stl_vector.h ****       /**
 269:d:/MTK/MTK2503/MTK2503/11CW1418SP4_03_CORETEK03AE_11C_V1_GPRS_MMI/Tools/MinGW/include/c++/3.3.1/bits/stl_vector.h ****        *  @brief  Builds a %vector from a range.
 270:d:/MTK/MTK2503/MTK2503/11CW1418SP4_03_CORETEK03AE_11C_V1_GPRS_MMI/Tools/MinGW/include/c++/3.3.1/bits/stl_vector.h ****        *  @param  first  An input iterator.
 271:d:/MTK/MTK2503/MTK2503/11CW1418SP4_03_CORETEK03AE_11C_V1_GPRS_MMI/Tools/MinGW/include/c++/3.3.1/bits/stl_vector.h ****        *  @param  last  An input iterator.
 272:d:/MTK/MTK2503/MTK2503/11CW1418SP4_03_CORETEK03AE_11C_V1_GPRS_MMI/Tools/MinGW/include/c++/3.3.1/bits/stl_vector.h ****        * 
 273:d:/MTK/MTK2503/MTK2503/11CW1418SP4_03_CORETEK03AE_11C_V1_GPRS_MMI/Tools/MinGW/include/c++/3.3.1/bits/stl_vector.h ****        *  Create a %vector consisting of copies of the elements from
 274:d:/MTK/MTK2503/MTK2503/11CW1418SP4_03_CORETEK03AE_11C_V1_GPRS_MMI/Tools/MinGW/include/c++/3.3.1/bits/stl_vector.h ****        *  [first,last).
 275:d:/MTK/MTK2503/MTK2503/11CW1418SP4_03_CORETEK03AE_11C_V1_GPRS_MMI/Tools/MinGW/include/c++/3.3.1/bits/stl_vector.h ****        *
 276:d:/MTK/MTK2503/MTK2503/11CW1418SP4_03_CORETEK03AE_11C_V1_GPRS_MMI/Tools/MinGW/include/c++/3.3.1/bits/stl_vector.h ****        *  If the iterators are forward, bidirectional, or random-access, then
 277:d:/MTK/MTK2503/MTK2503/11CW1418SP4_03_CORETEK03AE_11C_V1_GPRS_MMI/Tools/MinGW/include/c++/3.3.1/bits/stl_vector.h ****        *  this will call the elements' copy constructor N times (where N is
 278:d:/MTK/MTK2503/MTK2503/11CW1418SP4_03_CORETEK03AE_11C_V1_GPRS_MMI/Tools/MinGW/include/c++/3.3.1/bits/stl_vector.h ****        *  distance(first,last)) and do no memory reallocation.  But if only
 279:d:/MTK/MTK2503/MTK2503/11CW1418SP4_03_CORETEK03AE_11C_V1_GPRS_MMI/Tools/MinGW/include/c++/3.3.1/bits/stl_vector.h ****        *  input iterators are used, then this will do at most 2N calls to the
 280:d:/MTK/MTK2503/MTK2503/11CW1418SP4_03_CORETEK03AE_11C_V1_GPRS_MMI/Tools/MinGW/include/c++/3.3.1/bits/stl_vector.h ****        *  copy constructor, and logN memory reallocations.
 281:d:/MTK/MTK2503/MTK2503/11CW1418SP4_03_CORETEK03AE_11C_V1_GPRS_MMI/Tools/MinGW/include/c++/3.3.1/bits/stl_vector.h ****        */
 282:d:/MTK/MTK2503/MTK2503/11CW1418SP4_03_CORETEK03AE_11C_V1_GPRS_MMI/Tools/MinGW/include/c++/3.3.1/bits/stl_vector.h ****       template<typename _InputIterator>
 283:d:/MTK/MTK2503/MTK2503/11CW1418SP4_03_CORETEK03AE_11C_V1_GPRS_MMI/Tools/MinGW/include/c++/3.3.1/bits/stl_vector.h ****         vector(_InputIterator __first, _InputIterator __last,
 284:d:/MTK/MTK2503/MTK2503/11CW1418SP4_03_CORETEK03AE_11C_V1_GPRS_MMI/Tools/MinGW/include/c++/3.3.1/bits/stl_vector.h **** 	       const allocator_type& __a = allocator_type())
 285:d:/MTK/MTK2503/MTK2503/11CW1418SP4_03_CORETEK03AE_11C_V1_GPRS_MMI/Tools/MinGW/include/c++/3.3.1/bits/stl_vector.h **** 	: _Base(__a)
 286:d:/MTK/MTK2503/MTK2503/11CW1418SP4_03_CORETEK03AE_11C_V1_GPRS_MMI/Tools/MinGW/include/c++/3.3.1/bits/stl_vector.h ****         {
GAS LISTING d:/MTK/MTK2503/MTK2503/11CW1418SP4_03_CORETEK03AE_11C_V1_GPRS_MMI/plutommi/Customer/ResGenerator/gcctmp/ccQHcaaa.s 			page 71


 287:d:/MTK/MTK2503/MTK2503/11CW1418SP4_03_CORETEK03AE_11C_V1_GPRS_MMI/Tools/MinGW/include/c++/3.3.1/bits/stl_vector.h **** 	  // Check whether it's an integral type.  If so, it's not an iterator.
 288:d:/MTK/MTK2503/MTK2503/11CW1418SP4_03_CORETEK03AE_11C_V1_GPRS_MMI/Tools/MinGW/include/c++/3.3.1/bits/stl_vector.h **** 	  typedef typename _Is_integer<_InputIterator>::_Integral _Integral;
 289:d:/MTK/MTK2503/MTK2503/11CW1418SP4_03_CORETEK03AE_11C_V1_GPRS_MMI/Tools/MinGW/include/c++/3.3.1/bits/stl_vector.h **** 	  _M_initialize_dispatch(__first, __last, _Integral());
 290:d:/MTK/MTK2503/MTK2503/11CW1418SP4_03_CORETEK03AE_11C_V1_GPRS_MMI/Tools/MinGW/include/c++/3.3.1/bits/stl_vector.h **** 	}
 291:d:/MTK/MTK2503/MTK2503/11CW1418SP4_03_CORETEK03AE_11C_V1_GPRS_MMI/Tools/MinGW/include/c++/3.3.1/bits/stl_vector.h ****       
 292:d:/MTK/MTK2503/MTK2503/11CW1418SP4_03_CORETEK03AE_11C_V1_GPRS_MMI/Tools/MinGW/include/c++/3.3.1/bits/stl_vector.h ****       /**
 293:d:/MTK/MTK2503/MTK2503/11CW1418SP4_03_CORETEK03AE_11C_V1_GPRS_MMI/Tools/MinGW/include/c++/3.3.1/bits/stl_vector.h ****        *  The dtor only erases the elements, and note that if the elements
 294:d:/MTK/MTK2503/MTK2503/11CW1418SP4_03_CORETEK03AE_11C_V1_GPRS_MMI/Tools/MinGW/include/c++/3.3.1/bits/stl_vector.h ****        *  themselves are pointers, the pointed-to memory is not touched in any
 295:d:/MTK/MTK2503/MTK2503/11CW1418SP4_03_CORETEK03AE_11C_V1_GPRS_MMI/Tools/MinGW/include/c++/3.3.1/bits/stl_vector.h ****        *  way.  Managing the pointer is the user's responsibilty.
 296:d:/MTK/MTK2503/MTK2503/11CW1418SP4_03_CORETEK03AE_11C_V1_GPRS_MMI/Tools/MinGW/include/c++/3.3.1/bits/stl_vector.h ****        */
 297:d:/MTK/MTK2503/MTK2503/11CW1418SP4_03_CORETEK03AE_11C_V1_GPRS_MMI/Tools/MinGW/include/c++/3.3.1/bits/stl_vector.h ****       ~vector() { _Destroy(_M_start, _M_finish); }
 5009              	LM178:
 5010 0000 55       		pushl	%ebp
 5011 0001 89E5     		movl	%esp, %ebp
 5012 0003 57       		pushl	%edi
 5013 0004 56       		pushl	%esi
 5014 0005 53       		pushl	%ebx
 5015 0006 83EC4C   		subl	$76, %esp
 5016 0009 C745E000 		movl	$___gxx_personality_sj0, -32(%ebp)
 5016      000000
 5017 0010 C745E42C 		movl	$LLSDA721, -28(%ebp)
 5017      000000
 5018 0017 8D45E8   		leal	-24(%ebp), %eax
 5019 001a 8D55F4   		leal	-12(%ebp), %edx
 5020 001d 8910     		movl	%edx, (%eax)
 5021 001f BA550000 		movl	$L190, %edx
 5021      00
 5022 0024 895004   		movl	%edx, 4(%eax)
 5023 0027 896008   		movl	%esp, 8(%eax)
 5024 002a 8D45C8   		leal	-56(%ebp), %eax
 5025 002d 890424   		movl	%eax, (%esp)
 5026 0030 E8000000 		call	__Unwind_SjLj_Register
 5026      00
 5028              	LM179:
 5029              	LBB38:
 5030 0035 8B4508   		movl	8(%ebp), %eax
 5031 0038 8B4004   		movl	4(%eax), %eax
 5032 003b 89442404 		movl	%eax, 4(%esp)
 5033 003f 8B4508   		movl	8(%ebp), %eax
 5034 0042 8B00     		movl	(%eax), %eax
 5035 0044 890424   		movl	%eax, (%esp)
 5036 0047 C745CC01 		movl	$1, -52(%ebp)
 5036      000000
 5037 004e E8000000 		call	__ZSt8_DestroyIPN10ThreadPool10ThreadDataEEvT_S3_
 5037      00
 5038 0053 EB39     		jmp	L186
 5039              	L190:
 5040 0055 8D6D0C   		leal	12(%ebp), %ebp
 5041 0058 8B45D0   		movl	-48(%ebp), %eax
 5042 005b 8945C0   		movl	%eax, -64(%ebp)
 5043              	L185:
 5044 005e 8B55C0   		movl	-64(%ebp), %edx
 5045 0061 8955C4   		movl	%edx, -60(%ebp)
 5046 0064 8B4508   		movl	8(%ebp), %eax
 5047 0067 890424   		movl	%eax, (%esp)
 5048 006a C745CC00 		movl	$0, -52(%ebp)
 5048      000000
GAS LISTING d:/MTK/MTK2503/MTK2503/11CW1418SP4_03_CORETEK03AE_11C_V1_GPRS_MMI/plutommi/Customer/ResGenerator/gcctmp/ccQHcaaa.s 			page 72


 5049 0071 E8000000 		call	__ZNSt12_Vector_baseIN10ThreadPool10ThreadDataESaIS1_EED2Ev
 5049      00
 5050 0076 8B45C4   		movl	-60(%ebp), %eax
 5051 0079 8945C0   		movl	%eax, -64(%ebp)
 5052              	L187:
 5053 007c 8B55C0   		movl	-64(%ebp), %edx
 5054 007f 891424   		movl	%edx, (%esp)
 5055 0082 C745CCFF 		movl	$-1, -52(%ebp)
 5055      FFFFFF
 5056 0089 E8000000 		call	__Unwind_SjLj_Resume
 5056      00
 5057              	L186:
 5058 008e 8B4508   		movl	8(%ebp), %eax
 5059 0091 890424   		movl	%eax, (%esp)
 5060 0094 C745CCFF 		movl	$-1, -52(%ebp)
 5060      FFFFFF
 5061 009b E8000000 		call	__ZNSt12_Vector_baseIN10ThreadPool10ThreadDataESaIS1_EED2Ev
 5061      00
 5062              	L183:
 5063 00a0 8D45C8   		leal	-56(%ebp), %eax
 5064 00a3 890424   		movl	%eax, (%esp)
 5065 00a6 E8000000 		call	__Unwind_SjLj_Unregister
 5065      00
 5066 00ab 83C44C   		addl	$76, %esp
 5067 00ae 5B       		popl	%ebx
 5068 00af 5E       		popl	%esi
 5069 00b0 5F       		popl	%edi
 5070 00b1 5D       		popl	%ebp
 5071 00b2 C3       		ret
 5072              	LBE38:
 5073              		.section	.gcc_except_table,""
 5074              	LLSDA721:
 5075 002c FF       		.byte	0xff
 5076 002d FF       		.byte	0xff
 5077 002e 01       		.byte	0x1
 5078 002f 02       		.uleb128 LLSDACSE721-LLSDACSB721
 5079              	LLSDACSB721:
 5080 0030 00       		.uleb128 0x0
 5081 0031 00       		.uleb128 0x0
 5082              	LLSDACSE721:
 5083              		.section	.text$_ZNSt6vectorIN10ThreadPool10ThreadDataESaIS1_EED1Ev,"x"
 5084              		.linkonce discard
 5085              	Lscope17:
 5087 00b3 90       		.section	.text$_ZNSt6vectorIN10ThreadPool10ThreadDataESaIS1_EE3endEv,"x"
 5088              		.linkonce discard
 5089              		.align 2
 5092              	.globl __ZNSt6vectorIN10ThreadPool10ThreadDataESaIS1_EE3endEv
 5094              	__ZNSt6vectorIN10ThreadPool10ThreadDataESaIS1_EE3endEv:
 298:d:/MTK/MTK2503/MTK2503/11CW1418SP4_03_CORETEK03AE_11C_V1_GPRS_MMI/Tools/MinGW/include/c++/3.3.1/bits/stl_vector.h ****   
 299:d:/MTK/MTK2503/MTK2503/11CW1418SP4_03_CORETEK03AE_11C_V1_GPRS_MMI/Tools/MinGW/include/c++/3.3.1/bits/stl_vector.h ****       /**
 300:d:/MTK/MTK2503/MTK2503/11CW1418SP4_03_CORETEK03AE_11C_V1_GPRS_MMI/Tools/MinGW/include/c++/3.3.1/bits/stl_vector.h ****        *  @brief  %Vector assignment operator.
 301:d:/MTK/MTK2503/MTK2503/11CW1418SP4_03_CORETEK03AE_11C_V1_GPRS_MMI/Tools/MinGW/include/c++/3.3.1/bits/stl_vector.h ****        *  @param  x  A %vector of identical element and allocator types.
 302:d:/MTK/MTK2503/MTK2503/11CW1418SP4_03_CORETEK03AE_11C_V1_GPRS_MMI/Tools/MinGW/include/c++/3.3.1/bits/stl_vector.h ****        * 
 303:d:/MTK/MTK2503/MTK2503/11CW1418SP4_03_CORETEK03AE_11C_V1_GPRS_MMI/Tools/MinGW/include/c++/3.3.1/bits/stl_vector.h ****        *  All the elements of @a x are copied, but any extra memory in
 304:d:/MTK/MTK2503/MTK2503/11CW1418SP4_03_CORETEK03AE_11C_V1_GPRS_MMI/Tools/MinGW/include/c++/3.3.1/bits/stl_vector.h ****        *  @a x (for fast expansion) will not be copied.  Unlike the
 305:d:/MTK/MTK2503/MTK2503/11CW1418SP4_03_CORETEK03AE_11C_V1_GPRS_MMI/Tools/MinGW/include/c++/3.3.1/bits/stl_vector.h ****        *  copy constructor, the allocator object is not copied.
 306:d:/MTK/MTK2503/MTK2503/11CW1418SP4_03_CORETEK03AE_11C_V1_GPRS_MMI/Tools/MinGW/include/c++/3.3.1/bits/stl_vector.h ****        */
GAS LISTING d:/MTK/MTK2503/MTK2503/11CW1418SP4_03_CORETEK03AE_11C_V1_GPRS_MMI/plutommi/Customer/ResGenerator/gcctmp/ccQHcaaa.s 			page 73


 307:d:/MTK/MTK2503/MTK2503/11CW1418SP4_03_CORETEK03AE_11C_V1_GPRS_MMI/Tools/MinGW/include/c++/3.3.1/bits/stl_vector.h ****       vector&
 308:d:/MTK/MTK2503/MTK2503/11CW1418SP4_03_CORETEK03AE_11C_V1_GPRS_MMI/Tools/MinGW/include/c++/3.3.1/bits/stl_vector.h ****       operator=(const vector& __x);
 309:d:/MTK/MTK2503/MTK2503/11CW1418SP4_03_CORETEK03AE_11C_V1_GPRS_MMI/Tools/MinGW/include/c++/3.3.1/bits/stl_vector.h ****   
 310:d:/MTK/MTK2503/MTK2503/11CW1418SP4_03_CORETEK03AE_11C_V1_GPRS_MMI/Tools/MinGW/include/c++/3.3.1/bits/stl_vector.h ****       /**
 311:d:/MTK/MTK2503/MTK2503/11CW1418SP4_03_CORETEK03AE_11C_V1_GPRS_MMI/Tools/MinGW/include/c++/3.3.1/bits/stl_vector.h ****        *  @brief  Assigns a given value to a %vector.
 312:d:/MTK/MTK2503/MTK2503/11CW1418SP4_03_CORETEK03AE_11C_V1_GPRS_MMI/Tools/MinGW/include/c++/3.3.1/bits/stl_vector.h ****        *  @param  n  Number of elements to be assigned.
 313:d:/MTK/MTK2503/MTK2503/11CW1418SP4_03_CORETEK03AE_11C_V1_GPRS_MMI/Tools/MinGW/include/c++/3.3.1/bits/stl_vector.h ****        *  @param  val  Value to be assigned.
 314:d:/MTK/MTK2503/MTK2503/11CW1418SP4_03_CORETEK03AE_11C_V1_GPRS_MMI/Tools/MinGW/include/c++/3.3.1/bits/stl_vector.h ****        *
 315:d:/MTK/MTK2503/MTK2503/11CW1418SP4_03_CORETEK03AE_11C_V1_GPRS_MMI/Tools/MinGW/include/c++/3.3.1/bits/stl_vector.h ****        *  This function fills a %vector with @a n copies of the given
 316:d:/MTK/MTK2503/MTK2503/11CW1418SP4_03_CORETEK03AE_11C_V1_GPRS_MMI/Tools/MinGW/include/c++/3.3.1/bits/stl_vector.h ****        *  value.  Note that the assignment completely changes the
 317:d:/MTK/MTK2503/MTK2503/11CW1418SP4_03_CORETEK03AE_11C_V1_GPRS_MMI/Tools/MinGW/include/c++/3.3.1/bits/stl_vector.h ****        *  %vector and that the resulting %vector's size is the same as
 318:d:/MTK/MTK2503/MTK2503/11CW1418SP4_03_CORETEK03AE_11C_V1_GPRS_MMI/Tools/MinGW/include/c++/3.3.1/bits/stl_vector.h ****        *  the number of elements assigned.  Old data may be lost.
 319:d:/MTK/MTK2503/MTK2503/11CW1418SP4_03_CORETEK03AE_11C_V1_GPRS_MMI/Tools/MinGW/include/c++/3.3.1/bits/stl_vector.h ****        */
 320:d:/MTK/MTK2503/MTK2503/11CW1418SP4_03_CORETEK03AE_11C_V1_GPRS_MMI/Tools/MinGW/include/c++/3.3.1/bits/stl_vector.h ****       void
 321:d:/MTK/MTK2503/MTK2503/11CW1418SP4_03_CORETEK03AE_11C_V1_GPRS_MMI/Tools/MinGW/include/c++/3.3.1/bits/stl_vector.h ****       assign(size_type __n, const value_type& __val) 
 322:d:/MTK/MTK2503/MTK2503/11CW1418SP4_03_CORETEK03AE_11C_V1_GPRS_MMI/Tools/MinGW/include/c++/3.3.1/bits/stl_vector.h ****       { _M_fill_assign(__n, __val); }
 323:d:/MTK/MTK2503/MTK2503/11CW1418SP4_03_CORETEK03AE_11C_V1_GPRS_MMI/Tools/MinGW/include/c++/3.3.1/bits/stl_vector.h ****   
 324:d:/MTK/MTK2503/MTK2503/11CW1418SP4_03_CORETEK03AE_11C_V1_GPRS_MMI/Tools/MinGW/include/c++/3.3.1/bits/stl_vector.h ****       /**
 325:d:/MTK/MTK2503/MTK2503/11CW1418SP4_03_CORETEK03AE_11C_V1_GPRS_MMI/Tools/MinGW/include/c++/3.3.1/bits/stl_vector.h ****        *  @brief  Assigns a range to a %vector.
 326:d:/MTK/MTK2503/MTK2503/11CW1418SP4_03_CORETEK03AE_11C_V1_GPRS_MMI/Tools/MinGW/include/c++/3.3.1/bits/stl_vector.h ****        *  @param  first  An input iterator.
 327:d:/MTK/MTK2503/MTK2503/11CW1418SP4_03_CORETEK03AE_11C_V1_GPRS_MMI/Tools/MinGW/include/c++/3.3.1/bits/stl_vector.h ****        *  @param  last   An input iterator.
 328:d:/MTK/MTK2503/MTK2503/11CW1418SP4_03_CORETEK03AE_11C_V1_GPRS_MMI/Tools/MinGW/include/c++/3.3.1/bits/stl_vector.h ****        *
 329:d:/MTK/MTK2503/MTK2503/11CW1418SP4_03_CORETEK03AE_11C_V1_GPRS_MMI/Tools/MinGW/include/c++/3.3.1/bits/stl_vector.h ****        *  This function fills a %vector with copies of the elements in the
 330:d:/MTK/MTK2503/MTK2503/11CW1418SP4_03_CORETEK03AE_11C_V1_GPRS_MMI/Tools/MinGW/include/c++/3.3.1/bits/stl_vector.h ****        *  range [first,last).
 331:d:/MTK/MTK2503/MTK2503/11CW1418SP4_03_CORETEK03AE_11C_V1_GPRS_MMI/Tools/MinGW/include/c++/3.3.1/bits/stl_vector.h ****        *
 332:d:/MTK/MTK2503/MTK2503/11CW1418SP4_03_CORETEK03AE_11C_V1_GPRS_MMI/Tools/MinGW/include/c++/3.3.1/bits/stl_vector.h ****        *  Note that the assignment completely changes the %vector and
 333:d:/MTK/MTK2503/MTK2503/11CW1418SP4_03_CORETEK03AE_11C_V1_GPRS_MMI/Tools/MinGW/include/c++/3.3.1/bits/stl_vector.h ****        *  that the resulting %vector's size is the same as the number
 334:d:/MTK/MTK2503/MTK2503/11CW1418SP4_03_CORETEK03AE_11C_V1_GPRS_MMI/Tools/MinGW/include/c++/3.3.1/bits/stl_vector.h ****        *  of elements assigned.  Old data may be lost.
 335:d:/MTK/MTK2503/MTK2503/11CW1418SP4_03_CORETEK03AE_11C_V1_GPRS_MMI/Tools/MinGW/include/c++/3.3.1/bits/stl_vector.h ****        */
 336:d:/MTK/MTK2503/MTK2503/11CW1418SP4_03_CORETEK03AE_11C_V1_GPRS_MMI/Tools/MinGW/include/c++/3.3.1/bits/stl_vector.h ****       template<typename _InputIterator>
 337:d:/MTK/MTK2503/MTK2503/11CW1418SP4_03_CORETEK03AE_11C_V1_GPRS_MMI/Tools/MinGW/include/c++/3.3.1/bits/stl_vector.h ****         void
 338:d:/MTK/MTK2503/MTK2503/11CW1418SP4_03_CORETEK03AE_11C_V1_GPRS_MMI/Tools/MinGW/include/c++/3.3.1/bits/stl_vector.h ****         assign(_InputIterator __first, _InputIterator __last)
 339:d:/MTK/MTK2503/MTK2503/11CW1418SP4_03_CORETEK03AE_11C_V1_GPRS_MMI/Tools/MinGW/include/c++/3.3.1/bits/stl_vector.h ****         {
 340:d:/MTK/MTK2503/MTK2503/11CW1418SP4_03_CORETEK03AE_11C_V1_GPRS_MMI/Tools/MinGW/include/c++/3.3.1/bits/stl_vector.h **** 	  // Check whether it's an integral type.  If so, it's not an iterator.
 341:d:/MTK/MTK2503/MTK2503/11CW1418SP4_03_CORETEK03AE_11C_V1_GPRS_MMI/Tools/MinGW/include/c++/3.3.1/bits/stl_vector.h **** 	  typedef typename _Is_integer<_InputIterator>::_Integral _Integral;
 342:d:/MTK/MTK2503/MTK2503/11CW1418SP4_03_CORETEK03AE_11C_V1_GPRS_MMI/Tools/MinGW/include/c++/3.3.1/bits/stl_vector.h **** 	  _M_assign_dispatch(__first, __last, _Integral());
 343:d:/MTK/MTK2503/MTK2503/11CW1418SP4_03_CORETEK03AE_11C_V1_GPRS_MMI/Tools/MinGW/include/c++/3.3.1/bits/stl_vector.h **** 	}
 344:d:/MTK/MTK2503/MTK2503/11CW1418SP4_03_CORETEK03AE_11C_V1_GPRS_MMI/Tools/MinGW/include/c++/3.3.1/bits/stl_vector.h ****   
 345:d:/MTK/MTK2503/MTK2503/11CW1418SP4_03_CORETEK03AE_11C_V1_GPRS_MMI/Tools/MinGW/include/c++/3.3.1/bits/stl_vector.h ****       /// Get a copy of the memory allocation object.
 346:d:/MTK/MTK2503/MTK2503/11CW1418SP4_03_CORETEK03AE_11C_V1_GPRS_MMI/Tools/MinGW/include/c++/3.3.1/bits/stl_vector.h ****       allocator_type
 347:d:/MTK/MTK2503/MTK2503/11CW1418SP4_03_CORETEK03AE_11C_V1_GPRS_MMI/Tools/MinGW/include/c++/3.3.1/bits/stl_vector.h ****       get_allocator() const { return _Base::get_allocator(); }
 348:d:/MTK/MTK2503/MTK2503/11CW1418SP4_03_CORETEK03AE_11C_V1_GPRS_MMI/Tools/MinGW/include/c++/3.3.1/bits/stl_vector.h ****       
 349:d:/MTK/MTK2503/MTK2503/11CW1418SP4_03_CORETEK03AE_11C_V1_GPRS_MMI/Tools/MinGW/include/c++/3.3.1/bits/stl_vector.h ****       // iterators
 350:d:/MTK/MTK2503/MTK2503/11CW1418SP4_03_CORETEK03AE_11C_V1_GPRS_MMI/Tools/MinGW/include/c++/3.3.1/bits/stl_vector.h ****       /**
 351:d:/MTK/MTK2503/MTK2503/11CW1418SP4_03_CORETEK03AE_11C_V1_GPRS_MMI/Tools/MinGW/include/c++/3.3.1/bits/stl_vector.h ****        *  Returns a read/write iterator that points to the first element in the
 352:d:/MTK/MTK2503/MTK2503/11CW1418SP4_03_CORETEK03AE_11C_V1_GPRS_MMI/Tools/MinGW/include/c++/3.3.1/bits/stl_vector.h ****        *  %vector.  Iteration is done in ordinary element order.
 353:d:/MTK/MTK2503/MTK2503/11CW1418SP4_03_CORETEK03AE_11C_V1_GPRS_MMI/Tools/MinGW/include/c++/3.3.1/bits/stl_vector.h ****        */
 354:d:/MTK/MTK2503/MTK2503/11CW1418SP4_03_CORETEK03AE_11C_V1_GPRS_MMI/Tools/MinGW/include/c++/3.3.1/bits/stl_vector.h ****       iterator
 355:d:/MTK/MTK2503/MTK2503/11CW1418SP4_03_CORETEK03AE_11C_V1_GPRS_MMI/Tools/MinGW/include/c++/3.3.1/bits/stl_vector.h ****       begin() { return iterator (_M_start); }
 356:d:/MTK/MTK2503/MTK2503/11CW1418SP4_03_CORETEK03AE_11C_V1_GPRS_MMI/Tools/MinGW/include/c++/3.3.1/bits/stl_vector.h ****       
 357:d:/MTK/MTK2503/MTK2503/11CW1418SP4_03_CORETEK03AE_11C_V1_GPRS_MMI/Tools/MinGW/include/c++/3.3.1/bits/stl_vector.h ****       /**
 358:d:/MTK/MTK2503/MTK2503/11CW1418SP4_03_CORETEK03AE_11C_V1_GPRS_MMI/Tools/MinGW/include/c++/3.3.1/bits/stl_vector.h ****        *  Returns a read-only (constant) iterator that points to the
 359:d:/MTK/MTK2503/MTK2503/11CW1418SP4_03_CORETEK03AE_11C_V1_GPRS_MMI/Tools/MinGW/include/c++/3.3.1/bits/stl_vector.h ****        *  first element in the %vector.  Iteration is done in ordinary
 360:d:/MTK/MTK2503/MTK2503/11CW1418SP4_03_CORETEK03AE_11C_V1_GPRS_MMI/Tools/MinGW/include/c++/3.3.1/bits/stl_vector.h ****        *  element order.
 361:d:/MTK/MTK2503/MTK2503/11CW1418SP4_03_CORETEK03AE_11C_V1_GPRS_MMI/Tools/MinGW/include/c++/3.3.1/bits/stl_vector.h ****        */
 362:d:/MTK/MTK2503/MTK2503/11CW1418SP4_03_CORETEK03AE_11C_V1_GPRS_MMI/Tools/MinGW/include/c++/3.3.1/bits/stl_vector.h ****       const_iterator
 363:d:/MTK/MTK2503/MTK2503/11CW1418SP4_03_CORETEK03AE_11C_V1_GPRS_MMI/Tools/MinGW/include/c++/3.3.1/bits/stl_vector.h ****       begin() const { return const_iterator (_M_start); }
GAS LISTING d:/MTK/MTK2503/MTK2503/11CW1418SP4_03_CORETEK03AE_11C_V1_GPRS_MMI/plutommi/Customer/ResGenerator/gcctmp/ccQHcaaa.s 			page 74


 364:d:/MTK/MTK2503/MTK2503/11CW1418SP4_03_CORETEK03AE_11C_V1_GPRS_MMI/Tools/MinGW/include/c++/3.3.1/bits/stl_vector.h ****       
 365:d:/MTK/MTK2503/MTK2503/11CW1418SP4_03_CORETEK03AE_11C_V1_GPRS_MMI/Tools/MinGW/include/c++/3.3.1/bits/stl_vector.h ****       /**
 366:d:/MTK/MTK2503/MTK2503/11CW1418SP4_03_CORETEK03AE_11C_V1_GPRS_MMI/Tools/MinGW/include/c++/3.3.1/bits/stl_vector.h ****        *  Returns a read/write iterator that points one past the last
 367:d:/MTK/MTK2503/MTK2503/11CW1418SP4_03_CORETEK03AE_11C_V1_GPRS_MMI/Tools/MinGW/include/c++/3.3.1/bits/stl_vector.h ****        *  element in the %vector.  Iteration is done in ordinary
 368:d:/MTK/MTK2503/MTK2503/11CW1418SP4_03_CORETEK03AE_11C_V1_GPRS_MMI/Tools/MinGW/include/c++/3.3.1/bits/stl_vector.h ****        *  element order.
 369:d:/MTK/MTK2503/MTK2503/11CW1418SP4_03_CORETEK03AE_11C_V1_GPRS_MMI/Tools/MinGW/include/c++/3.3.1/bits/stl_vector.h ****        */
 370:d:/MTK/MTK2503/MTK2503/11CW1418SP4_03_CORETEK03AE_11C_V1_GPRS_MMI/Tools/MinGW/include/c++/3.3.1/bits/stl_vector.h ****       iterator
 371:d:/MTK/MTK2503/MTK2503/11CW1418SP4_03_CORETEK03AE_11C_V1_GPRS_MMI/Tools/MinGW/include/c++/3.3.1/bits/stl_vector.h ****       end() { return iterator (_M_finish); }
 5096              	LM180:
 5097 0000 55       		pushl	%ebp
 5098 0001 89E5     		movl	%esp, %ebp
 5099 0003 83EC18   		subl	$24, %esp
 5101              	LM181:
 5102 0006 8B4508   		movl	8(%ebp), %eax
 5103              	LBB39:
 5104 0009 83C004   		addl	$4, %eax
 5105 000c 89442404 		movl	%eax, 4(%esp)
 5106 0010 8D45FC   		leal	-4(%ebp), %eax
 5107 0013 890424   		movl	%eax, (%esp)
 5108 0016 E8000000 		call	__ZN9__gnu_cxx17__normal_iteratorIPN10ThreadPool10ThreadDataESt6vectorIS2_SaIS2_EEEC1ERKS3_
 5108      00
 5109 001b 8B45FC   		movl	-4(%ebp), %eax
 5110 001e C9       		leave
 5111 001f C3       		ret
 5112              	LBE39:
 5113              	Lscope18:
 5121              		.section	.text$_ZNSt6vectorIN10ThreadPool10ThreadDataESaIS1_EE9push_backERKS1_,"x"
 5122              		.linkonce discard
 5123              		.align 2
 5127              	.globl __ZNSt6vectorIN10ThreadPool10ThreadDataESaIS1_EE9push_backERKS1_
 5129              	__ZNSt6vectorIN10ThreadPool10ThreadDataESaIS1_EE9push_backERKS1_:
 372:d:/MTK/MTK2503/MTK2503/11CW1418SP4_03_CORETEK03AE_11C_V1_GPRS_MMI/Tools/MinGW/include/c++/3.3.1/bits/stl_vector.h ****       
 373:d:/MTK/MTK2503/MTK2503/11CW1418SP4_03_CORETEK03AE_11C_V1_GPRS_MMI/Tools/MinGW/include/c++/3.3.1/bits/stl_vector.h ****       /**
 374:d:/MTK/MTK2503/MTK2503/11CW1418SP4_03_CORETEK03AE_11C_V1_GPRS_MMI/Tools/MinGW/include/c++/3.3.1/bits/stl_vector.h ****        *  Returns a read-only (constant) iterator that points one past the last
 375:d:/MTK/MTK2503/MTK2503/11CW1418SP4_03_CORETEK03AE_11C_V1_GPRS_MMI/Tools/MinGW/include/c++/3.3.1/bits/stl_vector.h ****        *  element in the %vector.  Iteration is done in ordinary element order.
 376:d:/MTK/MTK2503/MTK2503/11CW1418SP4_03_CORETEK03AE_11C_V1_GPRS_MMI/Tools/MinGW/include/c++/3.3.1/bits/stl_vector.h ****        */
 377:d:/MTK/MTK2503/MTK2503/11CW1418SP4_03_CORETEK03AE_11C_V1_GPRS_MMI/Tools/MinGW/include/c++/3.3.1/bits/stl_vector.h ****       const_iterator
 378:d:/MTK/MTK2503/MTK2503/11CW1418SP4_03_CORETEK03AE_11C_V1_GPRS_MMI/Tools/MinGW/include/c++/3.3.1/bits/stl_vector.h ****       end() const { return const_iterator (_M_finish); }
 379:d:/MTK/MTK2503/MTK2503/11CW1418SP4_03_CORETEK03AE_11C_V1_GPRS_MMI/Tools/MinGW/include/c++/3.3.1/bits/stl_vector.h ****       
 380:d:/MTK/MTK2503/MTK2503/11CW1418SP4_03_CORETEK03AE_11C_V1_GPRS_MMI/Tools/MinGW/include/c++/3.3.1/bits/stl_vector.h ****       /**
 381:d:/MTK/MTK2503/MTK2503/11CW1418SP4_03_CORETEK03AE_11C_V1_GPRS_MMI/Tools/MinGW/include/c++/3.3.1/bits/stl_vector.h ****        *  Returns a read/write reverse iterator that points to the
 382:d:/MTK/MTK2503/MTK2503/11CW1418SP4_03_CORETEK03AE_11C_V1_GPRS_MMI/Tools/MinGW/include/c++/3.3.1/bits/stl_vector.h ****        *  last element in the %vector.  Iteration is done in reverse
 383:d:/MTK/MTK2503/MTK2503/11CW1418SP4_03_CORETEK03AE_11C_V1_GPRS_MMI/Tools/MinGW/include/c++/3.3.1/bits/stl_vector.h ****        *  element order.
 384:d:/MTK/MTK2503/MTK2503/11CW1418SP4_03_CORETEK03AE_11C_V1_GPRS_MMI/Tools/MinGW/include/c++/3.3.1/bits/stl_vector.h ****        */
 385:d:/MTK/MTK2503/MTK2503/11CW1418SP4_03_CORETEK03AE_11C_V1_GPRS_MMI/Tools/MinGW/include/c++/3.3.1/bits/stl_vector.h ****       reverse_iterator
 386:d:/MTK/MTK2503/MTK2503/11CW1418SP4_03_CORETEK03AE_11C_V1_GPRS_MMI/Tools/MinGW/include/c++/3.3.1/bits/stl_vector.h ****       rbegin() { return reverse_iterator(end()); }
 387:d:/MTK/MTK2503/MTK2503/11CW1418SP4_03_CORETEK03AE_11C_V1_GPRS_MMI/Tools/MinGW/include/c++/3.3.1/bits/stl_vector.h ****       
 388:d:/MTK/MTK2503/MTK2503/11CW1418SP4_03_CORETEK03AE_11C_V1_GPRS_MMI/Tools/MinGW/include/c++/3.3.1/bits/stl_vector.h ****       /**
 389:d:/MTK/MTK2503/MTK2503/11CW1418SP4_03_CORETEK03AE_11C_V1_GPRS_MMI/Tools/MinGW/include/c++/3.3.1/bits/stl_vector.h ****        *  Returns a read-only (constant) reverse iterator that points
 390:d:/MTK/MTK2503/MTK2503/11CW1418SP4_03_CORETEK03AE_11C_V1_GPRS_MMI/Tools/MinGW/include/c++/3.3.1/bits/stl_vector.h ****        *  to the last element in the %vector.  Iteration is done in
 391:d:/MTK/MTK2503/MTK2503/11CW1418SP4_03_CORETEK03AE_11C_V1_GPRS_MMI/Tools/MinGW/include/c++/3.3.1/bits/stl_vector.h ****        *  reverse element order.
 392:d:/MTK/MTK2503/MTK2503/11CW1418SP4_03_CORETEK03AE_11C_V1_GPRS_MMI/Tools/MinGW/include/c++/3.3.1/bits/stl_vector.h ****        */
 393:d:/MTK/MTK2503/MTK2503/11CW1418SP4_03_CORETEK03AE_11C_V1_GPRS_MMI/Tools/MinGW/include/c++/3.3.1/bits/stl_vector.h ****       const_reverse_iterator
 394:d:/MTK/MTK2503/MTK2503/11CW1418SP4_03_CORETEK03AE_11C_V1_GPRS_MMI/Tools/MinGW/include/c++/3.3.1/bits/stl_vector.h ****       rbegin() const { return const_reverse_iterator(end()); }
 395:d:/MTK/MTK2503/MTK2503/11CW1418SP4_03_CORETEK03AE_11C_V1_GPRS_MMI/Tools/MinGW/include/c++/3.3.1/bits/stl_vector.h ****       
 396:d:/MTK/MTK2503/MTK2503/11CW1418SP4_03_CORETEK03AE_11C_V1_GPRS_MMI/Tools/MinGW/include/c++/3.3.1/bits/stl_vector.h ****       /**
 397:d:/MTK/MTK2503/MTK2503/11CW1418SP4_03_CORETEK03AE_11C_V1_GPRS_MMI/Tools/MinGW/include/c++/3.3.1/bits/stl_vector.h ****        *  Returns a read/write reverse iterator that points to one before the
GAS LISTING d:/MTK/MTK2503/MTK2503/11CW1418SP4_03_CORETEK03AE_11C_V1_GPRS_MMI/plutommi/Customer/ResGenerator/gcctmp/ccQHcaaa.s 			page 75


 398:d:/MTK/MTK2503/MTK2503/11CW1418SP4_03_CORETEK03AE_11C_V1_GPRS_MMI/Tools/MinGW/include/c++/3.3.1/bits/stl_vector.h ****        *  first element in the %vector.  Iteration is done in reverse element
 399:d:/MTK/MTK2503/MTK2503/11CW1418SP4_03_CORETEK03AE_11C_V1_GPRS_MMI/Tools/MinGW/include/c++/3.3.1/bits/stl_vector.h ****        *  order.
 400:d:/MTK/MTK2503/MTK2503/11CW1418SP4_03_CORETEK03AE_11C_V1_GPRS_MMI/Tools/MinGW/include/c++/3.3.1/bits/stl_vector.h ****        */
 401:d:/MTK/MTK2503/MTK2503/11CW1418SP4_03_CORETEK03AE_11C_V1_GPRS_MMI/Tools/MinGW/include/c++/3.3.1/bits/stl_vector.h ****       reverse_iterator
 402:d:/MTK/MTK2503/MTK2503/11CW1418SP4_03_CORETEK03AE_11C_V1_GPRS_MMI/Tools/MinGW/include/c++/3.3.1/bits/stl_vector.h ****       rend() { return reverse_iterator(begin()); }
 403:d:/MTK/MTK2503/MTK2503/11CW1418SP4_03_CORETEK03AE_11C_V1_GPRS_MMI/Tools/MinGW/include/c++/3.3.1/bits/stl_vector.h ****       
 404:d:/MTK/MTK2503/MTK2503/11CW1418SP4_03_CORETEK03AE_11C_V1_GPRS_MMI/Tools/MinGW/include/c++/3.3.1/bits/stl_vector.h ****       /**
 405:d:/MTK/MTK2503/MTK2503/11CW1418SP4_03_CORETEK03AE_11C_V1_GPRS_MMI/Tools/MinGW/include/c++/3.3.1/bits/stl_vector.h ****        *  Returns a read-only (constant) reverse iterator that points
 406:d:/MTK/MTK2503/MTK2503/11CW1418SP4_03_CORETEK03AE_11C_V1_GPRS_MMI/Tools/MinGW/include/c++/3.3.1/bits/stl_vector.h ****        *  to one before the first element in the %vector.  Iteration
 407:d:/MTK/MTK2503/MTK2503/11CW1418SP4_03_CORETEK03AE_11C_V1_GPRS_MMI/Tools/MinGW/include/c++/3.3.1/bits/stl_vector.h ****        *  is done in reverse element order.
 408:d:/MTK/MTK2503/MTK2503/11CW1418SP4_03_CORETEK03AE_11C_V1_GPRS_MMI/Tools/MinGW/include/c++/3.3.1/bits/stl_vector.h ****        */
 409:d:/MTK/MTK2503/MTK2503/11CW1418SP4_03_CORETEK03AE_11C_V1_GPRS_MMI/Tools/MinGW/include/c++/3.3.1/bits/stl_vector.h ****       const_reverse_iterator
 410:d:/MTK/MTK2503/MTK2503/11CW1418SP4_03_CORETEK03AE_11C_V1_GPRS_MMI/Tools/MinGW/include/c++/3.3.1/bits/stl_vector.h ****       rend() const { return const_reverse_iterator(begin()); }
 411:d:/MTK/MTK2503/MTK2503/11CW1418SP4_03_CORETEK03AE_11C_V1_GPRS_MMI/Tools/MinGW/include/c++/3.3.1/bits/stl_vector.h ****   
 412:d:/MTK/MTK2503/MTK2503/11CW1418SP4_03_CORETEK03AE_11C_V1_GPRS_MMI/Tools/MinGW/include/c++/3.3.1/bits/stl_vector.h ****       // [23.2.4.2] capacity
 413:d:/MTK/MTK2503/MTK2503/11CW1418SP4_03_CORETEK03AE_11C_V1_GPRS_MMI/Tools/MinGW/include/c++/3.3.1/bits/stl_vector.h ****       /**  Returns the number of elements in the %vector.  */
 414:d:/MTK/MTK2503/MTK2503/11CW1418SP4_03_CORETEK03AE_11C_V1_GPRS_MMI/Tools/MinGW/include/c++/3.3.1/bits/stl_vector.h ****       size_type
 415:d:/MTK/MTK2503/MTK2503/11CW1418SP4_03_CORETEK03AE_11C_V1_GPRS_MMI/Tools/MinGW/include/c++/3.3.1/bits/stl_vector.h ****       size() const { return size_type(end() - begin()); }
 416:d:/MTK/MTK2503/MTK2503/11CW1418SP4_03_CORETEK03AE_11C_V1_GPRS_MMI/Tools/MinGW/include/c++/3.3.1/bits/stl_vector.h ****       
 417:d:/MTK/MTK2503/MTK2503/11CW1418SP4_03_CORETEK03AE_11C_V1_GPRS_MMI/Tools/MinGW/include/c++/3.3.1/bits/stl_vector.h ****       /**  Returns the size() of the largest possible %vector.  */
 418:d:/MTK/MTK2503/MTK2503/11CW1418SP4_03_CORETEK03AE_11C_V1_GPRS_MMI/Tools/MinGW/include/c++/3.3.1/bits/stl_vector.h ****       size_type
 419:d:/MTK/MTK2503/MTK2503/11CW1418SP4_03_CORETEK03AE_11C_V1_GPRS_MMI/Tools/MinGW/include/c++/3.3.1/bits/stl_vector.h ****       max_size() const { return size_type(-1) / sizeof(value_type); }
 420:d:/MTK/MTK2503/MTK2503/11CW1418SP4_03_CORETEK03AE_11C_V1_GPRS_MMI/Tools/MinGW/include/c++/3.3.1/bits/stl_vector.h ****       
 421:d:/MTK/MTK2503/MTK2503/11CW1418SP4_03_CORETEK03AE_11C_V1_GPRS_MMI/Tools/MinGW/include/c++/3.3.1/bits/stl_vector.h ****       /**
 422:d:/MTK/MTK2503/MTK2503/11CW1418SP4_03_CORETEK03AE_11C_V1_GPRS_MMI/Tools/MinGW/include/c++/3.3.1/bits/stl_vector.h ****        *  @brief  Resizes the %vector to the specified number of elements.
 423:d:/MTK/MTK2503/MTK2503/11CW1418SP4_03_CORETEK03AE_11C_V1_GPRS_MMI/Tools/MinGW/include/c++/3.3.1/bits/stl_vector.h ****        *  @param  new_size  Number of elements the %vector should contain.
 424:d:/MTK/MTK2503/MTK2503/11CW1418SP4_03_CORETEK03AE_11C_V1_GPRS_MMI/Tools/MinGW/include/c++/3.3.1/bits/stl_vector.h ****        *  @param  x  Data with which new elements should be populated.
 425:d:/MTK/MTK2503/MTK2503/11CW1418SP4_03_CORETEK03AE_11C_V1_GPRS_MMI/Tools/MinGW/include/c++/3.3.1/bits/stl_vector.h ****        *
 426:d:/MTK/MTK2503/MTK2503/11CW1418SP4_03_CORETEK03AE_11C_V1_GPRS_MMI/Tools/MinGW/include/c++/3.3.1/bits/stl_vector.h ****        *  This function will %resize the %vector to the specified
 427:d:/MTK/MTK2503/MTK2503/11CW1418SP4_03_CORETEK03AE_11C_V1_GPRS_MMI/Tools/MinGW/include/c++/3.3.1/bits/stl_vector.h ****        *  number of elements.  If the number is smaller than the
 428:d:/MTK/MTK2503/MTK2503/11CW1418SP4_03_CORETEK03AE_11C_V1_GPRS_MMI/Tools/MinGW/include/c++/3.3.1/bits/stl_vector.h ****        *  %vector's current size the %vector is truncated, otherwise
 429:d:/MTK/MTK2503/MTK2503/11CW1418SP4_03_CORETEK03AE_11C_V1_GPRS_MMI/Tools/MinGW/include/c++/3.3.1/bits/stl_vector.h ****        *  the %vector is extended and new elements are populated with
 430:d:/MTK/MTK2503/MTK2503/11CW1418SP4_03_CORETEK03AE_11C_V1_GPRS_MMI/Tools/MinGW/include/c++/3.3.1/bits/stl_vector.h ****        *  given data.
 431:d:/MTK/MTK2503/MTK2503/11CW1418SP4_03_CORETEK03AE_11C_V1_GPRS_MMI/Tools/MinGW/include/c++/3.3.1/bits/stl_vector.h ****        */
 432:d:/MTK/MTK2503/MTK2503/11CW1418SP4_03_CORETEK03AE_11C_V1_GPRS_MMI/Tools/MinGW/include/c++/3.3.1/bits/stl_vector.h ****       void
 433:d:/MTK/MTK2503/MTK2503/11CW1418SP4_03_CORETEK03AE_11C_V1_GPRS_MMI/Tools/MinGW/include/c++/3.3.1/bits/stl_vector.h ****       resize(size_type __new_size, const value_type& __x)
 434:d:/MTK/MTK2503/MTK2503/11CW1418SP4_03_CORETEK03AE_11C_V1_GPRS_MMI/Tools/MinGW/include/c++/3.3.1/bits/stl_vector.h ****       {
 435:d:/MTK/MTK2503/MTK2503/11CW1418SP4_03_CORETEK03AE_11C_V1_GPRS_MMI/Tools/MinGW/include/c++/3.3.1/bits/stl_vector.h **** 	if (__new_size < size())
 436:d:/MTK/MTK2503/MTK2503/11CW1418SP4_03_CORETEK03AE_11C_V1_GPRS_MMI/Tools/MinGW/include/c++/3.3.1/bits/stl_vector.h **** 	  erase(begin() + __new_size, end());
 437:d:/MTK/MTK2503/MTK2503/11CW1418SP4_03_CORETEK03AE_11C_V1_GPRS_MMI/Tools/MinGW/include/c++/3.3.1/bits/stl_vector.h **** 	else
 438:d:/MTK/MTK2503/MTK2503/11CW1418SP4_03_CORETEK03AE_11C_V1_GPRS_MMI/Tools/MinGW/include/c++/3.3.1/bits/stl_vector.h **** 	  insert(end(), __new_size - size(), __x);
 439:d:/MTK/MTK2503/MTK2503/11CW1418SP4_03_CORETEK03AE_11C_V1_GPRS_MMI/Tools/MinGW/include/c++/3.3.1/bits/stl_vector.h ****       }
 440:d:/MTK/MTK2503/MTK2503/11CW1418SP4_03_CORETEK03AE_11C_V1_GPRS_MMI/Tools/MinGW/include/c++/3.3.1/bits/stl_vector.h ****       
 441:d:/MTK/MTK2503/MTK2503/11CW1418SP4_03_CORETEK03AE_11C_V1_GPRS_MMI/Tools/MinGW/include/c++/3.3.1/bits/stl_vector.h ****       /**
 442:d:/MTK/MTK2503/MTK2503/11CW1418SP4_03_CORETEK03AE_11C_V1_GPRS_MMI/Tools/MinGW/include/c++/3.3.1/bits/stl_vector.h ****        *  @brief  Resizes the %vector to the specified number of elements.
 443:d:/MTK/MTK2503/MTK2503/11CW1418SP4_03_CORETEK03AE_11C_V1_GPRS_MMI/Tools/MinGW/include/c++/3.3.1/bits/stl_vector.h ****        *  @param  new_size  Number of elements the %vector should contain.
 444:d:/MTK/MTK2503/MTK2503/11CW1418SP4_03_CORETEK03AE_11C_V1_GPRS_MMI/Tools/MinGW/include/c++/3.3.1/bits/stl_vector.h ****        *
 445:d:/MTK/MTK2503/MTK2503/11CW1418SP4_03_CORETEK03AE_11C_V1_GPRS_MMI/Tools/MinGW/include/c++/3.3.1/bits/stl_vector.h ****        *  This function will resize the %vector to the specified
 446:d:/MTK/MTK2503/MTK2503/11CW1418SP4_03_CORETEK03AE_11C_V1_GPRS_MMI/Tools/MinGW/include/c++/3.3.1/bits/stl_vector.h ****        *  number of elements.  If the number is smaller than the
 447:d:/MTK/MTK2503/MTK2503/11CW1418SP4_03_CORETEK03AE_11C_V1_GPRS_MMI/Tools/MinGW/include/c++/3.3.1/bits/stl_vector.h ****        *  %vector's current size the %vector is truncated, otherwise
 448:d:/MTK/MTK2503/MTK2503/11CW1418SP4_03_CORETEK03AE_11C_V1_GPRS_MMI/Tools/MinGW/include/c++/3.3.1/bits/stl_vector.h ****        *  the %vector is extended and new elements are
 449:d:/MTK/MTK2503/MTK2503/11CW1418SP4_03_CORETEK03AE_11C_V1_GPRS_MMI/Tools/MinGW/include/c++/3.3.1/bits/stl_vector.h ****        *  default-constructed.
 450:d:/MTK/MTK2503/MTK2503/11CW1418SP4_03_CORETEK03AE_11C_V1_GPRS_MMI/Tools/MinGW/include/c++/3.3.1/bits/stl_vector.h ****        */
 451:d:/MTK/MTK2503/MTK2503/11CW1418SP4_03_CORETEK03AE_11C_V1_GPRS_MMI/Tools/MinGW/include/c++/3.3.1/bits/stl_vector.h ****       void
 452:d:/MTK/MTK2503/MTK2503/11CW1418SP4_03_CORETEK03AE_11C_V1_GPRS_MMI/Tools/MinGW/include/c++/3.3.1/bits/stl_vector.h ****       resize(size_type __new_size) { resize(__new_size, value_type()); }
 453:d:/MTK/MTK2503/MTK2503/11CW1418SP4_03_CORETEK03AE_11C_V1_GPRS_MMI/Tools/MinGW/include/c++/3.3.1/bits/stl_vector.h ****       
 454:d:/MTK/MTK2503/MTK2503/11CW1418SP4_03_CORETEK03AE_11C_V1_GPRS_MMI/Tools/MinGW/include/c++/3.3.1/bits/stl_vector.h ****       /**
GAS LISTING d:/MTK/MTK2503/MTK2503/11CW1418SP4_03_CORETEK03AE_11C_V1_GPRS_MMI/plutommi/Customer/ResGenerator/gcctmp/ccQHcaaa.s 			page 76


 455:d:/MTK/MTK2503/MTK2503/11CW1418SP4_03_CORETEK03AE_11C_V1_GPRS_MMI/Tools/MinGW/include/c++/3.3.1/bits/stl_vector.h ****        *  Returns the total number of elements that the %vector can hold before
 456:d:/MTK/MTK2503/MTK2503/11CW1418SP4_03_CORETEK03AE_11C_V1_GPRS_MMI/Tools/MinGW/include/c++/3.3.1/bits/stl_vector.h ****        *  needing to allocate more memory.
 457:d:/MTK/MTK2503/MTK2503/11CW1418SP4_03_CORETEK03AE_11C_V1_GPRS_MMI/Tools/MinGW/include/c++/3.3.1/bits/stl_vector.h ****        */
 458:d:/MTK/MTK2503/MTK2503/11CW1418SP4_03_CORETEK03AE_11C_V1_GPRS_MMI/Tools/MinGW/include/c++/3.3.1/bits/stl_vector.h ****       size_type
 459:d:/MTK/MTK2503/MTK2503/11CW1418SP4_03_CORETEK03AE_11C_V1_GPRS_MMI/Tools/MinGW/include/c++/3.3.1/bits/stl_vector.h ****       capacity() const
 460:d:/MTK/MTK2503/MTK2503/11CW1418SP4_03_CORETEK03AE_11C_V1_GPRS_MMI/Tools/MinGW/include/c++/3.3.1/bits/stl_vector.h ****       { return size_type(const_iterator(_M_end_of_storage) - begin()); }
 461:d:/MTK/MTK2503/MTK2503/11CW1418SP4_03_CORETEK03AE_11C_V1_GPRS_MMI/Tools/MinGW/include/c++/3.3.1/bits/stl_vector.h ****       
 462:d:/MTK/MTK2503/MTK2503/11CW1418SP4_03_CORETEK03AE_11C_V1_GPRS_MMI/Tools/MinGW/include/c++/3.3.1/bits/stl_vector.h ****       /**
 463:d:/MTK/MTK2503/MTK2503/11CW1418SP4_03_CORETEK03AE_11C_V1_GPRS_MMI/Tools/MinGW/include/c++/3.3.1/bits/stl_vector.h ****        *  Returns true if the %vector is empty.  (Thus begin() would
 464:d:/MTK/MTK2503/MTK2503/11CW1418SP4_03_CORETEK03AE_11C_V1_GPRS_MMI/Tools/MinGW/include/c++/3.3.1/bits/stl_vector.h ****        *  equal end().)
 465:d:/MTK/MTK2503/MTK2503/11CW1418SP4_03_CORETEK03AE_11C_V1_GPRS_MMI/Tools/MinGW/include/c++/3.3.1/bits/stl_vector.h ****        */
 466:d:/MTK/MTK2503/MTK2503/11CW1418SP4_03_CORETEK03AE_11C_V1_GPRS_MMI/Tools/MinGW/include/c++/3.3.1/bits/stl_vector.h ****       bool
 467:d:/MTK/MTK2503/MTK2503/11CW1418SP4_03_CORETEK03AE_11C_V1_GPRS_MMI/Tools/MinGW/include/c++/3.3.1/bits/stl_vector.h ****       empty() const { return begin() == end(); }
 468:d:/MTK/MTK2503/MTK2503/11CW1418SP4_03_CORETEK03AE_11C_V1_GPRS_MMI/Tools/MinGW/include/c++/3.3.1/bits/stl_vector.h ****       
 469:d:/MTK/MTK2503/MTK2503/11CW1418SP4_03_CORETEK03AE_11C_V1_GPRS_MMI/Tools/MinGW/include/c++/3.3.1/bits/stl_vector.h ****       /**
 470:d:/MTK/MTK2503/MTK2503/11CW1418SP4_03_CORETEK03AE_11C_V1_GPRS_MMI/Tools/MinGW/include/c++/3.3.1/bits/stl_vector.h ****        *  @brief  Attempt to preallocate enough memory for specified number of
 471:d:/MTK/MTK2503/MTK2503/11CW1418SP4_03_CORETEK03AE_11C_V1_GPRS_MMI/Tools/MinGW/include/c++/3.3.1/bits/stl_vector.h ****        *          elements.
 472:d:/MTK/MTK2503/MTK2503/11CW1418SP4_03_CORETEK03AE_11C_V1_GPRS_MMI/Tools/MinGW/include/c++/3.3.1/bits/stl_vector.h ****        *  @param  n  Number of elements required.
 473:d:/MTK/MTK2503/MTK2503/11CW1418SP4_03_CORETEK03AE_11C_V1_GPRS_MMI/Tools/MinGW/include/c++/3.3.1/bits/stl_vector.h ****        *  @throw  std::length_error  If @a n exceeds @c max_size().
 474:d:/MTK/MTK2503/MTK2503/11CW1418SP4_03_CORETEK03AE_11C_V1_GPRS_MMI/Tools/MinGW/include/c++/3.3.1/bits/stl_vector.h ****        *
 475:d:/MTK/MTK2503/MTK2503/11CW1418SP4_03_CORETEK03AE_11C_V1_GPRS_MMI/Tools/MinGW/include/c++/3.3.1/bits/stl_vector.h ****        *  This function attempts to reserve enough memory for the
 476:d:/MTK/MTK2503/MTK2503/11CW1418SP4_03_CORETEK03AE_11C_V1_GPRS_MMI/Tools/MinGW/include/c++/3.3.1/bits/stl_vector.h ****        *  %vector to hold the specified number of elements.  If the
 477:d:/MTK/MTK2503/MTK2503/11CW1418SP4_03_CORETEK03AE_11C_V1_GPRS_MMI/Tools/MinGW/include/c++/3.3.1/bits/stl_vector.h ****        *  number requested is more than max_size(), length_error is
 478:d:/MTK/MTK2503/MTK2503/11CW1418SP4_03_CORETEK03AE_11C_V1_GPRS_MMI/Tools/MinGW/include/c++/3.3.1/bits/stl_vector.h ****        *  thrown.
 479:d:/MTK/MTK2503/MTK2503/11CW1418SP4_03_CORETEK03AE_11C_V1_GPRS_MMI/Tools/MinGW/include/c++/3.3.1/bits/stl_vector.h ****        *
 480:d:/MTK/MTK2503/MTK2503/11CW1418SP4_03_CORETEK03AE_11C_V1_GPRS_MMI/Tools/MinGW/include/c++/3.3.1/bits/stl_vector.h ****        *  The advantage of this function is that if optimal code is a
 481:d:/MTK/MTK2503/MTK2503/11CW1418SP4_03_CORETEK03AE_11C_V1_GPRS_MMI/Tools/MinGW/include/c++/3.3.1/bits/stl_vector.h ****        *  necessity and the user can determine the number of elements
 482:d:/MTK/MTK2503/MTK2503/11CW1418SP4_03_CORETEK03AE_11C_V1_GPRS_MMI/Tools/MinGW/include/c++/3.3.1/bits/stl_vector.h ****        *  that will be required, the user can reserve the memory in
 483:d:/MTK/MTK2503/MTK2503/11CW1418SP4_03_CORETEK03AE_11C_V1_GPRS_MMI/Tools/MinGW/include/c++/3.3.1/bits/stl_vector.h ****        *  %advance, and thus prevent a possible reallocation of memory
 484:d:/MTK/MTK2503/MTK2503/11CW1418SP4_03_CORETEK03AE_11C_V1_GPRS_MMI/Tools/MinGW/include/c++/3.3.1/bits/stl_vector.h ****        *  and copying of %vector data.
 485:d:/MTK/MTK2503/MTK2503/11CW1418SP4_03_CORETEK03AE_11C_V1_GPRS_MMI/Tools/MinGW/include/c++/3.3.1/bits/stl_vector.h ****        */
 486:d:/MTK/MTK2503/MTK2503/11CW1418SP4_03_CORETEK03AE_11C_V1_GPRS_MMI/Tools/MinGW/include/c++/3.3.1/bits/stl_vector.h ****       void
 487:d:/MTK/MTK2503/MTK2503/11CW1418SP4_03_CORETEK03AE_11C_V1_GPRS_MMI/Tools/MinGW/include/c++/3.3.1/bits/stl_vector.h ****       reserve(size_type __n);
 488:d:/MTK/MTK2503/MTK2503/11CW1418SP4_03_CORETEK03AE_11C_V1_GPRS_MMI/Tools/MinGW/include/c++/3.3.1/bits/stl_vector.h ****       
 489:d:/MTK/MTK2503/MTK2503/11CW1418SP4_03_CORETEK03AE_11C_V1_GPRS_MMI/Tools/MinGW/include/c++/3.3.1/bits/stl_vector.h ****       // element access
 490:d:/MTK/MTK2503/MTK2503/11CW1418SP4_03_CORETEK03AE_11C_V1_GPRS_MMI/Tools/MinGW/include/c++/3.3.1/bits/stl_vector.h ****       /**
 491:d:/MTK/MTK2503/MTK2503/11CW1418SP4_03_CORETEK03AE_11C_V1_GPRS_MMI/Tools/MinGW/include/c++/3.3.1/bits/stl_vector.h ****        *  @brief  Subscript access to the data contained in the %vector.
 492:d:/MTK/MTK2503/MTK2503/11CW1418SP4_03_CORETEK03AE_11C_V1_GPRS_MMI/Tools/MinGW/include/c++/3.3.1/bits/stl_vector.h ****        *  @param  n  The index of the element for which data should be accessed.
 493:d:/MTK/MTK2503/MTK2503/11CW1418SP4_03_CORETEK03AE_11C_V1_GPRS_MMI/Tools/MinGW/include/c++/3.3.1/bits/stl_vector.h ****        *  @return  Read/write reference to data.
 494:d:/MTK/MTK2503/MTK2503/11CW1418SP4_03_CORETEK03AE_11C_V1_GPRS_MMI/Tools/MinGW/include/c++/3.3.1/bits/stl_vector.h ****        *
 495:d:/MTK/MTK2503/MTK2503/11CW1418SP4_03_CORETEK03AE_11C_V1_GPRS_MMI/Tools/MinGW/include/c++/3.3.1/bits/stl_vector.h ****        *  This operator allows for easy, array-style, data access.
 496:d:/MTK/MTK2503/MTK2503/11CW1418SP4_03_CORETEK03AE_11C_V1_GPRS_MMI/Tools/MinGW/include/c++/3.3.1/bits/stl_vector.h ****        *  Note that data access with this operator is unchecked and
 497:d:/MTK/MTK2503/MTK2503/11CW1418SP4_03_CORETEK03AE_11C_V1_GPRS_MMI/Tools/MinGW/include/c++/3.3.1/bits/stl_vector.h ****        *  out_of_range lookups are not defined. (For checked lookups
 498:d:/MTK/MTK2503/MTK2503/11CW1418SP4_03_CORETEK03AE_11C_V1_GPRS_MMI/Tools/MinGW/include/c++/3.3.1/bits/stl_vector.h ****        *  see at().)
 499:d:/MTK/MTK2503/MTK2503/11CW1418SP4_03_CORETEK03AE_11C_V1_GPRS_MMI/Tools/MinGW/include/c++/3.3.1/bits/stl_vector.h ****        */
 500:d:/MTK/MTK2503/MTK2503/11CW1418SP4_03_CORETEK03AE_11C_V1_GPRS_MMI/Tools/MinGW/include/c++/3.3.1/bits/stl_vector.h ****       reference
 501:d:/MTK/MTK2503/MTK2503/11CW1418SP4_03_CORETEK03AE_11C_V1_GPRS_MMI/Tools/MinGW/include/c++/3.3.1/bits/stl_vector.h ****       operator[](size_type __n) { return *(begin() + __n); }
 502:d:/MTK/MTK2503/MTK2503/11CW1418SP4_03_CORETEK03AE_11C_V1_GPRS_MMI/Tools/MinGW/include/c++/3.3.1/bits/stl_vector.h ****       
 503:d:/MTK/MTK2503/MTK2503/11CW1418SP4_03_CORETEK03AE_11C_V1_GPRS_MMI/Tools/MinGW/include/c++/3.3.1/bits/stl_vector.h ****       /**
 504:d:/MTK/MTK2503/MTK2503/11CW1418SP4_03_CORETEK03AE_11C_V1_GPRS_MMI/Tools/MinGW/include/c++/3.3.1/bits/stl_vector.h ****        *  @brief  Subscript access to the data contained in the %vector.
 505:d:/MTK/MTK2503/MTK2503/11CW1418SP4_03_CORETEK03AE_11C_V1_GPRS_MMI/Tools/MinGW/include/c++/3.3.1/bits/stl_vector.h ****        *  @param n The index of the element for which data should be
 506:d:/MTK/MTK2503/MTK2503/11CW1418SP4_03_CORETEK03AE_11C_V1_GPRS_MMI/Tools/MinGW/include/c++/3.3.1/bits/stl_vector.h ****        *  accessed.
 507:d:/MTK/MTK2503/MTK2503/11CW1418SP4_03_CORETEK03AE_11C_V1_GPRS_MMI/Tools/MinGW/include/c++/3.3.1/bits/stl_vector.h ****        *  @return  Read-only (constant) reference to data.
 508:d:/MTK/MTK2503/MTK2503/11CW1418SP4_03_CORETEK03AE_11C_V1_GPRS_MMI/Tools/MinGW/include/c++/3.3.1/bits/stl_vector.h ****        *
 509:d:/MTK/MTK2503/MTK2503/11CW1418SP4_03_CORETEK03AE_11C_V1_GPRS_MMI/Tools/MinGW/include/c++/3.3.1/bits/stl_vector.h ****        *  This operator allows for easy, array-style, data access.
 510:d:/MTK/MTK2503/MTK2503/11CW1418SP4_03_CORETEK03AE_11C_V1_GPRS_MMI/Tools/MinGW/include/c++/3.3.1/bits/stl_vector.h ****        *  Note that data access with this operator is unchecked and
 511:d:/MTK/MTK2503/MTK2503/11CW1418SP4_03_CORETEK03AE_11C_V1_GPRS_MMI/Tools/MinGW/include/c++/3.3.1/bits/stl_vector.h ****        *  out_of_range lookups are not defined. (For checked lookups
GAS LISTING d:/MTK/MTK2503/MTK2503/11CW1418SP4_03_CORETEK03AE_11C_V1_GPRS_MMI/plutommi/Customer/ResGenerator/gcctmp/ccQHcaaa.s 			page 77


 512:d:/MTK/MTK2503/MTK2503/11CW1418SP4_03_CORETEK03AE_11C_V1_GPRS_MMI/Tools/MinGW/include/c++/3.3.1/bits/stl_vector.h ****        *  see at().)
 513:d:/MTK/MTK2503/MTK2503/11CW1418SP4_03_CORETEK03AE_11C_V1_GPRS_MMI/Tools/MinGW/include/c++/3.3.1/bits/stl_vector.h ****        */
 514:d:/MTK/MTK2503/MTK2503/11CW1418SP4_03_CORETEK03AE_11C_V1_GPRS_MMI/Tools/MinGW/include/c++/3.3.1/bits/stl_vector.h ****       const_reference
 515:d:/MTK/MTK2503/MTK2503/11CW1418SP4_03_CORETEK03AE_11C_V1_GPRS_MMI/Tools/MinGW/include/c++/3.3.1/bits/stl_vector.h ****       operator[](size_type __n) const { return *(begin() + __n); }
 516:d:/MTK/MTK2503/MTK2503/11CW1418SP4_03_CORETEK03AE_11C_V1_GPRS_MMI/Tools/MinGW/include/c++/3.3.1/bits/stl_vector.h ****   
 517:d:/MTK/MTK2503/MTK2503/11CW1418SP4_03_CORETEK03AE_11C_V1_GPRS_MMI/Tools/MinGW/include/c++/3.3.1/bits/stl_vector.h ****     protected:
 518:d:/MTK/MTK2503/MTK2503/11CW1418SP4_03_CORETEK03AE_11C_V1_GPRS_MMI/Tools/MinGW/include/c++/3.3.1/bits/stl_vector.h ****       /// @if maint Safety check used only from at().  @endif
 519:d:/MTK/MTK2503/MTK2503/11CW1418SP4_03_CORETEK03AE_11C_V1_GPRS_MMI/Tools/MinGW/include/c++/3.3.1/bits/stl_vector.h ****       void
 520:d:/MTK/MTK2503/MTK2503/11CW1418SP4_03_CORETEK03AE_11C_V1_GPRS_MMI/Tools/MinGW/include/c++/3.3.1/bits/stl_vector.h ****       _M_range_check(size_type __n) const
 521:d:/MTK/MTK2503/MTK2503/11CW1418SP4_03_CORETEK03AE_11C_V1_GPRS_MMI/Tools/MinGW/include/c++/3.3.1/bits/stl_vector.h ****       {
 522:d:/MTK/MTK2503/MTK2503/11CW1418SP4_03_CORETEK03AE_11C_V1_GPRS_MMI/Tools/MinGW/include/c++/3.3.1/bits/stl_vector.h **** 	if (__n >= this->size())
 523:d:/MTK/MTK2503/MTK2503/11CW1418SP4_03_CORETEK03AE_11C_V1_GPRS_MMI/Tools/MinGW/include/c++/3.3.1/bits/stl_vector.h **** 	  __throw_out_of_range("vector [] access out of range");
 524:d:/MTK/MTK2503/MTK2503/11CW1418SP4_03_CORETEK03AE_11C_V1_GPRS_MMI/Tools/MinGW/include/c++/3.3.1/bits/stl_vector.h ****       }
 525:d:/MTK/MTK2503/MTK2503/11CW1418SP4_03_CORETEK03AE_11C_V1_GPRS_MMI/Tools/MinGW/include/c++/3.3.1/bits/stl_vector.h ****       
 526:d:/MTK/MTK2503/MTK2503/11CW1418SP4_03_CORETEK03AE_11C_V1_GPRS_MMI/Tools/MinGW/include/c++/3.3.1/bits/stl_vector.h ****     public:
 527:d:/MTK/MTK2503/MTK2503/11CW1418SP4_03_CORETEK03AE_11C_V1_GPRS_MMI/Tools/MinGW/include/c++/3.3.1/bits/stl_vector.h ****       /**
 528:d:/MTK/MTK2503/MTK2503/11CW1418SP4_03_CORETEK03AE_11C_V1_GPRS_MMI/Tools/MinGW/include/c++/3.3.1/bits/stl_vector.h ****        *  @brief  Provides access to the data contained in the %vector.
 529:d:/MTK/MTK2503/MTK2503/11CW1418SP4_03_CORETEK03AE_11C_V1_GPRS_MMI/Tools/MinGW/include/c++/3.3.1/bits/stl_vector.h ****        *  @param n The index of the element for which data should be
 530:d:/MTK/MTK2503/MTK2503/11CW1418SP4_03_CORETEK03AE_11C_V1_GPRS_MMI/Tools/MinGW/include/c++/3.3.1/bits/stl_vector.h ****        *  accessed.
 531:d:/MTK/MTK2503/MTK2503/11CW1418SP4_03_CORETEK03AE_11C_V1_GPRS_MMI/Tools/MinGW/include/c++/3.3.1/bits/stl_vector.h ****        *  @return  Read/write reference to data.
 532:d:/MTK/MTK2503/MTK2503/11CW1418SP4_03_CORETEK03AE_11C_V1_GPRS_MMI/Tools/MinGW/include/c++/3.3.1/bits/stl_vector.h ****        *  @throw  std::out_of_range  If @a n is an invalid index.
 533:d:/MTK/MTK2503/MTK2503/11CW1418SP4_03_CORETEK03AE_11C_V1_GPRS_MMI/Tools/MinGW/include/c++/3.3.1/bits/stl_vector.h ****        *
 534:d:/MTK/MTK2503/MTK2503/11CW1418SP4_03_CORETEK03AE_11C_V1_GPRS_MMI/Tools/MinGW/include/c++/3.3.1/bits/stl_vector.h ****        *  This function provides for safer data access.  The parameter is first
 535:d:/MTK/MTK2503/MTK2503/11CW1418SP4_03_CORETEK03AE_11C_V1_GPRS_MMI/Tools/MinGW/include/c++/3.3.1/bits/stl_vector.h ****        *  checked that it is in the range of the vector.  The function throws
 536:d:/MTK/MTK2503/MTK2503/11CW1418SP4_03_CORETEK03AE_11C_V1_GPRS_MMI/Tools/MinGW/include/c++/3.3.1/bits/stl_vector.h ****        *  out_of_range if the check fails.
 537:d:/MTK/MTK2503/MTK2503/11CW1418SP4_03_CORETEK03AE_11C_V1_GPRS_MMI/Tools/MinGW/include/c++/3.3.1/bits/stl_vector.h ****        */
 538:d:/MTK/MTK2503/MTK2503/11CW1418SP4_03_CORETEK03AE_11C_V1_GPRS_MMI/Tools/MinGW/include/c++/3.3.1/bits/stl_vector.h ****       reference
 539:d:/MTK/MTK2503/MTK2503/11CW1418SP4_03_CORETEK03AE_11C_V1_GPRS_MMI/Tools/MinGW/include/c++/3.3.1/bits/stl_vector.h ****       at(size_type __n) { _M_range_check(__n); return (*this)[__n]; }
 540:d:/MTK/MTK2503/MTK2503/11CW1418SP4_03_CORETEK03AE_11C_V1_GPRS_MMI/Tools/MinGW/include/c++/3.3.1/bits/stl_vector.h ****       
 541:d:/MTK/MTK2503/MTK2503/11CW1418SP4_03_CORETEK03AE_11C_V1_GPRS_MMI/Tools/MinGW/include/c++/3.3.1/bits/stl_vector.h ****       /**
 542:d:/MTK/MTK2503/MTK2503/11CW1418SP4_03_CORETEK03AE_11C_V1_GPRS_MMI/Tools/MinGW/include/c++/3.3.1/bits/stl_vector.h ****        *  @brief  Provides access to the data contained in the %vector.
 543:d:/MTK/MTK2503/MTK2503/11CW1418SP4_03_CORETEK03AE_11C_V1_GPRS_MMI/Tools/MinGW/include/c++/3.3.1/bits/stl_vector.h ****        *  @param n The index of the element for which data should be
 544:d:/MTK/MTK2503/MTK2503/11CW1418SP4_03_CORETEK03AE_11C_V1_GPRS_MMI/Tools/MinGW/include/c++/3.3.1/bits/stl_vector.h ****        *  accessed.
 545:d:/MTK/MTK2503/MTK2503/11CW1418SP4_03_CORETEK03AE_11C_V1_GPRS_MMI/Tools/MinGW/include/c++/3.3.1/bits/stl_vector.h ****        *  @return  Read-only (constant) reference to data.
 546:d:/MTK/MTK2503/MTK2503/11CW1418SP4_03_CORETEK03AE_11C_V1_GPRS_MMI/Tools/MinGW/include/c++/3.3.1/bits/stl_vector.h ****        *  @throw  std::out_of_range  If @a n is an invalid index.
 547:d:/MTK/MTK2503/MTK2503/11CW1418SP4_03_CORETEK03AE_11C_V1_GPRS_MMI/Tools/MinGW/include/c++/3.3.1/bits/stl_vector.h ****        *
 548:d:/MTK/MTK2503/MTK2503/11CW1418SP4_03_CORETEK03AE_11C_V1_GPRS_MMI/Tools/MinGW/include/c++/3.3.1/bits/stl_vector.h ****        *  This function provides for safer data access.  The parameter
 549:d:/MTK/MTK2503/MTK2503/11CW1418SP4_03_CORETEK03AE_11C_V1_GPRS_MMI/Tools/MinGW/include/c++/3.3.1/bits/stl_vector.h ****        *  is first checked that it is in the range of the vector.  The
 550:d:/MTK/MTK2503/MTK2503/11CW1418SP4_03_CORETEK03AE_11C_V1_GPRS_MMI/Tools/MinGW/include/c++/3.3.1/bits/stl_vector.h ****        *  function throws out_of_range if the check fails.
 551:d:/MTK/MTK2503/MTK2503/11CW1418SP4_03_CORETEK03AE_11C_V1_GPRS_MMI/Tools/MinGW/include/c++/3.3.1/bits/stl_vector.h ****        */
 552:d:/MTK/MTK2503/MTK2503/11CW1418SP4_03_CORETEK03AE_11C_V1_GPRS_MMI/Tools/MinGW/include/c++/3.3.1/bits/stl_vector.h ****       const_reference
 553:d:/MTK/MTK2503/MTK2503/11CW1418SP4_03_CORETEK03AE_11C_V1_GPRS_MMI/Tools/MinGW/include/c++/3.3.1/bits/stl_vector.h ****       at(size_type __n) const { _M_range_check(__n); return (*this)[__n]; }
 554:d:/MTK/MTK2503/MTK2503/11CW1418SP4_03_CORETEK03AE_11C_V1_GPRS_MMI/Tools/MinGW/include/c++/3.3.1/bits/stl_vector.h ****       
 555:d:/MTK/MTK2503/MTK2503/11CW1418SP4_03_CORETEK03AE_11C_V1_GPRS_MMI/Tools/MinGW/include/c++/3.3.1/bits/stl_vector.h ****       /**
 556:d:/MTK/MTK2503/MTK2503/11CW1418SP4_03_CORETEK03AE_11C_V1_GPRS_MMI/Tools/MinGW/include/c++/3.3.1/bits/stl_vector.h ****        *  Returns a read/write reference to the data at the first
 557:d:/MTK/MTK2503/MTK2503/11CW1418SP4_03_CORETEK03AE_11C_V1_GPRS_MMI/Tools/MinGW/include/c++/3.3.1/bits/stl_vector.h ****        *  element of the %vector.
 558:d:/MTK/MTK2503/MTK2503/11CW1418SP4_03_CORETEK03AE_11C_V1_GPRS_MMI/Tools/MinGW/include/c++/3.3.1/bits/stl_vector.h ****        */
 559:d:/MTK/MTK2503/MTK2503/11CW1418SP4_03_CORETEK03AE_11C_V1_GPRS_MMI/Tools/MinGW/include/c++/3.3.1/bits/stl_vector.h ****       reference
 560:d:/MTK/MTK2503/MTK2503/11CW1418SP4_03_CORETEK03AE_11C_V1_GPRS_MMI/Tools/MinGW/include/c++/3.3.1/bits/stl_vector.h ****       front() { return *begin(); }
 561:d:/MTK/MTK2503/MTK2503/11CW1418SP4_03_CORETEK03AE_11C_V1_GPRS_MMI/Tools/MinGW/include/c++/3.3.1/bits/stl_vector.h ****       
 562:d:/MTK/MTK2503/MTK2503/11CW1418SP4_03_CORETEK03AE_11C_V1_GPRS_MMI/Tools/MinGW/include/c++/3.3.1/bits/stl_vector.h ****       /**
 563:d:/MTK/MTK2503/MTK2503/11CW1418SP4_03_CORETEK03AE_11C_V1_GPRS_MMI/Tools/MinGW/include/c++/3.3.1/bits/stl_vector.h ****        *  Returns a read-only (constant) reference to the data at the first
 564:d:/MTK/MTK2503/MTK2503/11CW1418SP4_03_CORETEK03AE_11C_V1_GPRS_MMI/Tools/MinGW/include/c++/3.3.1/bits/stl_vector.h ****        *  element of the %vector.
 565:d:/MTK/MTK2503/MTK2503/11CW1418SP4_03_CORETEK03AE_11C_V1_GPRS_MMI/Tools/MinGW/include/c++/3.3.1/bits/stl_vector.h ****        */
 566:d:/MTK/MTK2503/MTK2503/11CW1418SP4_03_CORETEK03AE_11C_V1_GPRS_MMI/Tools/MinGW/include/c++/3.3.1/bits/stl_vector.h ****       const_reference
 567:d:/MTK/MTK2503/MTK2503/11CW1418SP4_03_CORETEK03AE_11C_V1_GPRS_MMI/Tools/MinGW/include/c++/3.3.1/bits/stl_vector.h ****       front() const { return *begin(); }
 568:d:/MTK/MTK2503/MTK2503/11CW1418SP4_03_CORETEK03AE_11C_V1_GPRS_MMI/Tools/MinGW/include/c++/3.3.1/bits/stl_vector.h ****       
GAS LISTING d:/MTK/MTK2503/MTK2503/11CW1418SP4_03_CORETEK03AE_11C_V1_GPRS_MMI/plutommi/Customer/ResGenerator/gcctmp/ccQHcaaa.s 			page 78


 569:d:/MTK/MTK2503/MTK2503/11CW1418SP4_03_CORETEK03AE_11C_V1_GPRS_MMI/Tools/MinGW/include/c++/3.3.1/bits/stl_vector.h ****       /**
 570:d:/MTK/MTK2503/MTK2503/11CW1418SP4_03_CORETEK03AE_11C_V1_GPRS_MMI/Tools/MinGW/include/c++/3.3.1/bits/stl_vector.h ****        *  Returns a read/write reference to the data at the last element of the
 571:d:/MTK/MTK2503/MTK2503/11CW1418SP4_03_CORETEK03AE_11C_V1_GPRS_MMI/Tools/MinGW/include/c++/3.3.1/bits/stl_vector.h ****        *  %vector.
 572:d:/MTK/MTK2503/MTK2503/11CW1418SP4_03_CORETEK03AE_11C_V1_GPRS_MMI/Tools/MinGW/include/c++/3.3.1/bits/stl_vector.h ****        */
 573:d:/MTK/MTK2503/MTK2503/11CW1418SP4_03_CORETEK03AE_11C_V1_GPRS_MMI/Tools/MinGW/include/c++/3.3.1/bits/stl_vector.h ****       reference
 574:d:/MTK/MTK2503/MTK2503/11CW1418SP4_03_CORETEK03AE_11C_V1_GPRS_MMI/Tools/MinGW/include/c++/3.3.1/bits/stl_vector.h ****       back() { return *(end() - 1); }
 575:d:/MTK/MTK2503/MTK2503/11CW1418SP4_03_CORETEK03AE_11C_V1_GPRS_MMI/Tools/MinGW/include/c++/3.3.1/bits/stl_vector.h ****       
 576:d:/MTK/MTK2503/MTK2503/11CW1418SP4_03_CORETEK03AE_11C_V1_GPRS_MMI/Tools/MinGW/include/c++/3.3.1/bits/stl_vector.h ****       /**
 577:d:/MTK/MTK2503/MTK2503/11CW1418SP4_03_CORETEK03AE_11C_V1_GPRS_MMI/Tools/MinGW/include/c++/3.3.1/bits/stl_vector.h ****        *  Returns a read-only (constant) reference to the data at the last
 578:d:/MTK/MTK2503/MTK2503/11CW1418SP4_03_CORETEK03AE_11C_V1_GPRS_MMI/Tools/MinGW/include/c++/3.3.1/bits/stl_vector.h ****        *  element of the %vector.
 579:d:/MTK/MTK2503/MTK2503/11CW1418SP4_03_CORETEK03AE_11C_V1_GPRS_MMI/Tools/MinGW/include/c++/3.3.1/bits/stl_vector.h ****        */
 580:d:/MTK/MTK2503/MTK2503/11CW1418SP4_03_CORETEK03AE_11C_V1_GPRS_MMI/Tools/MinGW/include/c++/3.3.1/bits/stl_vector.h ****       const_reference
 581:d:/MTK/MTK2503/MTK2503/11CW1418SP4_03_CORETEK03AE_11C_V1_GPRS_MMI/Tools/MinGW/include/c++/3.3.1/bits/stl_vector.h ****       back() const { return *(end() - 1); }
 582:d:/MTK/MTK2503/MTK2503/11CW1418SP4_03_CORETEK03AE_11C_V1_GPRS_MMI/Tools/MinGW/include/c++/3.3.1/bits/stl_vector.h ****   
 583:d:/MTK/MTK2503/MTK2503/11CW1418SP4_03_CORETEK03AE_11C_V1_GPRS_MMI/Tools/MinGW/include/c++/3.3.1/bits/stl_vector.h ****       // [23.2.4.3] modifiers
 584:d:/MTK/MTK2503/MTK2503/11CW1418SP4_03_CORETEK03AE_11C_V1_GPRS_MMI/Tools/MinGW/include/c++/3.3.1/bits/stl_vector.h ****       /**
 585:d:/MTK/MTK2503/MTK2503/11CW1418SP4_03_CORETEK03AE_11C_V1_GPRS_MMI/Tools/MinGW/include/c++/3.3.1/bits/stl_vector.h ****        *  @brief  Add data to the end of the %vector.
 586:d:/MTK/MTK2503/MTK2503/11CW1418SP4_03_CORETEK03AE_11C_V1_GPRS_MMI/Tools/MinGW/include/c++/3.3.1/bits/stl_vector.h ****        *  @param  x  Data to be added.
 587:d:/MTK/MTK2503/MTK2503/11CW1418SP4_03_CORETEK03AE_11C_V1_GPRS_MMI/Tools/MinGW/include/c++/3.3.1/bits/stl_vector.h ****        *
 588:d:/MTK/MTK2503/MTK2503/11CW1418SP4_03_CORETEK03AE_11C_V1_GPRS_MMI/Tools/MinGW/include/c++/3.3.1/bits/stl_vector.h ****        *  This is a typical stack operation.  The function creates an
 589:d:/MTK/MTK2503/MTK2503/11CW1418SP4_03_CORETEK03AE_11C_V1_GPRS_MMI/Tools/MinGW/include/c++/3.3.1/bits/stl_vector.h ****        *  element at the end of the %vector and assigns the given data
 590:d:/MTK/MTK2503/MTK2503/11CW1418SP4_03_CORETEK03AE_11C_V1_GPRS_MMI/Tools/MinGW/include/c++/3.3.1/bits/stl_vector.h ****        *  to it.  Due to the nature of a %vector this operation can be
 591:d:/MTK/MTK2503/MTK2503/11CW1418SP4_03_CORETEK03AE_11C_V1_GPRS_MMI/Tools/MinGW/include/c++/3.3.1/bits/stl_vector.h ****        *  done in constant time if the %vector has preallocated space
 592:d:/MTK/MTK2503/MTK2503/11CW1418SP4_03_CORETEK03AE_11C_V1_GPRS_MMI/Tools/MinGW/include/c++/3.3.1/bits/stl_vector.h ****        *  available.
 593:d:/MTK/MTK2503/MTK2503/11CW1418SP4_03_CORETEK03AE_11C_V1_GPRS_MMI/Tools/MinGW/include/c++/3.3.1/bits/stl_vector.h ****        */
 594:d:/MTK/MTK2503/MTK2503/11CW1418SP4_03_CORETEK03AE_11C_V1_GPRS_MMI/Tools/MinGW/include/c++/3.3.1/bits/stl_vector.h ****       void
 595:d:/MTK/MTK2503/MTK2503/11CW1418SP4_03_CORETEK03AE_11C_V1_GPRS_MMI/Tools/MinGW/include/c++/3.3.1/bits/stl_vector.h ****       push_back(const value_type& __x)
 596:d:/MTK/MTK2503/MTK2503/11CW1418SP4_03_CORETEK03AE_11C_V1_GPRS_MMI/Tools/MinGW/include/c++/3.3.1/bits/stl_vector.h ****       {
 5131              	LM182:
 5132 0000 55       		pushl	%ebp
 5133 0001 89E5     		movl	%esp, %ebp
 5134 0003 83EC18   		subl	$24, %esp
 597:d:/MTK/MTK2503/MTK2503/11CW1418SP4_03_CORETEK03AE_11C_V1_GPRS_MMI/Tools/MinGW/include/c++/3.3.1/bits/stl_vector.h **** 	if (_M_finish != _M_end_of_storage)
 5136              	LM183:
 5137              	LBB40:
 5138 0006 8B4508   		movl	8(%ebp), %eax
 5139 0009 8B5508   		movl	8(%ebp), %edx
 5140 000c 8B4004   		movl	4(%eax), %eax
 5141 000f 3B4208   		cmpl	8(%edx), %eax
 5142 0012 741E     		je	L193
 598:d:/MTK/MTK2503/MTK2503/11CW1418SP4_03_CORETEK03AE_11C_V1_GPRS_MMI/Tools/MinGW/include/c++/3.3.1/bits/stl_vector.h **** 	  {
 599:d:/MTK/MTK2503/MTK2503/11CW1418SP4_03_CORETEK03AE_11C_V1_GPRS_MMI/Tools/MinGW/include/c++/3.3.1/bits/stl_vector.h **** 	    _Construct(_M_finish, __x);
 5144              	LM184:
 5145 0014 8B450C   		movl	12(%ebp), %eax
 5146 0017 89442404 		movl	%eax, 4(%esp)
 5147 001b 8B4508   		movl	8(%ebp), %eax
 5148 001e 8B4004   		movl	4(%eax), %eax
 5149 0021 890424   		movl	%eax, (%esp)
 5150 0024 E8000000 		call	__ZSt10_ConstructIN10ThreadPool10ThreadDataES1_EvPT_RKT0_
 5150      00
 600:d:/MTK/MTK2503/MTK2503/11CW1418SP4_03_CORETEK03AE_11C_V1_GPRS_MMI/Tools/MinGW/include/c++/3.3.1/bits/stl_vector.h **** 	    ++_M_finish;
 5152              	LM185:
 5153 0029 8B4508   		movl	8(%ebp), %eax
 5154 002c 8340040C 		addl	$12, 4(%eax)
 5155 0030 EB27     		jmp	L192
 5156              	L193:
 601:d:/MTK/MTK2503/MTK2503/11CW1418SP4_03_CORETEK03AE_11C_V1_GPRS_MMI/Tools/MinGW/include/c++/3.3.1/bits/stl_vector.h **** 	  }
GAS LISTING d:/MTK/MTK2503/MTK2503/11CW1418SP4_03_CORETEK03AE_11C_V1_GPRS_MMI/plutommi/Customer/ResGenerator/gcctmp/ccQHcaaa.s 			page 79


 602:d:/MTK/MTK2503/MTK2503/11CW1418SP4_03_CORETEK03AE_11C_V1_GPRS_MMI/Tools/MinGW/include/c++/3.3.1/bits/stl_vector.h **** 	else
 603:d:/MTK/MTK2503/MTK2503/11CW1418SP4_03_CORETEK03AE_11C_V1_GPRS_MMI/Tools/MinGW/include/c++/3.3.1/bits/stl_vector.h **** 	  _M_insert_aux(end(), __x);
 5158              	LM186:
 5159 0032 8B4508   		movl	8(%ebp), %eax
 5160 0035 890424   		movl	%eax, (%esp)
 5161 0038 E8000000 		call	__ZNSt6vectorIN10ThreadPool10ThreadDataESaIS1_EE3endEv
 5161      00
 5162 003d 8945FC   		movl	%eax, -4(%ebp)
 5163 0040 8B450C   		movl	12(%ebp), %eax
 5164 0043 89442408 		movl	%eax, 8(%esp)
 5165 0047 8B45FC   		movl	-4(%ebp), %eax
 5166 004a 89442404 		movl	%eax, 4(%esp)
 5167 004e 8B4508   		movl	8(%ebp), %eax
 5168 0051 890424   		movl	%eax, (%esp)
 5169 0054 E8000000 		call	__ZNSt6vectorIN10ThreadPool10ThreadDataESaIS1_EE13_M_insert_auxEN9__gnu_cxx17__normal_iterato
 5169      00
 5170              	L192:
 5171 0059 C9       		leave
 5172 005a C3       		ret
 5173              	LBE40:
 5174              	Lscope19:
 5176 005b 90       		.section	.text$_ZNSt6vectorIN10ThreadPool10ThreadDataESaIS1_EE5beginEv,"x"
 5177              		.linkonce discard
 5178              		.align 2
 5181              	.globl __ZNSt6vectorIN10ThreadPool10ThreadDataESaIS1_EE5beginEv
 5183              	__ZNSt6vectorIN10ThreadPool10ThreadDataESaIS1_EE5beginEv:
 5185              	LM187:
 5186 0000 55       		pushl	%ebp
 5187 0001 89E5     		movl	%esp, %ebp
 5188 0003 83EC18   		subl	$24, %esp
 5190              	LM188:
 5191              	LBB41:
 5192 0006 8B4508   		movl	8(%ebp), %eax
 5193 0009 89442404 		movl	%eax, 4(%esp)
 5194 000d 8D45FC   		leal	-4(%ebp), %eax
 5195 0010 890424   		movl	%eax, (%esp)
 5196 0013 E8000000 		call	__ZN9__gnu_cxx17__normal_iteratorIPN10ThreadPool10ThreadDataESt6vectorIS2_SaIS2_EEEC1ERKS3_
 5196      00
 5197 0018 8B45FC   		movl	-4(%ebp), %eax
 5198 001b C9       		leave
 5199 001c C3       		ret
 5200              	LBE41:
 5201              	Lscope20:
 5203 001d 909090   		.section	.text$_ZN9__gnu_cxxneIPN10ThreadPool10ThreadDataESt6vectorIS2_SaIS2_EEEEbRKNS_17__normal_
 5204              		.linkonce discard
 5205              		.align 2
 5209              	.globl __ZN9__gnu_cxxneIPN10ThreadPool10ThreadDataESt6vectorIS2_SaIS2_EEEEbRKNS_17__normal_iterator
 5211              	__ZN9__gnu_cxxneIPN10ThreadPool10ThreadDataESt6vectorIS2_SaIS2_EEEEbRKNS_17__normal_iteratorIT_T0_E
 5213              	Ltext5:
   1:d:/MTK/MTK2503/MTK2503/11CW1418SP4_03_CORETEK03AE_11C_V1_GPRS_MMI/Tools/MinGW/include/c++/3.3.1/bits/stl_iterator.h **** // Iterators -*- C++ -*-
   2:d:/MTK/MTK2503/MTK2503/11CW1418SP4_03_CORETEK03AE_11C_V1_GPRS_MMI/Tools/MinGW/include/c++/3.3.1/bits/stl_iterator.h **** 
   3:d:/MTK/MTK2503/MTK2503/11CW1418SP4_03_CORETEK03AE_11C_V1_GPRS_MMI/Tools/MinGW/include/c++/3.3.1/bits/stl_iterator.h **** // Copyright (C) 2001, 2002 Free Software Foundation, Inc.
   4:d:/MTK/MTK2503/MTK2503/11CW1418SP4_03_CORETEK03AE_11C_V1_GPRS_MMI/Tools/MinGW/include/c++/3.3.1/bits/stl_iterator.h **** //
   5:d:/MTK/MTK2503/MTK2503/11CW1418SP4_03_CORETEK03AE_11C_V1_GPRS_MMI/Tools/MinGW/include/c++/3.3.1/bits/stl_iterator.h **** // This file is part of the GNU ISO C++ Library.  This library is free
   6:d:/MTK/MTK2503/MTK2503/11CW1418SP4_03_CORETEK03AE_11C_V1_GPRS_MMI/Tools/MinGW/include/c++/3.3.1/bits/stl_iterator.h **** // software; you can redistribute it and/or modify it under the
   7:d:/MTK/MTK2503/MTK2503/11CW1418SP4_03_CORETEK03AE_11C_V1_GPRS_MMI/Tools/MinGW/include/c++/3.3.1/bits/stl_iterator.h **** // terms of the GNU General Public License as published by the
   8:d:/MTK/MTK2503/MTK2503/11CW1418SP4_03_CORETEK03AE_11C_V1_GPRS_MMI/Tools/MinGW/include/c++/3.3.1/bits/stl_iterator.h **** // Free Software Foundation; either version 2, or (at your option)
GAS LISTING d:/MTK/MTK2503/MTK2503/11CW1418SP4_03_CORETEK03AE_11C_V1_GPRS_MMI/plutommi/Customer/ResGenerator/gcctmp/ccQHcaaa.s 			page 80


   9:d:/MTK/MTK2503/MTK2503/11CW1418SP4_03_CORETEK03AE_11C_V1_GPRS_MMI/Tools/MinGW/include/c++/3.3.1/bits/stl_iterator.h **** // any later version.
  10:d:/MTK/MTK2503/MTK2503/11CW1418SP4_03_CORETEK03AE_11C_V1_GPRS_MMI/Tools/MinGW/include/c++/3.3.1/bits/stl_iterator.h **** 
  11:d:/MTK/MTK2503/MTK2503/11CW1418SP4_03_CORETEK03AE_11C_V1_GPRS_MMI/Tools/MinGW/include/c++/3.3.1/bits/stl_iterator.h **** // This library is distributed in the hope that it will be useful,
  12:d:/MTK/MTK2503/MTK2503/11CW1418SP4_03_CORETEK03AE_11C_V1_GPRS_MMI/Tools/MinGW/include/c++/3.3.1/bits/stl_iterator.h **** // but WITHOUT ANY WARRANTY; without even the implied warranty of
  13:d:/MTK/MTK2503/MTK2503/11CW1418SP4_03_CORETEK03AE_11C_V1_GPRS_MMI/Tools/MinGW/include/c++/3.3.1/bits/stl_iterator.h **** // MERCHANTABILITY or FITNESS FOR A PARTICULAR PURPOSE.  See the
  14:d:/MTK/MTK2503/MTK2503/11CW1418SP4_03_CORETEK03AE_11C_V1_GPRS_MMI/Tools/MinGW/include/c++/3.3.1/bits/stl_iterator.h **** // GNU General Public License for more details.
  15:d:/MTK/MTK2503/MTK2503/11CW1418SP4_03_CORETEK03AE_11C_V1_GPRS_MMI/Tools/MinGW/include/c++/3.3.1/bits/stl_iterator.h **** 
  16:d:/MTK/MTK2503/MTK2503/11CW1418SP4_03_CORETEK03AE_11C_V1_GPRS_MMI/Tools/MinGW/include/c++/3.3.1/bits/stl_iterator.h **** // You should have received a copy of the GNU General Public License along
  17:d:/MTK/MTK2503/MTK2503/11CW1418SP4_03_CORETEK03AE_11C_V1_GPRS_MMI/Tools/MinGW/include/c++/3.3.1/bits/stl_iterator.h **** // with this library; see the file COPYING.  If not, write to the Free
  18:d:/MTK/MTK2503/MTK2503/11CW1418SP4_03_CORETEK03AE_11C_V1_GPRS_MMI/Tools/MinGW/include/c++/3.3.1/bits/stl_iterator.h **** // Software Foundation, 59 Temple Place - Suite 330, Boston, MA 02111-1307,
  19:d:/MTK/MTK2503/MTK2503/11CW1418SP4_03_CORETEK03AE_11C_V1_GPRS_MMI/Tools/MinGW/include/c++/3.3.1/bits/stl_iterator.h **** // USA.
  20:d:/MTK/MTK2503/MTK2503/11CW1418SP4_03_CORETEK03AE_11C_V1_GPRS_MMI/Tools/MinGW/include/c++/3.3.1/bits/stl_iterator.h **** 
  21:d:/MTK/MTK2503/MTK2503/11CW1418SP4_03_CORETEK03AE_11C_V1_GPRS_MMI/Tools/MinGW/include/c++/3.3.1/bits/stl_iterator.h **** // As a special exception, you may use this file as part of a free software
  22:d:/MTK/MTK2503/MTK2503/11CW1418SP4_03_CORETEK03AE_11C_V1_GPRS_MMI/Tools/MinGW/include/c++/3.3.1/bits/stl_iterator.h **** // library without restriction.  Specifically, if other files instantiate
  23:d:/MTK/MTK2503/MTK2503/11CW1418SP4_03_CORETEK03AE_11C_V1_GPRS_MMI/Tools/MinGW/include/c++/3.3.1/bits/stl_iterator.h **** // templates or use macros or inline functions from this file, or you compile
  24:d:/MTK/MTK2503/MTK2503/11CW1418SP4_03_CORETEK03AE_11C_V1_GPRS_MMI/Tools/MinGW/include/c++/3.3.1/bits/stl_iterator.h **** // this file and link it with other files to produce an executable, this
  25:d:/MTK/MTK2503/MTK2503/11CW1418SP4_03_CORETEK03AE_11C_V1_GPRS_MMI/Tools/MinGW/include/c++/3.3.1/bits/stl_iterator.h **** // file does not by itself cause the resulting executable to be covered by
  26:d:/MTK/MTK2503/MTK2503/11CW1418SP4_03_CORETEK03AE_11C_V1_GPRS_MMI/Tools/MinGW/include/c++/3.3.1/bits/stl_iterator.h **** // the GNU General Public License.  This exception does not however
  27:d:/MTK/MTK2503/MTK2503/11CW1418SP4_03_CORETEK03AE_11C_V1_GPRS_MMI/Tools/MinGW/include/c++/3.3.1/bits/stl_iterator.h **** // invalidate any other reasons why the executable file might be covered by
  28:d:/MTK/MTK2503/MTK2503/11CW1418SP4_03_CORETEK03AE_11C_V1_GPRS_MMI/Tools/MinGW/include/c++/3.3.1/bits/stl_iterator.h **** // the GNU General Public License.
  29:d:/MTK/MTK2503/MTK2503/11CW1418SP4_03_CORETEK03AE_11C_V1_GPRS_MMI/Tools/MinGW/include/c++/3.3.1/bits/stl_iterator.h **** 
  30:d:/MTK/MTK2503/MTK2503/11CW1418SP4_03_CORETEK03AE_11C_V1_GPRS_MMI/Tools/MinGW/include/c++/3.3.1/bits/stl_iterator.h **** /*
  31:d:/MTK/MTK2503/MTK2503/11CW1418SP4_03_CORETEK03AE_11C_V1_GPRS_MMI/Tools/MinGW/include/c++/3.3.1/bits/stl_iterator.h ****  *
  32:d:/MTK/MTK2503/MTK2503/11CW1418SP4_03_CORETEK03AE_11C_V1_GPRS_MMI/Tools/MinGW/include/c++/3.3.1/bits/stl_iterator.h ****  * Copyright (c) 1994
  33:d:/MTK/MTK2503/MTK2503/11CW1418SP4_03_CORETEK03AE_11C_V1_GPRS_MMI/Tools/MinGW/include/c++/3.3.1/bits/stl_iterator.h ****  * Hewlett-Packard Company
  34:d:/MTK/MTK2503/MTK2503/11CW1418SP4_03_CORETEK03AE_11C_V1_GPRS_MMI/Tools/MinGW/include/c++/3.3.1/bits/stl_iterator.h ****  *
  35:d:/MTK/MTK2503/MTK2503/11CW1418SP4_03_CORETEK03AE_11C_V1_GPRS_MMI/Tools/MinGW/include/c++/3.3.1/bits/stl_iterator.h ****  * Permission to use, copy, modify, distribute and sell this software
  36:d:/MTK/MTK2503/MTK2503/11CW1418SP4_03_CORETEK03AE_11C_V1_GPRS_MMI/Tools/MinGW/include/c++/3.3.1/bits/stl_iterator.h ****  * and its documentation for any purpose is hereby granted without fee,
  37:d:/MTK/MTK2503/MTK2503/11CW1418SP4_03_CORETEK03AE_11C_V1_GPRS_MMI/Tools/MinGW/include/c++/3.3.1/bits/stl_iterator.h ****  * provided that the above copyright notice appear in all copies and
  38:d:/MTK/MTK2503/MTK2503/11CW1418SP4_03_CORETEK03AE_11C_V1_GPRS_MMI/Tools/MinGW/include/c++/3.3.1/bits/stl_iterator.h ****  * that both that copyright notice and this permission notice appear
  39:d:/MTK/MTK2503/MTK2503/11CW1418SP4_03_CORETEK03AE_11C_V1_GPRS_MMI/Tools/MinGW/include/c++/3.3.1/bits/stl_iterator.h ****  * in supporting documentation.  Hewlett-Packard Company makes no
  40:d:/MTK/MTK2503/MTK2503/11CW1418SP4_03_CORETEK03AE_11C_V1_GPRS_MMI/Tools/MinGW/include/c++/3.3.1/bits/stl_iterator.h ****  * representations about the suitability of this software for any
  41:d:/MTK/MTK2503/MTK2503/11CW1418SP4_03_CORETEK03AE_11C_V1_GPRS_MMI/Tools/MinGW/include/c++/3.3.1/bits/stl_iterator.h ****  * purpose.  It is provided "as is" without express or implied warranty.
  42:d:/MTK/MTK2503/MTK2503/11CW1418SP4_03_CORETEK03AE_11C_V1_GPRS_MMI/Tools/MinGW/include/c++/3.3.1/bits/stl_iterator.h ****  *
  43:d:/MTK/MTK2503/MTK2503/11CW1418SP4_03_CORETEK03AE_11C_V1_GPRS_MMI/Tools/MinGW/include/c++/3.3.1/bits/stl_iterator.h ****  *
  44:d:/MTK/MTK2503/MTK2503/11CW1418SP4_03_CORETEK03AE_11C_V1_GPRS_MMI/Tools/MinGW/include/c++/3.3.1/bits/stl_iterator.h ****  * Copyright (c) 1996-1998
  45:d:/MTK/MTK2503/MTK2503/11CW1418SP4_03_CORETEK03AE_11C_V1_GPRS_MMI/Tools/MinGW/include/c++/3.3.1/bits/stl_iterator.h ****  * Silicon Graphics Computer Systems, Inc.
  46:d:/MTK/MTK2503/MTK2503/11CW1418SP4_03_CORETEK03AE_11C_V1_GPRS_MMI/Tools/MinGW/include/c++/3.3.1/bits/stl_iterator.h ****  *
  47:d:/MTK/MTK2503/MTK2503/11CW1418SP4_03_CORETEK03AE_11C_V1_GPRS_MMI/Tools/MinGW/include/c++/3.3.1/bits/stl_iterator.h ****  * Permission to use, copy, modify, distribute and sell this software
  48:d:/MTK/MTK2503/MTK2503/11CW1418SP4_03_CORETEK03AE_11C_V1_GPRS_MMI/Tools/MinGW/include/c++/3.3.1/bits/stl_iterator.h ****  * and its documentation for any purpose is hereby granted without fee,
  49:d:/MTK/MTK2503/MTK2503/11CW1418SP4_03_CORETEK03AE_11C_V1_GPRS_MMI/Tools/MinGW/include/c++/3.3.1/bits/stl_iterator.h ****  * provided that the above copyright notice appear in all copies and
  50:d:/MTK/MTK2503/MTK2503/11CW1418SP4_03_CORETEK03AE_11C_V1_GPRS_MMI/Tools/MinGW/include/c++/3.3.1/bits/stl_iterator.h ****  * that both that copyright notice and this permission notice appear
  51:d:/MTK/MTK2503/MTK2503/11CW1418SP4_03_CORETEK03AE_11C_V1_GPRS_MMI/Tools/MinGW/include/c++/3.3.1/bits/stl_iterator.h ****  * in supporting documentation.  Silicon Graphics makes no
  52:d:/MTK/MTK2503/MTK2503/11CW1418SP4_03_CORETEK03AE_11C_V1_GPRS_MMI/Tools/MinGW/include/c++/3.3.1/bits/stl_iterator.h ****  * representations about the suitability of this software for any
  53:d:/MTK/MTK2503/MTK2503/11CW1418SP4_03_CORETEK03AE_11C_V1_GPRS_MMI/Tools/MinGW/include/c++/3.3.1/bits/stl_iterator.h ****  * purpose.  It is provided "as is" without express or implied warranty.
  54:d:/MTK/MTK2503/MTK2503/11CW1418SP4_03_CORETEK03AE_11C_V1_GPRS_MMI/Tools/MinGW/include/c++/3.3.1/bits/stl_iterator.h ****  */
  55:d:/MTK/MTK2503/MTK2503/11CW1418SP4_03_CORETEK03AE_11C_V1_GPRS_MMI/Tools/MinGW/include/c++/3.3.1/bits/stl_iterator.h **** 
  56:d:/MTK/MTK2503/MTK2503/11CW1418SP4_03_CORETEK03AE_11C_V1_GPRS_MMI/Tools/MinGW/include/c++/3.3.1/bits/stl_iterator.h **** /** @file stl_iterator.h
  57:d:/MTK/MTK2503/MTK2503/11CW1418SP4_03_CORETEK03AE_11C_V1_GPRS_MMI/Tools/MinGW/include/c++/3.3.1/bits/stl_iterator.h ****  *  This is an internal header file, included by other library headers.
  58:d:/MTK/MTK2503/MTK2503/11CW1418SP4_03_CORETEK03AE_11C_V1_GPRS_MMI/Tools/MinGW/include/c++/3.3.1/bits/stl_iterator.h ****  *  You should not attempt to use it directly.
  59:d:/MTK/MTK2503/MTK2503/11CW1418SP4_03_CORETEK03AE_11C_V1_GPRS_MMI/Tools/MinGW/include/c++/3.3.1/bits/stl_iterator.h ****  *
  60:d:/MTK/MTK2503/MTK2503/11CW1418SP4_03_CORETEK03AE_11C_V1_GPRS_MMI/Tools/MinGW/include/c++/3.3.1/bits/stl_iterator.h ****  *  This file implements reverse_iterator, back_insert_iterator,
  61:d:/MTK/MTK2503/MTK2503/11CW1418SP4_03_CORETEK03AE_11C_V1_GPRS_MMI/Tools/MinGW/include/c++/3.3.1/bits/stl_iterator.h ****  *  front_insert_iterator, insert_iterator, __normal_iterator, and their
  62:d:/MTK/MTK2503/MTK2503/11CW1418SP4_03_CORETEK03AE_11C_V1_GPRS_MMI/Tools/MinGW/include/c++/3.3.1/bits/stl_iterator.h ****  *  supporting functions and overloaded operators.
  63:d:/MTK/MTK2503/MTK2503/11CW1418SP4_03_CORETEK03AE_11C_V1_GPRS_MMI/Tools/MinGW/include/c++/3.3.1/bits/stl_iterator.h ****  */
  64:d:/MTK/MTK2503/MTK2503/11CW1418SP4_03_CORETEK03AE_11C_V1_GPRS_MMI/Tools/MinGW/include/c++/3.3.1/bits/stl_iterator.h **** 
  65:d:/MTK/MTK2503/MTK2503/11CW1418SP4_03_CORETEK03AE_11C_V1_GPRS_MMI/Tools/MinGW/include/c++/3.3.1/bits/stl_iterator.h **** #ifndef __GLIBCPP_INTERNAL_ITERATOR_H
GAS LISTING d:/MTK/MTK2503/MTK2503/11CW1418SP4_03_CORETEK03AE_11C_V1_GPRS_MMI/plutommi/Customer/ResGenerator/gcctmp/ccQHcaaa.s 			page 81


  66:d:/MTK/MTK2503/MTK2503/11CW1418SP4_03_CORETEK03AE_11C_V1_GPRS_MMI/Tools/MinGW/include/c++/3.3.1/bits/stl_iterator.h **** #define __GLIBCPP_INTERNAL_ITERATOR_H
  67:d:/MTK/MTK2503/MTK2503/11CW1418SP4_03_CORETEK03AE_11C_V1_GPRS_MMI/Tools/MinGW/include/c++/3.3.1/bits/stl_iterator.h **** 
  68:d:/MTK/MTK2503/MTK2503/11CW1418SP4_03_CORETEK03AE_11C_V1_GPRS_MMI/Tools/MinGW/include/c++/3.3.1/bits/stl_iterator.h **** namespace std
  69:d:/MTK/MTK2503/MTK2503/11CW1418SP4_03_CORETEK03AE_11C_V1_GPRS_MMI/Tools/MinGW/include/c++/3.3.1/bits/stl_iterator.h **** {
  70:d:/MTK/MTK2503/MTK2503/11CW1418SP4_03_CORETEK03AE_11C_V1_GPRS_MMI/Tools/MinGW/include/c++/3.3.1/bits/stl_iterator.h ****   // 24.4.1 Reverse iterators
  71:d:/MTK/MTK2503/MTK2503/11CW1418SP4_03_CORETEK03AE_11C_V1_GPRS_MMI/Tools/MinGW/include/c++/3.3.1/bits/stl_iterator.h ****   /**
  72:d:/MTK/MTK2503/MTK2503/11CW1418SP4_03_CORETEK03AE_11C_V1_GPRS_MMI/Tools/MinGW/include/c++/3.3.1/bits/stl_iterator.h ****    *  "Bidirectional and random access iterators have corresponding reverse
  73:d:/MTK/MTK2503/MTK2503/11CW1418SP4_03_CORETEK03AE_11C_V1_GPRS_MMI/Tools/MinGW/include/c++/3.3.1/bits/stl_iterator.h ****    *  %iterator adaptors that iterate through the data structure in the
  74:d:/MTK/MTK2503/MTK2503/11CW1418SP4_03_CORETEK03AE_11C_V1_GPRS_MMI/Tools/MinGW/include/c++/3.3.1/bits/stl_iterator.h ****    *  opposite direction.  They have the same signatures as the corresponding
  75:d:/MTK/MTK2503/MTK2503/11CW1418SP4_03_CORETEK03AE_11C_V1_GPRS_MMI/Tools/MinGW/include/c++/3.3.1/bits/stl_iterator.h ****    *  iterators.  The fundamental relation between a reverse %iterator and its
  76:d:/MTK/MTK2503/MTK2503/11CW1418SP4_03_CORETEK03AE_11C_V1_GPRS_MMI/Tools/MinGW/include/c++/3.3.1/bits/stl_iterator.h ****    *  corresponding %iterator @c i is established by the identity:
  77:d:/MTK/MTK2503/MTK2503/11CW1418SP4_03_CORETEK03AE_11C_V1_GPRS_MMI/Tools/MinGW/include/c++/3.3.1/bits/stl_iterator.h ****    *  @code
  78:d:/MTK/MTK2503/MTK2503/11CW1418SP4_03_CORETEK03AE_11C_V1_GPRS_MMI/Tools/MinGW/include/c++/3.3.1/bits/stl_iterator.h ****    *      &*(reverse_iterator(i)) == &*(i - 1)
  79:d:/MTK/MTK2503/MTK2503/11CW1418SP4_03_CORETEK03AE_11C_V1_GPRS_MMI/Tools/MinGW/include/c++/3.3.1/bits/stl_iterator.h ****    *  @endcode
  80:d:/MTK/MTK2503/MTK2503/11CW1418SP4_03_CORETEK03AE_11C_V1_GPRS_MMI/Tools/MinGW/include/c++/3.3.1/bits/stl_iterator.h ****    *
  81:d:/MTK/MTK2503/MTK2503/11CW1418SP4_03_CORETEK03AE_11C_V1_GPRS_MMI/Tools/MinGW/include/c++/3.3.1/bits/stl_iterator.h ****    *  This mapping is dictated by the fact that while there is always a
  82:d:/MTK/MTK2503/MTK2503/11CW1418SP4_03_CORETEK03AE_11C_V1_GPRS_MMI/Tools/MinGW/include/c++/3.3.1/bits/stl_iterator.h ****    *  pointer past the end of an array, there might not be a valid pointer
  83:d:/MTK/MTK2503/MTK2503/11CW1418SP4_03_CORETEK03AE_11C_V1_GPRS_MMI/Tools/MinGW/include/c++/3.3.1/bits/stl_iterator.h ****    *  before the beginning of an array." [24.4.1]/1,2
  84:d:/MTK/MTK2503/MTK2503/11CW1418SP4_03_CORETEK03AE_11C_V1_GPRS_MMI/Tools/MinGW/include/c++/3.3.1/bits/stl_iterator.h ****    *
  85:d:/MTK/MTK2503/MTK2503/11CW1418SP4_03_CORETEK03AE_11C_V1_GPRS_MMI/Tools/MinGW/include/c++/3.3.1/bits/stl_iterator.h ****    *  Reverse iterators can be tricky and surprising at first.  Their
  86:d:/MTK/MTK2503/MTK2503/11CW1418SP4_03_CORETEK03AE_11C_V1_GPRS_MMI/Tools/MinGW/include/c++/3.3.1/bits/stl_iterator.h ****    *  semantics make sense, however, and the trickiness is a side effect of
  87:d:/MTK/MTK2503/MTK2503/11CW1418SP4_03_CORETEK03AE_11C_V1_GPRS_MMI/Tools/MinGW/include/c++/3.3.1/bits/stl_iterator.h ****    *  the requirement that the iterators must be safe.
  88:d:/MTK/MTK2503/MTK2503/11CW1418SP4_03_CORETEK03AE_11C_V1_GPRS_MMI/Tools/MinGW/include/c++/3.3.1/bits/stl_iterator.h ****   */
  89:d:/MTK/MTK2503/MTK2503/11CW1418SP4_03_CORETEK03AE_11C_V1_GPRS_MMI/Tools/MinGW/include/c++/3.3.1/bits/stl_iterator.h ****   template<typename _Iterator>
  90:d:/MTK/MTK2503/MTK2503/11CW1418SP4_03_CORETEK03AE_11C_V1_GPRS_MMI/Tools/MinGW/include/c++/3.3.1/bits/stl_iterator.h ****     class reverse_iterator 
  91:d:/MTK/MTK2503/MTK2503/11CW1418SP4_03_CORETEK03AE_11C_V1_GPRS_MMI/Tools/MinGW/include/c++/3.3.1/bits/stl_iterator.h ****     : public iterator<typename iterator_traits<_Iterator>::iterator_category,
  92:d:/MTK/MTK2503/MTK2503/11CW1418SP4_03_CORETEK03AE_11C_V1_GPRS_MMI/Tools/MinGW/include/c++/3.3.1/bits/stl_iterator.h **** 		      typename iterator_traits<_Iterator>::value_type,
  93:d:/MTK/MTK2503/MTK2503/11CW1418SP4_03_CORETEK03AE_11C_V1_GPRS_MMI/Tools/MinGW/include/c++/3.3.1/bits/stl_iterator.h **** 		      typename iterator_traits<_Iterator>::difference_type,
  94:d:/MTK/MTK2503/MTK2503/11CW1418SP4_03_CORETEK03AE_11C_V1_GPRS_MMI/Tools/MinGW/include/c++/3.3.1/bits/stl_iterator.h **** 		      typename iterator_traits<_Iterator>::pointer,
  95:d:/MTK/MTK2503/MTK2503/11CW1418SP4_03_CORETEK03AE_11C_V1_GPRS_MMI/Tools/MinGW/include/c++/3.3.1/bits/stl_iterator.h ****                       typename iterator_traits<_Iterator>::reference>
  96:d:/MTK/MTK2503/MTK2503/11CW1418SP4_03_CORETEK03AE_11C_V1_GPRS_MMI/Tools/MinGW/include/c++/3.3.1/bits/stl_iterator.h ****     {
  97:d:/MTK/MTK2503/MTK2503/11CW1418SP4_03_CORETEK03AE_11C_V1_GPRS_MMI/Tools/MinGW/include/c++/3.3.1/bits/stl_iterator.h ****     protected:
  98:d:/MTK/MTK2503/MTK2503/11CW1418SP4_03_CORETEK03AE_11C_V1_GPRS_MMI/Tools/MinGW/include/c++/3.3.1/bits/stl_iterator.h ****       _Iterator current;
  99:d:/MTK/MTK2503/MTK2503/11CW1418SP4_03_CORETEK03AE_11C_V1_GPRS_MMI/Tools/MinGW/include/c++/3.3.1/bits/stl_iterator.h **** 
 100:d:/MTK/MTK2503/MTK2503/11CW1418SP4_03_CORETEK03AE_11C_V1_GPRS_MMI/Tools/MinGW/include/c++/3.3.1/bits/stl_iterator.h ****     public:
 101:d:/MTK/MTK2503/MTK2503/11CW1418SP4_03_CORETEK03AE_11C_V1_GPRS_MMI/Tools/MinGW/include/c++/3.3.1/bits/stl_iterator.h ****       typedef _Iterator 				       iterator_type;
 102:d:/MTK/MTK2503/MTK2503/11CW1418SP4_03_CORETEK03AE_11C_V1_GPRS_MMI/Tools/MinGW/include/c++/3.3.1/bits/stl_iterator.h ****       typedef typename iterator_traits<_Iterator>::difference_type 	
 103:d:/MTK/MTK2503/MTK2503/11CW1418SP4_03_CORETEK03AE_11C_V1_GPRS_MMI/Tools/MinGW/include/c++/3.3.1/bits/stl_iterator.h ****       							       difference_type;
 104:d:/MTK/MTK2503/MTK2503/11CW1418SP4_03_CORETEK03AE_11C_V1_GPRS_MMI/Tools/MinGW/include/c++/3.3.1/bits/stl_iterator.h ****       typedef typename iterator_traits<_Iterator>::reference   reference;
 105:d:/MTK/MTK2503/MTK2503/11CW1418SP4_03_CORETEK03AE_11C_V1_GPRS_MMI/Tools/MinGW/include/c++/3.3.1/bits/stl_iterator.h ****       typedef typename iterator_traits<_Iterator>::pointer     pointer;
 106:d:/MTK/MTK2503/MTK2503/11CW1418SP4_03_CORETEK03AE_11C_V1_GPRS_MMI/Tools/MinGW/include/c++/3.3.1/bits/stl_iterator.h **** 
 107:d:/MTK/MTK2503/MTK2503/11CW1418SP4_03_CORETEK03AE_11C_V1_GPRS_MMI/Tools/MinGW/include/c++/3.3.1/bits/stl_iterator.h ****     public:
 108:d:/MTK/MTK2503/MTK2503/11CW1418SP4_03_CORETEK03AE_11C_V1_GPRS_MMI/Tools/MinGW/include/c++/3.3.1/bits/stl_iterator.h ****       /**
 109:d:/MTK/MTK2503/MTK2503/11CW1418SP4_03_CORETEK03AE_11C_V1_GPRS_MMI/Tools/MinGW/include/c++/3.3.1/bits/stl_iterator.h ****        *  The default constructor default-initializes member @p current.
 110:d:/MTK/MTK2503/MTK2503/11CW1418SP4_03_CORETEK03AE_11C_V1_GPRS_MMI/Tools/MinGW/include/c++/3.3.1/bits/stl_iterator.h ****        *  If it is a pointer, that means it is zero-initialized.
 111:d:/MTK/MTK2503/MTK2503/11CW1418SP4_03_CORETEK03AE_11C_V1_GPRS_MMI/Tools/MinGW/include/c++/3.3.1/bits/stl_iterator.h ****       */
 112:d:/MTK/MTK2503/MTK2503/11CW1418SP4_03_CORETEK03AE_11C_V1_GPRS_MMI/Tools/MinGW/include/c++/3.3.1/bits/stl_iterator.h ****       // _GLIBCPP_RESOLVE_LIB_DEFECTS
 113:d:/MTK/MTK2503/MTK2503/11CW1418SP4_03_CORETEK03AE_11C_V1_GPRS_MMI/Tools/MinGW/include/c++/3.3.1/bits/stl_iterator.h ****       // 235 No specification of default ctor for reverse_iterator
 114:d:/MTK/MTK2503/MTK2503/11CW1418SP4_03_CORETEK03AE_11C_V1_GPRS_MMI/Tools/MinGW/include/c++/3.3.1/bits/stl_iterator.h ****       reverse_iterator() : current() { }
 115:d:/MTK/MTK2503/MTK2503/11CW1418SP4_03_CORETEK03AE_11C_V1_GPRS_MMI/Tools/MinGW/include/c++/3.3.1/bits/stl_iterator.h **** 
 116:d:/MTK/MTK2503/MTK2503/11CW1418SP4_03_CORETEK03AE_11C_V1_GPRS_MMI/Tools/MinGW/include/c++/3.3.1/bits/stl_iterator.h ****       /**
 117:d:/MTK/MTK2503/MTK2503/11CW1418SP4_03_CORETEK03AE_11C_V1_GPRS_MMI/Tools/MinGW/include/c++/3.3.1/bits/stl_iterator.h ****        *  This %iterator will move in the opposite direction that @p x does.
 118:d:/MTK/MTK2503/MTK2503/11CW1418SP4_03_CORETEK03AE_11C_V1_GPRS_MMI/Tools/MinGW/include/c++/3.3.1/bits/stl_iterator.h ****       */
 119:d:/MTK/MTK2503/MTK2503/11CW1418SP4_03_CORETEK03AE_11C_V1_GPRS_MMI/Tools/MinGW/include/c++/3.3.1/bits/stl_iterator.h ****       explicit 
 120:d:/MTK/MTK2503/MTK2503/11CW1418SP4_03_CORETEK03AE_11C_V1_GPRS_MMI/Tools/MinGW/include/c++/3.3.1/bits/stl_iterator.h ****       reverse_iterator(iterator_type __x) : current(__x) { }
 121:d:/MTK/MTK2503/MTK2503/11CW1418SP4_03_CORETEK03AE_11C_V1_GPRS_MMI/Tools/MinGW/include/c++/3.3.1/bits/stl_iterator.h **** 
 122:d:/MTK/MTK2503/MTK2503/11CW1418SP4_03_CORETEK03AE_11C_V1_GPRS_MMI/Tools/MinGW/include/c++/3.3.1/bits/stl_iterator.h ****       /**
GAS LISTING d:/MTK/MTK2503/MTK2503/11CW1418SP4_03_CORETEK03AE_11C_V1_GPRS_MMI/plutommi/Customer/ResGenerator/gcctmp/ccQHcaaa.s 			page 82


 123:d:/MTK/MTK2503/MTK2503/11CW1418SP4_03_CORETEK03AE_11C_V1_GPRS_MMI/Tools/MinGW/include/c++/3.3.1/bits/stl_iterator.h ****        *  The copy constructor is normal.
 124:d:/MTK/MTK2503/MTK2503/11CW1418SP4_03_CORETEK03AE_11C_V1_GPRS_MMI/Tools/MinGW/include/c++/3.3.1/bits/stl_iterator.h ****       */
 125:d:/MTK/MTK2503/MTK2503/11CW1418SP4_03_CORETEK03AE_11C_V1_GPRS_MMI/Tools/MinGW/include/c++/3.3.1/bits/stl_iterator.h ****       reverse_iterator(const reverse_iterator& __x) 
 126:d:/MTK/MTK2503/MTK2503/11CW1418SP4_03_CORETEK03AE_11C_V1_GPRS_MMI/Tools/MinGW/include/c++/3.3.1/bits/stl_iterator.h ****       : current(__x.current) { }
 127:d:/MTK/MTK2503/MTK2503/11CW1418SP4_03_CORETEK03AE_11C_V1_GPRS_MMI/Tools/MinGW/include/c++/3.3.1/bits/stl_iterator.h **** 
 128:d:/MTK/MTK2503/MTK2503/11CW1418SP4_03_CORETEK03AE_11C_V1_GPRS_MMI/Tools/MinGW/include/c++/3.3.1/bits/stl_iterator.h ****       /**
 129:d:/MTK/MTK2503/MTK2503/11CW1418SP4_03_CORETEK03AE_11C_V1_GPRS_MMI/Tools/MinGW/include/c++/3.3.1/bits/stl_iterator.h ****        *  A reverse_iterator across other types can be copied in the normal
 130:d:/MTK/MTK2503/MTK2503/11CW1418SP4_03_CORETEK03AE_11C_V1_GPRS_MMI/Tools/MinGW/include/c++/3.3.1/bits/stl_iterator.h ****        *  fashion.
 131:d:/MTK/MTK2503/MTK2503/11CW1418SP4_03_CORETEK03AE_11C_V1_GPRS_MMI/Tools/MinGW/include/c++/3.3.1/bits/stl_iterator.h ****       */
 132:d:/MTK/MTK2503/MTK2503/11CW1418SP4_03_CORETEK03AE_11C_V1_GPRS_MMI/Tools/MinGW/include/c++/3.3.1/bits/stl_iterator.h ****       template<typename _Iter>
 133:d:/MTK/MTK2503/MTK2503/11CW1418SP4_03_CORETEK03AE_11C_V1_GPRS_MMI/Tools/MinGW/include/c++/3.3.1/bits/stl_iterator.h ****         reverse_iterator(const reverse_iterator<_Iter>& __x)
 134:d:/MTK/MTK2503/MTK2503/11CW1418SP4_03_CORETEK03AE_11C_V1_GPRS_MMI/Tools/MinGW/include/c++/3.3.1/bits/stl_iterator.h **** 	: current(__x.base()) { }
 135:d:/MTK/MTK2503/MTK2503/11CW1418SP4_03_CORETEK03AE_11C_V1_GPRS_MMI/Tools/MinGW/include/c++/3.3.1/bits/stl_iterator.h ****     
 136:d:/MTK/MTK2503/MTK2503/11CW1418SP4_03_CORETEK03AE_11C_V1_GPRS_MMI/Tools/MinGW/include/c++/3.3.1/bits/stl_iterator.h ****       /**
 137:d:/MTK/MTK2503/MTK2503/11CW1418SP4_03_CORETEK03AE_11C_V1_GPRS_MMI/Tools/MinGW/include/c++/3.3.1/bits/stl_iterator.h ****        *  @return  @c current, the %iterator used for underlying work.
 138:d:/MTK/MTK2503/MTK2503/11CW1418SP4_03_CORETEK03AE_11C_V1_GPRS_MMI/Tools/MinGW/include/c++/3.3.1/bits/stl_iterator.h ****       */
 139:d:/MTK/MTK2503/MTK2503/11CW1418SP4_03_CORETEK03AE_11C_V1_GPRS_MMI/Tools/MinGW/include/c++/3.3.1/bits/stl_iterator.h ****       iterator_type 
 140:d:/MTK/MTK2503/MTK2503/11CW1418SP4_03_CORETEK03AE_11C_V1_GPRS_MMI/Tools/MinGW/include/c++/3.3.1/bits/stl_iterator.h ****       base() const { return current; }
 141:d:/MTK/MTK2503/MTK2503/11CW1418SP4_03_CORETEK03AE_11C_V1_GPRS_MMI/Tools/MinGW/include/c++/3.3.1/bits/stl_iterator.h **** 
 142:d:/MTK/MTK2503/MTK2503/11CW1418SP4_03_CORETEK03AE_11C_V1_GPRS_MMI/Tools/MinGW/include/c++/3.3.1/bits/stl_iterator.h ****       /**
 143:d:/MTK/MTK2503/MTK2503/11CW1418SP4_03_CORETEK03AE_11C_V1_GPRS_MMI/Tools/MinGW/include/c++/3.3.1/bits/stl_iterator.h ****        *  @return  TODO
 144:d:/MTK/MTK2503/MTK2503/11CW1418SP4_03_CORETEK03AE_11C_V1_GPRS_MMI/Tools/MinGW/include/c++/3.3.1/bits/stl_iterator.h ****        *
 145:d:/MTK/MTK2503/MTK2503/11CW1418SP4_03_CORETEK03AE_11C_V1_GPRS_MMI/Tools/MinGW/include/c++/3.3.1/bits/stl_iterator.h ****        *  @doctodo
 146:d:/MTK/MTK2503/MTK2503/11CW1418SP4_03_CORETEK03AE_11C_V1_GPRS_MMI/Tools/MinGW/include/c++/3.3.1/bits/stl_iterator.h ****       */
 147:d:/MTK/MTK2503/MTK2503/11CW1418SP4_03_CORETEK03AE_11C_V1_GPRS_MMI/Tools/MinGW/include/c++/3.3.1/bits/stl_iterator.h ****       reference 
 148:d:/MTK/MTK2503/MTK2503/11CW1418SP4_03_CORETEK03AE_11C_V1_GPRS_MMI/Tools/MinGW/include/c++/3.3.1/bits/stl_iterator.h ****       operator*() const 
 149:d:/MTK/MTK2503/MTK2503/11CW1418SP4_03_CORETEK03AE_11C_V1_GPRS_MMI/Tools/MinGW/include/c++/3.3.1/bits/stl_iterator.h ****       {
 150:d:/MTK/MTK2503/MTK2503/11CW1418SP4_03_CORETEK03AE_11C_V1_GPRS_MMI/Tools/MinGW/include/c++/3.3.1/bits/stl_iterator.h **** 	_Iterator __tmp = current;
 151:d:/MTK/MTK2503/MTK2503/11CW1418SP4_03_CORETEK03AE_11C_V1_GPRS_MMI/Tools/MinGW/include/c++/3.3.1/bits/stl_iterator.h **** 	return *--__tmp;
 152:d:/MTK/MTK2503/MTK2503/11CW1418SP4_03_CORETEK03AE_11C_V1_GPRS_MMI/Tools/MinGW/include/c++/3.3.1/bits/stl_iterator.h ****       }
 153:d:/MTK/MTK2503/MTK2503/11CW1418SP4_03_CORETEK03AE_11C_V1_GPRS_MMI/Tools/MinGW/include/c++/3.3.1/bits/stl_iterator.h **** 
 154:d:/MTK/MTK2503/MTK2503/11CW1418SP4_03_CORETEK03AE_11C_V1_GPRS_MMI/Tools/MinGW/include/c++/3.3.1/bits/stl_iterator.h ****       /**
 155:d:/MTK/MTK2503/MTK2503/11CW1418SP4_03_CORETEK03AE_11C_V1_GPRS_MMI/Tools/MinGW/include/c++/3.3.1/bits/stl_iterator.h ****        *  @return  TODO
 156:d:/MTK/MTK2503/MTK2503/11CW1418SP4_03_CORETEK03AE_11C_V1_GPRS_MMI/Tools/MinGW/include/c++/3.3.1/bits/stl_iterator.h ****        *
 157:d:/MTK/MTK2503/MTK2503/11CW1418SP4_03_CORETEK03AE_11C_V1_GPRS_MMI/Tools/MinGW/include/c++/3.3.1/bits/stl_iterator.h ****        *  @doctodo
 158:d:/MTK/MTK2503/MTK2503/11CW1418SP4_03_CORETEK03AE_11C_V1_GPRS_MMI/Tools/MinGW/include/c++/3.3.1/bits/stl_iterator.h ****       */
 159:d:/MTK/MTK2503/MTK2503/11CW1418SP4_03_CORETEK03AE_11C_V1_GPRS_MMI/Tools/MinGW/include/c++/3.3.1/bits/stl_iterator.h ****       pointer 
 160:d:/MTK/MTK2503/MTK2503/11CW1418SP4_03_CORETEK03AE_11C_V1_GPRS_MMI/Tools/MinGW/include/c++/3.3.1/bits/stl_iterator.h ****       operator->() const { return &(operator*()); }
 161:d:/MTK/MTK2503/MTK2503/11CW1418SP4_03_CORETEK03AE_11C_V1_GPRS_MMI/Tools/MinGW/include/c++/3.3.1/bits/stl_iterator.h **** 
 162:d:/MTK/MTK2503/MTK2503/11CW1418SP4_03_CORETEK03AE_11C_V1_GPRS_MMI/Tools/MinGW/include/c++/3.3.1/bits/stl_iterator.h ****       /**
 163:d:/MTK/MTK2503/MTK2503/11CW1418SP4_03_CORETEK03AE_11C_V1_GPRS_MMI/Tools/MinGW/include/c++/3.3.1/bits/stl_iterator.h ****        *  @return  TODO
 164:d:/MTK/MTK2503/MTK2503/11CW1418SP4_03_CORETEK03AE_11C_V1_GPRS_MMI/Tools/MinGW/include/c++/3.3.1/bits/stl_iterator.h ****        *
 165:d:/MTK/MTK2503/MTK2503/11CW1418SP4_03_CORETEK03AE_11C_V1_GPRS_MMI/Tools/MinGW/include/c++/3.3.1/bits/stl_iterator.h ****        *  @doctodo
 166:d:/MTK/MTK2503/MTK2503/11CW1418SP4_03_CORETEK03AE_11C_V1_GPRS_MMI/Tools/MinGW/include/c++/3.3.1/bits/stl_iterator.h ****       */
 167:d:/MTK/MTK2503/MTK2503/11CW1418SP4_03_CORETEK03AE_11C_V1_GPRS_MMI/Tools/MinGW/include/c++/3.3.1/bits/stl_iterator.h ****       reverse_iterator& 
 168:d:/MTK/MTK2503/MTK2503/11CW1418SP4_03_CORETEK03AE_11C_V1_GPRS_MMI/Tools/MinGW/include/c++/3.3.1/bits/stl_iterator.h ****       operator++() 
 169:d:/MTK/MTK2503/MTK2503/11CW1418SP4_03_CORETEK03AE_11C_V1_GPRS_MMI/Tools/MinGW/include/c++/3.3.1/bits/stl_iterator.h ****       {
 170:d:/MTK/MTK2503/MTK2503/11CW1418SP4_03_CORETEK03AE_11C_V1_GPRS_MMI/Tools/MinGW/include/c++/3.3.1/bits/stl_iterator.h **** 	--current;
 171:d:/MTK/MTK2503/MTK2503/11CW1418SP4_03_CORETEK03AE_11C_V1_GPRS_MMI/Tools/MinGW/include/c++/3.3.1/bits/stl_iterator.h **** 	return *this;
 172:d:/MTK/MTK2503/MTK2503/11CW1418SP4_03_CORETEK03AE_11C_V1_GPRS_MMI/Tools/MinGW/include/c++/3.3.1/bits/stl_iterator.h ****       }
 173:d:/MTK/MTK2503/MTK2503/11CW1418SP4_03_CORETEK03AE_11C_V1_GPRS_MMI/Tools/MinGW/include/c++/3.3.1/bits/stl_iterator.h **** 
 174:d:/MTK/MTK2503/MTK2503/11CW1418SP4_03_CORETEK03AE_11C_V1_GPRS_MMI/Tools/MinGW/include/c++/3.3.1/bits/stl_iterator.h ****       /**
 175:d:/MTK/MTK2503/MTK2503/11CW1418SP4_03_CORETEK03AE_11C_V1_GPRS_MMI/Tools/MinGW/include/c++/3.3.1/bits/stl_iterator.h ****        *  @return  TODO
 176:d:/MTK/MTK2503/MTK2503/11CW1418SP4_03_CORETEK03AE_11C_V1_GPRS_MMI/Tools/MinGW/include/c++/3.3.1/bits/stl_iterator.h ****        *
 177:d:/MTK/MTK2503/MTK2503/11CW1418SP4_03_CORETEK03AE_11C_V1_GPRS_MMI/Tools/MinGW/include/c++/3.3.1/bits/stl_iterator.h ****        *  @doctodo
 178:d:/MTK/MTK2503/MTK2503/11CW1418SP4_03_CORETEK03AE_11C_V1_GPRS_MMI/Tools/MinGW/include/c++/3.3.1/bits/stl_iterator.h ****       */
 179:d:/MTK/MTK2503/MTK2503/11CW1418SP4_03_CORETEK03AE_11C_V1_GPRS_MMI/Tools/MinGW/include/c++/3.3.1/bits/stl_iterator.h ****       reverse_iterator 
GAS LISTING d:/MTK/MTK2503/MTK2503/11CW1418SP4_03_CORETEK03AE_11C_V1_GPRS_MMI/plutommi/Customer/ResGenerator/gcctmp/ccQHcaaa.s 			page 83


 180:d:/MTK/MTK2503/MTK2503/11CW1418SP4_03_CORETEK03AE_11C_V1_GPRS_MMI/Tools/MinGW/include/c++/3.3.1/bits/stl_iterator.h ****       operator++(int) 
 181:d:/MTK/MTK2503/MTK2503/11CW1418SP4_03_CORETEK03AE_11C_V1_GPRS_MMI/Tools/MinGW/include/c++/3.3.1/bits/stl_iterator.h ****       {
 182:d:/MTK/MTK2503/MTK2503/11CW1418SP4_03_CORETEK03AE_11C_V1_GPRS_MMI/Tools/MinGW/include/c++/3.3.1/bits/stl_iterator.h **** 	reverse_iterator __tmp = *this;
 183:d:/MTK/MTK2503/MTK2503/11CW1418SP4_03_CORETEK03AE_11C_V1_GPRS_MMI/Tools/MinGW/include/c++/3.3.1/bits/stl_iterator.h **** 	--current;
 184:d:/MTK/MTK2503/MTK2503/11CW1418SP4_03_CORETEK03AE_11C_V1_GPRS_MMI/Tools/MinGW/include/c++/3.3.1/bits/stl_iterator.h **** 	return __tmp;
 185:d:/MTK/MTK2503/MTK2503/11CW1418SP4_03_CORETEK03AE_11C_V1_GPRS_MMI/Tools/MinGW/include/c++/3.3.1/bits/stl_iterator.h ****       }
 186:d:/MTK/MTK2503/MTK2503/11CW1418SP4_03_CORETEK03AE_11C_V1_GPRS_MMI/Tools/MinGW/include/c++/3.3.1/bits/stl_iterator.h **** 
 187:d:/MTK/MTK2503/MTK2503/11CW1418SP4_03_CORETEK03AE_11C_V1_GPRS_MMI/Tools/MinGW/include/c++/3.3.1/bits/stl_iterator.h ****       /**
 188:d:/MTK/MTK2503/MTK2503/11CW1418SP4_03_CORETEK03AE_11C_V1_GPRS_MMI/Tools/MinGW/include/c++/3.3.1/bits/stl_iterator.h ****        *  @return  TODO
 189:d:/MTK/MTK2503/MTK2503/11CW1418SP4_03_CORETEK03AE_11C_V1_GPRS_MMI/Tools/MinGW/include/c++/3.3.1/bits/stl_iterator.h ****        *
 190:d:/MTK/MTK2503/MTK2503/11CW1418SP4_03_CORETEK03AE_11C_V1_GPRS_MMI/Tools/MinGW/include/c++/3.3.1/bits/stl_iterator.h ****        *  @doctodo
 191:d:/MTK/MTK2503/MTK2503/11CW1418SP4_03_CORETEK03AE_11C_V1_GPRS_MMI/Tools/MinGW/include/c++/3.3.1/bits/stl_iterator.h ****       */
 192:d:/MTK/MTK2503/MTK2503/11CW1418SP4_03_CORETEK03AE_11C_V1_GPRS_MMI/Tools/MinGW/include/c++/3.3.1/bits/stl_iterator.h ****       reverse_iterator& 
 193:d:/MTK/MTK2503/MTK2503/11CW1418SP4_03_CORETEK03AE_11C_V1_GPRS_MMI/Tools/MinGW/include/c++/3.3.1/bits/stl_iterator.h ****       operator--() 
 194:d:/MTK/MTK2503/MTK2503/11CW1418SP4_03_CORETEK03AE_11C_V1_GPRS_MMI/Tools/MinGW/include/c++/3.3.1/bits/stl_iterator.h ****       {
 195:d:/MTK/MTK2503/MTK2503/11CW1418SP4_03_CORETEK03AE_11C_V1_GPRS_MMI/Tools/MinGW/include/c++/3.3.1/bits/stl_iterator.h **** 	++current;
 196:d:/MTK/MTK2503/MTK2503/11CW1418SP4_03_CORETEK03AE_11C_V1_GPRS_MMI/Tools/MinGW/include/c++/3.3.1/bits/stl_iterator.h **** 	return *this;
 197:d:/MTK/MTK2503/MTK2503/11CW1418SP4_03_CORETEK03AE_11C_V1_GPRS_MMI/Tools/MinGW/include/c++/3.3.1/bits/stl_iterator.h ****       }
 198:d:/MTK/MTK2503/MTK2503/11CW1418SP4_03_CORETEK03AE_11C_V1_GPRS_MMI/Tools/MinGW/include/c++/3.3.1/bits/stl_iterator.h **** 
 199:d:/MTK/MTK2503/MTK2503/11CW1418SP4_03_CORETEK03AE_11C_V1_GPRS_MMI/Tools/MinGW/include/c++/3.3.1/bits/stl_iterator.h ****       /**
 200:d:/MTK/MTK2503/MTK2503/11CW1418SP4_03_CORETEK03AE_11C_V1_GPRS_MMI/Tools/MinGW/include/c++/3.3.1/bits/stl_iterator.h ****        *  @return  TODO
 201:d:/MTK/MTK2503/MTK2503/11CW1418SP4_03_CORETEK03AE_11C_V1_GPRS_MMI/Tools/MinGW/include/c++/3.3.1/bits/stl_iterator.h ****        *
 202:d:/MTK/MTK2503/MTK2503/11CW1418SP4_03_CORETEK03AE_11C_V1_GPRS_MMI/Tools/MinGW/include/c++/3.3.1/bits/stl_iterator.h ****        *  @doctodo
 203:d:/MTK/MTK2503/MTK2503/11CW1418SP4_03_CORETEK03AE_11C_V1_GPRS_MMI/Tools/MinGW/include/c++/3.3.1/bits/stl_iterator.h ****       */
 204:d:/MTK/MTK2503/MTK2503/11CW1418SP4_03_CORETEK03AE_11C_V1_GPRS_MMI/Tools/MinGW/include/c++/3.3.1/bits/stl_iterator.h ****       reverse_iterator operator--(int) 
 205:d:/MTK/MTK2503/MTK2503/11CW1418SP4_03_CORETEK03AE_11C_V1_GPRS_MMI/Tools/MinGW/include/c++/3.3.1/bits/stl_iterator.h ****       {
 206:d:/MTK/MTK2503/MTK2503/11CW1418SP4_03_CORETEK03AE_11C_V1_GPRS_MMI/Tools/MinGW/include/c++/3.3.1/bits/stl_iterator.h **** 	reverse_iterator __tmp = *this;
 207:d:/MTK/MTK2503/MTK2503/11CW1418SP4_03_CORETEK03AE_11C_V1_GPRS_MMI/Tools/MinGW/include/c++/3.3.1/bits/stl_iterator.h **** 	++current;
 208:d:/MTK/MTK2503/MTK2503/11CW1418SP4_03_CORETEK03AE_11C_V1_GPRS_MMI/Tools/MinGW/include/c++/3.3.1/bits/stl_iterator.h **** 	return __tmp;
 209:d:/MTK/MTK2503/MTK2503/11CW1418SP4_03_CORETEK03AE_11C_V1_GPRS_MMI/Tools/MinGW/include/c++/3.3.1/bits/stl_iterator.h ****       }
 210:d:/MTK/MTK2503/MTK2503/11CW1418SP4_03_CORETEK03AE_11C_V1_GPRS_MMI/Tools/MinGW/include/c++/3.3.1/bits/stl_iterator.h ****       
 211:d:/MTK/MTK2503/MTK2503/11CW1418SP4_03_CORETEK03AE_11C_V1_GPRS_MMI/Tools/MinGW/include/c++/3.3.1/bits/stl_iterator.h ****       /**
 212:d:/MTK/MTK2503/MTK2503/11CW1418SP4_03_CORETEK03AE_11C_V1_GPRS_MMI/Tools/MinGW/include/c++/3.3.1/bits/stl_iterator.h ****        *  @return  TODO
 213:d:/MTK/MTK2503/MTK2503/11CW1418SP4_03_CORETEK03AE_11C_V1_GPRS_MMI/Tools/MinGW/include/c++/3.3.1/bits/stl_iterator.h ****        *
 214:d:/MTK/MTK2503/MTK2503/11CW1418SP4_03_CORETEK03AE_11C_V1_GPRS_MMI/Tools/MinGW/include/c++/3.3.1/bits/stl_iterator.h ****        *  @doctodo
 215:d:/MTK/MTK2503/MTK2503/11CW1418SP4_03_CORETEK03AE_11C_V1_GPRS_MMI/Tools/MinGW/include/c++/3.3.1/bits/stl_iterator.h ****       */
 216:d:/MTK/MTK2503/MTK2503/11CW1418SP4_03_CORETEK03AE_11C_V1_GPRS_MMI/Tools/MinGW/include/c++/3.3.1/bits/stl_iterator.h ****       reverse_iterator 
 217:d:/MTK/MTK2503/MTK2503/11CW1418SP4_03_CORETEK03AE_11C_V1_GPRS_MMI/Tools/MinGW/include/c++/3.3.1/bits/stl_iterator.h ****       operator+(difference_type __n) const 
 218:d:/MTK/MTK2503/MTK2503/11CW1418SP4_03_CORETEK03AE_11C_V1_GPRS_MMI/Tools/MinGW/include/c++/3.3.1/bits/stl_iterator.h ****       { return reverse_iterator(current - __n); }
 219:d:/MTK/MTK2503/MTK2503/11CW1418SP4_03_CORETEK03AE_11C_V1_GPRS_MMI/Tools/MinGW/include/c++/3.3.1/bits/stl_iterator.h **** 
 220:d:/MTK/MTK2503/MTK2503/11CW1418SP4_03_CORETEK03AE_11C_V1_GPRS_MMI/Tools/MinGW/include/c++/3.3.1/bits/stl_iterator.h ****       /**
 221:d:/MTK/MTK2503/MTK2503/11CW1418SP4_03_CORETEK03AE_11C_V1_GPRS_MMI/Tools/MinGW/include/c++/3.3.1/bits/stl_iterator.h ****        *  @return  TODO
 222:d:/MTK/MTK2503/MTK2503/11CW1418SP4_03_CORETEK03AE_11C_V1_GPRS_MMI/Tools/MinGW/include/c++/3.3.1/bits/stl_iterator.h ****        *
 223:d:/MTK/MTK2503/MTK2503/11CW1418SP4_03_CORETEK03AE_11C_V1_GPRS_MMI/Tools/MinGW/include/c++/3.3.1/bits/stl_iterator.h ****        *  @doctodo
 224:d:/MTK/MTK2503/MTK2503/11CW1418SP4_03_CORETEK03AE_11C_V1_GPRS_MMI/Tools/MinGW/include/c++/3.3.1/bits/stl_iterator.h ****       */
 225:d:/MTK/MTK2503/MTK2503/11CW1418SP4_03_CORETEK03AE_11C_V1_GPRS_MMI/Tools/MinGW/include/c++/3.3.1/bits/stl_iterator.h ****       reverse_iterator& 
 226:d:/MTK/MTK2503/MTK2503/11CW1418SP4_03_CORETEK03AE_11C_V1_GPRS_MMI/Tools/MinGW/include/c++/3.3.1/bits/stl_iterator.h ****       operator+=(difference_type __n) 
 227:d:/MTK/MTK2503/MTK2503/11CW1418SP4_03_CORETEK03AE_11C_V1_GPRS_MMI/Tools/MinGW/include/c++/3.3.1/bits/stl_iterator.h ****       {
 228:d:/MTK/MTK2503/MTK2503/11CW1418SP4_03_CORETEK03AE_11C_V1_GPRS_MMI/Tools/MinGW/include/c++/3.3.1/bits/stl_iterator.h **** 	current -= __n;
 229:d:/MTK/MTK2503/MTK2503/11CW1418SP4_03_CORETEK03AE_11C_V1_GPRS_MMI/Tools/MinGW/include/c++/3.3.1/bits/stl_iterator.h **** 	return *this;
 230:d:/MTK/MTK2503/MTK2503/11CW1418SP4_03_CORETEK03AE_11C_V1_GPRS_MMI/Tools/MinGW/include/c++/3.3.1/bits/stl_iterator.h ****       }
 231:d:/MTK/MTK2503/MTK2503/11CW1418SP4_03_CORETEK03AE_11C_V1_GPRS_MMI/Tools/MinGW/include/c++/3.3.1/bits/stl_iterator.h **** 
 232:d:/MTK/MTK2503/MTK2503/11CW1418SP4_03_CORETEK03AE_11C_V1_GPRS_MMI/Tools/MinGW/include/c++/3.3.1/bits/stl_iterator.h ****       /**
 233:d:/MTK/MTK2503/MTK2503/11CW1418SP4_03_CORETEK03AE_11C_V1_GPRS_MMI/Tools/MinGW/include/c++/3.3.1/bits/stl_iterator.h ****        *  @return  TODO
 234:d:/MTK/MTK2503/MTK2503/11CW1418SP4_03_CORETEK03AE_11C_V1_GPRS_MMI/Tools/MinGW/include/c++/3.3.1/bits/stl_iterator.h ****        *
 235:d:/MTK/MTK2503/MTK2503/11CW1418SP4_03_CORETEK03AE_11C_V1_GPRS_MMI/Tools/MinGW/include/c++/3.3.1/bits/stl_iterator.h ****        *  @doctodo
 236:d:/MTK/MTK2503/MTK2503/11CW1418SP4_03_CORETEK03AE_11C_V1_GPRS_MMI/Tools/MinGW/include/c++/3.3.1/bits/stl_iterator.h ****       */
GAS LISTING d:/MTK/MTK2503/MTK2503/11CW1418SP4_03_CORETEK03AE_11C_V1_GPRS_MMI/plutommi/Customer/ResGenerator/gcctmp/ccQHcaaa.s 			page 84


 237:d:/MTK/MTK2503/MTK2503/11CW1418SP4_03_CORETEK03AE_11C_V1_GPRS_MMI/Tools/MinGW/include/c++/3.3.1/bits/stl_iterator.h ****       reverse_iterator 
 238:d:/MTK/MTK2503/MTK2503/11CW1418SP4_03_CORETEK03AE_11C_V1_GPRS_MMI/Tools/MinGW/include/c++/3.3.1/bits/stl_iterator.h ****       operator-(difference_type __n) const 
 239:d:/MTK/MTK2503/MTK2503/11CW1418SP4_03_CORETEK03AE_11C_V1_GPRS_MMI/Tools/MinGW/include/c++/3.3.1/bits/stl_iterator.h ****       { return reverse_iterator(current + __n); }
 240:d:/MTK/MTK2503/MTK2503/11CW1418SP4_03_CORETEK03AE_11C_V1_GPRS_MMI/Tools/MinGW/include/c++/3.3.1/bits/stl_iterator.h **** 
 241:d:/MTK/MTK2503/MTK2503/11CW1418SP4_03_CORETEK03AE_11C_V1_GPRS_MMI/Tools/MinGW/include/c++/3.3.1/bits/stl_iterator.h ****       /**
 242:d:/MTK/MTK2503/MTK2503/11CW1418SP4_03_CORETEK03AE_11C_V1_GPRS_MMI/Tools/MinGW/include/c++/3.3.1/bits/stl_iterator.h ****        *  @return  TODO
 243:d:/MTK/MTK2503/MTK2503/11CW1418SP4_03_CORETEK03AE_11C_V1_GPRS_MMI/Tools/MinGW/include/c++/3.3.1/bits/stl_iterator.h ****        *
 244:d:/MTK/MTK2503/MTK2503/11CW1418SP4_03_CORETEK03AE_11C_V1_GPRS_MMI/Tools/MinGW/include/c++/3.3.1/bits/stl_iterator.h ****        *  @doctodo
 245:d:/MTK/MTK2503/MTK2503/11CW1418SP4_03_CORETEK03AE_11C_V1_GPRS_MMI/Tools/MinGW/include/c++/3.3.1/bits/stl_iterator.h ****       */
 246:d:/MTK/MTK2503/MTK2503/11CW1418SP4_03_CORETEK03AE_11C_V1_GPRS_MMI/Tools/MinGW/include/c++/3.3.1/bits/stl_iterator.h ****       reverse_iterator& 
 247:d:/MTK/MTK2503/MTK2503/11CW1418SP4_03_CORETEK03AE_11C_V1_GPRS_MMI/Tools/MinGW/include/c++/3.3.1/bits/stl_iterator.h ****       operator-=(difference_type __n) 
 248:d:/MTK/MTK2503/MTK2503/11CW1418SP4_03_CORETEK03AE_11C_V1_GPRS_MMI/Tools/MinGW/include/c++/3.3.1/bits/stl_iterator.h ****       {
 249:d:/MTK/MTK2503/MTK2503/11CW1418SP4_03_CORETEK03AE_11C_V1_GPRS_MMI/Tools/MinGW/include/c++/3.3.1/bits/stl_iterator.h **** 	current += __n;
 250:d:/MTK/MTK2503/MTK2503/11CW1418SP4_03_CORETEK03AE_11C_V1_GPRS_MMI/Tools/MinGW/include/c++/3.3.1/bits/stl_iterator.h **** 	return *this;
 251:d:/MTK/MTK2503/MTK2503/11CW1418SP4_03_CORETEK03AE_11C_V1_GPRS_MMI/Tools/MinGW/include/c++/3.3.1/bits/stl_iterator.h ****       }
 252:d:/MTK/MTK2503/MTK2503/11CW1418SP4_03_CORETEK03AE_11C_V1_GPRS_MMI/Tools/MinGW/include/c++/3.3.1/bits/stl_iterator.h **** 
 253:d:/MTK/MTK2503/MTK2503/11CW1418SP4_03_CORETEK03AE_11C_V1_GPRS_MMI/Tools/MinGW/include/c++/3.3.1/bits/stl_iterator.h ****       /**
 254:d:/MTK/MTK2503/MTK2503/11CW1418SP4_03_CORETEK03AE_11C_V1_GPRS_MMI/Tools/MinGW/include/c++/3.3.1/bits/stl_iterator.h ****        *  @return  TODO
 255:d:/MTK/MTK2503/MTK2503/11CW1418SP4_03_CORETEK03AE_11C_V1_GPRS_MMI/Tools/MinGW/include/c++/3.3.1/bits/stl_iterator.h ****        *
 256:d:/MTK/MTK2503/MTK2503/11CW1418SP4_03_CORETEK03AE_11C_V1_GPRS_MMI/Tools/MinGW/include/c++/3.3.1/bits/stl_iterator.h ****        *  @doctodo
 257:d:/MTK/MTK2503/MTK2503/11CW1418SP4_03_CORETEK03AE_11C_V1_GPRS_MMI/Tools/MinGW/include/c++/3.3.1/bits/stl_iterator.h ****       */
 258:d:/MTK/MTK2503/MTK2503/11CW1418SP4_03_CORETEK03AE_11C_V1_GPRS_MMI/Tools/MinGW/include/c++/3.3.1/bits/stl_iterator.h ****       reference 
 259:d:/MTK/MTK2503/MTK2503/11CW1418SP4_03_CORETEK03AE_11C_V1_GPRS_MMI/Tools/MinGW/include/c++/3.3.1/bits/stl_iterator.h ****       operator[](difference_type __n) const { return *(*this + __n); }  
 260:d:/MTK/MTK2503/MTK2503/11CW1418SP4_03_CORETEK03AE_11C_V1_GPRS_MMI/Tools/MinGW/include/c++/3.3.1/bits/stl_iterator.h ****     }; 
 261:d:/MTK/MTK2503/MTK2503/11CW1418SP4_03_CORETEK03AE_11C_V1_GPRS_MMI/Tools/MinGW/include/c++/3.3.1/bits/stl_iterator.h ****  
 262:d:/MTK/MTK2503/MTK2503/11CW1418SP4_03_CORETEK03AE_11C_V1_GPRS_MMI/Tools/MinGW/include/c++/3.3.1/bits/stl_iterator.h ****   //@{
 263:d:/MTK/MTK2503/MTK2503/11CW1418SP4_03_CORETEK03AE_11C_V1_GPRS_MMI/Tools/MinGW/include/c++/3.3.1/bits/stl_iterator.h ****   /**
 264:d:/MTK/MTK2503/MTK2503/11CW1418SP4_03_CORETEK03AE_11C_V1_GPRS_MMI/Tools/MinGW/include/c++/3.3.1/bits/stl_iterator.h ****    *  @param  x  A %reverse_iterator.
 265:d:/MTK/MTK2503/MTK2503/11CW1418SP4_03_CORETEK03AE_11C_V1_GPRS_MMI/Tools/MinGW/include/c++/3.3.1/bits/stl_iterator.h ****    *  @param  y  A %reverse_iterator.
 266:d:/MTK/MTK2503/MTK2503/11CW1418SP4_03_CORETEK03AE_11C_V1_GPRS_MMI/Tools/MinGW/include/c++/3.3.1/bits/stl_iterator.h ****    *  @return  A simple bool.
 267:d:/MTK/MTK2503/MTK2503/11CW1418SP4_03_CORETEK03AE_11C_V1_GPRS_MMI/Tools/MinGW/include/c++/3.3.1/bits/stl_iterator.h ****    *
 268:d:/MTK/MTK2503/MTK2503/11CW1418SP4_03_CORETEK03AE_11C_V1_GPRS_MMI/Tools/MinGW/include/c++/3.3.1/bits/stl_iterator.h ****    *  Reverse iterators forward many operations to their underlying base()
 269:d:/MTK/MTK2503/MTK2503/11CW1418SP4_03_CORETEK03AE_11C_V1_GPRS_MMI/Tools/MinGW/include/c++/3.3.1/bits/stl_iterator.h ****    *  iterators.  Others are implemented in terms of one another.
 270:d:/MTK/MTK2503/MTK2503/11CW1418SP4_03_CORETEK03AE_11C_V1_GPRS_MMI/Tools/MinGW/include/c++/3.3.1/bits/stl_iterator.h ****    *
 271:d:/MTK/MTK2503/MTK2503/11CW1418SP4_03_CORETEK03AE_11C_V1_GPRS_MMI/Tools/MinGW/include/c++/3.3.1/bits/stl_iterator.h ****   */
 272:d:/MTK/MTK2503/MTK2503/11CW1418SP4_03_CORETEK03AE_11C_V1_GPRS_MMI/Tools/MinGW/include/c++/3.3.1/bits/stl_iterator.h ****   template<typename _Iterator>
 273:d:/MTK/MTK2503/MTK2503/11CW1418SP4_03_CORETEK03AE_11C_V1_GPRS_MMI/Tools/MinGW/include/c++/3.3.1/bits/stl_iterator.h ****     inline bool 
 274:d:/MTK/MTK2503/MTK2503/11CW1418SP4_03_CORETEK03AE_11C_V1_GPRS_MMI/Tools/MinGW/include/c++/3.3.1/bits/stl_iterator.h ****     operator==(const reverse_iterator<_Iterator>& __x, 
 275:d:/MTK/MTK2503/MTK2503/11CW1418SP4_03_CORETEK03AE_11C_V1_GPRS_MMI/Tools/MinGW/include/c++/3.3.1/bits/stl_iterator.h **** 	       const reverse_iterator<_Iterator>& __y) 
 276:d:/MTK/MTK2503/MTK2503/11CW1418SP4_03_CORETEK03AE_11C_V1_GPRS_MMI/Tools/MinGW/include/c++/3.3.1/bits/stl_iterator.h ****     { return __x.base() == __y.base(); }
 277:d:/MTK/MTK2503/MTK2503/11CW1418SP4_03_CORETEK03AE_11C_V1_GPRS_MMI/Tools/MinGW/include/c++/3.3.1/bits/stl_iterator.h **** 
 278:d:/MTK/MTK2503/MTK2503/11CW1418SP4_03_CORETEK03AE_11C_V1_GPRS_MMI/Tools/MinGW/include/c++/3.3.1/bits/stl_iterator.h ****   template<typename _Iterator>
 279:d:/MTK/MTK2503/MTK2503/11CW1418SP4_03_CORETEK03AE_11C_V1_GPRS_MMI/Tools/MinGW/include/c++/3.3.1/bits/stl_iterator.h ****     inline bool 
 280:d:/MTK/MTK2503/MTK2503/11CW1418SP4_03_CORETEK03AE_11C_V1_GPRS_MMI/Tools/MinGW/include/c++/3.3.1/bits/stl_iterator.h ****     operator<(const reverse_iterator<_Iterator>& __x, 
 281:d:/MTK/MTK2503/MTK2503/11CW1418SP4_03_CORETEK03AE_11C_V1_GPRS_MMI/Tools/MinGW/include/c++/3.3.1/bits/stl_iterator.h **** 	      const reverse_iterator<_Iterator>& __y) 
 282:d:/MTK/MTK2503/MTK2503/11CW1418SP4_03_CORETEK03AE_11C_V1_GPRS_MMI/Tools/MinGW/include/c++/3.3.1/bits/stl_iterator.h ****     { return __y.base() < __x.base(); }
 283:d:/MTK/MTK2503/MTK2503/11CW1418SP4_03_CORETEK03AE_11C_V1_GPRS_MMI/Tools/MinGW/include/c++/3.3.1/bits/stl_iterator.h **** 
 284:d:/MTK/MTK2503/MTK2503/11CW1418SP4_03_CORETEK03AE_11C_V1_GPRS_MMI/Tools/MinGW/include/c++/3.3.1/bits/stl_iterator.h ****   template<typename _Iterator>
 285:d:/MTK/MTK2503/MTK2503/11CW1418SP4_03_CORETEK03AE_11C_V1_GPRS_MMI/Tools/MinGW/include/c++/3.3.1/bits/stl_iterator.h ****     inline bool 
 286:d:/MTK/MTK2503/MTK2503/11CW1418SP4_03_CORETEK03AE_11C_V1_GPRS_MMI/Tools/MinGW/include/c++/3.3.1/bits/stl_iterator.h ****     operator!=(const reverse_iterator<_Iterator>& __x, 
 287:d:/MTK/MTK2503/MTK2503/11CW1418SP4_03_CORETEK03AE_11C_V1_GPRS_MMI/Tools/MinGW/include/c++/3.3.1/bits/stl_iterator.h **** 	       const reverse_iterator<_Iterator>& __y) 
 288:d:/MTK/MTK2503/MTK2503/11CW1418SP4_03_CORETEK03AE_11C_V1_GPRS_MMI/Tools/MinGW/include/c++/3.3.1/bits/stl_iterator.h ****     { return !(__x == __y); }
 289:d:/MTK/MTK2503/MTK2503/11CW1418SP4_03_CORETEK03AE_11C_V1_GPRS_MMI/Tools/MinGW/include/c++/3.3.1/bits/stl_iterator.h **** 
 290:d:/MTK/MTK2503/MTK2503/11CW1418SP4_03_CORETEK03AE_11C_V1_GPRS_MMI/Tools/MinGW/include/c++/3.3.1/bits/stl_iterator.h ****   template<typename _Iterator>
 291:d:/MTK/MTK2503/MTK2503/11CW1418SP4_03_CORETEK03AE_11C_V1_GPRS_MMI/Tools/MinGW/include/c++/3.3.1/bits/stl_iterator.h ****     inline bool 
 292:d:/MTK/MTK2503/MTK2503/11CW1418SP4_03_CORETEK03AE_11C_V1_GPRS_MMI/Tools/MinGW/include/c++/3.3.1/bits/stl_iterator.h ****     operator>(const reverse_iterator<_Iterator>& __x, 
 293:d:/MTK/MTK2503/MTK2503/11CW1418SP4_03_CORETEK03AE_11C_V1_GPRS_MMI/Tools/MinGW/include/c++/3.3.1/bits/stl_iterator.h **** 	      const reverse_iterator<_Iterator>& __y) 
GAS LISTING d:/MTK/MTK2503/MTK2503/11CW1418SP4_03_CORETEK03AE_11C_V1_GPRS_MMI/plutommi/Customer/ResGenerator/gcctmp/ccQHcaaa.s 			page 85


 294:d:/MTK/MTK2503/MTK2503/11CW1418SP4_03_CORETEK03AE_11C_V1_GPRS_MMI/Tools/MinGW/include/c++/3.3.1/bits/stl_iterator.h ****     { return __y < __x; }
 295:d:/MTK/MTK2503/MTK2503/11CW1418SP4_03_CORETEK03AE_11C_V1_GPRS_MMI/Tools/MinGW/include/c++/3.3.1/bits/stl_iterator.h **** 
 296:d:/MTK/MTK2503/MTK2503/11CW1418SP4_03_CORETEK03AE_11C_V1_GPRS_MMI/Tools/MinGW/include/c++/3.3.1/bits/stl_iterator.h ****   template<typename _Iterator>
 297:d:/MTK/MTK2503/MTK2503/11CW1418SP4_03_CORETEK03AE_11C_V1_GPRS_MMI/Tools/MinGW/include/c++/3.3.1/bits/stl_iterator.h ****     inline bool 
 298:d:/MTK/MTK2503/MTK2503/11CW1418SP4_03_CORETEK03AE_11C_V1_GPRS_MMI/Tools/MinGW/include/c++/3.3.1/bits/stl_iterator.h ****     operator<=(const reverse_iterator<_Iterator>& __x, 
 299:d:/MTK/MTK2503/MTK2503/11CW1418SP4_03_CORETEK03AE_11C_V1_GPRS_MMI/Tools/MinGW/include/c++/3.3.1/bits/stl_iterator.h **** 		const reverse_iterator<_Iterator>& __y) 
 300:d:/MTK/MTK2503/MTK2503/11CW1418SP4_03_CORETEK03AE_11C_V1_GPRS_MMI/Tools/MinGW/include/c++/3.3.1/bits/stl_iterator.h ****     { return !(__y < __x); }
 301:d:/MTK/MTK2503/MTK2503/11CW1418SP4_03_CORETEK03AE_11C_V1_GPRS_MMI/Tools/MinGW/include/c++/3.3.1/bits/stl_iterator.h **** 
 302:d:/MTK/MTK2503/MTK2503/11CW1418SP4_03_CORETEK03AE_11C_V1_GPRS_MMI/Tools/MinGW/include/c++/3.3.1/bits/stl_iterator.h ****   template<typename _Iterator>
 303:d:/MTK/MTK2503/MTK2503/11CW1418SP4_03_CORETEK03AE_11C_V1_GPRS_MMI/Tools/MinGW/include/c++/3.3.1/bits/stl_iterator.h ****     inline bool 
 304:d:/MTK/MTK2503/MTK2503/11CW1418SP4_03_CORETEK03AE_11C_V1_GPRS_MMI/Tools/MinGW/include/c++/3.3.1/bits/stl_iterator.h ****     operator>=(const reverse_iterator<_Iterator>& __x, 
 305:d:/MTK/MTK2503/MTK2503/11CW1418SP4_03_CORETEK03AE_11C_V1_GPRS_MMI/Tools/MinGW/include/c++/3.3.1/bits/stl_iterator.h **** 	       const reverse_iterator<_Iterator>& __y) 
 306:d:/MTK/MTK2503/MTK2503/11CW1418SP4_03_CORETEK03AE_11C_V1_GPRS_MMI/Tools/MinGW/include/c++/3.3.1/bits/stl_iterator.h ****     { return !(__x < __y); }
 307:d:/MTK/MTK2503/MTK2503/11CW1418SP4_03_CORETEK03AE_11C_V1_GPRS_MMI/Tools/MinGW/include/c++/3.3.1/bits/stl_iterator.h **** 
 308:d:/MTK/MTK2503/MTK2503/11CW1418SP4_03_CORETEK03AE_11C_V1_GPRS_MMI/Tools/MinGW/include/c++/3.3.1/bits/stl_iterator.h ****   template<typename _Iterator>
 309:d:/MTK/MTK2503/MTK2503/11CW1418SP4_03_CORETEK03AE_11C_V1_GPRS_MMI/Tools/MinGW/include/c++/3.3.1/bits/stl_iterator.h ****     inline typename reverse_iterator<_Iterator>::difference_type
 310:d:/MTK/MTK2503/MTK2503/11CW1418SP4_03_CORETEK03AE_11C_V1_GPRS_MMI/Tools/MinGW/include/c++/3.3.1/bits/stl_iterator.h ****     operator-(const reverse_iterator<_Iterator>& __x, 
 311:d:/MTK/MTK2503/MTK2503/11CW1418SP4_03_CORETEK03AE_11C_V1_GPRS_MMI/Tools/MinGW/include/c++/3.3.1/bits/stl_iterator.h **** 	      const reverse_iterator<_Iterator>& __y) 
 312:d:/MTK/MTK2503/MTK2503/11CW1418SP4_03_CORETEK03AE_11C_V1_GPRS_MMI/Tools/MinGW/include/c++/3.3.1/bits/stl_iterator.h ****     { return __y.base() - __x.base(); }
 313:d:/MTK/MTK2503/MTK2503/11CW1418SP4_03_CORETEK03AE_11C_V1_GPRS_MMI/Tools/MinGW/include/c++/3.3.1/bits/stl_iterator.h **** 
 314:d:/MTK/MTK2503/MTK2503/11CW1418SP4_03_CORETEK03AE_11C_V1_GPRS_MMI/Tools/MinGW/include/c++/3.3.1/bits/stl_iterator.h ****   template<typename _Iterator>
 315:d:/MTK/MTK2503/MTK2503/11CW1418SP4_03_CORETEK03AE_11C_V1_GPRS_MMI/Tools/MinGW/include/c++/3.3.1/bits/stl_iterator.h ****     inline reverse_iterator<_Iterator> 
 316:d:/MTK/MTK2503/MTK2503/11CW1418SP4_03_CORETEK03AE_11C_V1_GPRS_MMI/Tools/MinGW/include/c++/3.3.1/bits/stl_iterator.h ****     operator+(typename reverse_iterator<_Iterator>::difference_type __n,
 317:d:/MTK/MTK2503/MTK2503/11CW1418SP4_03_CORETEK03AE_11C_V1_GPRS_MMI/Tools/MinGW/include/c++/3.3.1/bits/stl_iterator.h **** 	      const reverse_iterator<_Iterator>& __x) 
 318:d:/MTK/MTK2503/MTK2503/11CW1418SP4_03_CORETEK03AE_11C_V1_GPRS_MMI/Tools/MinGW/include/c++/3.3.1/bits/stl_iterator.h ****     { return reverse_iterator<_Iterator>(__x.base() - __n); }
 319:d:/MTK/MTK2503/MTK2503/11CW1418SP4_03_CORETEK03AE_11C_V1_GPRS_MMI/Tools/MinGW/include/c++/3.3.1/bits/stl_iterator.h ****   //@}
 320:d:/MTK/MTK2503/MTK2503/11CW1418SP4_03_CORETEK03AE_11C_V1_GPRS_MMI/Tools/MinGW/include/c++/3.3.1/bits/stl_iterator.h **** 
 321:d:/MTK/MTK2503/MTK2503/11CW1418SP4_03_CORETEK03AE_11C_V1_GPRS_MMI/Tools/MinGW/include/c++/3.3.1/bits/stl_iterator.h ****   // 24.4.2.2.1 back_insert_iterator
 322:d:/MTK/MTK2503/MTK2503/11CW1418SP4_03_CORETEK03AE_11C_V1_GPRS_MMI/Tools/MinGW/include/c++/3.3.1/bits/stl_iterator.h ****   /**
 323:d:/MTK/MTK2503/MTK2503/11CW1418SP4_03_CORETEK03AE_11C_V1_GPRS_MMI/Tools/MinGW/include/c++/3.3.1/bits/stl_iterator.h ****    *  @brief  Turns assignment into insertion.
 324:d:/MTK/MTK2503/MTK2503/11CW1418SP4_03_CORETEK03AE_11C_V1_GPRS_MMI/Tools/MinGW/include/c++/3.3.1/bits/stl_iterator.h ****    *
 325:d:/MTK/MTK2503/MTK2503/11CW1418SP4_03_CORETEK03AE_11C_V1_GPRS_MMI/Tools/MinGW/include/c++/3.3.1/bits/stl_iterator.h ****    *  These are output iterators, constructed from a container-of-T.
 326:d:/MTK/MTK2503/MTK2503/11CW1418SP4_03_CORETEK03AE_11C_V1_GPRS_MMI/Tools/MinGW/include/c++/3.3.1/bits/stl_iterator.h ****    *  Assigning a T to the iterator appends it to the container using
 327:d:/MTK/MTK2503/MTK2503/11CW1418SP4_03_CORETEK03AE_11C_V1_GPRS_MMI/Tools/MinGW/include/c++/3.3.1/bits/stl_iterator.h ****    *  push_back.
 328:d:/MTK/MTK2503/MTK2503/11CW1418SP4_03_CORETEK03AE_11C_V1_GPRS_MMI/Tools/MinGW/include/c++/3.3.1/bits/stl_iterator.h ****    *
 329:d:/MTK/MTK2503/MTK2503/11CW1418SP4_03_CORETEK03AE_11C_V1_GPRS_MMI/Tools/MinGW/include/c++/3.3.1/bits/stl_iterator.h ****    *  Tip:  Using the back_inserter function to create these iterators can
 330:d:/MTK/MTK2503/MTK2503/11CW1418SP4_03_CORETEK03AE_11C_V1_GPRS_MMI/Tools/MinGW/include/c++/3.3.1/bits/stl_iterator.h ****    *  save typing.
 331:d:/MTK/MTK2503/MTK2503/11CW1418SP4_03_CORETEK03AE_11C_V1_GPRS_MMI/Tools/MinGW/include/c++/3.3.1/bits/stl_iterator.h ****   */
 332:d:/MTK/MTK2503/MTK2503/11CW1418SP4_03_CORETEK03AE_11C_V1_GPRS_MMI/Tools/MinGW/include/c++/3.3.1/bits/stl_iterator.h ****   template<typename _Container>
 333:d:/MTK/MTK2503/MTK2503/11CW1418SP4_03_CORETEK03AE_11C_V1_GPRS_MMI/Tools/MinGW/include/c++/3.3.1/bits/stl_iterator.h ****     class back_insert_iterator 
 334:d:/MTK/MTK2503/MTK2503/11CW1418SP4_03_CORETEK03AE_11C_V1_GPRS_MMI/Tools/MinGW/include/c++/3.3.1/bits/stl_iterator.h ****     : public iterator<output_iterator_tag, void, void, void, void>
 335:d:/MTK/MTK2503/MTK2503/11CW1418SP4_03_CORETEK03AE_11C_V1_GPRS_MMI/Tools/MinGW/include/c++/3.3.1/bits/stl_iterator.h ****     {
 336:d:/MTK/MTK2503/MTK2503/11CW1418SP4_03_CORETEK03AE_11C_V1_GPRS_MMI/Tools/MinGW/include/c++/3.3.1/bits/stl_iterator.h ****     protected:
 337:d:/MTK/MTK2503/MTK2503/11CW1418SP4_03_CORETEK03AE_11C_V1_GPRS_MMI/Tools/MinGW/include/c++/3.3.1/bits/stl_iterator.h ****       _Container* container;
 338:d:/MTK/MTK2503/MTK2503/11CW1418SP4_03_CORETEK03AE_11C_V1_GPRS_MMI/Tools/MinGW/include/c++/3.3.1/bits/stl_iterator.h **** 
 339:d:/MTK/MTK2503/MTK2503/11CW1418SP4_03_CORETEK03AE_11C_V1_GPRS_MMI/Tools/MinGW/include/c++/3.3.1/bits/stl_iterator.h ****     public:
 340:d:/MTK/MTK2503/MTK2503/11CW1418SP4_03_CORETEK03AE_11C_V1_GPRS_MMI/Tools/MinGW/include/c++/3.3.1/bits/stl_iterator.h ****       /// A nested typedef for the type of whatever container you used.
 341:d:/MTK/MTK2503/MTK2503/11CW1418SP4_03_CORETEK03AE_11C_V1_GPRS_MMI/Tools/MinGW/include/c++/3.3.1/bits/stl_iterator.h ****       typedef _Container          container_type;
 342:d:/MTK/MTK2503/MTK2503/11CW1418SP4_03_CORETEK03AE_11C_V1_GPRS_MMI/Tools/MinGW/include/c++/3.3.1/bits/stl_iterator.h ****       
 343:d:/MTK/MTK2503/MTK2503/11CW1418SP4_03_CORETEK03AE_11C_V1_GPRS_MMI/Tools/MinGW/include/c++/3.3.1/bits/stl_iterator.h ****       /// The only way to create this %iterator is with a container.
 344:d:/MTK/MTK2503/MTK2503/11CW1418SP4_03_CORETEK03AE_11C_V1_GPRS_MMI/Tools/MinGW/include/c++/3.3.1/bits/stl_iterator.h ****       explicit 
 345:d:/MTK/MTK2503/MTK2503/11CW1418SP4_03_CORETEK03AE_11C_V1_GPRS_MMI/Tools/MinGW/include/c++/3.3.1/bits/stl_iterator.h ****       back_insert_iterator(_Container& __x) : container(&__x) { }
 346:d:/MTK/MTK2503/MTK2503/11CW1418SP4_03_CORETEK03AE_11C_V1_GPRS_MMI/Tools/MinGW/include/c++/3.3.1/bits/stl_iterator.h **** 
 347:d:/MTK/MTK2503/MTK2503/11CW1418SP4_03_CORETEK03AE_11C_V1_GPRS_MMI/Tools/MinGW/include/c++/3.3.1/bits/stl_iterator.h ****       /**
 348:d:/MTK/MTK2503/MTK2503/11CW1418SP4_03_CORETEK03AE_11C_V1_GPRS_MMI/Tools/MinGW/include/c++/3.3.1/bits/stl_iterator.h ****        *  @param  value  An instance of whatever type
 349:d:/MTK/MTK2503/MTK2503/11CW1418SP4_03_CORETEK03AE_11C_V1_GPRS_MMI/Tools/MinGW/include/c++/3.3.1/bits/stl_iterator.h ****        *                 container_type::const_reference is; presumably a
 350:d:/MTK/MTK2503/MTK2503/11CW1418SP4_03_CORETEK03AE_11C_V1_GPRS_MMI/Tools/MinGW/include/c++/3.3.1/bits/stl_iterator.h ****        *                 reference-to-const T for container<T>.
GAS LISTING d:/MTK/MTK2503/MTK2503/11CW1418SP4_03_CORETEK03AE_11C_V1_GPRS_MMI/plutommi/Customer/ResGenerator/gcctmp/ccQHcaaa.s 			page 86


 351:d:/MTK/MTK2503/MTK2503/11CW1418SP4_03_CORETEK03AE_11C_V1_GPRS_MMI/Tools/MinGW/include/c++/3.3.1/bits/stl_iterator.h ****        *  @return  This %iterator, for chained operations.
 352:d:/MTK/MTK2503/MTK2503/11CW1418SP4_03_CORETEK03AE_11C_V1_GPRS_MMI/Tools/MinGW/include/c++/3.3.1/bits/stl_iterator.h ****        *
 353:d:/MTK/MTK2503/MTK2503/11CW1418SP4_03_CORETEK03AE_11C_V1_GPRS_MMI/Tools/MinGW/include/c++/3.3.1/bits/stl_iterator.h ****        *  This kind of %iterator doesn't really have a "position" in the
 354:d:/MTK/MTK2503/MTK2503/11CW1418SP4_03_CORETEK03AE_11C_V1_GPRS_MMI/Tools/MinGW/include/c++/3.3.1/bits/stl_iterator.h ****        *  container (you can think of the position as being permanently at
 355:d:/MTK/MTK2503/MTK2503/11CW1418SP4_03_CORETEK03AE_11C_V1_GPRS_MMI/Tools/MinGW/include/c++/3.3.1/bits/stl_iterator.h ****        *  the end, if you like).  Assigning a value to the %iterator will
 356:d:/MTK/MTK2503/MTK2503/11CW1418SP4_03_CORETEK03AE_11C_V1_GPRS_MMI/Tools/MinGW/include/c++/3.3.1/bits/stl_iterator.h ****        *  always append the value to the end of the container.
 357:d:/MTK/MTK2503/MTK2503/11CW1418SP4_03_CORETEK03AE_11C_V1_GPRS_MMI/Tools/MinGW/include/c++/3.3.1/bits/stl_iterator.h ****       */
 358:d:/MTK/MTK2503/MTK2503/11CW1418SP4_03_CORETEK03AE_11C_V1_GPRS_MMI/Tools/MinGW/include/c++/3.3.1/bits/stl_iterator.h ****       back_insert_iterator&
 359:d:/MTK/MTK2503/MTK2503/11CW1418SP4_03_CORETEK03AE_11C_V1_GPRS_MMI/Tools/MinGW/include/c++/3.3.1/bits/stl_iterator.h ****       operator=(typename _Container::const_reference __value) 
 360:d:/MTK/MTK2503/MTK2503/11CW1418SP4_03_CORETEK03AE_11C_V1_GPRS_MMI/Tools/MinGW/include/c++/3.3.1/bits/stl_iterator.h ****       { 
 361:d:/MTK/MTK2503/MTK2503/11CW1418SP4_03_CORETEK03AE_11C_V1_GPRS_MMI/Tools/MinGW/include/c++/3.3.1/bits/stl_iterator.h **** 	container->push_back(__value);
 362:d:/MTK/MTK2503/MTK2503/11CW1418SP4_03_CORETEK03AE_11C_V1_GPRS_MMI/Tools/MinGW/include/c++/3.3.1/bits/stl_iterator.h **** 	return *this;
 363:d:/MTK/MTK2503/MTK2503/11CW1418SP4_03_CORETEK03AE_11C_V1_GPRS_MMI/Tools/MinGW/include/c++/3.3.1/bits/stl_iterator.h ****       }
 364:d:/MTK/MTK2503/MTK2503/11CW1418SP4_03_CORETEK03AE_11C_V1_GPRS_MMI/Tools/MinGW/include/c++/3.3.1/bits/stl_iterator.h **** 
 365:d:/MTK/MTK2503/MTK2503/11CW1418SP4_03_CORETEK03AE_11C_V1_GPRS_MMI/Tools/MinGW/include/c++/3.3.1/bits/stl_iterator.h ****       /// Simply returns *this.
 366:d:/MTK/MTK2503/MTK2503/11CW1418SP4_03_CORETEK03AE_11C_V1_GPRS_MMI/Tools/MinGW/include/c++/3.3.1/bits/stl_iterator.h ****       back_insert_iterator& 
 367:d:/MTK/MTK2503/MTK2503/11CW1418SP4_03_CORETEK03AE_11C_V1_GPRS_MMI/Tools/MinGW/include/c++/3.3.1/bits/stl_iterator.h ****       operator*() { return *this; }
 368:d:/MTK/MTK2503/MTK2503/11CW1418SP4_03_CORETEK03AE_11C_V1_GPRS_MMI/Tools/MinGW/include/c++/3.3.1/bits/stl_iterator.h **** 
 369:d:/MTK/MTK2503/MTK2503/11CW1418SP4_03_CORETEK03AE_11C_V1_GPRS_MMI/Tools/MinGW/include/c++/3.3.1/bits/stl_iterator.h ****       /// Simply returns *this.  (This %iterator does not "move".)
 370:d:/MTK/MTK2503/MTK2503/11CW1418SP4_03_CORETEK03AE_11C_V1_GPRS_MMI/Tools/MinGW/include/c++/3.3.1/bits/stl_iterator.h ****       back_insert_iterator& 
 371:d:/MTK/MTK2503/MTK2503/11CW1418SP4_03_CORETEK03AE_11C_V1_GPRS_MMI/Tools/MinGW/include/c++/3.3.1/bits/stl_iterator.h ****       operator++() { return *this; }
 372:d:/MTK/MTK2503/MTK2503/11CW1418SP4_03_CORETEK03AE_11C_V1_GPRS_MMI/Tools/MinGW/include/c++/3.3.1/bits/stl_iterator.h **** 
 373:d:/MTK/MTK2503/MTK2503/11CW1418SP4_03_CORETEK03AE_11C_V1_GPRS_MMI/Tools/MinGW/include/c++/3.3.1/bits/stl_iterator.h ****       /// Simply returns *this.  (This %iterator does not "move".)
 374:d:/MTK/MTK2503/MTK2503/11CW1418SP4_03_CORETEK03AE_11C_V1_GPRS_MMI/Tools/MinGW/include/c++/3.3.1/bits/stl_iterator.h ****       back_insert_iterator
 375:d:/MTK/MTK2503/MTK2503/11CW1418SP4_03_CORETEK03AE_11C_V1_GPRS_MMI/Tools/MinGW/include/c++/3.3.1/bits/stl_iterator.h ****       operator++(int) { return *this; }
 376:d:/MTK/MTK2503/MTK2503/11CW1418SP4_03_CORETEK03AE_11C_V1_GPRS_MMI/Tools/MinGW/include/c++/3.3.1/bits/stl_iterator.h ****     };
 377:d:/MTK/MTK2503/MTK2503/11CW1418SP4_03_CORETEK03AE_11C_V1_GPRS_MMI/Tools/MinGW/include/c++/3.3.1/bits/stl_iterator.h **** 
 378:d:/MTK/MTK2503/MTK2503/11CW1418SP4_03_CORETEK03AE_11C_V1_GPRS_MMI/Tools/MinGW/include/c++/3.3.1/bits/stl_iterator.h ****   /**
 379:d:/MTK/MTK2503/MTK2503/11CW1418SP4_03_CORETEK03AE_11C_V1_GPRS_MMI/Tools/MinGW/include/c++/3.3.1/bits/stl_iterator.h ****    *  @param  x  A container of arbitrary type.
 380:d:/MTK/MTK2503/MTK2503/11CW1418SP4_03_CORETEK03AE_11C_V1_GPRS_MMI/Tools/MinGW/include/c++/3.3.1/bits/stl_iterator.h ****    *  @return  An instance of back_insert_iterator working on @p x.
 381:d:/MTK/MTK2503/MTK2503/11CW1418SP4_03_CORETEK03AE_11C_V1_GPRS_MMI/Tools/MinGW/include/c++/3.3.1/bits/stl_iterator.h ****    *
 382:d:/MTK/MTK2503/MTK2503/11CW1418SP4_03_CORETEK03AE_11C_V1_GPRS_MMI/Tools/MinGW/include/c++/3.3.1/bits/stl_iterator.h ****    *  This wrapper function helps in creating back_insert_iterator instances.
 383:d:/MTK/MTK2503/MTK2503/11CW1418SP4_03_CORETEK03AE_11C_V1_GPRS_MMI/Tools/MinGW/include/c++/3.3.1/bits/stl_iterator.h ****    *  Typing the name of the %iterator requires knowing the precise full
 384:d:/MTK/MTK2503/MTK2503/11CW1418SP4_03_CORETEK03AE_11C_V1_GPRS_MMI/Tools/MinGW/include/c++/3.3.1/bits/stl_iterator.h ****    *  type of the container, which can be tedious and impedes generic
 385:d:/MTK/MTK2503/MTK2503/11CW1418SP4_03_CORETEK03AE_11C_V1_GPRS_MMI/Tools/MinGW/include/c++/3.3.1/bits/stl_iterator.h ****    *  programming.  Using this function lets you take advantage of automatic
 386:d:/MTK/MTK2503/MTK2503/11CW1418SP4_03_CORETEK03AE_11C_V1_GPRS_MMI/Tools/MinGW/include/c++/3.3.1/bits/stl_iterator.h ****    *  template parameter deduction, making the compiler match the correct
 387:d:/MTK/MTK2503/MTK2503/11CW1418SP4_03_CORETEK03AE_11C_V1_GPRS_MMI/Tools/MinGW/include/c++/3.3.1/bits/stl_iterator.h ****    *  types for you.
 388:d:/MTK/MTK2503/MTK2503/11CW1418SP4_03_CORETEK03AE_11C_V1_GPRS_MMI/Tools/MinGW/include/c++/3.3.1/bits/stl_iterator.h ****   */
 389:d:/MTK/MTK2503/MTK2503/11CW1418SP4_03_CORETEK03AE_11C_V1_GPRS_MMI/Tools/MinGW/include/c++/3.3.1/bits/stl_iterator.h ****   template<typename _Container>
 390:d:/MTK/MTK2503/MTK2503/11CW1418SP4_03_CORETEK03AE_11C_V1_GPRS_MMI/Tools/MinGW/include/c++/3.3.1/bits/stl_iterator.h ****     inline back_insert_iterator<_Container> 
 391:d:/MTK/MTK2503/MTK2503/11CW1418SP4_03_CORETEK03AE_11C_V1_GPRS_MMI/Tools/MinGW/include/c++/3.3.1/bits/stl_iterator.h ****     back_inserter(_Container& __x) 
 392:d:/MTK/MTK2503/MTK2503/11CW1418SP4_03_CORETEK03AE_11C_V1_GPRS_MMI/Tools/MinGW/include/c++/3.3.1/bits/stl_iterator.h ****     { return back_insert_iterator<_Container>(__x); }
 393:d:/MTK/MTK2503/MTK2503/11CW1418SP4_03_CORETEK03AE_11C_V1_GPRS_MMI/Tools/MinGW/include/c++/3.3.1/bits/stl_iterator.h **** 
 394:d:/MTK/MTK2503/MTK2503/11CW1418SP4_03_CORETEK03AE_11C_V1_GPRS_MMI/Tools/MinGW/include/c++/3.3.1/bits/stl_iterator.h ****   /**
 395:d:/MTK/MTK2503/MTK2503/11CW1418SP4_03_CORETEK03AE_11C_V1_GPRS_MMI/Tools/MinGW/include/c++/3.3.1/bits/stl_iterator.h ****    *  @brief  Turns assignment into insertion.
 396:d:/MTK/MTK2503/MTK2503/11CW1418SP4_03_CORETEK03AE_11C_V1_GPRS_MMI/Tools/MinGW/include/c++/3.3.1/bits/stl_iterator.h ****    *
 397:d:/MTK/MTK2503/MTK2503/11CW1418SP4_03_CORETEK03AE_11C_V1_GPRS_MMI/Tools/MinGW/include/c++/3.3.1/bits/stl_iterator.h ****    *  These are output iterators, constructed from a container-of-T.
 398:d:/MTK/MTK2503/MTK2503/11CW1418SP4_03_CORETEK03AE_11C_V1_GPRS_MMI/Tools/MinGW/include/c++/3.3.1/bits/stl_iterator.h ****    *  Assigning a T to the iterator prepends it to the container using
 399:d:/MTK/MTK2503/MTK2503/11CW1418SP4_03_CORETEK03AE_11C_V1_GPRS_MMI/Tools/MinGW/include/c++/3.3.1/bits/stl_iterator.h ****    *  push_front.
 400:d:/MTK/MTK2503/MTK2503/11CW1418SP4_03_CORETEK03AE_11C_V1_GPRS_MMI/Tools/MinGW/include/c++/3.3.1/bits/stl_iterator.h ****    *
 401:d:/MTK/MTK2503/MTK2503/11CW1418SP4_03_CORETEK03AE_11C_V1_GPRS_MMI/Tools/MinGW/include/c++/3.3.1/bits/stl_iterator.h ****    *  Tip:  Using the front_inserter function to create these iterators can
 402:d:/MTK/MTK2503/MTK2503/11CW1418SP4_03_CORETEK03AE_11C_V1_GPRS_MMI/Tools/MinGW/include/c++/3.3.1/bits/stl_iterator.h ****    *  save typing.
 403:d:/MTK/MTK2503/MTK2503/11CW1418SP4_03_CORETEK03AE_11C_V1_GPRS_MMI/Tools/MinGW/include/c++/3.3.1/bits/stl_iterator.h ****   */
 404:d:/MTK/MTK2503/MTK2503/11CW1418SP4_03_CORETEK03AE_11C_V1_GPRS_MMI/Tools/MinGW/include/c++/3.3.1/bits/stl_iterator.h ****   template<typename _Container>
 405:d:/MTK/MTK2503/MTK2503/11CW1418SP4_03_CORETEK03AE_11C_V1_GPRS_MMI/Tools/MinGW/include/c++/3.3.1/bits/stl_iterator.h ****     class front_insert_iterator 
 406:d:/MTK/MTK2503/MTK2503/11CW1418SP4_03_CORETEK03AE_11C_V1_GPRS_MMI/Tools/MinGW/include/c++/3.3.1/bits/stl_iterator.h ****     : public iterator<output_iterator_tag, void, void, void, void>
 407:d:/MTK/MTK2503/MTK2503/11CW1418SP4_03_CORETEK03AE_11C_V1_GPRS_MMI/Tools/MinGW/include/c++/3.3.1/bits/stl_iterator.h ****     {
GAS LISTING d:/MTK/MTK2503/MTK2503/11CW1418SP4_03_CORETEK03AE_11C_V1_GPRS_MMI/plutommi/Customer/ResGenerator/gcctmp/ccQHcaaa.s 			page 87


 408:d:/MTK/MTK2503/MTK2503/11CW1418SP4_03_CORETEK03AE_11C_V1_GPRS_MMI/Tools/MinGW/include/c++/3.3.1/bits/stl_iterator.h ****     protected:
 409:d:/MTK/MTK2503/MTK2503/11CW1418SP4_03_CORETEK03AE_11C_V1_GPRS_MMI/Tools/MinGW/include/c++/3.3.1/bits/stl_iterator.h ****       _Container* container;
 410:d:/MTK/MTK2503/MTK2503/11CW1418SP4_03_CORETEK03AE_11C_V1_GPRS_MMI/Tools/MinGW/include/c++/3.3.1/bits/stl_iterator.h **** 
 411:d:/MTK/MTK2503/MTK2503/11CW1418SP4_03_CORETEK03AE_11C_V1_GPRS_MMI/Tools/MinGW/include/c++/3.3.1/bits/stl_iterator.h ****     public:
 412:d:/MTK/MTK2503/MTK2503/11CW1418SP4_03_CORETEK03AE_11C_V1_GPRS_MMI/Tools/MinGW/include/c++/3.3.1/bits/stl_iterator.h ****       /// A nested typedef for the type of whatever container you used.
 413:d:/MTK/MTK2503/MTK2503/11CW1418SP4_03_CORETEK03AE_11C_V1_GPRS_MMI/Tools/MinGW/include/c++/3.3.1/bits/stl_iterator.h ****       typedef _Container          container_type;
 414:d:/MTK/MTK2503/MTK2503/11CW1418SP4_03_CORETEK03AE_11C_V1_GPRS_MMI/Tools/MinGW/include/c++/3.3.1/bits/stl_iterator.h **** 
 415:d:/MTK/MTK2503/MTK2503/11CW1418SP4_03_CORETEK03AE_11C_V1_GPRS_MMI/Tools/MinGW/include/c++/3.3.1/bits/stl_iterator.h ****       /// The only way to create this %iterator is with a container.
 416:d:/MTK/MTK2503/MTK2503/11CW1418SP4_03_CORETEK03AE_11C_V1_GPRS_MMI/Tools/MinGW/include/c++/3.3.1/bits/stl_iterator.h ****       explicit front_insert_iterator(_Container& __x) : container(&__x) { }
 417:d:/MTK/MTK2503/MTK2503/11CW1418SP4_03_CORETEK03AE_11C_V1_GPRS_MMI/Tools/MinGW/include/c++/3.3.1/bits/stl_iterator.h **** 
 418:d:/MTK/MTK2503/MTK2503/11CW1418SP4_03_CORETEK03AE_11C_V1_GPRS_MMI/Tools/MinGW/include/c++/3.3.1/bits/stl_iterator.h ****       /**
 419:d:/MTK/MTK2503/MTK2503/11CW1418SP4_03_CORETEK03AE_11C_V1_GPRS_MMI/Tools/MinGW/include/c++/3.3.1/bits/stl_iterator.h ****        *  @param  value  An instance of whatever type
 420:d:/MTK/MTK2503/MTK2503/11CW1418SP4_03_CORETEK03AE_11C_V1_GPRS_MMI/Tools/MinGW/include/c++/3.3.1/bits/stl_iterator.h ****        *                 container_type::const_reference is; presumably a
 421:d:/MTK/MTK2503/MTK2503/11CW1418SP4_03_CORETEK03AE_11C_V1_GPRS_MMI/Tools/MinGW/include/c++/3.3.1/bits/stl_iterator.h ****        *                 reference-to-const T for container<T>.
 422:d:/MTK/MTK2503/MTK2503/11CW1418SP4_03_CORETEK03AE_11C_V1_GPRS_MMI/Tools/MinGW/include/c++/3.3.1/bits/stl_iterator.h ****        *  @return  This %iterator, for chained operations.
 423:d:/MTK/MTK2503/MTK2503/11CW1418SP4_03_CORETEK03AE_11C_V1_GPRS_MMI/Tools/MinGW/include/c++/3.3.1/bits/stl_iterator.h ****        *
 424:d:/MTK/MTK2503/MTK2503/11CW1418SP4_03_CORETEK03AE_11C_V1_GPRS_MMI/Tools/MinGW/include/c++/3.3.1/bits/stl_iterator.h ****        *  This kind of %iterator doesn't really have a "position" in the
 425:d:/MTK/MTK2503/MTK2503/11CW1418SP4_03_CORETEK03AE_11C_V1_GPRS_MMI/Tools/MinGW/include/c++/3.3.1/bits/stl_iterator.h ****        *  container (you can think of the position as being permanently at
 426:d:/MTK/MTK2503/MTK2503/11CW1418SP4_03_CORETEK03AE_11C_V1_GPRS_MMI/Tools/MinGW/include/c++/3.3.1/bits/stl_iterator.h ****        *  the front, if you like).  Assigning a value to the %iterator will
 427:d:/MTK/MTK2503/MTK2503/11CW1418SP4_03_CORETEK03AE_11C_V1_GPRS_MMI/Tools/MinGW/include/c++/3.3.1/bits/stl_iterator.h ****        *  always prepend the value to the front of the container.
 428:d:/MTK/MTK2503/MTK2503/11CW1418SP4_03_CORETEK03AE_11C_V1_GPRS_MMI/Tools/MinGW/include/c++/3.3.1/bits/stl_iterator.h ****       */
 429:d:/MTK/MTK2503/MTK2503/11CW1418SP4_03_CORETEK03AE_11C_V1_GPRS_MMI/Tools/MinGW/include/c++/3.3.1/bits/stl_iterator.h ****       front_insert_iterator&
 430:d:/MTK/MTK2503/MTK2503/11CW1418SP4_03_CORETEK03AE_11C_V1_GPRS_MMI/Tools/MinGW/include/c++/3.3.1/bits/stl_iterator.h ****       operator=(typename _Container::const_reference __value) 
 431:d:/MTK/MTK2503/MTK2503/11CW1418SP4_03_CORETEK03AE_11C_V1_GPRS_MMI/Tools/MinGW/include/c++/3.3.1/bits/stl_iterator.h ****       { 
 432:d:/MTK/MTK2503/MTK2503/11CW1418SP4_03_CORETEK03AE_11C_V1_GPRS_MMI/Tools/MinGW/include/c++/3.3.1/bits/stl_iterator.h **** 	container->push_front(__value);
 433:d:/MTK/MTK2503/MTK2503/11CW1418SP4_03_CORETEK03AE_11C_V1_GPRS_MMI/Tools/MinGW/include/c++/3.3.1/bits/stl_iterator.h **** 	return *this;
 434:d:/MTK/MTK2503/MTK2503/11CW1418SP4_03_CORETEK03AE_11C_V1_GPRS_MMI/Tools/MinGW/include/c++/3.3.1/bits/stl_iterator.h ****       }
 435:d:/MTK/MTK2503/MTK2503/11CW1418SP4_03_CORETEK03AE_11C_V1_GPRS_MMI/Tools/MinGW/include/c++/3.3.1/bits/stl_iterator.h **** 
 436:d:/MTK/MTK2503/MTK2503/11CW1418SP4_03_CORETEK03AE_11C_V1_GPRS_MMI/Tools/MinGW/include/c++/3.3.1/bits/stl_iterator.h ****       /// Simply returns *this.
 437:d:/MTK/MTK2503/MTK2503/11CW1418SP4_03_CORETEK03AE_11C_V1_GPRS_MMI/Tools/MinGW/include/c++/3.3.1/bits/stl_iterator.h ****       front_insert_iterator& 
 438:d:/MTK/MTK2503/MTK2503/11CW1418SP4_03_CORETEK03AE_11C_V1_GPRS_MMI/Tools/MinGW/include/c++/3.3.1/bits/stl_iterator.h ****       operator*() { return *this; }
 439:d:/MTK/MTK2503/MTK2503/11CW1418SP4_03_CORETEK03AE_11C_V1_GPRS_MMI/Tools/MinGW/include/c++/3.3.1/bits/stl_iterator.h **** 
 440:d:/MTK/MTK2503/MTK2503/11CW1418SP4_03_CORETEK03AE_11C_V1_GPRS_MMI/Tools/MinGW/include/c++/3.3.1/bits/stl_iterator.h ****       /// Simply returns *this.  (This %iterator does not "move".)
 441:d:/MTK/MTK2503/MTK2503/11CW1418SP4_03_CORETEK03AE_11C_V1_GPRS_MMI/Tools/MinGW/include/c++/3.3.1/bits/stl_iterator.h ****       front_insert_iterator& 
 442:d:/MTK/MTK2503/MTK2503/11CW1418SP4_03_CORETEK03AE_11C_V1_GPRS_MMI/Tools/MinGW/include/c++/3.3.1/bits/stl_iterator.h ****       operator++() { return *this; }
 443:d:/MTK/MTK2503/MTK2503/11CW1418SP4_03_CORETEK03AE_11C_V1_GPRS_MMI/Tools/MinGW/include/c++/3.3.1/bits/stl_iterator.h **** 
 444:d:/MTK/MTK2503/MTK2503/11CW1418SP4_03_CORETEK03AE_11C_V1_GPRS_MMI/Tools/MinGW/include/c++/3.3.1/bits/stl_iterator.h ****       /// Simply returns *this.  (This %iterator does not "move".)
 445:d:/MTK/MTK2503/MTK2503/11CW1418SP4_03_CORETEK03AE_11C_V1_GPRS_MMI/Tools/MinGW/include/c++/3.3.1/bits/stl_iterator.h ****       front_insert_iterator 
 446:d:/MTK/MTK2503/MTK2503/11CW1418SP4_03_CORETEK03AE_11C_V1_GPRS_MMI/Tools/MinGW/include/c++/3.3.1/bits/stl_iterator.h ****       operator++(int) { return *this; }
 447:d:/MTK/MTK2503/MTK2503/11CW1418SP4_03_CORETEK03AE_11C_V1_GPRS_MMI/Tools/MinGW/include/c++/3.3.1/bits/stl_iterator.h ****     };
 448:d:/MTK/MTK2503/MTK2503/11CW1418SP4_03_CORETEK03AE_11C_V1_GPRS_MMI/Tools/MinGW/include/c++/3.3.1/bits/stl_iterator.h **** 
 449:d:/MTK/MTK2503/MTK2503/11CW1418SP4_03_CORETEK03AE_11C_V1_GPRS_MMI/Tools/MinGW/include/c++/3.3.1/bits/stl_iterator.h ****   /**
 450:d:/MTK/MTK2503/MTK2503/11CW1418SP4_03_CORETEK03AE_11C_V1_GPRS_MMI/Tools/MinGW/include/c++/3.3.1/bits/stl_iterator.h ****    *  @param  x  A container of arbitrary type.
 451:d:/MTK/MTK2503/MTK2503/11CW1418SP4_03_CORETEK03AE_11C_V1_GPRS_MMI/Tools/MinGW/include/c++/3.3.1/bits/stl_iterator.h ****    *  @return  An instance of front_insert_iterator working on @p x.
 452:d:/MTK/MTK2503/MTK2503/11CW1418SP4_03_CORETEK03AE_11C_V1_GPRS_MMI/Tools/MinGW/include/c++/3.3.1/bits/stl_iterator.h ****    *
 453:d:/MTK/MTK2503/MTK2503/11CW1418SP4_03_CORETEK03AE_11C_V1_GPRS_MMI/Tools/MinGW/include/c++/3.3.1/bits/stl_iterator.h ****    *  This wrapper function helps in creating front_insert_iterator instances.
 454:d:/MTK/MTK2503/MTK2503/11CW1418SP4_03_CORETEK03AE_11C_V1_GPRS_MMI/Tools/MinGW/include/c++/3.3.1/bits/stl_iterator.h ****    *  Typing the name of the %iterator requires knowing the precise full
 455:d:/MTK/MTK2503/MTK2503/11CW1418SP4_03_CORETEK03AE_11C_V1_GPRS_MMI/Tools/MinGW/include/c++/3.3.1/bits/stl_iterator.h ****    *  type of the container, which can be tedious and impedes generic
 456:d:/MTK/MTK2503/MTK2503/11CW1418SP4_03_CORETEK03AE_11C_V1_GPRS_MMI/Tools/MinGW/include/c++/3.3.1/bits/stl_iterator.h ****    *  programming.  Using this function lets you take advantage of automatic
 457:d:/MTK/MTK2503/MTK2503/11CW1418SP4_03_CORETEK03AE_11C_V1_GPRS_MMI/Tools/MinGW/include/c++/3.3.1/bits/stl_iterator.h ****    *  template parameter deduction, making the compiler match the correct
 458:d:/MTK/MTK2503/MTK2503/11CW1418SP4_03_CORETEK03AE_11C_V1_GPRS_MMI/Tools/MinGW/include/c++/3.3.1/bits/stl_iterator.h ****    *  types for you.
 459:d:/MTK/MTK2503/MTK2503/11CW1418SP4_03_CORETEK03AE_11C_V1_GPRS_MMI/Tools/MinGW/include/c++/3.3.1/bits/stl_iterator.h ****   */
 460:d:/MTK/MTK2503/MTK2503/11CW1418SP4_03_CORETEK03AE_11C_V1_GPRS_MMI/Tools/MinGW/include/c++/3.3.1/bits/stl_iterator.h ****   template<typename _Container>
 461:d:/MTK/MTK2503/MTK2503/11CW1418SP4_03_CORETEK03AE_11C_V1_GPRS_MMI/Tools/MinGW/include/c++/3.3.1/bits/stl_iterator.h ****     inline front_insert_iterator<_Container> 
 462:d:/MTK/MTK2503/MTK2503/11CW1418SP4_03_CORETEK03AE_11C_V1_GPRS_MMI/Tools/MinGW/include/c++/3.3.1/bits/stl_iterator.h ****     front_inserter(_Container& __x) 
 463:d:/MTK/MTK2503/MTK2503/11CW1418SP4_03_CORETEK03AE_11C_V1_GPRS_MMI/Tools/MinGW/include/c++/3.3.1/bits/stl_iterator.h ****     { return front_insert_iterator<_Container>(__x); }
 464:d:/MTK/MTK2503/MTK2503/11CW1418SP4_03_CORETEK03AE_11C_V1_GPRS_MMI/Tools/MinGW/include/c++/3.3.1/bits/stl_iterator.h **** 
GAS LISTING d:/MTK/MTK2503/MTK2503/11CW1418SP4_03_CORETEK03AE_11C_V1_GPRS_MMI/plutommi/Customer/ResGenerator/gcctmp/ccQHcaaa.s 			page 88


 465:d:/MTK/MTK2503/MTK2503/11CW1418SP4_03_CORETEK03AE_11C_V1_GPRS_MMI/Tools/MinGW/include/c++/3.3.1/bits/stl_iterator.h ****   /**
 466:d:/MTK/MTK2503/MTK2503/11CW1418SP4_03_CORETEK03AE_11C_V1_GPRS_MMI/Tools/MinGW/include/c++/3.3.1/bits/stl_iterator.h ****    *  @brief  Turns assignment into insertion.
 467:d:/MTK/MTK2503/MTK2503/11CW1418SP4_03_CORETEK03AE_11C_V1_GPRS_MMI/Tools/MinGW/include/c++/3.3.1/bits/stl_iterator.h ****    *
 468:d:/MTK/MTK2503/MTK2503/11CW1418SP4_03_CORETEK03AE_11C_V1_GPRS_MMI/Tools/MinGW/include/c++/3.3.1/bits/stl_iterator.h ****    *  These are output iterators, constructed from a container-of-T.
 469:d:/MTK/MTK2503/MTK2503/11CW1418SP4_03_CORETEK03AE_11C_V1_GPRS_MMI/Tools/MinGW/include/c++/3.3.1/bits/stl_iterator.h ****    *  Assigning a T to the iterator inserts it in the container at the
 470:d:/MTK/MTK2503/MTK2503/11CW1418SP4_03_CORETEK03AE_11C_V1_GPRS_MMI/Tools/MinGW/include/c++/3.3.1/bits/stl_iterator.h ****    *  %iterator's position, rather than overwriting the value at that
 471:d:/MTK/MTK2503/MTK2503/11CW1418SP4_03_CORETEK03AE_11C_V1_GPRS_MMI/Tools/MinGW/include/c++/3.3.1/bits/stl_iterator.h ****    *  position.
 472:d:/MTK/MTK2503/MTK2503/11CW1418SP4_03_CORETEK03AE_11C_V1_GPRS_MMI/Tools/MinGW/include/c++/3.3.1/bits/stl_iterator.h ****    *
 473:d:/MTK/MTK2503/MTK2503/11CW1418SP4_03_CORETEK03AE_11C_V1_GPRS_MMI/Tools/MinGW/include/c++/3.3.1/bits/stl_iterator.h ****    *  (Sequences will actually insert a @e copy of the value before the
 474:d:/MTK/MTK2503/MTK2503/11CW1418SP4_03_CORETEK03AE_11C_V1_GPRS_MMI/Tools/MinGW/include/c++/3.3.1/bits/stl_iterator.h ****    *  %iterator's position.)
 475:d:/MTK/MTK2503/MTK2503/11CW1418SP4_03_CORETEK03AE_11C_V1_GPRS_MMI/Tools/MinGW/include/c++/3.3.1/bits/stl_iterator.h ****    *
 476:d:/MTK/MTK2503/MTK2503/11CW1418SP4_03_CORETEK03AE_11C_V1_GPRS_MMI/Tools/MinGW/include/c++/3.3.1/bits/stl_iterator.h ****    *  Tip:  Using the inserter function to create these iterators can
 477:d:/MTK/MTK2503/MTK2503/11CW1418SP4_03_CORETEK03AE_11C_V1_GPRS_MMI/Tools/MinGW/include/c++/3.3.1/bits/stl_iterator.h ****    *  save typing.
 478:d:/MTK/MTK2503/MTK2503/11CW1418SP4_03_CORETEK03AE_11C_V1_GPRS_MMI/Tools/MinGW/include/c++/3.3.1/bits/stl_iterator.h ****   */
 479:d:/MTK/MTK2503/MTK2503/11CW1418SP4_03_CORETEK03AE_11C_V1_GPRS_MMI/Tools/MinGW/include/c++/3.3.1/bits/stl_iterator.h ****   template<typename _Container>
 480:d:/MTK/MTK2503/MTK2503/11CW1418SP4_03_CORETEK03AE_11C_V1_GPRS_MMI/Tools/MinGW/include/c++/3.3.1/bits/stl_iterator.h ****     class insert_iterator 
 481:d:/MTK/MTK2503/MTK2503/11CW1418SP4_03_CORETEK03AE_11C_V1_GPRS_MMI/Tools/MinGW/include/c++/3.3.1/bits/stl_iterator.h ****     : public iterator<output_iterator_tag, void, void, void, void>
 482:d:/MTK/MTK2503/MTK2503/11CW1418SP4_03_CORETEK03AE_11C_V1_GPRS_MMI/Tools/MinGW/include/c++/3.3.1/bits/stl_iterator.h ****     {
 483:d:/MTK/MTK2503/MTK2503/11CW1418SP4_03_CORETEK03AE_11C_V1_GPRS_MMI/Tools/MinGW/include/c++/3.3.1/bits/stl_iterator.h ****     protected:
 484:d:/MTK/MTK2503/MTK2503/11CW1418SP4_03_CORETEK03AE_11C_V1_GPRS_MMI/Tools/MinGW/include/c++/3.3.1/bits/stl_iterator.h ****       _Container* container;
 485:d:/MTK/MTK2503/MTK2503/11CW1418SP4_03_CORETEK03AE_11C_V1_GPRS_MMI/Tools/MinGW/include/c++/3.3.1/bits/stl_iterator.h ****       typename _Container::iterator iter;
 486:d:/MTK/MTK2503/MTK2503/11CW1418SP4_03_CORETEK03AE_11C_V1_GPRS_MMI/Tools/MinGW/include/c++/3.3.1/bits/stl_iterator.h **** 
 487:d:/MTK/MTK2503/MTK2503/11CW1418SP4_03_CORETEK03AE_11C_V1_GPRS_MMI/Tools/MinGW/include/c++/3.3.1/bits/stl_iterator.h ****     public:
 488:d:/MTK/MTK2503/MTK2503/11CW1418SP4_03_CORETEK03AE_11C_V1_GPRS_MMI/Tools/MinGW/include/c++/3.3.1/bits/stl_iterator.h ****       /// A nested typedef for the type of whatever container you used.
 489:d:/MTK/MTK2503/MTK2503/11CW1418SP4_03_CORETEK03AE_11C_V1_GPRS_MMI/Tools/MinGW/include/c++/3.3.1/bits/stl_iterator.h ****       typedef _Container          container_type;
 490:d:/MTK/MTK2503/MTK2503/11CW1418SP4_03_CORETEK03AE_11C_V1_GPRS_MMI/Tools/MinGW/include/c++/3.3.1/bits/stl_iterator.h ****       
 491:d:/MTK/MTK2503/MTK2503/11CW1418SP4_03_CORETEK03AE_11C_V1_GPRS_MMI/Tools/MinGW/include/c++/3.3.1/bits/stl_iterator.h ****       /**
 492:d:/MTK/MTK2503/MTK2503/11CW1418SP4_03_CORETEK03AE_11C_V1_GPRS_MMI/Tools/MinGW/include/c++/3.3.1/bits/stl_iterator.h ****        *  The only way to create this %iterator is with a container and an
 493:d:/MTK/MTK2503/MTK2503/11CW1418SP4_03_CORETEK03AE_11C_V1_GPRS_MMI/Tools/MinGW/include/c++/3.3.1/bits/stl_iterator.h ****        *  initial position (a normal %iterator into the container).
 494:d:/MTK/MTK2503/MTK2503/11CW1418SP4_03_CORETEK03AE_11C_V1_GPRS_MMI/Tools/MinGW/include/c++/3.3.1/bits/stl_iterator.h ****       */
 495:d:/MTK/MTK2503/MTK2503/11CW1418SP4_03_CORETEK03AE_11C_V1_GPRS_MMI/Tools/MinGW/include/c++/3.3.1/bits/stl_iterator.h ****       insert_iterator(_Container& __x, typename _Container::iterator __i) 
 496:d:/MTK/MTK2503/MTK2503/11CW1418SP4_03_CORETEK03AE_11C_V1_GPRS_MMI/Tools/MinGW/include/c++/3.3.1/bits/stl_iterator.h ****       : container(&__x), iter(__i) {}
 497:d:/MTK/MTK2503/MTK2503/11CW1418SP4_03_CORETEK03AE_11C_V1_GPRS_MMI/Tools/MinGW/include/c++/3.3.1/bits/stl_iterator.h ****    
 498:d:/MTK/MTK2503/MTK2503/11CW1418SP4_03_CORETEK03AE_11C_V1_GPRS_MMI/Tools/MinGW/include/c++/3.3.1/bits/stl_iterator.h ****       /**
 499:d:/MTK/MTK2503/MTK2503/11CW1418SP4_03_CORETEK03AE_11C_V1_GPRS_MMI/Tools/MinGW/include/c++/3.3.1/bits/stl_iterator.h ****        *  @param  value  An instance of whatever type
 500:d:/MTK/MTK2503/MTK2503/11CW1418SP4_03_CORETEK03AE_11C_V1_GPRS_MMI/Tools/MinGW/include/c++/3.3.1/bits/stl_iterator.h ****        *                 container_type::const_reference is; presumably a
 501:d:/MTK/MTK2503/MTK2503/11CW1418SP4_03_CORETEK03AE_11C_V1_GPRS_MMI/Tools/MinGW/include/c++/3.3.1/bits/stl_iterator.h ****        *                 reference-to-const T for container<T>.
 502:d:/MTK/MTK2503/MTK2503/11CW1418SP4_03_CORETEK03AE_11C_V1_GPRS_MMI/Tools/MinGW/include/c++/3.3.1/bits/stl_iterator.h ****        *  @return  This %iterator, for chained operations.
 503:d:/MTK/MTK2503/MTK2503/11CW1418SP4_03_CORETEK03AE_11C_V1_GPRS_MMI/Tools/MinGW/include/c++/3.3.1/bits/stl_iterator.h ****        *
 504:d:/MTK/MTK2503/MTK2503/11CW1418SP4_03_CORETEK03AE_11C_V1_GPRS_MMI/Tools/MinGW/include/c++/3.3.1/bits/stl_iterator.h ****        *  This kind of %iterator maintains its own position in the
 505:d:/MTK/MTK2503/MTK2503/11CW1418SP4_03_CORETEK03AE_11C_V1_GPRS_MMI/Tools/MinGW/include/c++/3.3.1/bits/stl_iterator.h ****        *  container.  Assigning a value to the %iterator will insert the
 506:d:/MTK/MTK2503/MTK2503/11CW1418SP4_03_CORETEK03AE_11C_V1_GPRS_MMI/Tools/MinGW/include/c++/3.3.1/bits/stl_iterator.h ****        *  value into the container at the place before the %iterator.
 507:d:/MTK/MTK2503/MTK2503/11CW1418SP4_03_CORETEK03AE_11C_V1_GPRS_MMI/Tools/MinGW/include/c++/3.3.1/bits/stl_iterator.h ****        *
 508:d:/MTK/MTK2503/MTK2503/11CW1418SP4_03_CORETEK03AE_11C_V1_GPRS_MMI/Tools/MinGW/include/c++/3.3.1/bits/stl_iterator.h ****        *  The position is maintained such that subsequent assignments will
 509:d:/MTK/MTK2503/MTK2503/11CW1418SP4_03_CORETEK03AE_11C_V1_GPRS_MMI/Tools/MinGW/include/c++/3.3.1/bits/stl_iterator.h ****        *  insert values immediately after one another.  For example,
 510:d:/MTK/MTK2503/MTK2503/11CW1418SP4_03_CORETEK03AE_11C_V1_GPRS_MMI/Tools/MinGW/include/c++/3.3.1/bits/stl_iterator.h ****        *  @code
 511:d:/MTK/MTK2503/MTK2503/11CW1418SP4_03_CORETEK03AE_11C_V1_GPRS_MMI/Tools/MinGW/include/c++/3.3.1/bits/stl_iterator.h ****        *     // vector v contains A and Z
 512:d:/MTK/MTK2503/MTK2503/11CW1418SP4_03_CORETEK03AE_11C_V1_GPRS_MMI/Tools/MinGW/include/c++/3.3.1/bits/stl_iterator.h ****        *
 513:d:/MTK/MTK2503/MTK2503/11CW1418SP4_03_CORETEK03AE_11C_V1_GPRS_MMI/Tools/MinGW/include/c++/3.3.1/bits/stl_iterator.h ****        *     insert_iterator i (v, ++v.begin());
 514:d:/MTK/MTK2503/MTK2503/11CW1418SP4_03_CORETEK03AE_11C_V1_GPRS_MMI/Tools/MinGW/include/c++/3.3.1/bits/stl_iterator.h ****        *     i = 1;
 515:d:/MTK/MTK2503/MTK2503/11CW1418SP4_03_CORETEK03AE_11C_V1_GPRS_MMI/Tools/MinGW/include/c++/3.3.1/bits/stl_iterator.h ****        *     i = 2;
 516:d:/MTK/MTK2503/MTK2503/11CW1418SP4_03_CORETEK03AE_11C_V1_GPRS_MMI/Tools/MinGW/include/c++/3.3.1/bits/stl_iterator.h ****        *     i = 3;
 517:d:/MTK/MTK2503/MTK2503/11CW1418SP4_03_CORETEK03AE_11C_V1_GPRS_MMI/Tools/MinGW/include/c++/3.3.1/bits/stl_iterator.h ****        *
 518:d:/MTK/MTK2503/MTK2503/11CW1418SP4_03_CORETEK03AE_11C_V1_GPRS_MMI/Tools/MinGW/include/c++/3.3.1/bits/stl_iterator.h ****        *     // vector v contains A, 1, 2, 3, and Z
 519:d:/MTK/MTK2503/MTK2503/11CW1418SP4_03_CORETEK03AE_11C_V1_GPRS_MMI/Tools/MinGW/include/c++/3.3.1/bits/stl_iterator.h ****        *  @endcode
 520:d:/MTK/MTK2503/MTK2503/11CW1418SP4_03_CORETEK03AE_11C_V1_GPRS_MMI/Tools/MinGW/include/c++/3.3.1/bits/stl_iterator.h ****       */
 521:d:/MTK/MTK2503/MTK2503/11CW1418SP4_03_CORETEK03AE_11C_V1_GPRS_MMI/Tools/MinGW/include/c++/3.3.1/bits/stl_iterator.h ****       insert_iterator&
GAS LISTING d:/MTK/MTK2503/MTK2503/11CW1418SP4_03_CORETEK03AE_11C_V1_GPRS_MMI/plutommi/Customer/ResGenerator/gcctmp/ccQHcaaa.s 			page 89


 522:d:/MTK/MTK2503/MTK2503/11CW1418SP4_03_CORETEK03AE_11C_V1_GPRS_MMI/Tools/MinGW/include/c++/3.3.1/bits/stl_iterator.h ****       operator=(const typename _Container::const_reference __value) 
 523:d:/MTK/MTK2503/MTK2503/11CW1418SP4_03_CORETEK03AE_11C_V1_GPRS_MMI/Tools/MinGW/include/c++/3.3.1/bits/stl_iterator.h ****       { 
 524:d:/MTK/MTK2503/MTK2503/11CW1418SP4_03_CORETEK03AE_11C_V1_GPRS_MMI/Tools/MinGW/include/c++/3.3.1/bits/stl_iterator.h **** 	iter = container->insert(iter, __value);
 525:d:/MTK/MTK2503/MTK2503/11CW1418SP4_03_CORETEK03AE_11C_V1_GPRS_MMI/Tools/MinGW/include/c++/3.3.1/bits/stl_iterator.h **** 	++iter;
 526:d:/MTK/MTK2503/MTK2503/11CW1418SP4_03_CORETEK03AE_11C_V1_GPRS_MMI/Tools/MinGW/include/c++/3.3.1/bits/stl_iterator.h **** 	return *this;
 527:d:/MTK/MTK2503/MTK2503/11CW1418SP4_03_CORETEK03AE_11C_V1_GPRS_MMI/Tools/MinGW/include/c++/3.3.1/bits/stl_iterator.h ****       }
 528:d:/MTK/MTK2503/MTK2503/11CW1418SP4_03_CORETEK03AE_11C_V1_GPRS_MMI/Tools/MinGW/include/c++/3.3.1/bits/stl_iterator.h **** 
 529:d:/MTK/MTK2503/MTK2503/11CW1418SP4_03_CORETEK03AE_11C_V1_GPRS_MMI/Tools/MinGW/include/c++/3.3.1/bits/stl_iterator.h ****       /// Simply returns *this.
 530:d:/MTK/MTK2503/MTK2503/11CW1418SP4_03_CORETEK03AE_11C_V1_GPRS_MMI/Tools/MinGW/include/c++/3.3.1/bits/stl_iterator.h ****       insert_iterator& 
 531:d:/MTK/MTK2503/MTK2503/11CW1418SP4_03_CORETEK03AE_11C_V1_GPRS_MMI/Tools/MinGW/include/c++/3.3.1/bits/stl_iterator.h ****       operator*() { return *this; }
 532:d:/MTK/MTK2503/MTK2503/11CW1418SP4_03_CORETEK03AE_11C_V1_GPRS_MMI/Tools/MinGW/include/c++/3.3.1/bits/stl_iterator.h **** 
 533:d:/MTK/MTK2503/MTK2503/11CW1418SP4_03_CORETEK03AE_11C_V1_GPRS_MMI/Tools/MinGW/include/c++/3.3.1/bits/stl_iterator.h ****       /// Simply returns *this.  (This %iterator does not "move".)
 534:d:/MTK/MTK2503/MTK2503/11CW1418SP4_03_CORETEK03AE_11C_V1_GPRS_MMI/Tools/MinGW/include/c++/3.3.1/bits/stl_iterator.h ****       insert_iterator& 
 535:d:/MTK/MTK2503/MTK2503/11CW1418SP4_03_CORETEK03AE_11C_V1_GPRS_MMI/Tools/MinGW/include/c++/3.3.1/bits/stl_iterator.h ****       operator++() { return *this; }
 536:d:/MTK/MTK2503/MTK2503/11CW1418SP4_03_CORETEK03AE_11C_V1_GPRS_MMI/Tools/MinGW/include/c++/3.3.1/bits/stl_iterator.h **** 
 537:d:/MTK/MTK2503/MTK2503/11CW1418SP4_03_CORETEK03AE_11C_V1_GPRS_MMI/Tools/MinGW/include/c++/3.3.1/bits/stl_iterator.h ****       /// Simply returns *this.  (This %iterator does not "move".)
 538:d:/MTK/MTK2503/MTK2503/11CW1418SP4_03_CORETEK03AE_11C_V1_GPRS_MMI/Tools/MinGW/include/c++/3.3.1/bits/stl_iterator.h ****       insert_iterator& 
 539:d:/MTK/MTK2503/MTK2503/11CW1418SP4_03_CORETEK03AE_11C_V1_GPRS_MMI/Tools/MinGW/include/c++/3.3.1/bits/stl_iterator.h ****       operator++(int) { return *this; }
 540:d:/MTK/MTK2503/MTK2503/11CW1418SP4_03_CORETEK03AE_11C_V1_GPRS_MMI/Tools/MinGW/include/c++/3.3.1/bits/stl_iterator.h ****     };
 541:d:/MTK/MTK2503/MTK2503/11CW1418SP4_03_CORETEK03AE_11C_V1_GPRS_MMI/Tools/MinGW/include/c++/3.3.1/bits/stl_iterator.h ****   
 542:d:/MTK/MTK2503/MTK2503/11CW1418SP4_03_CORETEK03AE_11C_V1_GPRS_MMI/Tools/MinGW/include/c++/3.3.1/bits/stl_iterator.h ****   /**
 543:d:/MTK/MTK2503/MTK2503/11CW1418SP4_03_CORETEK03AE_11C_V1_GPRS_MMI/Tools/MinGW/include/c++/3.3.1/bits/stl_iterator.h ****    *  @param  x  A container of arbitrary type.
 544:d:/MTK/MTK2503/MTK2503/11CW1418SP4_03_CORETEK03AE_11C_V1_GPRS_MMI/Tools/MinGW/include/c++/3.3.1/bits/stl_iterator.h ****    *  @return  An instance of insert_iterator working on @p x.
 545:d:/MTK/MTK2503/MTK2503/11CW1418SP4_03_CORETEK03AE_11C_V1_GPRS_MMI/Tools/MinGW/include/c++/3.3.1/bits/stl_iterator.h ****    *
 546:d:/MTK/MTK2503/MTK2503/11CW1418SP4_03_CORETEK03AE_11C_V1_GPRS_MMI/Tools/MinGW/include/c++/3.3.1/bits/stl_iterator.h ****    *  This wrapper function helps in creating insert_iterator instances.
 547:d:/MTK/MTK2503/MTK2503/11CW1418SP4_03_CORETEK03AE_11C_V1_GPRS_MMI/Tools/MinGW/include/c++/3.3.1/bits/stl_iterator.h ****    *  Typing the name of the %iterator requires knowing the precise full
 548:d:/MTK/MTK2503/MTK2503/11CW1418SP4_03_CORETEK03AE_11C_V1_GPRS_MMI/Tools/MinGW/include/c++/3.3.1/bits/stl_iterator.h ****    *  type of the container, which can be tedious and impedes generic
 549:d:/MTK/MTK2503/MTK2503/11CW1418SP4_03_CORETEK03AE_11C_V1_GPRS_MMI/Tools/MinGW/include/c++/3.3.1/bits/stl_iterator.h ****    *  programming.  Using this function lets you take advantage of automatic
 550:d:/MTK/MTK2503/MTK2503/11CW1418SP4_03_CORETEK03AE_11C_V1_GPRS_MMI/Tools/MinGW/include/c++/3.3.1/bits/stl_iterator.h ****    *  template parameter deduction, making the compiler match the correct
 551:d:/MTK/MTK2503/MTK2503/11CW1418SP4_03_CORETEK03AE_11C_V1_GPRS_MMI/Tools/MinGW/include/c++/3.3.1/bits/stl_iterator.h ****    *  types for you.
 552:d:/MTK/MTK2503/MTK2503/11CW1418SP4_03_CORETEK03AE_11C_V1_GPRS_MMI/Tools/MinGW/include/c++/3.3.1/bits/stl_iterator.h ****   */
 553:d:/MTK/MTK2503/MTK2503/11CW1418SP4_03_CORETEK03AE_11C_V1_GPRS_MMI/Tools/MinGW/include/c++/3.3.1/bits/stl_iterator.h ****   template<typename _Container, typename _Iterator>
 554:d:/MTK/MTK2503/MTK2503/11CW1418SP4_03_CORETEK03AE_11C_V1_GPRS_MMI/Tools/MinGW/include/c++/3.3.1/bits/stl_iterator.h ****     inline insert_iterator<_Container> 
 555:d:/MTK/MTK2503/MTK2503/11CW1418SP4_03_CORETEK03AE_11C_V1_GPRS_MMI/Tools/MinGW/include/c++/3.3.1/bits/stl_iterator.h ****     inserter(_Container& __x, _Iterator __i)
 556:d:/MTK/MTK2503/MTK2503/11CW1418SP4_03_CORETEK03AE_11C_V1_GPRS_MMI/Tools/MinGW/include/c++/3.3.1/bits/stl_iterator.h ****     {
 557:d:/MTK/MTK2503/MTK2503/11CW1418SP4_03_CORETEK03AE_11C_V1_GPRS_MMI/Tools/MinGW/include/c++/3.3.1/bits/stl_iterator.h ****       return insert_iterator<_Container>(__x, 
 558:d:/MTK/MTK2503/MTK2503/11CW1418SP4_03_CORETEK03AE_11C_V1_GPRS_MMI/Tools/MinGW/include/c++/3.3.1/bits/stl_iterator.h **** 					 typename _Container::iterator(__i));
 559:d:/MTK/MTK2503/MTK2503/11CW1418SP4_03_CORETEK03AE_11C_V1_GPRS_MMI/Tools/MinGW/include/c++/3.3.1/bits/stl_iterator.h ****     }
 560:d:/MTK/MTK2503/MTK2503/11CW1418SP4_03_CORETEK03AE_11C_V1_GPRS_MMI/Tools/MinGW/include/c++/3.3.1/bits/stl_iterator.h **** } // namespace std
 561:d:/MTK/MTK2503/MTK2503/11CW1418SP4_03_CORETEK03AE_11C_V1_GPRS_MMI/Tools/MinGW/include/c++/3.3.1/bits/stl_iterator.h **** 
 562:d:/MTK/MTK2503/MTK2503/11CW1418SP4_03_CORETEK03AE_11C_V1_GPRS_MMI/Tools/MinGW/include/c++/3.3.1/bits/stl_iterator.h **** namespace __gnu_cxx
 563:d:/MTK/MTK2503/MTK2503/11CW1418SP4_03_CORETEK03AE_11C_V1_GPRS_MMI/Tools/MinGW/include/c++/3.3.1/bits/stl_iterator.h **** {  
 564:d:/MTK/MTK2503/MTK2503/11CW1418SP4_03_CORETEK03AE_11C_V1_GPRS_MMI/Tools/MinGW/include/c++/3.3.1/bits/stl_iterator.h ****   // This iterator adapter is 'normal' in the sense that it does not
 565:d:/MTK/MTK2503/MTK2503/11CW1418SP4_03_CORETEK03AE_11C_V1_GPRS_MMI/Tools/MinGW/include/c++/3.3.1/bits/stl_iterator.h ****   // change the semantics of any of the operators of its iterator
 566:d:/MTK/MTK2503/MTK2503/11CW1418SP4_03_CORETEK03AE_11C_V1_GPRS_MMI/Tools/MinGW/include/c++/3.3.1/bits/stl_iterator.h ****   // parameter.  Its primary purpose is to convert an iterator that is
 567:d:/MTK/MTK2503/MTK2503/11CW1418SP4_03_CORETEK03AE_11C_V1_GPRS_MMI/Tools/MinGW/include/c++/3.3.1/bits/stl_iterator.h ****   // not a class, e.g. a pointer, into an iterator that is a class.
 568:d:/MTK/MTK2503/MTK2503/11CW1418SP4_03_CORETEK03AE_11C_V1_GPRS_MMI/Tools/MinGW/include/c++/3.3.1/bits/stl_iterator.h ****   // The _Container parameter exists solely so that different containers
 569:d:/MTK/MTK2503/MTK2503/11CW1418SP4_03_CORETEK03AE_11C_V1_GPRS_MMI/Tools/MinGW/include/c++/3.3.1/bits/stl_iterator.h ****   // using this template can instantiate different types, even if the
 570:d:/MTK/MTK2503/MTK2503/11CW1418SP4_03_CORETEK03AE_11C_V1_GPRS_MMI/Tools/MinGW/include/c++/3.3.1/bits/stl_iterator.h ****   // _Iterator parameter is the same.
 571:d:/MTK/MTK2503/MTK2503/11CW1418SP4_03_CORETEK03AE_11C_V1_GPRS_MMI/Tools/MinGW/include/c++/3.3.1/bits/stl_iterator.h ****   using std::iterator_traits;
 572:d:/MTK/MTK2503/MTK2503/11CW1418SP4_03_CORETEK03AE_11C_V1_GPRS_MMI/Tools/MinGW/include/c++/3.3.1/bits/stl_iterator.h ****   using std::iterator;
 573:d:/MTK/MTK2503/MTK2503/11CW1418SP4_03_CORETEK03AE_11C_V1_GPRS_MMI/Tools/MinGW/include/c++/3.3.1/bits/stl_iterator.h ****   template<typename _Iterator, typename _Container>
 574:d:/MTK/MTK2503/MTK2503/11CW1418SP4_03_CORETEK03AE_11C_V1_GPRS_MMI/Tools/MinGW/include/c++/3.3.1/bits/stl_iterator.h ****     class __normal_iterator
 575:d:/MTK/MTK2503/MTK2503/11CW1418SP4_03_CORETEK03AE_11C_V1_GPRS_MMI/Tools/MinGW/include/c++/3.3.1/bits/stl_iterator.h ****       : public iterator<typename iterator_traits<_Iterator>::iterator_category,
 576:d:/MTK/MTK2503/MTK2503/11CW1418SP4_03_CORETEK03AE_11C_V1_GPRS_MMI/Tools/MinGW/include/c++/3.3.1/bits/stl_iterator.h ****                         typename iterator_traits<_Iterator>::value_type,
 577:d:/MTK/MTK2503/MTK2503/11CW1418SP4_03_CORETEK03AE_11C_V1_GPRS_MMI/Tools/MinGW/include/c++/3.3.1/bits/stl_iterator.h ****                         typename iterator_traits<_Iterator>::difference_type,
 578:d:/MTK/MTK2503/MTK2503/11CW1418SP4_03_CORETEK03AE_11C_V1_GPRS_MMI/Tools/MinGW/include/c++/3.3.1/bits/stl_iterator.h ****                         typename iterator_traits<_Iterator>::pointer,
GAS LISTING d:/MTK/MTK2503/MTK2503/11CW1418SP4_03_CORETEK03AE_11C_V1_GPRS_MMI/plutommi/Customer/ResGenerator/gcctmp/ccQHcaaa.s 			page 90


 579:d:/MTK/MTK2503/MTK2503/11CW1418SP4_03_CORETEK03AE_11C_V1_GPRS_MMI/Tools/MinGW/include/c++/3.3.1/bits/stl_iterator.h ****                         typename iterator_traits<_Iterator>::reference>
 580:d:/MTK/MTK2503/MTK2503/11CW1418SP4_03_CORETEK03AE_11C_V1_GPRS_MMI/Tools/MinGW/include/c++/3.3.1/bits/stl_iterator.h ****     {
 581:d:/MTK/MTK2503/MTK2503/11CW1418SP4_03_CORETEK03AE_11C_V1_GPRS_MMI/Tools/MinGW/include/c++/3.3.1/bits/stl_iterator.h ****     protected:
 582:d:/MTK/MTK2503/MTK2503/11CW1418SP4_03_CORETEK03AE_11C_V1_GPRS_MMI/Tools/MinGW/include/c++/3.3.1/bits/stl_iterator.h ****       _Iterator _M_current;
 583:d:/MTK/MTK2503/MTK2503/11CW1418SP4_03_CORETEK03AE_11C_V1_GPRS_MMI/Tools/MinGW/include/c++/3.3.1/bits/stl_iterator.h ****       
 584:d:/MTK/MTK2503/MTK2503/11CW1418SP4_03_CORETEK03AE_11C_V1_GPRS_MMI/Tools/MinGW/include/c++/3.3.1/bits/stl_iterator.h ****     public:
 585:d:/MTK/MTK2503/MTK2503/11CW1418SP4_03_CORETEK03AE_11C_V1_GPRS_MMI/Tools/MinGW/include/c++/3.3.1/bits/stl_iterator.h ****       typedef typename iterator_traits<_Iterator>::difference_type 	
 586:d:/MTK/MTK2503/MTK2503/11CW1418SP4_03_CORETEK03AE_11C_V1_GPRS_MMI/Tools/MinGW/include/c++/3.3.1/bits/stl_iterator.h ****       							       difference_type;
 587:d:/MTK/MTK2503/MTK2503/11CW1418SP4_03_CORETEK03AE_11C_V1_GPRS_MMI/Tools/MinGW/include/c++/3.3.1/bits/stl_iterator.h ****       typedef typename iterator_traits<_Iterator>::reference   reference;
 588:d:/MTK/MTK2503/MTK2503/11CW1418SP4_03_CORETEK03AE_11C_V1_GPRS_MMI/Tools/MinGW/include/c++/3.3.1/bits/stl_iterator.h ****       typedef typename iterator_traits<_Iterator>::pointer     pointer;
 589:d:/MTK/MTK2503/MTK2503/11CW1418SP4_03_CORETEK03AE_11C_V1_GPRS_MMI/Tools/MinGW/include/c++/3.3.1/bits/stl_iterator.h **** 
 590:d:/MTK/MTK2503/MTK2503/11CW1418SP4_03_CORETEK03AE_11C_V1_GPRS_MMI/Tools/MinGW/include/c++/3.3.1/bits/stl_iterator.h ****       __normal_iterator() : _M_current(_Iterator()) { }
 591:d:/MTK/MTK2503/MTK2503/11CW1418SP4_03_CORETEK03AE_11C_V1_GPRS_MMI/Tools/MinGW/include/c++/3.3.1/bits/stl_iterator.h **** 
 592:d:/MTK/MTK2503/MTK2503/11CW1418SP4_03_CORETEK03AE_11C_V1_GPRS_MMI/Tools/MinGW/include/c++/3.3.1/bits/stl_iterator.h ****       explicit 
 593:d:/MTK/MTK2503/MTK2503/11CW1418SP4_03_CORETEK03AE_11C_V1_GPRS_MMI/Tools/MinGW/include/c++/3.3.1/bits/stl_iterator.h ****       __normal_iterator(const _Iterator& __i) : _M_current(__i) { }
 594:d:/MTK/MTK2503/MTK2503/11CW1418SP4_03_CORETEK03AE_11C_V1_GPRS_MMI/Tools/MinGW/include/c++/3.3.1/bits/stl_iterator.h **** 
 595:d:/MTK/MTK2503/MTK2503/11CW1418SP4_03_CORETEK03AE_11C_V1_GPRS_MMI/Tools/MinGW/include/c++/3.3.1/bits/stl_iterator.h ****       // Allow iterator to const_iterator conversion
 596:d:/MTK/MTK2503/MTK2503/11CW1418SP4_03_CORETEK03AE_11C_V1_GPRS_MMI/Tools/MinGW/include/c++/3.3.1/bits/stl_iterator.h ****       template<typename _Iter>
 597:d:/MTK/MTK2503/MTK2503/11CW1418SP4_03_CORETEK03AE_11C_V1_GPRS_MMI/Tools/MinGW/include/c++/3.3.1/bits/stl_iterator.h ****       inline __normal_iterator(const __normal_iterator<_Iter, _Container>& __i)
 598:d:/MTK/MTK2503/MTK2503/11CW1418SP4_03_CORETEK03AE_11C_V1_GPRS_MMI/Tools/MinGW/include/c++/3.3.1/bits/stl_iterator.h **** 	: _M_current(__i.base()) { }
 599:d:/MTK/MTK2503/MTK2503/11CW1418SP4_03_CORETEK03AE_11C_V1_GPRS_MMI/Tools/MinGW/include/c++/3.3.1/bits/stl_iterator.h **** 
 600:d:/MTK/MTK2503/MTK2503/11CW1418SP4_03_CORETEK03AE_11C_V1_GPRS_MMI/Tools/MinGW/include/c++/3.3.1/bits/stl_iterator.h ****       // Forward iterator requirements
 601:d:/MTK/MTK2503/MTK2503/11CW1418SP4_03_CORETEK03AE_11C_V1_GPRS_MMI/Tools/MinGW/include/c++/3.3.1/bits/stl_iterator.h ****       reference
 602:d:/MTK/MTK2503/MTK2503/11CW1418SP4_03_CORETEK03AE_11C_V1_GPRS_MMI/Tools/MinGW/include/c++/3.3.1/bits/stl_iterator.h ****       operator*() const { return *_M_current; }
 603:d:/MTK/MTK2503/MTK2503/11CW1418SP4_03_CORETEK03AE_11C_V1_GPRS_MMI/Tools/MinGW/include/c++/3.3.1/bits/stl_iterator.h ****       
 604:d:/MTK/MTK2503/MTK2503/11CW1418SP4_03_CORETEK03AE_11C_V1_GPRS_MMI/Tools/MinGW/include/c++/3.3.1/bits/stl_iterator.h ****       pointer
 605:d:/MTK/MTK2503/MTK2503/11CW1418SP4_03_CORETEK03AE_11C_V1_GPRS_MMI/Tools/MinGW/include/c++/3.3.1/bits/stl_iterator.h ****       operator->() const { return _M_current; }
 606:d:/MTK/MTK2503/MTK2503/11CW1418SP4_03_CORETEK03AE_11C_V1_GPRS_MMI/Tools/MinGW/include/c++/3.3.1/bits/stl_iterator.h ****       
 607:d:/MTK/MTK2503/MTK2503/11CW1418SP4_03_CORETEK03AE_11C_V1_GPRS_MMI/Tools/MinGW/include/c++/3.3.1/bits/stl_iterator.h ****       __normal_iterator&
 608:d:/MTK/MTK2503/MTK2503/11CW1418SP4_03_CORETEK03AE_11C_V1_GPRS_MMI/Tools/MinGW/include/c++/3.3.1/bits/stl_iterator.h ****       operator++() { ++_M_current; return *this; }
 609:d:/MTK/MTK2503/MTK2503/11CW1418SP4_03_CORETEK03AE_11C_V1_GPRS_MMI/Tools/MinGW/include/c++/3.3.1/bits/stl_iterator.h ****       
 610:d:/MTK/MTK2503/MTK2503/11CW1418SP4_03_CORETEK03AE_11C_V1_GPRS_MMI/Tools/MinGW/include/c++/3.3.1/bits/stl_iterator.h ****       __normal_iterator
 611:d:/MTK/MTK2503/MTK2503/11CW1418SP4_03_CORETEK03AE_11C_V1_GPRS_MMI/Tools/MinGW/include/c++/3.3.1/bits/stl_iterator.h ****       operator++(int) { return __normal_iterator(_M_current++); }
 612:d:/MTK/MTK2503/MTK2503/11CW1418SP4_03_CORETEK03AE_11C_V1_GPRS_MMI/Tools/MinGW/include/c++/3.3.1/bits/stl_iterator.h ****       
 613:d:/MTK/MTK2503/MTK2503/11CW1418SP4_03_CORETEK03AE_11C_V1_GPRS_MMI/Tools/MinGW/include/c++/3.3.1/bits/stl_iterator.h ****       // Bidirectional iterator requirements
 614:d:/MTK/MTK2503/MTK2503/11CW1418SP4_03_CORETEK03AE_11C_V1_GPRS_MMI/Tools/MinGW/include/c++/3.3.1/bits/stl_iterator.h ****       __normal_iterator&
 615:d:/MTK/MTK2503/MTK2503/11CW1418SP4_03_CORETEK03AE_11C_V1_GPRS_MMI/Tools/MinGW/include/c++/3.3.1/bits/stl_iterator.h ****       operator--() { --_M_current; return *this; }
 616:d:/MTK/MTK2503/MTK2503/11CW1418SP4_03_CORETEK03AE_11C_V1_GPRS_MMI/Tools/MinGW/include/c++/3.3.1/bits/stl_iterator.h ****       
 617:d:/MTK/MTK2503/MTK2503/11CW1418SP4_03_CORETEK03AE_11C_V1_GPRS_MMI/Tools/MinGW/include/c++/3.3.1/bits/stl_iterator.h ****       __normal_iterator
 618:d:/MTK/MTK2503/MTK2503/11CW1418SP4_03_CORETEK03AE_11C_V1_GPRS_MMI/Tools/MinGW/include/c++/3.3.1/bits/stl_iterator.h ****       operator--(int) { return __normal_iterator(_M_current--); }
 619:d:/MTK/MTK2503/MTK2503/11CW1418SP4_03_CORETEK03AE_11C_V1_GPRS_MMI/Tools/MinGW/include/c++/3.3.1/bits/stl_iterator.h ****       
 620:d:/MTK/MTK2503/MTK2503/11CW1418SP4_03_CORETEK03AE_11C_V1_GPRS_MMI/Tools/MinGW/include/c++/3.3.1/bits/stl_iterator.h ****       // Random access iterator requirements
 621:d:/MTK/MTK2503/MTK2503/11CW1418SP4_03_CORETEK03AE_11C_V1_GPRS_MMI/Tools/MinGW/include/c++/3.3.1/bits/stl_iterator.h ****       reference
 622:d:/MTK/MTK2503/MTK2503/11CW1418SP4_03_CORETEK03AE_11C_V1_GPRS_MMI/Tools/MinGW/include/c++/3.3.1/bits/stl_iterator.h ****       operator[](const difference_type& __n) const
 623:d:/MTK/MTK2503/MTK2503/11CW1418SP4_03_CORETEK03AE_11C_V1_GPRS_MMI/Tools/MinGW/include/c++/3.3.1/bits/stl_iterator.h ****       { return _M_current[__n]; }
 624:d:/MTK/MTK2503/MTK2503/11CW1418SP4_03_CORETEK03AE_11C_V1_GPRS_MMI/Tools/MinGW/include/c++/3.3.1/bits/stl_iterator.h ****       
 625:d:/MTK/MTK2503/MTK2503/11CW1418SP4_03_CORETEK03AE_11C_V1_GPRS_MMI/Tools/MinGW/include/c++/3.3.1/bits/stl_iterator.h ****       __normal_iterator&
 626:d:/MTK/MTK2503/MTK2503/11CW1418SP4_03_CORETEK03AE_11C_V1_GPRS_MMI/Tools/MinGW/include/c++/3.3.1/bits/stl_iterator.h ****       operator+=(const difference_type& __n)
 627:d:/MTK/MTK2503/MTK2503/11CW1418SP4_03_CORETEK03AE_11C_V1_GPRS_MMI/Tools/MinGW/include/c++/3.3.1/bits/stl_iterator.h ****       { _M_current += __n; return *this; }
 628:d:/MTK/MTK2503/MTK2503/11CW1418SP4_03_CORETEK03AE_11C_V1_GPRS_MMI/Tools/MinGW/include/c++/3.3.1/bits/stl_iterator.h **** 
 629:d:/MTK/MTK2503/MTK2503/11CW1418SP4_03_CORETEK03AE_11C_V1_GPRS_MMI/Tools/MinGW/include/c++/3.3.1/bits/stl_iterator.h ****       __normal_iterator
 630:d:/MTK/MTK2503/MTK2503/11CW1418SP4_03_CORETEK03AE_11C_V1_GPRS_MMI/Tools/MinGW/include/c++/3.3.1/bits/stl_iterator.h ****       operator+(const difference_type& __n) const
 631:d:/MTK/MTK2503/MTK2503/11CW1418SP4_03_CORETEK03AE_11C_V1_GPRS_MMI/Tools/MinGW/include/c++/3.3.1/bits/stl_iterator.h ****       { return __normal_iterator(_M_current + __n); }
 632:d:/MTK/MTK2503/MTK2503/11CW1418SP4_03_CORETEK03AE_11C_V1_GPRS_MMI/Tools/MinGW/include/c++/3.3.1/bits/stl_iterator.h ****       
 633:d:/MTK/MTK2503/MTK2503/11CW1418SP4_03_CORETEK03AE_11C_V1_GPRS_MMI/Tools/MinGW/include/c++/3.3.1/bits/stl_iterator.h ****       __normal_iterator&
 634:d:/MTK/MTK2503/MTK2503/11CW1418SP4_03_CORETEK03AE_11C_V1_GPRS_MMI/Tools/MinGW/include/c++/3.3.1/bits/stl_iterator.h ****       operator-=(const difference_type& __n)
 635:d:/MTK/MTK2503/MTK2503/11CW1418SP4_03_CORETEK03AE_11C_V1_GPRS_MMI/Tools/MinGW/include/c++/3.3.1/bits/stl_iterator.h ****       { _M_current -= __n; return *this; }
GAS LISTING d:/MTK/MTK2503/MTK2503/11CW1418SP4_03_CORETEK03AE_11C_V1_GPRS_MMI/plutommi/Customer/ResGenerator/gcctmp/ccQHcaaa.s 			page 91


 636:d:/MTK/MTK2503/MTK2503/11CW1418SP4_03_CORETEK03AE_11C_V1_GPRS_MMI/Tools/MinGW/include/c++/3.3.1/bits/stl_iterator.h ****       
 637:d:/MTK/MTK2503/MTK2503/11CW1418SP4_03_CORETEK03AE_11C_V1_GPRS_MMI/Tools/MinGW/include/c++/3.3.1/bits/stl_iterator.h ****       __normal_iterator
 638:d:/MTK/MTK2503/MTK2503/11CW1418SP4_03_CORETEK03AE_11C_V1_GPRS_MMI/Tools/MinGW/include/c++/3.3.1/bits/stl_iterator.h ****       operator-(const difference_type& __n) const
 639:d:/MTK/MTK2503/MTK2503/11CW1418SP4_03_CORETEK03AE_11C_V1_GPRS_MMI/Tools/MinGW/include/c++/3.3.1/bits/stl_iterator.h ****       { return __normal_iterator(_M_current - __n); }
 640:d:/MTK/MTK2503/MTK2503/11CW1418SP4_03_CORETEK03AE_11C_V1_GPRS_MMI/Tools/MinGW/include/c++/3.3.1/bits/stl_iterator.h ****       
 641:d:/MTK/MTK2503/MTK2503/11CW1418SP4_03_CORETEK03AE_11C_V1_GPRS_MMI/Tools/MinGW/include/c++/3.3.1/bits/stl_iterator.h ****       const _Iterator& 
 642:d:/MTK/MTK2503/MTK2503/11CW1418SP4_03_CORETEK03AE_11C_V1_GPRS_MMI/Tools/MinGW/include/c++/3.3.1/bits/stl_iterator.h ****       base() const { return _M_current; }
 643:d:/MTK/MTK2503/MTK2503/11CW1418SP4_03_CORETEK03AE_11C_V1_GPRS_MMI/Tools/MinGW/include/c++/3.3.1/bits/stl_iterator.h ****     };
 644:d:/MTK/MTK2503/MTK2503/11CW1418SP4_03_CORETEK03AE_11C_V1_GPRS_MMI/Tools/MinGW/include/c++/3.3.1/bits/stl_iterator.h **** 
 645:d:/MTK/MTK2503/MTK2503/11CW1418SP4_03_CORETEK03AE_11C_V1_GPRS_MMI/Tools/MinGW/include/c++/3.3.1/bits/stl_iterator.h ****   // Note: In what follows, the left- and right-hand-side iterators are
 646:d:/MTK/MTK2503/MTK2503/11CW1418SP4_03_CORETEK03AE_11C_V1_GPRS_MMI/Tools/MinGW/include/c++/3.3.1/bits/stl_iterator.h ****   // allowed to vary in types (conceptually in cv-qualification) so that
 647:d:/MTK/MTK2503/MTK2503/11CW1418SP4_03_CORETEK03AE_11C_V1_GPRS_MMI/Tools/MinGW/include/c++/3.3.1/bits/stl_iterator.h ****   // comparaison between cv-qualified and non-cv-qualified iterators be
 648:d:/MTK/MTK2503/MTK2503/11CW1418SP4_03_CORETEK03AE_11C_V1_GPRS_MMI/Tools/MinGW/include/c++/3.3.1/bits/stl_iterator.h ****   // valid.  However, the greedy and unfriendly operators in std::rel_ops
 649:d:/MTK/MTK2503/MTK2503/11CW1418SP4_03_CORETEK03AE_11C_V1_GPRS_MMI/Tools/MinGW/include/c++/3.3.1/bits/stl_iterator.h ****   // will make overload resolution ambiguous (when in scope) if we don't
 650:d:/MTK/MTK2503/MTK2503/11CW1418SP4_03_CORETEK03AE_11C_V1_GPRS_MMI/Tools/MinGW/include/c++/3.3.1/bits/stl_iterator.h ****   // provide overloads whose operands are of the same type.  Can someone
 651:d:/MTK/MTK2503/MTK2503/11CW1418SP4_03_CORETEK03AE_11C_V1_GPRS_MMI/Tools/MinGW/include/c++/3.3.1/bits/stl_iterator.h ****   // remind me what generic programming is about? -- Gaby
 652:d:/MTK/MTK2503/MTK2503/11CW1418SP4_03_CORETEK03AE_11C_V1_GPRS_MMI/Tools/MinGW/include/c++/3.3.1/bits/stl_iterator.h ****   
 653:d:/MTK/MTK2503/MTK2503/11CW1418SP4_03_CORETEK03AE_11C_V1_GPRS_MMI/Tools/MinGW/include/c++/3.3.1/bits/stl_iterator.h ****   // Forward iterator requirements
 654:d:/MTK/MTK2503/MTK2503/11CW1418SP4_03_CORETEK03AE_11C_V1_GPRS_MMI/Tools/MinGW/include/c++/3.3.1/bits/stl_iterator.h ****   template<typename _IteratorL, typename _IteratorR, typename _Container>
 655:d:/MTK/MTK2503/MTK2503/11CW1418SP4_03_CORETEK03AE_11C_V1_GPRS_MMI/Tools/MinGW/include/c++/3.3.1/bits/stl_iterator.h ****   inline bool
 656:d:/MTK/MTK2503/MTK2503/11CW1418SP4_03_CORETEK03AE_11C_V1_GPRS_MMI/Tools/MinGW/include/c++/3.3.1/bits/stl_iterator.h ****   operator==(const __normal_iterator<_IteratorL, _Container>& __lhs,
 657:d:/MTK/MTK2503/MTK2503/11CW1418SP4_03_CORETEK03AE_11C_V1_GPRS_MMI/Tools/MinGW/include/c++/3.3.1/bits/stl_iterator.h **** 	     const __normal_iterator<_IteratorR, _Container>& __rhs)
 658:d:/MTK/MTK2503/MTK2503/11CW1418SP4_03_CORETEK03AE_11C_V1_GPRS_MMI/Tools/MinGW/include/c++/3.3.1/bits/stl_iterator.h ****   { return __lhs.base() == __rhs.base(); }
 659:d:/MTK/MTK2503/MTK2503/11CW1418SP4_03_CORETEK03AE_11C_V1_GPRS_MMI/Tools/MinGW/include/c++/3.3.1/bits/stl_iterator.h **** 
 660:d:/MTK/MTK2503/MTK2503/11CW1418SP4_03_CORETEK03AE_11C_V1_GPRS_MMI/Tools/MinGW/include/c++/3.3.1/bits/stl_iterator.h ****   template<typename _Iterator, typename _Container>
 661:d:/MTK/MTK2503/MTK2503/11CW1418SP4_03_CORETEK03AE_11C_V1_GPRS_MMI/Tools/MinGW/include/c++/3.3.1/bits/stl_iterator.h ****   inline bool
 662:d:/MTK/MTK2503/MTK2503/11CW1418SP4_03_CORETEK03AE_11C_V1_GPRS_MMI/Tools/MinGW/include/c++/3.3.1/bits/stl_iterator.h ****   operator==(const __normal_iterator<_Iterator, _Container>& __lhs,
 663:d:/MTK/MTK2503/MTK2503/11CW1418SP4_03_CORETEK03AE_11C_V1_GPRS_MMI/Tools/MinGW/include/c++/3.3.1/bits/stl_iterator.h ****              const __normal_iterator<_Iterator, _Container>& __rhs)
 664:d:/MTK/MTK2503/MTK2503/11CW1418SP4_03_CORETEK03AE_11C_V1_GPRS_MMI/Tools/MinGW/include/c++/3.3.1/bits/stl_iterator.h ****   { return __lhs.base() == __rhs.base(); }
 665:d:/MTK/MTK2503/MTK2503/11CW1418SP4_03_CORETEK03AE_11C_V1_GPRS_MMI/Tools/MinGW/include/c++/3.3.1/bits/stl_iterator.h **** 
 666:d:/MTK/MTK2503/MTK2503/11CW1418SP4_03_CORETEK03AE_11C_V1_GPRS_MMI/Tools/MinGW/include/c++/3.3.1/bits/stl_iterator.h ****   template<typename _IteratorL, typename _IteratorR, typename _Container>
 667:d:/MTK/MTK2503/MTK2503/11CW1418SP4_03_CORETEK03AE_11C_V1_GPRS_MMI/Tools/MinGW/include/c++/3.3.1/bits/stl_iterator.h ****   inline bool
 668:d:/MTK/MTK2503/MTK2503/11CW1418SP4_03_CORETEK03AE_11C_V1_GPRS_MMI/Tools/MinGW/include/c++/3.3.1/bits/stl_iterator.h ****   operator!=(const __normal_iterator<_IteratorL, _Container>& __lhs,
 669:d:/MTK/MTK2503/MTK2503/11CW1418SP4_03_CORETEK03AE_11C_V1_GPRS_MMI/Tools/MinGW/include/c++/3.3.1/bits/stl_iterator.h **** 	     const __normal_iterator<_IteratorR, _Container>& __rhs)
 670:d:/MTK/MTK2503/MTK2503/11CW1418SP4_03_CORETEK03AE_11C_V1_GPRS_MMI/Tools/MinGW/include/c++/3.3.1/bits/stl_iterator.h ****   { return __lhs.base() != __rhs.base(); }
 671:d:/MTK/MTK2503/MTK2503/11CW1418SP4_03_CORETEK03AE_11C_V1_GPRS_MMI/Tools/MinGW/include/c++/3.3.1/bits/stl_iterator.h **** 
 672:d:/MTK/MTK2503/MTK2503/11CW1418SP4_03_CORETEK03AE_11C_V1_GPRS_MMI/Tools/MinGW/include/c++/3.3.1/bits/stl_iterator.h ****   template<typename _Iterator, typename _Container>
 673:d:/MTK/MTK2503/MTK2503/11CW1418SP4_03_CORETEK03AE_11C_V1_GPRS_MMI/Tools/MinGW/include/c++/3.3.1/bits/stl_iterator.h ****   inline bool
 674:d:/MTK/MTK2503/MTK2503/11CW1418SP4_03_CORETEK03AE_11C_V1_GPRS_MMI/Tools/MinGW/include/c++/3.3.1/bits/stl_iterator.h ****   operator!=(const __normal_iterator<_Iterator, _Container>& __lhs,
 675:d:/MTK/MTK2503/MTK2503/11CW1418SP4_03_CORETEK03AE_11C_V1_GPRS_MMI/Tools/MinGW/include/c++/3.3.1/bits/stl_iterator.h ****              const __normal_iterator<_Iterator, _Container>& __rhs)
 676:d:/MTK/MTK2503/MTK2503/11CW1418SP4_03_CORETEK03AE_11C_V1_GPRS_MMI/Tools/MinGW/include/c++/3.3.1/bits/stl_iterator.h ****   { return __lhs.base() != __rhs.base(); }
 5215              	LM189:
 5216 0000 55       		pushl	%ebp
 5217 0001 89E5     		movl	%esp, %ebp
 5218 0003 53       		pushl	%ebx
 5219 0004 83EC04   		subl	$4, %esp
 5221              	LM190:
 5222              	LBB42:
 5223 0007 8B4508   		movl	8(%ebp), %eax
 5224 000a 890424   		movl	%eax, (%esp)
 5225 000d E8000000 		call	__ZNK9__gnu_cxx17__normal_iteratorIPN10ThreadPool10ThreadDataESt6vectorIS2_SaIS2_EEE4baseEv
 5225      00
 5226 0012 89C3     		movl	%eax, %ebx
 5227 0014 8B450C   		movl	12(%ebp), %eax
 5228 0017 890424   		movl	%eax, (%esp)
 5229 001a E8000000 		call	__ZNK9__gnu_cxx17__normal_iteratorIPN10ThreadPool10ThreadDataESt6vectorIS2_SaIS2_EEE4baseEv
 5229      00
GAS LISTING d:/MTK/MTK2503/MTK2503/11CW1418SP4_03_CORETEK03AE_11C_V1_GPRS_MMI/plutommi/Customer/ResGenerator/gcctmp/ccQHcaaa.s 			page 92


 5230 001f 89C2     		movl	%eax, %edx
 5231 0021 8B03     		movl	(%ebx), %eax
 5232 0023 3B02     		cmpl	(%edx), %eax
 5233 0025 0F95C0   		setne	%al
 5234 0028 0FB6C0   		movzbl	%al, %eax
 5235 002b 83C404   		addl	$4, %esp
 5236 002e 5B       		popl	%ebx
 5237 002f 5D       		popl	%ebp
 5238 0030 C3       		ret
 5239              	LBE42:
 5240              	Lscope21:
 5242 0031 909090   		.section	.text$_ZN9__gnu_cxx17__normal_iteratorIPN10ThreadPool10ThreadDataESt6vectorIS2_SaIS2_EEEp
 5243              		.linkonce discard
 5244              		.align 2
 5247              	.globl __ZN9__gnu_cxx17__normal_iteratorIPN10ThreadPool10ThreadDataESt6vectorIS2_SaIS2_EEEppEv
 5249              	__ZN9__gnu_cxx17__normal_iteratorIPN10ThreadPool10ThreadDataESt6vectorIS2_SaIS2_EEEppEv:
 5251              	LM191:
 5252 0000 55       		pushl	%ebp
 5253 0001 89E5     		movl	%esp, %ebp
 5255              	LM192:
 5256              	LBB43:
 5257 0003 8B4508   		movl	8(%ebp), %eax
 5258 0006 83000C   		addl	$12, (%eax)
 5259 0009 8B4508   		movl	8(%ebp), %eax
 5260 000c 5D       		popl	%ebp
 5261 000d C3       		ret
 5262              	LBE43:
 5263              	Lscope22:
 5265 000e 9090     		.section	.text$_ZNK9__gnu_cxx17__normal_iteratorIPN10ThreadPool10ThreadDataESt6vectorIS2_SaIS2_EEE
 5266              		.linkonce discard
 5267              		.align 2
 5270              	.globl __ZNK9__gnu_cxx17__normal_iteratorIPN10ThreadPool10ThreadDataESt6vectorIS2_SaIS2_EEEptEv
 5272              	__ZNK9__gnu_cxx17__normal_iteratorIPN10ThreadPool10ThreadDataESt6vectorIS2_SaIS2_EEEptEv:
 5274              	LM193:
 5275 0000 55       		pushl	%ebp
 5276 0001 89E5     		movl	%esp, %ebp
 5278              	LM194:
 5279              	LBB44:
 5280 0003 8B4508   		movl	8(%ebp), %eax
 5281 0006 8B00     		movl	(%eax), %eax
 5282 0008 5D       		popl	%ebp
 5283 0009 C3       		ret
 5284              	LBE44:
 5285              	Lscope23:
 5287 000a 9090     		.section	.text$_ZNSt4listIN10ThreadPool7JobDataESaIS1_EE5beginEv,"x"
 5288              		.linkonce discard
 5289              		.align 2
 5292              	.globl __ZNSt4listIN10ThreadPool7JobDataESaIS1_EE5beginEv
 5294              	__ZNSt4listIN10ThreadPool7JobDataESaIS1_EE5beginEv:
 5296              	Ltext6:
 514:d:/MTK/MTK2503/MTK2503/11CW1418SP4_03_CORETEK03AE_11C_V1_GPRS_MMI/Tools/MinGW/include/c++/3.3.1/bits/stl_list.h ****   
 515:d:/MTK/MTK2503/MTK2503/11CW1418SP4_03_CORETEK03AE_11C_V1_GPRS_MMI/Tools/MinGW/include/c++/3.3.1/bits/stl_list.h ****     /**
 516:d:/MTK/MTK2503/MTK2503/11CW1418SP4_03_CORETEK03AE_11C_V1_GPRS_MMI/Tools/MinGW/include/c++/3.3.1/bits/stl_list.h ****      *  @brief  %List assignment operator.
 517:d:/MTK/MTK2503/MTK2503/11CW1418SP4_03_CORETEK03AE_11C_V1_GPRS_MMI/Tools/MinGW/include/c++/3.3.1/bits/stl_list.h ****      *  @param  x  A %list of identical element and allocator types.
 518:d:/MTK/MTK2503/MTK2503/11CW1418SP4_03_CORETEK03AE_11C_V1_GPRS_MMI/Tools/MinGW/include/c++/3.3.1/bits/stl_list.h ****      * 
 519:d:/MTK/MTK2503/MTK2503/11CW1418SP4_03_CORETEK03AE_11C_V1_GPRS_MMI/Tools/MinGW/include/c++/3.3.1/bits/stl_list.h ****      *  All the elements of @a x are copied, but unlike the copy constructor,
 520:d:/MTK/MTK2503/MTK2503/11CW1418SP4_03_CORETEK03AE_11C_V1_GPRS_MMI/Tools/MinGW/include/c++/3.3.1/bits/stl_list.h ****      *  the allocator object is not copied.
GAS LISTING d:/MTK/MTK2503/MTK2503/11CW1418SP4_03_CORETEK03AE_11C_V1_GPRS_MMI/plutommi/Customer/ResGenerator/gcctmp/ccQHcaaa.s 			page 93


 521:d:/MTK/MTK2503/MTK2503/11CW1418SP4_03_CORETEK03AE_11C_V1_GPRS_MMI/Tools/MinGW/include/c++/3.3.1/bits/stl_list.h ****     */
 522:d:/MTK/MTK2503/MTK2503/11CW1418SP4_03_CORETEK03AE_11C_V1_GPRS_MMI/Tools/MinGW/include/c++/3.3.1/bits/stl_list.h ****     list&
 523:d:/MTK/MTK2503/MTK2503/11CW1418SP4_03_CORETEK03AE_11C_V1_GPRS_MMI/Tools/MinGW/include/c++/3.3.1/bits/stl_list.h ****     operator=(const list& __x);
 524:d:/MTK/MTK2503/MTK2503/11CW1418SP4_03_CORETEK03AE_11C_V1_GPRS_MMI/Tools/MinGW/include/c++/3.3.1/bits/stl_list.h ****   
 525:d:/MTK/MTK2503/MTK2503/11CW1418SP4_03_CORETEK03AE_11C_V1_GPRS_MMI/Tools/MinGW/include/c++/3.3.1/bits/stl_list.h ****     /**
 526:d:/MTK/MTK2503/MTK2503/11CW1418SP4_03_CORETEK03AE_11C_V1_GPRS_MMI/Tools/MinGW/include/c++/3.3.1/bits/stl_list.h ****      *  @brief  Assigns a given value to a %list.
 527:d:/MTK/MTK2503/MTK2503/11CW1418SP4_03_CORETEK03AE_11C_V1_GPRS_MMI/Tools/MinGW/include/c++/3.3.1/bits/stl_list.h ****      *  @param  n  Number of elements to be assigned.
 528:d:/MTK/MTK2503/MTK2503/11CW1418SP4_03_CORETEK03AE_11C_V1_GPRS_MMI/Tools/MinGW/include/c++/3.3.1/bits/stl_list.h ****      *  @param  val  Value to be assigned.
 529:d:/MTK/MTK2503/MTK2503/11CW1418SP4_03_CORETEK03AE_11C_V1_GPRS_MMI/Tools/MinGW/include/c++/3.3.1/bits/stl_list.h ****      *
 530:d:/MTK/MTK2503/MTK2503/11CW1418SP4_03_CORETEK03AE_11C_V1_GPRS_MMI/Tools/MinGW/include/c++/3.3.1/bits/stl_list.h ****      *  This function fills a %list with @a n copies of the given value.
 531:d:/MTK/MTK2503/MTK2503/11CW1418SP4_03_CORETEK03AE_11C_V1_GPRS_MMI/Tools/MinGW/include/c++/3.3.1/bits/stl_list.h ****      *  Note that the assignment completely changes the %list and that the
 532:d:/MTK/MTK2503/MTK2503/11CW1418SP4_03_CORETEK03AE_11C_V1_GPRS_MMI/Tools/MinGW/include/c++/3.3.1/bits/stl_list.h ****      *  resulting %list's size is the same as the number of elements assigned.
 533:d:/MTK/MTK2503/MTK2503/11CW1418SP4_03_CORETEK03AE_11C_V1_GPRS_MMI/Tools/MinGW/include/c++/3.3.1/bits/stl_list.h ****      *  Old data may be lost.
 534:d:/MTK/MTK2503/MTK2503/11CW1418SP4_03_CORETEK03AE_11C_V1_GPRS_MMI/Tools/MinGW/include/c++/3.3.1/bits/stl_list.h ****     */
 535:d:/MTK/MTK2503/MTK2503/11CW1418SP4_03_CORETEK03AE_11C_V1_GPRS_MMI/Tools/MinGW/include/c++/3.3.1/bits/stl_list.h ****     void
 536:d:/MTK/MTK2503/MTK2503/11CW1418SP4_03_CORETEK03AE_11C_V1_GPRS_MMI/Tools/MinGW/include/c++/3.3.1/bits/stl_list.h ****     assign(size_type __n, const value_type& __val) { _M_fill_assign(__n, __val); }
 537:d:/MTK/MTK2503/MTK2503/11CW1418SP4_03_CORETEK03AE_11C_V1_GPRS_MMI/Tools/MinGW/include/c++/3.3.1/bits/stl_list.h ****   
 538:d:/MTK/MTK2503/MTK2503/11CW1418SP4_03_CORETEK03AE_11C_V1_GPRS_MMI/Tools/MinGW/include/c++/3.3.1/bits/stl_list.h ****     /**
 539:d:/MTK/MTK2503/MTK2503/11CW1418SP4_03_CORETEK03AE_11C_V1_GPRS_MMI/Tools/MinGW/include/c++/3.3.1/bits/stl_list.h ****      *  @brief  Assigns a range to a %list.
 540:d:/MTK/MTK2503/MTK2503/11CW1418SP4_03_CORETEK03AE_11C_V1_GPRS_MMI/Tools/MinGW/include/c++/3.3.1/bits/stl_list.h ****      *  @param  first  An input iterator.
 541:d:/MTK/MTK2503/MTK2503/11CW1418SP4_03_CORETEK03AE_11C_V1_GPRS_MMI/Tools/MinGW/include/c++/3.3.1/bits/stl_list.h ****      *  @param  last   An input iterator.
 542:d:/MTK/MTK2503/MTK2503/11CW1418SP4_03_CORETEK03AE_11C_V1_GPRS_MMI/Tools/MinGW/include/c++/3.3.1/bits/stl_list.h ****      *
 543:d:/MTK/MTK2503/MTK2503/11CW1418SP4_03_CORETEK03AE_11C_V1_GPRS_MMI/Tools/MinGW/include/c++/3.3.1/bits/stl_list.h ****      *  This function fills a %list with copies of the elements in the
 544:d:/MTK/MTK2503/MTK2503/11CW1418SP4_03_CORETEK03AE_11C_V1_GPRS_MMI/Tools/MinGW/include/c++/3.3.1/bits/stl_list.h ****      *  range [first,last).
 545:d:/MTK/MTK2503/MTK2503/11CW1418SP4_03_CORETEK03AE_11C_V1_GPRS_MMI/Tools/MinGW/include/c++/3.3.1/bits/stl_list.h ****      *
 546:d:/MTK/MTK2503/MTK2503/11CW1418SP4_03_CORETEK03AE_11C_V1_GPRS_MMI/Tools/MinGW/include/c++/3.3.1/bits/stl_list.h ****      *  Note that the assignment completely changes the %list and that the
 547:d:/MTK/MTK2503/MTK2503/11CW1418SP4_03_CORETEK03AE_11C_V1_GPRS_MMI/Tools/MinGW/include/c++/3.3.1/bits/stl_list.h ****      *  resulting %list's size is the same as the number of elements assigned.
 548:d:/MTK/MTK2503/MTK2503/11CW1418SP4_03_CORETEK03AE_11C_V1_GPRS_MMI/Tools/MinGW/include/c++/3.3.1/bits/stl_list.h ****      *  Old data may be lost.
 549:d:/MTK/MTK2503/MTK2503/11CW1418SP4_03_CORETEK03AE_11C_V1_GPRS_MMI/Tools/MinGW/include/c++/3.3.1/bits/stl_list.h ****     */
 550:d:/MTK/MTK2503/MTK2503/11CW1418SP4_03_CORETEK03AE_11C_V1_GPRS_MMI/Tools/MinGW/include/c++/3.3.1/bits/stl_list.h ****     template<typename _InputIterator>
 551:d:/MTK/MTK2503/MTK2503/11CW1418SP4_03_CORETEK03AE_11C_V1_GPRS_MMI/Tools/MinGW/include/c++/3.3.1/bits/stl_list.h ****       void
 552:d:/MTK/MTK2503/MTK2503/11CW1418SP4_03_CORETEK03AE_11C_V1_GPRS_MMI/Tools/MinGW/include/c++/3.3.1/bits/stl_list.h ****       assign(_InputIterator __first, _InputIterator __last)
 553:d:/MTK/MTK2503/MTK2503/11CW1418SP4_03_CORETEK03AE_11C_V1_GPRS_MMI/Tools/MinGW/include/c++/3.3.1/bits/stl_list.h ****       {
 554:d:/MTK/MTK2503/MTK2503/11CW1418SP4_03_CORETEK03AE_11C_V1_GPRS_MMI/Tools/MinGW/include/c++/3.3.1/bits/stl_list.h ****         // Check whether it's an integral type.  If so, it's not an iterator.
 555:d:/MTK/MTK2503/MTK2503/11CW1418SP4_03_CORETEK03AE_11C_V1_GPRS_MMI/Tools/MinGW/include/c++/3.3.1/bits/stl_list.h ****         typedef typename _Is_integer<_InputIterator>::_Integral _Integral;
 556:d:/MTK/MTK2503/MTK2503/11CW1418SP4_03_CORETEK03AE_11C_V1_GPRS_MMI/Tools/MinGW/include/c++/3.3.1/bits/stl_list.h ****         _M_assign_dispatch(__first, __last, _Integral());
 557:d:/MTK/MTK2503/MTK2503/11CW1418SP4_03_CORETEK03AE_11C_V1_GPRS_MMI/Tools/MinGW/include/c++/3.3.1/bits/stl_list.h ****       }
 558:d:/MTK/MTK2503/MTK2503/11CW1418SP4_03_CORETEK03AE_11C_V1_GPRS_MMI/Tools/MinGW/include/c++/3.3.1/bits/stl_list.h ****   
 559:d:/MTK/MTK2503/MTK2503/11CW1418SP4_03_CORETEK03AE_11C_V1_GPRS_MMI/Tools/MinGW/include/c++/3.3.1/bits/stl_list.h ****     /// Get a copy of the memory allocation object.
 560:d:/MTK/MTK2503/MTK2503/11CW1418SP4_03_CORETEK03AE_11C_V1_GPRS_MMI/Tools/MinGW/include/c++/3.3.1/bits/stl_list.h ****     allocator_type
 561:d:/MTK/MTK2503/MTK2503/11CW1418SP4_03_CORETEK03AE_11C_V1_GPRS_MMI/Tools/MinGW/include/c++/3.3.1/bits/stl_list.h ****     get_allocator() const { return _Base::get_allocator(); }
 562:d:/MTK/MTK2503/MTK2503/11CW1418SP4_03_CORETEK03AE_11C_V1_GPRS_MMI/Tools/MinGW/include/c++/3.3.1/bits/stl_list.h ****   
 563:d:/MTK/MTK2503/MTK2503/11CW1418SP4_03_CORETEK03AE_11C_V1_GPRS_MMI/Tools/MinGW/include/c++/3.3.1/bits/stl_list.h ****     // iterators
 564:d:/MTK/MTK2503/MTK2503/11CW1418SP4_03_CORETEK03AE_11C_V1_GPRS_MMI/Tools/MinGW/include/c++/3.3.1/bits/stl_list.h ****     /**
 565:d:/MTK/MTK2503/MTK2503/11CW1418SP4_03_CORETEK03AE_11C_V1_GPRS_MMI/Tools/MinGW/include/c++/3.3.1/bits/stl_list.h ****      *  Returns a read/write iterator that points to the first element in the
 566:d:/MTK/MTK2503/MTK2503/11CW1418SP4_03_CORETEK03AE_11C_V1_GPRS_MMI/Tools/MinGW/include/c++/3.3.1/bits/stl_list.h ****      *  %list.  Iteration is done in ordinary element order.
 567:d:/MTK/MTK2503/MTK2503/11CW1418SP4_03_CORETEK03AE_11C_V1_GPRS_MMI/Tools/MinGW/include/c++/3.3.1/bits/stl_list.h ****     */
 568:d:/MTK/MTK2503/MTK2503/11CW1418SP4_03_CORETEK03AE_11C_V1_GPRS_MMI/Tools/MinGW/include/c++/3.3.1/bits/stl_list.h ****     iterator
 569:d:/MTK/MTK2503/MTK2503/11CW1418SP4_03_CORETEK03AE_11C_V1_GPRS_MMI/Tools/MinGW/include/c++/3.3.1/bits/stl_list.h ****     begin() { return static_cast<_Node*>(_M_node->_M_next); }
 5298              	LM195:
 5299 0000 55       		pushl	%ebp
 5300 0001 89E5     		movl	%esp, %ebp
 5301 0003 53       		pushl	%ebx
 5302 0004 83EC14   		subl	$20, %esp
 5303 0007 8B5D08   		movl	8(%ebp), %ebx
 5305              	LM196:
 5306              	LBB45:
GAS LISTING d:/MTK/MTK2503/MTK2503/11CW1418SP4_03_CORETEK03AE_11C_V1_GPRS_MMI/plutommi/Customer/ResGenerator/gcctmp/ccQHcaaa.s 			page 94


 5307 000a 8B450C   		movl	12(%ebp), %eax
 5308 000d 8B00     		movl	(%eax), %eax
 5309 000f 8B00     		movl	(%eax), %eax
 5310 0011 89442404 		movl	%eax, 4(%esp)
 5311 0015 891C24   		movl	%ebx, (%esp)
 5312 0018 E8000000 		call	__ZNSt14_List_iteratorIN10ThreadPool7JobDataERS1_PS1_EC1EPSt10_List_nodeIS1_E
 5312      00
 5313              	LBE45:
 5314 001d 89D8     		movl	%ebx, %eax
 5315 001f 83C414   		addl	$20, %esp
 5316 0022 5B       		popl	%ebx
 5317 0023 5D       		popl	%ebp
 5318 0024 C20400   		ret	$4
 5319              	Lscope24:
 5321 0027 90       		.section	.text$_ZNSt4listIN10ThreadPool7JobDataESaIS1_EE3endEv,"x"
 5322              		.linkonce discard
 5323              		.align 2
 5326              	.globl __ZNSt4listIN10ThreadPool7JobDataESaIS1_EE3endEv
 5328              	__ZNSt4listIN10ThreadPool7JobDataESaIS1_EE3endEv:
 570:d:/MTK/MTK2503/MTK2503/11CW1418SP4_03_CORETEK03AE_11C_V1_GPRS_MMI/Tools/MinGW/include/c++/3.3.1/bits/stl_list.h ****   
 571:d:/MTK/MTK2503/MTK2503/11CW1418SP4_03_CORETEK03AE_11C_V1_GPRS_MMI/Tools/MinGW/include/c++/3.3.1/bits/stl_list.h ****     /**
 572:d:/MTK/MTK2503/MTK2503/11CW1418SP4_03_CORETEK03AE_11C_V1_GPRS_MMI/Tools/MinGW/include/c++/3.3.1/bits/stl_list.h ****      *  Returns a read-only (constant) iterator that points to the first element
 573:d:/MTK/MTK2503/MTK2503/11CW1418SP4_03_CORETEK03AE_11C_V1_GPRS_MMI/Tools/MinGW/include/c++/3.3.1/bits/stl_list.h ****      *  in the %list.  Iteration is done in ordinary element order.
 574:d:/MTK/MTK2503/MTK2503/11CW1418SP4_03_CORETEK03AE_11C_V1_GPRS_MMI/Tools/MinGW/include/c++/3.3.1/bits/stl_list.h ****     */
 575:d:/MTK/MTK2503/MTK2503/11CW1418SP4_03_CORETEK03AE_11C_V1_GPRS_MMI/Tools/MinGW/include/c++/3.3.1/bits/stl_list.h ****     const_iterator
 576:d:/MTK/MTK2503/MTK2503/11CW1418SP4_03_CORETEK03AE_11C_V1_GPRS_MMI/Tools/MinGW/include/c++/3.3.1/bits/stl_list.h ****     begin() const { return static_cast<_Node*>(_M_node->_M_next); }
 577:d:/MTK/MTK2503/MTK2503/11CW1418SP4_03_CORETEK03AE_11C_V1_GPRS_MMI/Tools/MinGW/include/c++/3.3.1/bits/stl_list.h ****   
 578:d:/MTK/MTK2503/MTK2503/11CW1418SP4_03_CORETEK03AE_11C_V1_GPRS_MMI/Tools/MinGW/include/c++/3.3.1/bits/stl_list.h ****     /**
 579:d:/MTK/MTK2503/MTK2503/11CW1418SP4_03_CORETEK03AE_11C_V1_GPRS_MMI/Tools/MinGW/include/c++/3.3.1/bits/stl_list.h ****      *  Returns a read/write iterator that points one past the last element in
 580:d:/MTK/MTK2503/MTK2503/11CW1418SP4_03_CORETEK03AE_11C_V1_GPRS_MMI/Tools/MinGW/include/c++/3.3.1/bits/stl_list.h ****      *  the %list.  Iteration is done in ordinary element order.
 581:d:/MTK/MTK2503/MTK2503/11CW1418SP4_03_CORETEK03AE_11C_V1_GPRS_MMI/Tools/MinGW/include/c++/3.3.1/bits/stl_list.h ****     */
 582:d:/MTK/MTK2503/MTK2503/11CW1418SP4_03_CORETEK03AE_11C_V1_GPRS_MMI/Tools/MinGW/include/c++/3.3.1/bits/stl_list.h ****     iterator
 583:d:/MTK/MTK2503/MTK2503/11CW1418SP4_03_CORETEK03AE_11C_V1_GPRS_MMI/Tools/MinGW/include/c++/3.3.1/bits/stl_list.h ****     end() { return _M_node; }
 5330              	LM197:
 5331 0000 55       		pushl	%ebp
 5332 0001 89E5     		movl	%esp, %ebp
 5333 0003 53       		pushl	%ebx
 5334 0004 83EC14   		subl	$20, %esp
 5335 0007 8B5D08   		movl	8(%ebp), %ebx
 5337              	LM198:
 5338              	LBB46:
 5339 000a 8B450C   		movl	12(%ebp), %eax
 5340 000d 8B00     		movl	(%eax), %eax
 5341 000f 89442404 		movl	%eax, 4(%esp)
 5342 0013 891C24   		movl	%ebx, (%esp)
 5343 0016 E8000000 		call	__ZNSt14_List_iteratorIN10ThreadPool7JobDataERS1_PS1_EC1EPSt10_List_nodeIS1_E
 5343      00
 5344              	LBE46:
 5345 001b 89D8     		movl	%ebx, %eax
 5346 001d 83C414   		addl	$20, %esp
 5347 0020 5B       		popl	%ebx
 5348 0021 5D       		popl	%ebp
 5349 0022 C20400   		ret	$4
 5350              	Lscope25:
 5352 0025 909090   		.section	.text$_ZNSt14_List_iteratorIN10ThreadPool7JobDataERS1_PS1_EppEi,"x"
 5353              		.linkonce discard
 5354              		.align 2
GAS LISTING d:/MTK/MTK2503/MTK2503/11CW1418SP4_03_CORETEK03AE_11C_V1_GPRS_MMI/plutommi/Customer/ResGenerator/gcctmp/ccQHcaaa.s 			page 95


 5357              	.globl __ZNSt14_List_iteratorIN10ThreadPool7JobDataERS1_PS1_EppEi
 5359              	__ZNSt14_List_iteratorIN10ThreadPool7JobDataERS1_PS1_EppEi:
 5361              	LM199:
 5362 0000 55       		pushl	%ebp
 5363 0001 89E5     		movl	%esp, %ebp
 5364 0003 53       		pushl	%ebx
 5365 0004 83EC14   		subl	$20, %esp
 5366 0007 8B5D08   		movl	8(%ebp), %ebx
 5368              	LM200:
 5369              	LBB47:
 5370 000a 8B450C   		movl	12(%ebp), %eax
 5371 000d 89442404 		movl	%eax, 4(%esp)
 5372 0011 891C24   		movl	%ebx, (%esp)
 5373 0014 E8000000 		call	__ZNSt14_List_iteratorIN10ThreadPool7JobDataERS1_PS1_EC1ERKS4_
 5373      00
 5375              	LM201:
 5376 0019 8B450C   		movl	12(%ebp), %eax
 5377 001c 890424   		movl	%eax, (%esp)
 5378 001f E8000000 		call	__ZNSt19_List_iterator_base7_M_incrEv
 5378      00
 5380              	LM202:
 5381              	LBE47:
 5382 0024 89D8     		movl	%ebx, %eax
 5383 0026 83C414   		addl	$20, %esp
 5384 0029 5B       		popl	%ebx
 5385 002a 5D       		popl	%ebp
 5386 002b C20400   		ret	$4
 5390              	Lscope26:
 5392 002e 9090     		.section	.text$_ZNKSt14_List_iteratorIN10ThreadPool7JobDataERS1_PS1_EptEv,"x"
 5393              		.linkonce discard
 5394              		.align 2
 5397              	.globl __ZNKSt14_List_iteratorIN10ThreadPool7JobDataERS1_PS1_EptEv
 5399              	__ZNKSt14_List_iteratorIN10ThreadPool7JobDataERS1_PS1_EptEv:
 5401              	LM203:
 5402 0000 55       		pushl	%ebp
 5403 0001 89E5     		movl	%esp, %ebp
 5404 0003 83EC08   		subl	$8, %esp
 5406              	LM204:
 5407              	LBB48:
 5408 0006 8B4508   		movl	8(%ebp), %eax
 5409 0009 890424   		movl	%eax, (%esp)
 5410 000c E8000000 		call	__ZNKSt14_List_iteratorIN10ThreadPool7JobDataERS1_PS1_EdeEv
 5410      00
 5411 0011 C9       		leave
 5412 0012 C3       		ret
 5413              	LBE48:
 5414              	Lscope27:
 5416 0013 90       		.section	.text$_ZNSt4listIN10ThreadPool7JobDataESaIS1_EE5clearEv,"x"
 5417              		.linkonce discard
 5418              		.align 2
 5421              	.globl __ZNSt4listIN10ThreadPool7JobDataESaIS1_EE5clearEv
 5423              	__ZNSt4listIN10ThreadPool7JobDataESaIS1_EE5clearEv:
 584:d:/MTK/MTK2503/MTK2503/11CW1418SP4_03_CORETEK03AE_11C_V1_GPRS_MMI/Tools/MinGW/include/c++/3.3.1/bits/stl_list.h ****   
 585:d:/MTK/MTK2503/MTK2503/11CW1418SP4_03_CORETEK03AE_11C_V1_GPRS_MMI/Tools/MinGW/include/c++/3.3.1/bits/stl_list.h ****     /**
 586:d:/MTK/MTK2503/MTK2503/11CW1418SP4_03_CORETEK03AE_11C_V1_GPRS_MMI/Tools/MinGW/include/c++/3.3.1/bits/stl_list.h ****      *  Returns a read-only (constant) iterator that points one past the last
 587:d:/MTK/MTK2503/MTK2503/11CW1418SP4_03_CORETEK03AE_11C_V1_GPRS_MMI/Tools/MinGW/include/c++/3.3.1/bits/stl_list.h ****      *  element in the %list.  Iteration is done in ordinary element order.
 588:d:/MTK/MTK2503/MTK2503/11CW1418SP4_03_CORETEK03AE_11C_V1_GPRS_MMI/Tools/MinGW/include/c++/3.3.1/bits/stl_list.h ****     */
GAS LISTING d:/MTK/MTK2503/MTK2503/11CW1418SP4_03_CORETEK03AE_11C_V1_GPRS_MMI/plutommi/Customer/ResGenerator/gcctmp/ccQHcaaa.s 			page 96


 589:d:/MTK/MTK2503/MTK2503/11CW1418SP4_03_CORETEK03AE_11C_V1_GPRS_MMI/Tools/MinGW/include/c++/3.3.1/bits/stl_list.h ****     const_iterator
 590:d:/MTK/MTK2503/MTK2503/11CW1418SP4_03_CORETEK03AE_11C_V1_GPRS_MMI/Tools/MinGW/include/c++/3.3.1/bits/stl_list.h ****     end() const { return _M_node; }
 591:d:/MTK/MTK2503/MTK2503/11CW1418SP4_03_CORETEK03AE_11C_V1_GPRS_MMI/Tools/MinGW/include/c++/3.3.1/bits/stl_list.h ****   
 592:d:/MTK/MTK2503/MTK2503/11CW1418SP4_03_CORETEK03AE_11C_V1_GPRS_MMI/Tools/MinGW/include/c++/3.3.1/bits/stl_list.h ****     /**
 593:d:/MTK/MTK2503/MTK2503/11CW1418SP4_03_CORETEK03AE_11C_V1_GPRS_MMI/Tools/MinGW/include/c++/3.3.1/bits/stl_list.h ****      *  Returns a read/write reverse iterator that points to the last element in
 594:d:/MTK/MTK2503/MTK2503/11CW1418SP4_03_CORETEK03AE_11C_V1_GPRS_MMI/Tools/MinGW/include/c++/3.3.1/bits/stl_list.h ****      *  the %list.  Iteration is done in reverse element order.
 595:d:/MTK/MTK2503/MTK2503/11CW1418SP4_03_CORETEK03AE_11C_V1_GPRS_MMI/Tools/MinGW/include/c++/3.3.1/bits/stl_list.h ****     */
 596:d:/MTK/MTK2503/MTK2503/11CW1418SP4_03_CORETEK03AE_11C_V1_GPRS_MMI/Tools/MinGW/include/c++/3.3.1/bits/stl_list.h ****     reverse_iterator
 597:d:/MTK/MTK2503/MTK2503/11CW1418SP4_03_CORETEK03AE_11C_V1_GPRS_MMI/Tools/MinGW/include/c++/3.3.1/bits/stl_list.h ****     rbegin() { return reverse_iterator(end()); }
 598:d:/MTK/MTK2503/MTK2503/11CW1418SP4_03_CORETEK03AE_11C_V1_GPRS_MMI/Tools/MinGW/include/c++/3.3.1/bits/stl_list.h ****   
 599:d:/MTK/MTK2503/MTK2503/11CW1418SP4_03_CORETEK03AE_11C_V1_GPRS_MMI/Tools/MinGW/include/c++/3.3.1/bits/stl_list.h ****     /**
 600:d:/MTK/MTK2503/MTK2503/11CW1418SP4_03_CORETEK03AE_11C_V1_GPRS_MMI/Tools/MinGW/include/c++/3.3.1/bits/stl_list.h ****      *  Returns a read-only (constant) reverse iterator that points to the last
 601:d:/MTK/MTK2503/MTK2503/11CW1418SP4_03_CORETEK03AE_11C_V1_GPRS_MMI/Tools/MinGW/include/c++/3.3.1/bits/stl_list.h ****      *  element in the %list.  Iteration is done in reverse element order.
 602:d:/MTK/MTK2503/MTK2503/11CW1418SP4_03_CORETEK03AE_11C_V1_GPRS_MMI/Tools/MinGW/include/c++/3.3.1/bits/stl_list.h ****     */
 603:d:/MTK/MTK2503/MTK2503/11CW1418SP4_03_CORETEK03AE_11C_V1_GPRS_MMI/Tools/MinGW/include/c++/3.3.1/bits/stl_list.h ****     const_reverse_iterator
 604:d:/MTK/MTK2503/MTK2503/11CW1418SP4_03_CORETEK03AE_11C_V1_GPRS_MMI/Tools/MinGW/include/c++/3.3.1/bits/stl_list.h ****     rbegin() const { return const_reverse_iterator(end()); }
 605:d:/MTK/MTK2503/MTK2503/11CW1418SP4_03_CORETEK03AE_11C_V1_GPRS_MMI/Tools/MinGW/include/c++/3.3.1/bits/stl_list.h ****   
 606:d:/MTK/MTK2503/MTK2503/11CW1418SP4_03_CORETEK03AE_11C_V1_GPRS_MMI/Tools/MinGW/include/c++/3.3.1/bits/stl_list.h ****     /**
 607:d:/MTK/MTK2503/MTK2503/11CW1418SP4_03_CORETEK03AE_11C_V1_GPRS_MMI/Tools/MinGW/include/c++/3.3.1/bits/stl_list.h ****      *  Returns a read/write reverse iterator that points to one before the
 608:d:/MTK/MTK2503/MTK2503/11CW1418SP4_03_CORETEK03AE_11C_V1_GPRS_MMI/Tools/MinGW/include/c++/3.3.1/bits/stl_list.h ****      *  first element in the %list.  Iteration is done in reverse element
 609:d:/MTK/MTK2503/MTK2503/11CW1418SP4_03_CORETEK03AE_11C_V1_GPRS_MMI/Tools/MinGW/include/c++/3.3.1/bits/stl_list.h ****      *  order.
 610:d:/MTK/MTK2503/MTK2503/11CW1418SP4_03_CORETEK03AE_11C_V1_GPRS_MMI/Tools/MinGW/include/c++/3.3.1/bits/stl_list.h ****     */
 611:d:/MTK/MTK2503/MTK2503/11CW1418SP4_03_CORETEK03AE_11C_V1_GPRS_MMI/Tools/MinGW/include/c++/3.3.1/bits/stl_list.h ****     reverse_iterator
 612:d:/MTK/MTK2503/MTK2503/11CW1418SP4_03_CORETEK03AE_11C_V1_GPRS_MMI/Tools/MinGW/include/c++/3.3.1/bits/stl_list.h ****     rend() { return reverse_iterator(begin()); }
 613:d:/MTK/MTK2503/MTK2503/11CW1418SP4_03_CORETEK03AE_11C_V1_GPRS_MMI/Tools/MinGW/include/c++/3.3.1/bits/stl_list.h ****   
 614:d:/MTK/MTK2503/MTK2503/11CW1418SP4_03_CORETEK03AE_11C_V1_GPRS_MMI/Tools/MinGW/include/c++/3.3.1/bits/stl_list.h ****     /**
 615:d:/MTK/MTK2503/MTK2503/11CW1418SP4_03_CORETEK03AE_11C_V1_GPRS_MMI/Tools/MinGW/include/c++/3.3.1/bits/stl_list.h ****      *  Returns a read-only (constant) reverse iterator that points to one
 616:d:/MTK/MTK2503/MTK2503/11CW1418SP4_03_CORETEK03AE_11C_V1_GPRS_MMI/Tools/MinGW/include/c++/3.3.1/bits/stl_list.h ****      *  before the first element in the %list.  Iteration is done in reverse
 617:d:/MTK/MTK2503/MTK2503/11CW1418SP4_03_CORETEK03AE_11C_V1_GPRS_MMI/Tools/MinGW/include/c++/3.3.1/bits/stl_list.h ****      *  element order.
 618:d:/MTK/MTK2503/MTK2503/11CW1418SP4_03_CORETEK03AE_11C_V1_GPRS_MMI/Tools/MinGW/include/c++/3.3.1/bits/stl_list.h ****     */
 619:d:/MTK/MTK2503/MTK2503/11CW1418SP4_03_CORETEK03AE_11C_V1_GPRS_MMI/Tools/MinGW/include/c++/3.3.1/bits/stl_list.h ****     const_reverse_iterator
 620:d:/MTK/MTK2503/MTK2503/11CW1418SP4_03_CORETEK03AE_11C_V1_GPRS_MMI/Tools/MinGW/include/c++/3.3.1/bits/stl_list.h ****     rend() const
 621:d:/MTK/MTK2503/MTK2503/11CW1418SP4_03_CORETEK03AE_11C_V1_GPRS_MMI/Tools/MinGW/include/c++/3.3.1/bits/stl_list.h ****     { return const_reverse_iterator(begin()); }
 622:d:/MTK/MTK2503/MTK2503/11CW1418SP4_03_CORETEK03AE_11C_V1_GPRS_MMI/Tools/MinGW/include/c++/3.3.1/bits/stl_list.h ****   
 623:d:/MTK/MTK2503/MTK2503/11CW1418SP4_03_CORETEK03AE_11C_V1_GPRS_MMI/Tools/MinGW/include/c++/3.3.1/bits/stl_list.h ****     // [23.2.2.2] capacity
 624:d:/MTK/MTK2503/MTK2503/11CW1418SP4_03_CORETEK03AE_11C_V1_GPRS_MMI/Tools/MinGW/include/c++/3.3.1/bits/stl_list.h ****     /**
 625:d:/MTK/MTK2503/MTK2503/11CW1418SP4_03_CORETEK03AE_11C_V1_GPRS_MMI/Tools/MinGW/include/c++/3.3.1/bits/stl_list.h ****      *  Returns true if the %list is empty.  (Thus begin() would equal end().)
 626:d:/MTK/MTK2503/MTK2503/11CW1418SP4_03_CORETEK03AE_11C_V1_GPRS_MMI/Tools/MinGW/include/c++/3.3.1/bits/stl_list.h ****     */
 627:d:/MTK/MTK2503/MTK2503/11CW1418SP4_03_CORETEK03AE_11C_V1_GPRS_MMI/Tools/MinGW/include/c++/3.3.1/bits/stl_list.h ****     bool
 628:d:/MTK/MTK2503/MTK2503/11CW1418SP4_03_CORETEK03AE_11C_V1_GPRS_MMI/Tools/MinGW/include/c++/3.3.1/bits/stl_list.h ****     empty() const { return _M_node->_M_next == _M_node; }
 629:d:/MTK/MTK2503/MTK2503/11CW1418SP4_03_CORETEK03AE_11C_V1_GPRS_MMI/Tools/MinGW/include/c++/3.3.1/bits/stl_list.h ****   
 630:d:/MTK/MTK2503/MTK2503/11CW1418SP4_03_CORETEK03AE_11C_V1_GPRS_MMI/Tools/MinGW/include/c++/3.3.1/bits/stl_list.h ****     /**  Returns the number of elements in the %list.  */
 631:d:/MTK/MTK2503/MTK2503/11CW1418SP4_03_CORETEK03AE_11C_V1_GPRS_MMI/Tools/MinGW/include/c++/3.3.1/bits/stl_list.h ****     size_type
 632:d:/MTK/MTK2503/MTK2503/11CW1418SP4_03_CORETEK03AE_11C_V1_GPRS_MMI/Tools/MinGW/include/c++/3.3.1/bits/stl_list.h ****     size() const { return distance(begin(), end()); }
 633:d:/MTK/MTK2503/MTK2503/11CW1418SP4_03_CORETEK03AE_11C_V1_GPRS_MMI/Tools/MinGW/include/c++/3.3.1/bits/stl_list.h ****   
 634:d:/MTK/MTK2503/MTK2503/11CW1418SP4_03_CORETEK03AE_11C_V1_GPRS_MMI/Tools/MinGW/include/c++/3.3.1/bits/stl_list.h ****     /**  Returns the size() of the largest possible %list.  */
 635:d:/MTK/MTK2503/MTK2503/11CW1418SP4_03_CORETEK03AE_11C_V1_GPRS_MMI/Tools/MinGW/include/c++/3.3.1/bits/stl_list.h ****     size_type
 636:d:/MTK/MTK2503/MTK2503/11CW1418SP4_03_CORETEK03AE_11C_V1_GPRS_MMI/Tools/MinGW/include/c++/3.3.1/bits/stl_list.h ****     max_size() const { return size_type(-1); }
 637:d:/MTK/MTK2503/MTK2503/11CW1418SP4_03_CORETEK03AE_11C_V1_GPRS_MMI/Tools/MinGW/include/c++/3.3.1/bits/stl_list.h ****   
 638:d:/MTK/MTK2503/MTK2503/11CW1418SP4_03_CORETEK03AE_11C_V1_GPRS_MMI/Tools/MinGW/include/c++/3.3.1/bits/stl_list.h ****     /**
 639:d:/MTK/MTK2503/MTK2503/11CW1418SP4_03_CORETEK03AE_11C_V1_GPRS_MMI/Tools/MinGW/include/c++/3.3.1/bits/stl_list.h ****      *  @brief  Resizes the %list to the specified number of elements.
 640:d:/MTK/MTK2503/MTK2503/11CW1418SP4_03_CORETEK03AE_11C_V1_GPRS_MMI/Tools/MinGW/include/c++/3.3.1/bits/stl_list.h ****      *  @param  new_size  Number of elements the %list should contain.
 641:d:/MTK/MTK2503/MTK2503/11CW1418SP4_03_CORETEK03AE_11C_V1_GPRS_MMI/Tools/MinGW/include/c++/3.3.1/bits/stl_list.h ****      *  @param  x  Data with which new elements should be populated.
 642:d:/MTK/MTK2503/MTK2503/11CW1418SP4_03_CORETEK03AE_11C_V1_GPRS_MMI/Tools/MinGW/include/c++/3.3.1/bits/stl_list.h ****      *
 643:d:/MTK/MTK2503/MTK2503/11CW1418SP4_03_CORETEK03AE_11C_V1_GPRS_MMI/Tools/MinGW/include/c++/3.3.1/bits/stl_list.h ****      *  This function will %resize the %list to the specified number of
 644:d:/MTK/MTK2503/MTK2503/11CW1418SP4_03_CORETEK03AE_11C_V1_GPRS_MMI/Tools/MinGW/include/c++/3.3.1/bits/stl_list.h ****      *  elements.  If the number is smaller than the %list's current size the
 645:d:/MTK/MTK2503/MTK2503/11CW1418SP4_03_CORETEK03AE_11C_V1_GPRS_MMI/Tools/MinGW/include/c++/3.3.1/bits/stl_list.h ****      *  %list is truncated, otherwise the %list is extended and new elements
GAS LISTING d:/MTK/MTK2503/MTK2503/11CW1418SP4_03_CORETEK03AE_11C_V1_GPRS_MMI/plutommi/Customer/ResGenerator/gcctmp/ccQHcaaa.s 			page 97


 646:d:/MTK/MTK2503/MTK2503/11CW1418SP4_03_CORETEK03AE_11C_V1_GPRS_MMI/Tools/MinGW/include/c++/3.3.1/bits/stl_list.h ****      *  are populated with given data.
 647:d:/MTK/MTK2503/MTK2503/11CW1418SP4_03_CORETEK03AE_11C_V1_GPRS_MMI/Tools/MinGW/include/c++/3.3.1/bits/stl_list.h ****     */
 648:d:/MTK/MTK2503/MTK2503/11CW1418SP4_03_CORETEK03AE_11C_V1_GPRS_MMI/Tools/MinGW/include/c++/3.3.1/bits/stl_list.h ****     void
 649:d:/MTK/MTK2503/MTK2503/11CW1418SP4_03_CORETEK03AE_11C_V1_GPRS_MMI/Tools/MinGW/include/c++/3.3.1/bits/stl_list.h ****     resize(size_type __new_size, const value_type& __x);
 650:d:/MTK/MTK2503/MTK2503/11CW1418SP4_03_CORETEK03AE_11C_V1_GPRS_MMI/Tools/MinGW/include/c++/3.3.1/bits/stl_list.h ****   
 651:d:/MTK/MTK2503/MTK2503/11CW1418SP4_03_CORETEK03AE_11C_V1_GPRS_MMI/Tools/MinGW/include/c++/3.3.1/bits/stl_list.h ****     /**
 652:d:/MTK/MTK2503/MTK2503/11CW1418SP4_03_CORETEK03AE_11C_V1_GPRS_MMI/Tools/MinGW/include/c++/3.3.1/bits/stl_list.h ****      *  @brief  Resizes the %list to the specified number of elements.
 653:d:/MTK/MTK2503/MTK2503/11CW1418SP4_03_CORETEK03AE_11C_V1_GPRS_MMI/Tools/MinGW/include/c++/3.3.1/bits/stl_list.h ****      *  @param  new_size  Number of elements the %list should contain.
 654:d:/MTK/MTK2503/MTK2503/11CW1418SP4_03_CORETEK03AE_11C_V1_GPRS_MMI/Tools/MinGW/include/c++/3.3.1/bits/stl_list.h ****      *
 655:d:/MTK/MTK2503/MTK2503/11CW1418SP4_03_CORETEK03AE_11C_V1_GPRS_MMI/Tools/MinGW/include/c++/3.3.1/bits/stl_list.h ****      *  This function will resize the %list to the specified number of
 656:d:/MTK/MTK2503/MTK2503/11CW1418SP4_03_CORETEK03AE_11C_V1_GPRS_MMI/Tools/MinGW/include/c++/3.3.1/bits/stl_list.h ****      *  elements.  If the number is smaller than the %list's current size the
 657:d:/MTK/MTK2503/MTK2503/11CW1418SP4_03_CORETEK03AE_11C_V1_GPRS_MMI/Tools/MinGW/include/c++/3.3.1/bits/stl_list.h ****      *  %list is truncated, otherwise the %list is extended and new elements
 658:d:/MTK/MTK2503/MTK2503/11CW1418SP4_03_CORETEK03AE_11C_V1_GPRS_MMI/Tools/MinGW/include/c++/3.3.1/bits/stl_list.h ****      *  are default-constructed.
 659:d:/MTK/MTK2503/MTK2503/11CW1418SP4_03_CORETEK03AE_11C_V1_GPRS_MMI/Tools/MinGW/include/c++/3.3.1/bits/stl_list.h ****     */
 660:d:/MTK/MTK2503/MTK2503/11CW1418SP4_03_CORETEK03AE_11C_V1_GPRS_MMI/Tools/MinGW/include/c++/3.3.1/bits/stl_list.h ****     void
 661:d:/MTK/MTK2503/MTK2503/11CW1418SP4_03_CORETEK03AE_11C_V1_GPRS_MMI/Tools/MinGW/include/c++/3.3.1/bits/stl_list.h ****     resize(size_type __new_size) { this->resize(__new_size, value_type()); }
 662:d:/MTK/MTK2503/MTK2503/11CW1418SP4_03_CORETEK03AE_11C_V1_GPRS_MMI/Tools/MinGW/include/c++/3.3.1/bits/stl_list.h ****   
 663:d:/MTK/MTK2503/MTK2503/11CW1418SP4_03_CORETEK03AE_11C_V1_GPRS_MMI/Tools/MinGW/include/c++/3.3.1/bits/stl_list.h ****     // element access
 664:d:/MTK/MTK2503/MTK2503/11CW1418SP4_03_CORETEK03AE_11C_V1_GPRS_MMI/Tools/MinGW/include/c++/3.3.1/bits/stl_list.h ****     /**
 665:d:/MTK/MTK2503/MTK2503/11CW1418SP4_03_CORETEK03AE_11C_V1_GPRS_MMI/Tools/MinGW/include/c++/3.3.1/bits/stl_list.h ****      *  Returns a read/write reference to the data at the first element of the
 666:d:/MTK/MTK2503/MTK2503/11CW1418SP4_03_CORETEK03AE_11C_V1_GPRS_MMI/Tools/MinGW/include/c++/3.3.1/bits/stl_list.h ****      *  %list.
 667:d:/MTK/MTK2503/MTK2503/11CW1418SP4_03_CORETEK03AE_11C_V1_GPRS_MMI/Tools/MinGW/include/c++/3.3.1/bits/stl_list.h ****     */
 668:d:/MTK/MTK2503/MTK2503/11CW1418SP4_03_CORETEK03AE_11C_V1_GPRS_MMI/Tools/MinGW/include/c++/3.3.1/bits/stl_list.h ****     reference
 669:d:/MTK/MTK2503/MTK2503/11CW1418SP4_03_CORETEK03AE_11C_V1_GPRS_MMI/Tools/MinGW/include/c++/3.3.1/bits/stl_list.h ****     front() { return *begin(); }
 670:d:/MTK/MTK2503/MTK2503/11CW1418SP4_03_CORETEK03AE_11C_V1_GPRS_MMI/Tools/MinGW/include/c++/3.3.1/bits/stl_list.h ****   
 671:d:/MTK/MTK2503/MTK2503/11CW1418SP4_03_CORETEK03AE_11C_V1_GPRS_MMI/Tools/MinGW/include/c++/3.3.1/bits/stl_list.h ****     /**
 672:d:/MTK/MTK2503/MTK2503/11CW1418SP4_03_CORETEK03AE_11C_V1_GPRS_MMI/Tools/MinGW/include/c++/3.3.1/bits/stl_list.h ****      *  Returns a read-only (constant) reference to the data at the first
 673:d:/MTK/MTK2503/MTK2503/11CW1418SP4_03_CORETEK03AE_11C_V1_GPRS_MMI/Tools/MinGW/include/c++/3.3.1/bits/stl_list.h ****      *  element of the %list.
 674:d:/MTK/MTK2503/MTK2503/11CW1418SP4_03_CORETEK03AE_11C_V1_GPRS_MMI/Tools/MinGW/include/c++/3.3.1/bits/stl_list.h ****     */
 675:d:/MTK/MTK2503/MTK2503/11CW1418SP4_03_CORETEK03AE_11C_V1_GPRS_MMI/Tools/MinGW/include/c++/3.3.1/bits/stl_list.h ****     const_reference
 676:d:/MTK/MTK2503/MTK2503/11CW1418SP4_03_CORETEK03AE_11C_V1_GPRS_MMI/Tools/MinGW/include/c++/3.3.1/bits/stl_list.h ****     front() const { return *begin(); }
 677:d:/MTK/MTK2503/MTK2503/11CW1418SP4_03_CORETEK03AE_11C_V1_GPRS_MMI/Tools/MinGW/include/c++/3.3.1/bits/stl_list.h ****   
 678:d:/MTK/MTK2503/MTK2503/11CW1418SP4_03_CORETEK03AE_11C_V1_GPRS_MMI/Tools/MinGW/include/c++/3.3.1/bits/stl_list.h ****     /**
 679:d:/MTK/MTK2503/MTK2503/11CW1418SP4_03_CORETEK03AE_11C_V1_GPRS_MMI/Tools/MinGW/include/c++/3.3.1/bits/stl_list.h ****      *  Returns a read/write reference to the data at the last element of the
 680:d:/MTK/MTK2503/MTK2503/11CW1418SP4_03_CORETEK03AE_11C_V1_GPRS_MMI/Tools/MinGW/include/c++/3.3.1/bits/stl_list.h ****      *  %list.
 681:d:/MTK/MTK2503/MTK2503/11CW1418SP4_03_CORETEK03AE_11C_V1_GPRS_MMI/Tools/MinGW/include/c++/3.3.1/bits/stl_list.h ****     */
 682:d:/MTK/MTK2503/MTK2503/11CW1418SP4_03_CORETEK03AE_11C_V1_GPRS_MMI/Tools/MinGW/include/c++/3.3.1/bits/stl_list.h ****     reference
 683:d:/MTK/MTK2503/MTK2503/11CW1418SP4_03_CORETEK03AE_11C_V1_GPRS_MMI/Tools/MinGW/include/c++/3.3.1/bits/stl_list.h ****     back() { return *(--end()); }
 684:d:/MTK/MTK2503/MTK2503/11CW1418SP4_03_CORETEK03AE_11C_V1_GPRS_MMI/Tools/MinGW/include/c++/3.3.1/bits/stl_list.h ****   
 685:d:/MTK/MTK2503/MTK2503/11CW1418SP4_03_CORETEK03AE_11C_V1_GPRS_MMI/Tools/MinGW/include/c++/3.3.1/bits/stl_list.h ****     /**
 686:d:/MTK/MTK2503/MTK2503/11CW1418SP4_03_CORETEK03AE_11C_V1_GPRS_MMI/Tools/MinGW/include/c++/3.3.1/bits/stl_list.h ****      *  Returns a read-only (constant) reference to the data at the last
 687:d:/MTK/MTK2503/MTK2503/11CW1418SP4_03_CORETEK03AE_11C_V1_GPRS_MMI/Tools/MinGW/include/c++/3.3.1/bits/stl_list.h ****      *  element of the %list.
 688:d:/MTK/MTK2503/MTK2503/11CW1418SP4_03_CORETEK03AE_11C_V1_GPRS_MMI/Tools/MinGW/include/c++/3.3.1/bits/stl_list.h ****     */
 689:d:/MTK/MTK2503/MTK2503/11CW1418SP4_03_CORETEK03AE_11C_V1_GPRS_MMI/Tools/MinGW/include/c++/3.3.1/bits/stl_list.h ****     const_reference
 690:d:/MTK/MTK2503/MTK2503/11CW1418SP4_03_CORETEK03AE_11C_V1_GPRS_MMI/Tools/MinGW/include/c++/3.3.1/bits/stl_list.h ****     back() const { return *(--end()); }
 691:d:/MTK/MTK2503/MTK2503/11CW1418SP4_03_CORETEK03AE_11C_V1_GPRS_MMI/Tools/MinGW/include/c++/3.3.1/bits/stl_list.h ****   
 692:d:/MTK/MTK2503/MTK2503/11CW1418SP4_03_CORETEK03AE_11C_V1_GPRS_MMI/Tools/MinGW/include/c++/3.3.1/bits/stl_list.h ****     // [23.2.2.3] modifiers
 693:d:/MTK/MTK2503/MTK2503/11CW1418SP4_03_CORETEK03AE_11C_V1_GPRS_MMI/Tools/MinGW/include/c++/3.3.1/bits/stl_list.h ****     /**
 694:d:/MTK/MTK2503/MTK2503/11CW1418SP4_03_CORETEK03AE_11C_V1_GPRS_MMI/Tools/MinGW/include/c++/3.3.1/bits/stl_list.h ****      *  @brief  Add data to the front of the %list.
 695:d:/MTK/MTK2503/MTK2503/11CW1418SP4_03_CORETEK03AE_11C_V1_GPRS_MMI/Tools/MinGW/include/c++/3.3.1/bits/stl_list.h ****      *  @param  x  Data to be added.
 696:d:/MTK/MTK2503/MTK2503/11CW1418SP4_03_CORETEK03AE_11C_V1_GPRS_MMI/Tools/MinGW/include/c++/3.3.1/bits/stl_list.h ****      *
 697:d:/MTK/MTK2503/MTK2503/11CW1418SP4_03_CORETEK03AE_11C_V1_GPRS_MMI/Tools/MinGW/include/c++/3.3.1/bits/stl_list.h ****      *  This is a typical stack operation.  The function creates an element at
 698:d:/MTK/MTK2503/MTK2503/11CW1418SP4_03_CORETEK03AE_11C_V1_GPRS_MMI/Tools/MinGW/include/c++/3.3.1/bits/stl_list.h ****      *  the front of the %list and assigns the given data to it.  Due to the
 699:d:/MTK/MTK2503/MTK2503/11CW1418SP4_03_CORETEK03AE_11C_V1_GPRS_MMI/Tools/MinGW/include/c++/3.3.1/bits/stl_list.h ****      *  nature of a %list this operation can be done in constant time, and
 700:d:/MTK/MTK2503/MTK2503/11CW1418SP4_03_CORETEK03AE_11C_V1_GPRS_MMI/Tools/MinGW/include/c++/3.3.1/bits/stl_list.h ****      *  does not invalidate iterators and references.
 701:d:/MTK/MTK2503/MTK2503/11CW1418SP4_03_CORETEK03AE_11C_V1_GPRS_MMI/Tools/MinGW/include/c++/3.3.1/bits/stl_list.h ****     */
 702:d:/MTK/MTK2503/MTK2503/11CW1418SP4_03_CORETEK03AE_11C_V1_GPRS_MMI/Tools/MinGW/include/c++/3.3.1/bits/stl_list.h ****     void
GAS LISTING d:/MTK/MTK2503/MTK2503/11CW1418SP4_03_CORETEK03AE_11C_V1_GPRS_MMI/plutommi/Customer/ResGenerator/gcctmp/ccQHcaaa.s 			page 98


 703:d:/MTK/MTK2503/MTK2503/11CW1418SP4_03_CORETEK03AE_11C_V1_GPRS_MMI/Tools/MinGW/include/c++/3.3.1/bits/stl_list.h ****     push_front(const value_type& __x) { this->insert(begin(), __x); }
 704:d:/MTK/MTK2503/MTK2503/11CW1418SP4_03_CORETEK03AE_11C_V1_GPRS_MMI/Tools/MinGW/include/c++/3.3.1/bits/stl_list.h ****   
 705:d:/MTK/MTK2503/MTK2503/11CW1418SP4_03_CORETEK03AE_11C_V1_GPRS_MMI/Tools/MinGW/include/c++/3.3.1/bits/stl_list.h ****   #ifdef _GLIBCPP_DEPRECATED
 706:d:/MTK/MTK2503/MTK2503/11CW1418SP4_03_CORETEK03AE_11C_V1_GPRS_MMI/Tools/MinGW/include/c++/3.3.1/bits/stl_list.h ****     /**
 707:d:/MTK/MTK2503/MTK2503/11CW1418SP4_03_CORETEK03AE_11C_V1_GPRS_MMI/Tools/MinGW/include/c++/3.3.1/bits/stl_list.h ****      *  @brief  Add data to the front of the %list.
 708:d:/MTK/MTK2503/MTK2503/11CW1418SP4_03_CORETEK03AE_11C_V1_GPRS_MMI/Tools/MinGW/include/c++/3.3.1/bits/stl_list.h ****      *
 709:d:/MTK/MTK2503/MTK2503/11CW1418SP4_03_CORETEK03AE_11C_V1_GPRS_MMI/Tools/MinGW/include/c++/3.3.1/bits/stl_list.h ****      *  This is a typical stack operation.  The function creates a
 710:d:/MTK/MTK2503/MTK2503/11CW1418SP4_03_CORETEK03AE_11C_V1_GPRS_MMI/Tools/MinGW/include/c++/3.3.1/bits/stl_list.h ****      *  default-constructed element at the front of the %list.  Due to the
 711:d:/MTK/MTK2503/MTK2503/11CW1418SP4_03_CORETEK03AE_11C_V1_GPRS_MMI/Tools/MinGW/include/c++/3.3.1/bits/stl_list.h ****      *  nature of a %list this operation can be done in constant time.  You
 712:d:/MTK/MTK2503/MTK2503/11CW1418SP4_03_CORETEK03AE_11C_V1_GPRS_MMI/Tools/MinGW/include/c++/3.3.1/bits/stl_list.h ****      *  should consider using push_front(value_type()) instead.
 713:d:/MTK/MTK2503/MTK2503/11CW1418SP4_03_CORETEK03AE_11C_V1_GPRS_MMI/Tools/MinGW/include/c++/3.3.1/bits/stl_list.h ****      *
 714:d:/MTK/MTK2503/MTK2503/11CW1418SP4_03_CORETEK03AE_11C_V1_GPRS_MMI/Tools/MinGW/include/c++/3.3.1/bits/stl_list.h ****      *  @note This was deprecated in 3.2 and will be removed in 3.4.  You must
 715:d:/MTK/MTK2503/MTK2503/11CW1418SP4_03_CORETEK03AE_11C_V1_GPRS_MMI/Tools/MinGW/include/c++/3.3.1/bits/stl_list.h ****      *        define @c _GLIBCPP_DEPRECATED to make this visible in 3.2; see
 716:d:/MTK/MTK2503/MTK2503/11CW1418SP4_03_CORETEK03AE_11C_V1_GPRS_MMI/Tools/MinGW/include/c++/3.3.1/bits/stl_list.h ****      *        c++config.h.
 717:d:/MTK/MTK2503/MTK2503/11CW1418SP4_03_CORETEK03AE_11C_V1_GPRS_MMI/Tools/MinGW/include/c++/3.3.1/bits/stl_list.h ****     */
 718:d:/MTK/MTK2503/MTK2503/11CW1418SP4_03_CORETEK03AE_11C_V1_GPRS_MMI/Tools/MinGW/include/c++/3.3.1/bits/stl_list.h ****     void
 719:d:/MTK/MTK2503/MTK2503/11CW1418SP4_03_CORETEK03AE_11C_V1_GPRS_MMI/Tools/MinGW/include/c++/3.3.1/bits/stl_list.h ****     push_front() { this->insert(begin(), value_type()); }
 720:d:/MTK/MTK2503/MTK2503/11CW1418SP4_03_CORETEK03AE_11C_V1_GPRS_MMI/Tools/MinGW/include/c++/3.3.1/bits/stl_list.h ****   #endif
 721:d:/MTK/MTK2503/MTK2503/11CW1418SP4_03_CORETEK03AE_11C_V1_GPRS_MMI/Tools/MinGW/include/c++/3.3.1/bits/stl_list.h ****   
 722:d:/MTK/MTK2503/MTK2503/11CW1418SP4_03_CORETEK03AE_11C_V1_GPRS_MMI/Tools/MinGW/include/c++/3.3.1/bits/stl_list.h ****     /**
 723:d:/MTK/MTK2503/MTK2503/11CW1418SP4_03_CORETEK03AE_11C_V1_GPRS_MMI/Tools/MinGW/include/c++/3.3.1/bits/stl_list.h ****      *  @brief  Removes first element.
 724:d:/MTK/MTK2503/MTK2503/11CW1418SP4_03_CORETEK03AE_11C_V1_GPRS_MMI/Tools/MinGW/include/c++/3.3.1/bits/stl_list.h ****      *
 725:d:/MTK/MTK2503/MTK2503/11CW1418SP4_03_CORETEK03AE_11C_V1_GPRS_MMI/Tools/MinGW/include/c++/3.3.1/bits/stl_list.h ****      *  This is a typical stack operation.  It shrinks the %list by one.
 726:d:/MTK/MTK2503/MTK2503/11CW1418SP4_03_CORETEK03AE_11C_V1_GPRS_MMI/Tools/MinGW/include/c++/3.3.1/bits/stl_list.h ****      *  Due to the nature of a %list this operation can be done in constant
 727:d:/MTK/MTK2503/MTK2503/11CW1418SP4_03_CORETEK03AE_11C_V1_GPRS_MMI/Tools/MinGW/include/c++/3.3.1/bits/stl_list.h ****      *  time, and only invalidates iterators/references to the element being
 728:d:/MTK/MTK2503/MTK2503/11CW1418SP4_03_CORETEK03AE_11C_V1_GPRS_MMI/Tools/MinGW/include/c++/3.3.1/bits/stl_list.h ****      *  removed.
 729:d:/MTK/MTK2503/MTK2503/11CW1418SP4_03_CORETEK03AE_11C_V1_GPRS_MMI/Tools/MinGW/include/c++/3.3.1/bits/stl_list.h ****      *
 730:d:/MTK/MTK2503/MTK2503/11CW1418SP4_03_CORETEK03AE_11C_V1_GPRS_MMI/Tools/MinGW/include/c++/3.3.1/bits/stl_list.h ****      *  Note that no data is returned, and if the first element's data is
 731:d:/MTK/MTK2503/MTK2503/11CW1418SP4_03_CORETEK03AE_11C_V1_GPRS_MMI/Tools/MinGW/include/c++/3.3.1/bits/stl_list.h ****      *  needed, it should be retrieved before pop_front() is called.
 732:d:/MTK/MTK2503/MTK2503/11CW1418SP4_03_CORETEK03AE_11C_V1_GPRS_MMI/Tools/MinGW/include/c++/3.3.1/bits/stl_list.h ****     */
 733:d:/MTK/MTK2503/MTK2503/11CW1418SP4_03_CORETEK03AE_11C_V1_GPRS_MMI/Tools/MinGW/include/c++/3.3.1/bits/stl_list.h ****     void
 734:d:/MTK/MTK2503/MTK2503/11CW1418SP4_03_CORETEK03AE_11C_V1_GPRS_MMI/Tools/MinGW/include/c++/3.3.1/bits/stl_list.h ****     pop_front() { this->erase(begin()); }
 735:d:/MTK/MTK2503/MTK2503/11CW1418SP4_03_CORETEK03AE_11C_V1_GPRS_MMI/Tools/MinGW/include/c++/3.3.1/bits/stl_list.h ****   
 736:d:/MTK/MTK2503/MTK2503/11CW1418SP4_03_CORETEK03AE_11C_V1_GPRS_MMI/Tools/MinGW/include/c++/3.3.1/bits/stl_list.h ****     /**
 737:d:/MTK/MTK2503/MTK2503/11CW1418SP4_03_CORETEK03AE_11C_V1_GPRS_MMI/Tools/MinGW/include/c++/3.3.1/bits/stl_list.h ****      *  @brief  Add data to the end of the %list.
 738:d:/MTK/MTK2503/MTK2503/11CW1418SP4_03_CORETEK03AE_11C_V1_GPRS_MMI/Tools/MinGW/include/c++/3.3.1/bits/stl_list.h ****      *  @param  x  Data to be added.
 739:d:/MTK/MTK2503/MTK2503/11CW1418SP4_03_CORETEK03AE_11C_V1_GPRS_MMI/Tools/MinGW/include/c++/3.3.1/bits/stl_list.h ****      *
 740:d:/MTK/MTK2503/MTK2503/11CW1418SP4_03_CORETEK03AE_11C_V1_GPRS_MMI/Tools/MinGW/include/c++/3.3.1/bits/stl_list.h ****      *  This is a typical stack operation.  The function creates an element at
 741:d:/MTK/MTK2503/MTK2503/11CW1418SP4_03_CORETEK03AE_11C_V1_GPRS_MMI/Tools/MinGW/include/c++/3.3.1/bits/stl_list.h ****      *  the end of the %list and assigns the given data to it.  Due to the
 742:d:/MTK/MTK2503/MTK2503/11CW1418SP4_03_CORETEK03AE_11C_V1_GPRS_MMI/Tools/MinGW/include/c++/3.3.1/bits/stl_list.h ****      *  nature of a %list this operation can be done in constant time, and
 743:d:/MTK/MTK2503/MTK2503/11CW1418SP4_03_CORETEK03AE_11C_V1_GPRS_MMI/Tools/MinGW/include/c++/3.3.1/bits/stl_list.h ****      *  does not invalidate iterators and references.
 744:d:/MTK/MTK2503/MTK2503/11CW1418SP4_03_CORETEK03AE_11C_V1_GPRS_MMI/Tools/MinGW/include/c++/3.3.1/bits/stl_list.h ****     */
 745:d:/MTK/MTK2503/MTK2503/11CW1418SP4_03_CORETEK03AE_11C_V1_GPRS_MMI/Tools/MinGW/include/c++/3.3.1/bits/stl_list.h ****     void
 746:d:/MTK/MTK2503/MTK2503/11CW1418SP4_03_CORETEK03AE_11C_V1_GPRS_MMI/Tools/MinGW/include/c++/3.3.1/bits/stl_list.h ****     push_back(const value_type& __x) { this->insert(end(), __x); }
 747:d:/MTK/MTK2503/MTK2503/11CW1418SP4_03_CORETEK03AE_11C_V1_GPRS_MMI/Tools/MinGW/include/c++/3.3.1/bits/stl_list.h ****   
 748:d:/MTK/MTK2503/MTK2503/11CW1418SP4_03_CORETEK03AE_11C_V1_GPRS_MMI/Tools/MinGW/include/c++/3.3.1/bits/stl_list.h ****   #ifdef _GLIBCPP_DEPRECATED
 749:d:/MTK/MTK2503/MTK2503/11CW1418SP4_03_CORETEK03AE_11C_V1_GPRS_MMI/Tools/MinGW/include/c++/3.3.1/bits/stl_list.h ****     /**
 750:d:/MTK/MTK2503/MTK2503/11CW1418SP4_03_CORETEK03AE_11C_V1_GPRS_MMI/Tools/MinGW/include/c++/3.3.1/bits/stl_list.h ****      *  @brief  Add data to the end of the %list.
 751:d:/MTK/MTK2503/MTK2503/11CW1418SP4_03_CORETEK03AE_11C_V1_GPRS_MMI/Tools/MinGW/include/c++/3.3.1/bits/stl_list.h ****      *
 752:d:/MTK/MTK2503/MTK2503/11CW1418SP4_03_CORETEK03AE_11C_V1_GPRS_MMI/Tools/MinGW/include/c++/3.3.1/bits/stl_list.h ****      *  This is a typical stack operation.  The function creates a
 753:d:/MTK/MTK2503/MTK2503/11CW1418SP4_03_CORETEK03AE_11C_V1_GPRS_MMI/Tools/MinGW/include/c++/3.3.1/bits/stl_list.h ****      *  default-constructed element at the end of the %list.  Due to the nature
 754:d:/MTK/MTK2503/MTK2503/11CW1418SP4_03_CORETEK03AE_11C_V1_GPRS_MMI/Tools/MinGW/include/c++/3.3.1/bits/stl_list.h ****      *  of a %list this operation can be done in constant time.  You should
 755:d:/MTK/MTK2503/MTK2503/11CW1418SP4_03_CORETEK03AE_11C_V1_GPRS_MMI/Tools/MinGW/include/c++/3.3.1/bits/stl_list.h ****      *  consider using push_back(value_type()) instead.
 756:d:/MTK/MTK2503/MTK2503/11CW1418SP4_03_CORETEK03AE_11C_V1_GPRS_MMI/Tools/MinGW/include/c++/3.3.1/bits/stl_list.h ****      *
 757:d:/MTK/MTK2503/MTK2503/11CW1418SP4_03_CORETEK03AE_11C_V1_GPRS_MMI/Tools/MinGW/include/c++/3.3.1/bits/stl_list.h ****      *  @note This was deprecated in 3.2 and will be removed in 3.4.  You must
 758:d:/MTK/MTK2503/MTK2503/11CW1418SP4_03_CORETEK03AE_11C_V1_GPRS_MMI/Tools/MinGW/include/c++/3.3.1/bits/stl_list.h ****      *        define @c _GLIBCPP_DEPRECATED to make this visible in 3.2; see
 759:d:/MTK/MTK2503/MTK2503/11CW1418SP4_03_CORETEK03AE_11C_V1_GPRS_MMI/Tools/MinGW/include/c++/3.3.1/bits/stl_list.h ****      *        c++config.h.
GAS LISTING d:/MTK/MTK2503/MTK2503/11CW1418SP4_03_CORETEK03AE_11C_V1_GPRS_MMI/plutommi/Customer/ResGenerator/gcctmp/ccQHcaaa.s 			page 99


 760:d:/MTK/MTK2503/MTK2503/11CW1418SP4_03_CORETEK03AE_11C_V1_GPRS_MMI/Tools/MinGW/include/c++/3.3.1/bits/stl_list.h ****     */
 761:d:/MTK/MTK2503/MTK2503/11CW1418SP4_03_CORETEK03AE_11C_V1_GPRS_MMI/Tools/MinGW/include/c++/3.3.1/bits/stl_list.h ****     void
 762:d:/MTK/MTK2503/MTK2503/11CW1418SP4_03_CORETEK03AE_11C_V1_GPRS_MMI/Tools/MinGW/include/c++/3.3.1/bits/stl_list.h ****     push_back() { this->insert(end(), value_type()); }
 763:d:/MTK/MTK2503/MTK2503/11CW1418SP4_03_CORETEK03AE_11C_V1_GPRS_MMI/Tools/MinGW/include/c++/3.3.1/bits/stl_list.h ****   #endif
 764:d:/MTK/MTK2503/MTK2503/11CW1418SP4_03_CORETEK03AE_11C_V1_GPRS_MMI/Tools/MinGW/include/c++/3.3.1/bits/stl_list.h ****   
 765:d:/MTK/MTK2503/MTK2503/11CW1418SP4_03_CORETEK03AE_11C_V1_GPRS_MMI/Tools/MinGW/include/c++/3.3.1/bits/stl_list.h ****     /**
 766:d:/MTK/MTK2503/MTK2503/11CW1418SP4_03_CORETEK03AE_11C_V1_GPRS_MMI/Tools/MinGW/include/c++/3.3.1/bits/stl_list.h ****      *  @brief  Removes last element.
 767:d:/MTK/MTK2503/MTK2503/11CW1418SP4_03_CORETEK03AE_11C_V1_GPRS_MMI/Tools/MinGW/include/c++/3.3.1/bits/stl_list.h ****      *
 768:d:/MTK/MTK2503/MTK2503/11CW1418SP4_03_CORETEK03AE_11C_V1_GPRS_MMI/Tools/MinGW/include/c++/3.3.1/bits/stl_list.h ****      *  This is a typical stack operation.  It shrinks the %list by one.
 769:d:/MTK/MTK2503/MTK2503/11CW1418SP4_03_CORETEK03AE_11C_V1_GPRS_MMI/Tools/MinGW/include/c++/3.3.1/bits/stl_list.h ****      *  Due to the nature of a %list this operation can be done in constant
 770:d:/MTK/MTK2503/MTK2503/11CW1418SP4_03_CORETEK03AE_11C_V1_GPRS_MMI/Tools/MinGW/include/c++/3.3.1/bits/stl_list.h ****      *  time, and only invalidates iterators/references to the element being
 771:d:/MTK/MTK2503/MTK2503/11CW1418SP4_03_CORETEK03AE_11C_V1_GPRS_MMI/Tools/MinGW/include/c++/3.3.1/bits/stl_list.h ****      *  removed.
 772:d:/MTK/MTK2503/MTK2503/11CW1418SP4_03_CORETEK03AE_11C_V1_GPRS_MMI/Tools/MinGW/include/c++/3.3.1/bits/stl_list.h ****      *
 773:d:/MTK/MTK2503/MTK2503/11CW1418SP4_03_CORETEK03AE_11C_V1_GPRS_MMI/Tools/MinGW/include/c++/3.3.1/bits/stl_list.h ****      *  Note that no data is returned, and if the last element's data is
 774:d:/MTK/MTK2503/MTK2503/11CW1418SP4_03_CORETEK03AE_11C_V1_GPRS_MMI/Tools/MinGW/include/c++/3.3.1/bits/stl_list.h ****      *  needed, it should be retrieved before pop_back() is called.
 775:d:/MTK/MTK2503/MTK2503/11CW1418SP4_03_CORETEK03AE_11C_V1_GPRS_MMI/Tools/MinGW/include/c++/3.3.1/bits/stl_list.h ****     */
 776:d:/MTK/MTK2503/MTK2503/11CW1418SP4_03_CORETEK03AE_11C_V1_GPRS_MMI/Tools/MinGW/include/c++/3.3.1/bits/stl_list.h ****     void
 777:d:/MTK/MTK2503/MTK2503/11CW1418SP4_03_CORETEK03AE_11C_V1_GPRS_MMI/Tools/MinGW/include/c++/3.3.1/bits/stl_list.h ****     pop_back()
 778:d:/MTK/MTK2503/MTK2503/11CW1418SP4_03_CORETEK03AE_11C_V1_GPRS_MMI/Tools/MinGW/include/c++/3.3.1/bits/stl_list.h ****     {
 779:d:/MTK/MTK2503/MTK2503/11CW1418SP4_03_CORETEK03AE_11C_V1_GPRS_MMI/Tools/MinGW/include/c++/3.3.1/bits/stl_list.h ****       iterator __tmp = end();
 780:d:/MTK/MTK2503/MTK2503/11CW1418SP4_03_CORETEK03AE_11C_V1_GPRS_MMI/Tools/MinGW/include/c++/3.3.1/bits/stl_list.h ****       this->erase(--__tmp);
 781:d:/MTK/MTK2503/MTK2503/11CW1418SP4_03_CORETEK03AE_11C_V1_GPRS_MMI/Tools/MinGW/include/c++/3.3.1/bits/stl_list.h ****     }
 782:d:/MTK/MTK2503/MTK2503/11CW1418SP4_03_CORETEK03AE_11C_V1_GPRS_MMI/Tools/MinGW/include/c++/3.3.1/bits/stl_list.h ****   
 783:d:/MTK/MTK2503/MTK2503/11CW1418SP4_03_CORETEK03AE_11C_V1_GPRS_MMI/Tools/MinGW/include/c++/3.3.1/bits/stl_list.h ****     /**
 784:d:/MTK/MTK2503/MTK2503/11CW1418SP4_03_CORETEK03AE_11C_V1_GPRS_MMI/Tools/MinGW/include/c++/3.3.1/bits/stl_list.h ****      *  @brief  Inserts given value into %list before specified iterator.
 785:d:/MTK/MTK2503/MTK2503/11CW1418SP4_03_CORETEK03AE_11C_V1_GPRS_MMI/Tools/MinGW/include/c++/3.3.1/bits/stl_list.h ****      *  @param  position  An iterator into the %list.
 786:d:/MTK/MTK2503/MTK2503/11CW1418SP4_03_CORETEK03AE_11C_V1_GPRS_MMI/Tools/MinGW/include/c++/3.3.1/bits/stl_list.h ****      *  @param  x  Data to be inserted.
 787:d:/MTK/MTK2503/MTK2503/11CW1418SP4_03_CORETEK03AE_11C_V1_GPRS_MMI/Tools/MinGW/include/c++/3.3.1/bits/stl_list.h ****      *  @return  An iterator that points to the inserted data.
 788:d:/MTK/MTK2503/MTK2503/11CW1418SP4_03_CORETEK03AE_11C_V1_GPRS_MMI/Tools/MinGW/include/c++/3.3.1/bits/stl_list.h ****      *
 789:d:/MTK/MTK2503/MTK2503/11CW1418SP4_03_CORETEK03AE_11C_V1_GPRS_MMI/Tools/MinGW/include/c++/3.3.1/bits/stl_list.h ****      *  This function will insert a copy of the given value before the specified
 790:d:/MTK/MTK2503/MTK2503/11CW1418SP4_03_CORETEK03AE_11C_V1_GPRS_MMI/Tools/MinGW/include/c++/3.3.1/bits/stl_list.h ****      *  location.
 791:d:/MTK/MTK2503/MTK2503/11CW1418SP4_03_CORETEK03AE_11C_V1_GPRS_MMI/Tools/MinGW/include/c++/3.3.1/bits/stl_list.h ****      *  Due to the nature of a %list this operation can be done in constant
 792:d:/MTK/MTK2503/MTK2503/11CW1418SP4_03_CORETEK03AE_11C_V1_GPRS_MMI/Tools/MinGW/include/c++/3.3.1/bits/stl_list.h ****      *  time, and does not invalidate iterators and references.
 793:d:/MTK/MTK2503/MTK2503/11CW1418SP4_03_CORETEK03AE_11C_V1_GPRS_MMI/Tools/MinGW/include/c++/3.3.1/bits/stl_list.h ****     */
 794:d:/MTK/MTK2503/MTK2503/11CW1418SP4_03_CORETEK03AE_11C_V1_GPRS_MMI/Tools/MinGW/include/c++/3.3.1/bits/stl_list.h ****     iterator
 795:d:/MTK/MTK2503/MTK2503/11CW1418SP4_03_CORETEK03AE_11C_V1_GPRS_MMI/Tools/MinGW/include/c++/3.3.1/bits/stl_list.h ****     insert(iterator __position, const value_type& __x);
 796:d:/MTK/MTK2503/MTK2503/11CW1418SP4_03_CORETEK03AE_11C_V1_GPRS_MMI/Tools/MinGW/include/c++/3.3.1/bits/stl_list.h ****   
 797:d:/MTK/MTK2503/MTK2503/11CW1418SP4_03_CORETEK03AE_11C_V1_GPRS_MMI/Tools/MinGW/include/c++/3.3.1/bits/stl_list.h ****   #ifdef _GLIBCPP_DEPRECATED
 798:d:/MTK/MTK2503/MTK2503/11CW1418SP4_03_CORETEK03AE_11C_V1_GPRS_MMI/Tools/MinGW/include/c++/3.3.1/bits/stl_list.h ****     /**
 799:d:/MTK/MTK2503/MTK2503/11CW1418SP4_03_CORETEK03AE_11C_V1_GPRS_MMI/Tools/MinGW/include/c++/3.3.1/bits/stl_list.h ****      *  @brief  Inserts an element into the %list.
 800:d:/MTK/MTK2503/MTK2503/11CW1418SP4_03_CORETEK03AE_11C_V1_GPRS_MMI/Tools/MinGW/include/c++/3.3.1/bits/stl_list.h ****      *  @param  position  An iterator into the %list.
 801:d:/MTK/MTK2503/MTK2503/11CW1418SP4_03_CORETEK03AE_11C_V1_GPRS_MMI/Tools/MinGW/include/c++/3.3.1/bits/stl_list.h ****      *  @return  An iterator that points to the inserted element.
 802:d:/MTK/MTK2503/MTK2503/11CW1418SP4_03_CORETEK03AE_11C_V1_GPRS_MMI/Tools/MinGW/include/c++/3.3.1/bits/stl_list.h ****      *
 803:d:/MTK/MTK2503/MTK2503/11CW1418SP4_03_CORETEK03AE_11C_V1_GPRS_MMI/Tools/MinGW/include/c++/3.3.1/bits/stl_list.h ****      *  This function will insert a default-constructed element before the
 804:d:/MTK/MTK2503/MTK2503/11CW1418SP4_03_CORETEK03AE_11C_V1_GPRS_MMI/Tools/MinGW/include/c++/3.3.1/bits/stl_list.h ****      *  specified location.  You should consider using
 805:d:/MTK/MTK2503/MTK2503/11CW1418SP4_03_CORETEK03AE_11C_V1_GPRS_MMI/Tools/MinGW/include/c++/3.3.1/bits/stl_list.h ****      *  insert(position,value_type()) instead.
 806:d:/MTK/MTK2503/MTK2503/11CW1418SP4_03_CORETEK03AE_11C_V1_GPRS_MMI/Tools/MinGW/include/c++/3.3.1/bits/stl_list.h ****      *  Due to the nature of a %list this operation can be done in constant
 807:d:/MTK/MTK2503/MTK2503/11CW1418SP4_03_CORETEK03AE_11C_V1_GPRS_MMI/Tools/MinGW/include/c++/3.3.1/bits/stl_list.h ****      *  time, and does not invalidate iterators and references.
 808:d:/MTK/MTK2503/MTK2503/11CW1418SP4_03_CORETEK03AE_11C_V1_GPRS_MMI/Tools/MinGW/include/c++/3.3.1/bits/stl_list.h ****      *
 809:d:/MTK/MTK2503/MTK2503/11CW1418SP4_03_CORETEK03AE_11C_V1_GPRS_MMI/Tools/MinGW/include/c++/3.3.1/bits/stl_list.h ****      *  @note This was deprecated in 3.2 and will be removed in 3.4.  You must
 810:d:/MTK/MTK2503/MTK2503/11CW1418SP4_03_CORETEK03AE_11C_V1_GPRS_MMI/Tools/MinGW/include/c++/3.3.1/bits/stl_list.h ****      *        define @c _GLIBCPP_DEPRECATED to make this visible in 3.2; see
 811:d:/MTK/MTK2503/MTK2503/11CW1418SP4_03_CORETEK03AE_11C_V1_GPRS_MMI/Tools/MinGW/include/c++/3.3.1/bits/stl_list.h ****      *        c++config.h.
 812:d:/MTK/MTK2503/MTK2503/11CW1418SP4_03_CORETEK03AE_11C_V1_GPRS_MMI/Tools/MinGW/include/c++/3.3.1/bits/stl_list.h ****     */
 813:d:/MTK/MTK2503/MTK2503/11CW1418SP4_03_CORETEK03AE_11C_V1_GPRS_MMI/Tools/MinGW/include/c++/3.3.1/bits/stl_list.h ****     iterator
 814:d:/MTK/MTK2503/MTK2503/11CW1418SP4_03_CORETEK03AE_11C_V1_GPRS_MMI/Tools/MinGW/include/c++/3.3.1/bits/stl_list.h ****     insert(iterator __position) { return insert(__position, value_type()); }
 815:d:/MTK/MTK2503/MTK2503/11CW1418SP4_03_CORETEK03AE_11C_V1_GPRS_MMI/Tools/MinGW/include/c++/3.3.1/bits/stl_list.h ****   #endif
 816:d:/MTK/MTK2503/MTK2503/11CW1418SP4_03_CORETEK03AE_11C_V1_GPRS_MMI/Tools/MinGW/include/c++/3.3.1/bits/stl_list.h ****   
GAS LISTING d:/MTK/MTK2503/MTK2503/11CW1418SP4_03_CORETEK03AE_11C_V1_GPRS_MMI/plutommi/Customer/ResGenerator/gcctmp/ccQHcaaa.s 			page 100


 817:d:/MTK/MTK2503/MTK2503/11CW1418SP4_03_CORETEK03AE_11C_V1_GPRS_MMI/Tools/MinGW/include/c++/3.3.1/bits/stl_list.h ****     /**
 818:d:/MTK/MTK2503/MTK2503/11CW1418SP4_03_CORETEK03AE_11C_V1_GPRS_MMI/Tools/MinGW/include/c++/3.3.1/bits/stl_list.h ****      *  @brief  Inserts a number of copies of given data into the %list.
 819:d:/MTK/MTK2503/MTK2503/11CW1418SP4_03_CORETEK03AE_11C_V1_GPRS_MMI/Tools/MinGW/include/c++/3.3.1/bits/stl_list.h ****      *  @param  position  An iterator into the %list.
 820:d:/MTK/MTK2503/MTK2503/11CW1418SP4_03_CORETEK03AE_11C_V1_GPRS_MMI/Tools/MinGW/include/c++/3.3.1/bits/stl_list.h ****      *  @param  n  Number of elements to be inserted.
 821:d:/MTK/MTK2503/MTK2503/11CW1418SP4_03_CORETEK03AE_11C_V1_GPRS_MMI/Tools/MinGW/include/c++/3.3.1/bits/stl_list.h ****      *  @param  x  Data to be inserted.
 822:d:/MTK/MTK2503/MTK2503/11CW1418SP4_03_CORETEK03AE_11C_V1_GPRS_MMI/Tools/MinGW/include/c++/3.3.1/bits/stl_list.h ****      *
 823:d:/MTK/MTK2503/MTK2503/11CW1418SP4_03_CORETEK03AE_11C_V1_GPRS_MMI/Tools/MinGW/include/c++/3.3.1/bits/stl_list.h ****      *  This function will insert a specified number of copies of the given data
 824:d:/MTK/MTK2503/MTK2503/11CW1418SP4_03_CORETEK03AE_11C_V1_GPRS_MMI/Tools/MinGW/include/c++/3.3.1/bits/stl_list.h ****      *  before the location specified by @a position.
 825:d:/MTK/MTK2503/MTK2503/11CW1418SP4_03_CORETEK03AE_11C_V1_GPRS_MMI/Tools/MinGW/include/c++/3.3.1/bits/stl_list.h ****      *
 826:d:/MTK/MTK2503/MTK2503/11CW1418SP4_03_CORETEK03AE_11C_V1_GPRS_MMI/Tools/MinGW/include/c++/3.3.1/bits/stl_list.h ****      *  Due to the nature of a %list this operation can be done in constant
 827:d:/MTK/MTK2503/MTK2503/11CW1418SP4_03_CORETEK03AE_11C_V1_GPRS_MMI/Tools/MinGW/include/c++/3.3.1/bits/stl_list.h ****      *  time, and does not invalidate iterators and references.
 828:d:/MTK/MTK2503/MTK2503/11CW1418SP4_03_CORETEK03AE_11C_V1_GPRS_MMI/Tools/MinGW/include/c++/3.3.1/bits/stl_list.h ****     */
 829:d:/MTK/MTK2503/MTK2503/11CW1418SP4_03_CORETEK03AE_11C_V1_GPRS_MMI/Tools/MinGW/include/c++/3.3.1/bits/stl_list.h ****     void
 830:d:/MTK/MTK2503/MTK2503/11CW1418SP4_03_CORETEK03AE_11C_V1_GPRS_MMI/Tools/MinGW/include/c++/3.3.1/bits/stl_list.h ****     insert(iterator __pos, size_type __n, const value_type& __x)
 831:d:/MTK/MTK2503/MTK2503/11CW1418SP4_03_CORETEK03AE_11C_V1_GPRS_MMI/Tools/MinGW/include/c++/3.3.1/bits/stl_list.h ****     { _M_fill_insert(__pos, __n, __x); }
 832:d:/MTK/MTK2503/MTK2503/11CW1418SP4_03_CORETEK03AE_11C_V1_GPRS_MMI/Tools/MinGW/include/c++/3.3.1/bits/stl_list.h ****   
 833:d:/MTK/MTK2503/MTK2503/11CW1418SP4_03_CORETEK03AE_11C_V1_GPRS_MMI/Tools/MinGW/include/c++/3.3.1/bits/stl_list.h ****     /**
 834:d:/MTK/MTK2503/MTK2503/11CW1418SP4_03_CORETEK03AE_11C_V1_GPRS_MMI/Tools/MinGW/include/c++/3.3.1/bits/stl_list.h ****      *  @brief  Inserts a range into the %list.
 835:d:/MTK/MTK2503/MTK2503/11CW1418SP4_03_CORETEK03AE_11C_V1_GPRS_MMI/Tools/MinGW/include/c++/3.3.1/bits/stl_list.h ****      *  @param  pos  An iterator into the %list.
 836:d:/MTK/MTK2503/MTK2503/11CW1418SP4_03_CORETEK03AE_11C_V1_GPRS_MMI/Tools/MinGW/include/c++/3.3.1/bits/stl_list.h ****      *  @param  first  An input iterator.
 837:d:/MTK/MTK2503/MTK2503/11CW1418SP4_03_CORETEK03AE_11C_V1_GPRS_MMI/Tools/MinGW/include/c++/3.3.1/bits/stl_list.h ****      *  @param  last   An input iterator.
 838:d:/MTK/MTK2503/MTK2503/11CW1418SP4_03_CORETEK03AE_11C_V1_GPRS_MMI/Tools/MinGW/include/c++/3.3.1/bits/stl_list.h ****      *
 839:d:/MTK/MTK2503/MTK2503/11CW1418SP4_03_CORETEK03AE_11C_V1_GPRS_MMI/Tools/MinGW/include/c++/3.3.1/bits/stl_list.h ****      *  This function will insert copies of the data in the range [first,last)
 840:d:/MTK/MTK2503/MTK2503/11CW1418SP4_03_CORETEK03AE_11C_V1_GPRS_MMI/Tools/MinGW/include/c++/3.3.1/bits/stl_list.h ****      *  into the %list before the location specified by @a pos.
 841:d:/MTK/MTK2503/MTK2503/11CW1418SP4_03_CORETEK03AE_11C_V1_GPRS_MMI/Tools/MinGW/include/c++/3.3.1/bits/stl_list.h ****      *
 842:d:/MTK/MTK2503/MTK2503/11CW1418SP4_03_CORETEK03AE_11C_V1_GPRS_MMI/Tools/MinGW/include/c++/3.3.1/bits/stl_list.h ****      *  Due to the nature of a %list this operation can be done in constant
 843:d:/MTK/MTK2503/MTK2503/11CW1418SP4_03_CORETEK03AE_11C_V1_GPRS_MMI/Tools/MinGW/include/c++/3.3.1/bits/stl_list.h ****      *  time, and does not invalidate iterators and references.
 844:d:/MTK/MTK2503/MTK2503/11CW1418SP4_03_CORETEK03AE_11C_V1_GPRS_MMI/Tools/MinGW/include/c++/3.3.1/bits/stl_list.h ****     */
 845:d:/MTK/MTK2503/MTK2503/11CW1418SP4_03_CORETEK03AE_11C_V1_GPRS_MMI/Tools/MinGW/include/c++/3.3.1/bits/stl_list.h ****     template<typename _InputIterator>
 846:d:/MTK/MTK2503/MTK2503/11CW1418SP4_03_CORETEK03AE_11C_V1_GPRS_MMI/Tools/MinGW/include/c++/3.3.1/bits/stl_list.h ****       void
 847:d:/MTK/MTK2503/MTK2503/11CW1418SP4_03_CORETEK03AE_11C_V1_GPRS_MMI/Tools/MinGW/include/c++/3.3.1/bits/stl_list.h ****       insert(iterator __pos, _InputIterator __first, _InputIterator __last)
 848:d:/MTK/MTK2503/MTK2503/11CW1418SP4_03_CORETEK03AE_11C_V1_GPRS_MMI/Tools/MinGW/include/c++/3.3.1/bits/stl_list.h ****       {
 849:d:/MTK/MTK2503/MTK2503/11CW1418SP4_03_CORETEK03AE_11C_V1_GPRS_MMI/Tools/MinGW/include/c++/3.3.1/bits/stl_list.h ****         // Check whether it's an integral type.  If so, it's not an iterator.
 850:d:/MTK/MTK2503/MTK2503/11CW1418SP4_03_CORETEK03AE_11C_V1_GPRS_MMI/Tools/MinGW/include/c++/3.3.1/bits/stl_list.h ****         typedef typename _Is_integer<_InputIterator>::_Integral _Integral;
 851:d:/MTK/MTK2503/MTK2503/11CW1418SP4_03_CORETEK03AE_11C_V1_GPRS_MMI/Tools/MinGW/include/c++/3.3.1/bits/stl_list.h ****         _M_insert_dispatch(__pos, __first, __last, _Integral());
 852:d:/MTK/MTK2503/MTK2503/11CW1418SP4_03_CORETEK03AE_11C_V1_GPRS_MMI/Tools/MinGW/include/c++/3.3.1/bits/stl_list.h ****       }
 853:d:/MTK/MTK2503/MTK2503/11CW1418SP4_03_CORETEK03AE_11C_V1_GPRS_MMI/Tools/MinGW/include/c++/3.3.1/bits/stl_list.h ****   
 854:d:/MTK/MTK2503/MTK2503/11CW1418SP4_03_CORETEK03AE_11C_V1_GPRS_MMI/Tools/MinGW/include/c++/3.3.1/bits/stl_list.h ****     /**
 855:d:/MTK/MTK2503/MTK2503/11CW1418SP4_03_CORETEK03AE_11C_V1_GPRS_MMI/Tools/MinGW/include/c++/3.3.1/bits/stl_list.h ****      *  @brief  Remove element at given position.
 856:d:/MTK/MTK2503/MTK2503/11CW1418SP4_03_CORETEK03AE_11C_V1_GPRS_MMI/Tools/MinGW/include/c++/3.3.1/bits/stl_list.h ****      *  @param  position  Iterator pointing to element to be erased.
 857:d:/MTK/MTK2503/MTK2503/11CW1418SP4_03_CORETEK03AE_11C_V1_GPRS_MMI/Tools/MinGW/include/c++/3.3.1/bits/stl_list.h ****      *  @return  An iterator pointing to the next element (or end()).
 858:d:/MTK/MTK2503/MTK2503/11CW1418SP4_03_CORETEK03AE_11C_V1_GPRS_MMI/Tools/MinGW/include/c++/3.3.1/bits/stl_list.h ****      *
 859:d:/MTK/MTK2503/MTK2503/11CW1418SP4_03_CORETEK03AE_11C_V1_GPRS_MMI/Tools/MinGW/include/c++/3.3.1/bits/stl_list.h ****      *  This function will erase the element at the given position and thus
 860:d:/MTK/MTK2503/MTK2503/11CW1418SP4_03_CORETEK03AE_11C_V1_GPRS_MMI/Tools/MinGW/include/c++/3.3.1/bits/stl_list.h ****      *  shorten the %list by one.
 861:d:/MTK/MTK2503/MTK2503/11CW1418SP4_03_CORETEK03AE_11C_V1_GPRS_MMI/Tools/MinGW/include/c++/3.3.1/bits/stl_list.h ****      *
 862:d:/MTK/MTK2503/MTK2503/11CW1418SP4_03_CORETEK03AE_11C_V1_GPRS_MMI/Tools/MinGW/include/c++/3.3.1/bits/stl_list.h ****      *  Due to the nature of a %list this operation can be done in constant
 863:d:/MTK/MTK2503/MTK2503/11CW1418SP4_03_CORETEK03AE_11C_V1_GPRS_MMI/Tools/MinGW/include/c++/3.3.1/bits/stl_list.h ****      *  time, and only invalidates iterators/references to the element being
 864:d:/MTK/MTK2503/MTK2503/11CW1418SP4_03_CORETEK03AE_11C_V1_GPRS_MMI/Tools/MinGW/include/c++/3.3.1/bits/stl_list.h ****      *  removed.
 865:d:/MTK/MTK2503/MTK2503/11CW1418SP4_03_CORETEK03AE_11C_V1_GPRS_MMI/Tools/MinGW/include/c++/3.3.1/bits/stl_list.h ****      *  The user is also cautioned that
 866:d:/MTK/MTK2503/MTK2503/11CW1418SP4_03_CORETEK03AE_11C_V1_GPRS_MMI/Tools/MinGW/include/c++/3.3.1/bits/stl_list.h ****      *  this function only erases the element, and that if the element is itself
 867:d:/MTK/MTK2503/MTK2503/11CW1418SP4_03_CORETEK03AE_11C_V1_GPRS_MMI/Tools/MinGW/include/c++/3.3.1/bits/stl_list.h ****      *  a pointer, the pointed-to memory is not touched in any way.  Managing
 868:d:/MTK/MTK2503/MTK2503/11CW1418SP4_03_CORETEK03AE_11C_V1_GPRS_MMI/Tools/MinGW/include/c++/3.3.1/bits/stl_list.h ****      *  the pointer is the user's responsibilty.
 869:d:/MTK/MTK2503/MTK2503/11CW1418SP4_03_CORETEK03AE_11C_V1_GPRS_MMI/Tools/MinGW/include/c++/3.3.1/bits/stl_list.h ****     */
 870:d:/MTK/MTK2503/MTK2503/11CW1418SP4_03_CORETEK03AE_11C_V1_GPRS_MMI/Tools/MinGW/include/c++/3.3.1/bits/stl_list.h ****     iterator
 871:d:/MTK/MTK2503/MTK2503/11CW1418SP4_03_CORETEK03AE_11C_V1_GPRS_MMI/Tools/MinGW/include/c++/3.3.1/bits/stl_list.h ****     erase(iterator __position);
 872:d:/MTK/MTK2503/MTK2503/11CW1418SP4_03_CORETEK03AE_11C_V1_GPRS_MMI/Tools/MinGW/include/c++/3.3.1/bits/stl_list.h ****   
 873:d:/MTK/MTK2503/MTK2503/11CW1418SP4_03_CORETEK03AE_11C_V1_GPRS_MMI/Tools/MinGW/include/c++/3.3.1/bits/stl_list.h ****     /**
GAS LISTING d:/MTK/MTK2503/MTK2503/11CW1418SP4_03_CORETEK03AE_11C_V1_GPRS_MMI/plutommi/Customer/ResGenerator/gcctmp/ccQHcaaa.s 			page 101


 874:d:/MTK/MTK2503/MTK2503/11CW1418SP4_03_CORETEK03AE_11C_V1_GPRS_MMI/Tools/MinGW/include/c++/3.3.1/bits/stl_list.h ****      *  @brief  Remove a range of elements.
 875:d:/MTK/MTK2503/MTK2503/11CW1418SP4_03_CORETEK03AE_11C_V1_GPRS_MMI/Tools/MinGW/include/c++/3.3.1/bits/stl_list.h ****      *  @param  first  Iterator pointing to the first element to be erased.
 876:d:/MTK/MTK2503/MTK2503/11CW1418SP4_03_CORETEK03AE_11C_V1_GPRS_MMI/Tools/MinGW/include/c++/3.3.1/bits/stl_list.h ****      *  @param  last  Iterator pointing to one past the last element to be
 877:d:/MTK/MTK2503/MTK2503/11CW1418SP4_03_CORETEK03AE_11C_V1_GPRS_MMI/Tools/MinGW/include/c++/3.3.1/bits/stl_list.h ****      *                erased.
 878:d:/MTK/MTK2503/MTK2503/11CW1418SP4_03_CORETEK03AE_11C_V1_GPRS_MMI/Tools/MinGW/include/c++/3.3.1/bits/stl_list.h ****      *  @return  An iterator pointing to the element pointed to by @a last
 879:d:/MTK/MTK2503/MTK2503/11CW1418SP4_03_CORETEK03AE_11C_V1_GPRS_MMI/Tools/MinGW/include/c++/3.3.1/bits/stl_list.h ****      *           prior to erasing (or end()).
 880:d:/MTK/MTK2503/MTK2503/11CW1418SP4_03_CORETEK03AE_11C_V1_GPRS_MMI/Tools/MinGW/include/c++/3.3.1/bits/stl_list.h ****      *
 881:d:/MTK/MTK2503/MTK2503/11CW1418SP4_03_CORETEK03AE_11C_V1_GPRS_MMI/Tools/MinGW/include/c++/3.3.1/bits/stl_list.h ****      *  This function will erase the elements in the range [first,last) and
 882:d:/MTK/MTK2503/MTK2503/11CW1418SP4_03_CORETEK03AE_11C_V1_GPRS_MMI/Tools/MinGW/include/c++/3.3.1/bits/stl_list.h ****      *  shorten the %list accordingly.
 883:d:/MTK/MTK2503/MTK2503/11CW1418SP4_03_CORETEK03AE_11C_V1_GPRS_MMI/Tools/MinGW/include/c++/3.3.1/bits/stl_list.h ****      *
 884:d:/MTK/MTK2503/MTK2503/11CW1418SP4_03_CORETEK03AE_11C_V1_GPRS_MMI/Tools/MinGW/include/c++/3.3.1/bits/stl_list.h ****      *  Due to the nature of a %list this operation can be done in constant
 885:d:/MTK/MTK2503/MTK2503/11CW1418SP4_03_CORETEK03AE_11C_V1_GPRS_MMI/Tools/MinGW/include/c++/3.3.1/bits/stl_list.h ****      *  time, and only invalidates iterators/references to the element being
 886:d:/MTK/MTK2503/MTK2503/11CW1418SP4_03_CORETEK03AE_11C_V1_GPRS_MMI/Tools/MinGW/include/c++/3.3.1/bits/stl_list.h ****      *  removed.
 887:d:/MTK/MTK2503/MTK2503/11CW1418SP4_03_CORETEK03AE_11C_V1_GPRS_MMI/Tools/MinGW/include/c++/3.3.1/bits/stl_list.h ****      *  The user is also cautioned that
 888:d:/MTK/MTK2503/MTK2503/11CW1418SP4_03_CORETEK03AE_11C_V1_GPRS_MMI/Tools/MinGW/include/c++/3.3.1/bits/stl_list.h ****      *  this function only erases the elements, and that if the elements
 889:d:/MTK/MTK2503/MTK2503/11CW1418SP4_03_CORETEK03AE_11C_V1_GPRS_MMI/Tools/MinGW/include/c++/3.3.1/bits/stl_list.h ****      *  themselves are pointers, the pointed-to memory is not touched in any
 890:d:/MTK/MTK2503/MTK2503/11CW1418SP4_03_CORETEK03AE_11C_V1_GPRS_MMI/Tools/MinGW/include/c++/3.3.1/bits/stl_list.h ****      *  way.  Managing the pointer is the user's responsibilty.
 891:d:/MTK/MTK2503/MTK2503/11CW1418SP4_03_CORETEK03AE_11C_V1_GPRS_MMI/Tools/MinGW/include/c++/3.3.1/bits/stl_list.h ****     */
 892:d:/MTK/MTK2503/MTK2503/11CW1418SP4_03_CORETEK03AE_11C_V1_GPRS_MMI/Tools/MinGW/include/c++/3.3.1/bits/stl_list.h ****     iterator
 893:d:/MTK/MTK2503/MTK2503/11CW1418SP4_03_CORETEK03AE_11C_V1_GPRS_MMI/Tools/MinGW/include/c++/3.3.1/bits/stl_list.h ****     erase(iterator __first, iterator __last)
 894:d:/MTK/MTK2503/MTK2503/11CW1418SP4_03_CORETEK03AE_11C_V1_GPRS_MMI/Tools/MinGW/include/c++/3.3.1/bits/stl_list.h ****     {
 895:d:/MTK/MTK2503/MTK2503/11CW1418SP4_03_CORETEK03AE_11C_V1_GPRS_MMI/Tools/MinGW/include/c++/3.3.1/bits/stl_list.h ****       while (__first != __last)
 896:d:/MTK/MTK2503/MTK2503/11CW1418SP4_03_CORETEK03AE_11C_V1_GPRS_MMI/Tools/MinGW/include/c++/3.3.1/bits/stl_list.h ****         erase(__first++);
 897:d:/MTK/MTK2503/MTK2503/11CW1418SP4_03_CORETEK03AE_11C_V1_GPRS_MMI/Tools/MinGW/include/c++/3.3.1/bits/stl_list.h ****       return __last;
 898:d:/MTK/MTK2503/MTK2503/11CW1418SP4_03_CORETEK03AE_11C_V1_GPRS_MMI/Tools/MinGW/include/c++/3.3.1/bits/stl_list.h ****     }
 899:d:/MTK/MTK2503/MTK2503/11CW1418SP4_03_CORETEK03AE_11C_V1_GPRS_MMI/Tools/MinGW/include/c++/3.3.1/bits/stl_list.h ****   
 900:d:/MTK/MTK2503/MTK2503/11CW1418SP4_03_CORETEK03AE_11C_V1_GPRS_MMI/Tools/MinGW/include/c++/3.3.1/bits/stl_list.h ****     /**
 901:d:/MTK/MTK2503/MTK2503/11CW1418SP4_03_CORETEK03AE_11C_V1_GPRS_MMI/Tools/MinGW/include/c++/3.3.1/bits/stl_list.h ****      *  @brief  Swaps data with another %list.
 902:d:/MTK/MTK2503/MTK2503/11CW1418SP4_03_CORETEK03AE_11C_V1_GPRS_MMI/Tools/MinGW/include/c++/3.3.1/bits/stl_list.h ****      *  @param  x  A %list of the same element and allocator types.
 903:d:/MTK/MTK2503/MTK2503/11CW1418SP4_03_CORETEK03AE_11C_V1_GPRS_MMI/Tools/MinGW/include/c++/3.3.1/bits/stl_list.h ****      *
 904:d:/MTK/MTK2503/MTK2503/11CW1418SP4_03_CORETEK03AE_11C_V1_GPRS_MMI/Tools/MinGW/include/c++/3.3.1/bits/stl_list.h ****      *  This exchanges the elements between two lists in constant time.
 905:d:/MTK/MTK2503/MTK2503/11CW1418SP4_03_CORETEK03AE_11C_V1_GPRS_MMI/Tools/MinGW/include/c++/3.3.1/bits/stl_list.h ****      *  (It is only swapping a single pointer, so it should be quite fast.)
 906:d:/MTK/MTK2503/MTK2503/11CW1418SP4_03_CORETEK03AE_11C_V1_GPRS_MMI/Tools/MinGW/include/c++/3.3.1/bits/stl_list.h ****      *  Note that the global std::swap() function is specialized such that
 907:d:/MTK/MTK2503/MTK2503/11CW1418SP4_03_CORETEK03AE_11C_V1_GPRS_MMI/Tools/MinGW/include/c++/3.3.1/bits/stl_list.h ****      *  std::swap(l1,l2) will feed to this function.
 908:d:/MTK/MTK2503/MTK2503/11CW1418SP4_03_CORETEK03AE_11C_V1_GPRS_MMI/Tools/MinGW/include/c++/3.3.1/bits/stl_list.h ****     */
 909:d:/MTK/MTK2503/MTK2503/11CW1418SP4_03_CORETEK03AE_11C_V1_GPRS_MMI/Tools/MinGW/include/c++/3.3.1/bits/stl_list.h ****     void
 910:d:/MTK/MTK2503/MTK2503/11CW1418SP4_03_CORETEK03AE_11C_V1_GPRS_MMI/Tools/MinGW/include/c++/3.3.1/bits/stl_list.h ****     swap(list& __x) { std::swap(_M_node, __x._M_node); }
 911:d:/MTK/MTK2503/MTK2503/11CW1418SP4_03_CORETEK03AE_11C_V1_GPRS_MMI/Tools/MinGW/include/c++/3.3.1/bits/stl_list.h ****   
 912:d:/MTK/MTK2503/MTK2503/11CW1418SP4_03_CORETEK03AE_11C_V1_GPRS_MMI/Tools/MinGW/include/c++/3.3.1/bits/stl_list.h ****     /**
 913:d:/MTK/MTK2503/MTK2503/11CW1418SP4_03_CORETEK03AE_11C_V1_GPRS_MMI/Tools/MinGW/include/c++/3.3.1/bits/stl_list.h ****      *  Erases all the elements.  Note that this function only erases the
 914:d:/MTK/MTK2503/MTK2503/11CW1418SP4_03_CORETEK03AE_11C_V1_GPRS_MMI/Tools/MinGW/include/c++/3.3.1/bits/stl_list.h ****      *  elements, and that if the elements themselves are pointers, the
 915:d:/MTK/MTK2503/MTK2503/11CW1418SP4_03_CORETEK03AE_11C_V1_GPRS_MMI/Tools/MinGW/include/c++/3.3.1/bits/stl_list.h ****      *  pointed-to memory is not touched in any way.  Managing the pointer is
 916:d:/MTK/MTK2503/MTK2503/11CW1418SP4_03_CORETEK03AE_11C_V1_GPRS_MMI/Tools/MinGW/include/c++/3.3.1/bits/stl_list.h ****      *  the user's responsibilty.
 917:d:/MTK/MTK2503/MTK2503/11CW1418SP4_03_CORETEK03AE_11C_V1_GPRS_MMI/Tools/MinGW/include/c++/3.3.1/bits/stl_list.h ****     */
 918:d:/MTK/MTK2503/MTK2503/11CW1418SP4_03_CORETEK03AE_11C_V1_GPRS_MMI/Tools/MinGW/include/c++/3.3.1/bits/stl_list.h ****     void
 919:d:/MTK/MTK2503/MTK2503/11CW1418SP4_03_CORETEK03AE_11C_V1_GPRS_MMI/Tools/MinGW/include/c++/3.3.1/bits/stl_list.h ****     clear() { _Base::__clear(); }
 5425              	LM205:
 5426 0000 55       		pushl	%ebp
 5427 0001 89E5     		movl	%esp, %ebp
 5428 0003 83EC08   		subl	$8, %esp
 5430              	LM206:
 5431              	LBB49:
 5432 0006 8B4508   		movl	8(%ebp), %eax
 5433 0009 890424   		movl	%eax, (%esp)
 5434 000c E8000000 		call	__ZNSt10_List_baseIN10ThreadPool7JobDataESaIS1_EE7__clearEv
 5434      00
 5435 0011 C9       		leave
GAS LISTING d:/MTK/MTK2503/MTK2503/11CW1418SP4_03_CORETEK03AE_11C_V1_GPRS_MMI/plutommi/Customer/ResGenerator/gcctmp/ccQHcaaa.s 			page 102


 5436 0012 C3       		ret
 5437              	LBE49:
 5438              	Lscope28:
 5448 0013 90       		.section	.text$_ZNSt6vectorIN10ThreadPool10ThreadDataESaIS1_EE5clearEv,"x"
 5449              		.linkonce discard
 5450              		.align 2
 5453              	.globl __ZNSt6vectorIN10ThreadPool10ThreadDataESaIS1_EE5clearEv
 5455              	__ZNSt6vectorIN10ThreadPool10ThreadDataESaIS1_EE5clearEv:
 5457              	Ltext7:
 604:d:/MTK/MTK2503/MTK2503/11CW1418SP4_03_CORETEK03AE_11C_V1_GPRS_MMI/Tools/MinGW/include/c++/3.3.1/bits/stl_vector.h ****       }
 605:d:/MTK/MTK2503/MTK2503/11CW1418SP4_03_CORETEK03AE_11C_V1_GPRS_MMI/Tools/MinGW/include/c++/3.3.1/bits/stl_vector.h ****       
 606:d:/MTK/MTK2503/MTK2503/11CW1418SP4_03_CORETEK03AE_11C_V1_GPRS_MMI/Tools/MinGW/include/c++/3.3.1/bits/stl_vector.h ****       /**
 607:d:/MTK/MTK2503/MTK2503/11CW1418SP4_03_CORETEK03AE_11C_V1_GPRS_MMI/Tools/MinGW/include/c++/3.3.1/bits/stl_vector.h ****        *  @brief  Removes last element.
 608:d:/MTK/MTK2503/MTK2503/11CW1418SP4_03_CORETEK03AE_11C_V1_GPRS_MMI/Tools/MinGW/include/c++/3.3.1/bits/stl_vector.h ****        *
 609:d:/MTK/MTK2503/MTK2503/11CW1418SP4_03_CORETEK03AE_11C_V1_GPRS_MMI/Tools/MinGW/include/c++/3.3.1/bits/stl_vector.h ****        *  This is a typical stack operation. It shrinks the %vector by one.
 610:d:/MTK/MTK2503/MTK2503/11CW1418SP4_03_CORETEK03AE_11C_V1_GPRS_MMI/Tools/MinGW/include/c++/3.3.1/bits/stl_vector.h ****        *
 611:d:/MTK/MTK2503/MTK2503/11CW1418SP4_03_CORETEK03AE_11C_V1_GPRS_MMI/Tools/MinGW/include/c++/3.3.1/bits/stl_vector.h ****        *  Note that no data is returned, and if the last element's data is
 612:d:/MTK/MTK2503/MTK2503/11CW1418SP4_03_CORETEK03AE_11C_V1_GPRS_MMI/Tools/MinGW/include/c++/3.3.1/bits/stl_vector.h ****        *  needed, it should be retrieved before pop_back() is called.
 613:d:/MTK/MTK2503/MTK2503/11CW1418SP4_03_CORETEK03AE_11C_V1_GPRS_MMI/Tools/MinGW/include/c++/3.3.1/bits/stl_vector.h ****        */
 614:d:/MTK/MTK2503/MTK2503/11CW1418SP4_03_CORETEK03AE_11C_V1_GPRS_MMI/Tools/MinGW/include/c++/3.3.1/bits/stl_vector.h ****       void
 615:d:/MTK/MTK2503/MTK2503/11CW1418SP4_03_CORETEK03AE_11C_V1_GPRS_MMI/Tools/MinGW/include/c++/3.3.1/bits/stl_vector.h ****       pop_back()
 616:d:/MTK/MTK2503/MTK2503/11CW1418SP4_03_CORETEK03AE_11C_V1_GPRS_MMI/Tools/MinGW/include/c++/3.3.1/bits/stl_vector.h ****       {
 617:d:/MTK/MTK2503/MTK2503/11CW1418SP4_03_CORETEK03AE_11C_V1_GPRS_MMI/Tools/MinGW/include/c++/3.3.1/bits/stl_vector.h **** 	--_M_finish;
 618:d:/MTK/MTK2503/MTK2503/11CW1418SP4_03_CORETEK03AE_11C_V1_GPRS_MMI/Tools/MinGW/include/c++/3.3.1/bits/stl_vector.h **** 	_Destroy(_M_finish);
 619:d:/MTK/MTK2503/MTK2503/11CW1418SP4_03_CORETEK03AE_11C_V1_GPRS_MMI/Tools/MinGW/include/c++/3.3.1/bits/stl_vector.h ****       }
 620:d:/MTK/MTK2503/MTK2503/11CW1418SP4_03_CORETEK03AE_11C_V1_GPRS_MMI/Tools/MinGW/include/c++/3.3.1/bits/stl_vector.h ****       
 621:d:/MTK/MTK2503/MTK2503/11CW1418SP4_03_CORETEK03AE_11C_V1_GPRS_MMI/Tools/MinGW/include/c++/3.3.1/bits/stl_vector.h ****       /**
 622:d:/MTK/MTK2503/MTK2503/11CW1418SP4_03_CORETEK03AE_11C_V1_GPRS_MMI/Tools/MinGW/include/c++/3.3.1/bits/stl_vector.h ****        *  @brief  Inserts given value into %vector before specified iterator.
 623:d:/MTK/MTK2503/MTK2503/11CW1418SP4_03_CORETEK03AE_11C_V1_GPRS_MMI/Tools/MinGW/include/c++/3.3.1/bits/stl_vector.h ****        *  @param  position  An iterator into the %vector.
 624:d:/MTK/MTK2503/MTK2503/11CW1418SP4_03_CORETEK03AE_11C_V1_GPRS_MMI/Tools/MinGW/include/c++/3.3.1/bits/stl_vector.h ****        *  @param  x  Data to be inserted.
 625:d:/MTK/MTK2503/MTK2503/11CW1418SP4_03_CORETEK03AE_11C_V1_GPRS_MMI/Tools/MinGW/include/c++/3.3.1/bits/stl_vector.h ****        *  @return  An iterator that points to the inserted data.
 626:d:/MTK/MTK2503/MTK2503/11CW1418SP4_03_CORETEK03AE_11C_V1_GPRS_MMI/Tools/MinGW/include/c++/3.3.1/bits/stl_vector.h ****        *
 627:d:/MTK/MTK2503/MTK2503/11CW1418SP4_03_CORETEK03AE_11C_V1_GPRS_MMI/Tools/MinGW/include/c++/3.3.1/bits/stl_vector.h ****        *  This function will insert a copy of the given value before
 628:d:/MTK/MTK2503/MTK2503/11CW1418SP4_03_CORETEK03AE_11C_V1_GPRS_MMI/Tools/MinGW/include/c++/3.3.1/bits/stl_vector.h ****        *  the specified location.  Note that this kind of operation
 629:d:/MTK/MTK2503/MTK2503/11CW1418SP4_03_CORETEK03AE_11C_V1_GPRS_MMI/Tools/MinGW/include/c++/3.3.1/bits/stl_vector.h ****        *  could be expensive for a %vector and if it is frequently
 630:d:/MTK/MTK2503/MTK2503/11CW1418SP4_03_CORETEK03AE_11C_V1_GPRS_MMI/Tools/MinGW/include/c++/3.3.1/bits/stl_vector.h ****        *  used the user should consider using std::list.
 631:d:/MTK/MTK2503/MTK2503/11CW1418SP4_03_CORETEK03AE_11C_V1_GPRS_MMI/Tools/MinGW/include/c++/3.3.1/bits/stl_vector.h ****        */
 632:d:/MTK/MTK2503/MTK2503/11CW1418SP4_03_CORETEK03AE_11C_V1_GPRS_MMI/Tools/MinGW/include/c++/3.3.1/bits/stl_vector.h ****       iterator
 633:d:/MTK/MTK2503/MTK2503/11CW1418SP4_03_CORETEK03AE_11C_V1_GPRS_MMI/Tools/MinGW/include/c++/3.3.1/bits/stl_vector.h ****       insert(iterator __position, const value_type& __x);
 634:d:/MTK/MTK2503/MTK2503/11CW1418SP4_03_CORETEK03AE_11C_V1_GPRS_MMI/Tools/MinGW/include/c++/3.3.1/bits/stl_vector.h ****   
 635:d:/MTK/MTK2503/MTK2503/11CW1418SP4_03_CORETEK03AE_11C_V1_GPRS_MMI/Tools/MinGW/include/c++/3.3.1/bits/stl_vector.h **** #ifdef _GLIBCPP_DEPRECATED
 636:d:/MTK/MTK2503/MTK2503/11CW1418SP4_03_CORETEK03AE_11C_V1_GPRS_MMI/Tools/MinGW/include/c++/3.3.1/bits/stl_vector.h ****       /**
 637:d:/MTK/MTK2503/MTK2503/11CW1418SP4_03_CORETEK03AE_11C_V1_GPRS_MMI/Tools/MinGW/include/c++/3.3.1/bits/stl_vector.h ****        *  @brief  Inserts an element into the %vector.
 638:d:/MTK/MTK2503/MTK2503/11CW1418SP4_03_CORETEK03AE_11C_V1_GPRS_MMI/Tools/MinGW/include/c++/3.3.1/bits/stl_vector.h ****        *  @param  position  An iterator into the %vector.
 639:d:/MTK/MTK2503/MTK2503/11CW1418SP4_03_CORETEK03AE_11C_V1_GPRS_MMI/Tools/MinGW/include/c++/3.3.1/bits/stl_vector.h ****        *  @return  An iterator that points to the inserted element.
 640:d:/MTK/MTK2503/MTK2503/11CW1418SP4_03_CORETEK03AE_11C_V1_GPRS_MMI/Tools/MinGW/include/c++/3.3.1/bits/stl_vector.h ****        *
 641:d:/MTK/MTK2503/MTK2503/11CW1418SP4_03_CORETEK03AE_11C_V1_GPRS_MMI/Tools/MinGW/include/c++/3.3.1/bits/stl_vector.h ****        *  This function will insert a default-constructed element
 642:d:/MTK/MTK2503/MTK2503/11CW1418SP4_03_CORETEK03AE_11C_V1_GPRS_MMI/Tools/MinGW/include/c++/3.3.1/bits/stl_vector.h ****        *  before the specified location.  You should consider using
 643:d:/MTK/MTK2503/MTK2503/11CW1418SP4_03_CORETEK03AE_11C_V1_GPRS_MMI/Tools/MinGW/include/c++/3.3.1/bits/stl_vector.h ****        *  insert(position,value_type()) instead.  Note that this kind
 644:d:/MTK/MTK2503/MTK2503/11CW1418SP4_03_CORETEK03AE_11C_V1_GPRS_MMI/Tools/MinGW/include/c++/3.3.1/bits/stl_vector.h ****        *  of operation could be expensive for a vector and if it is
 645:d:/MTK/MTK2503/MTK2503/11CW1418SP4_03_CORETEK03AE_11C_V1_GPRS_MMI/Tools/MinGW/include/c++/3.3.1/bits/stl_vector.h ****        *  frequently used the user should consider using std::list.
 646:d:/MTK/MTK2503/MTK2503/11CW1418SP4_03_CORETEK03AE_11C_V1_GPRS_MMI/Tools/MinGW/include/c++/3.3.1/bits/stl_vector.h ****        *
 647:d:/MTK/MTK2503/MTK2503/11CW1418SP4_03_CORETEK03AE_11C_V1_GPRS_MMI/Tools/MinGW/include/c++/3.3.1/bits/stl_vector.h ****        *  @note This was deprecated in 3.2 and will be removed in 3.4.
 648:d:/MTK/MTK2503/MTK2503/11CW1418SP4_03_CORETEK03AE_11C_V1_GPRS_MMI/Tools/MinGW/include/c++/3.3.1/bits/stl_vector.h ****        *  You must define @c _GLIBCPP_DEPRECATED to make this visible
 649:d:/MTK/MTK2503/MTK2503/11CW1418SP4_03_CORETEK03AE_11C_V1_GPRS_MMI/Tools/MinGW/include/c++/3.3.1/bits/stl_vector.h ****        *  in 3.2; see c++config.h.
 650:d:/MTK/MTK2503/MTK2503/11CW1418SP4_03_CORETEK03AE_11C_V1_GPRS_MMI/Tools/MinGW/include/c++/3.3.1/bits/stl_vector.h ****        */
 651:d:/MTK/MTK2503/MTK2503/11CW1418SP4_03_CORETEK03AE_11C_V1_GPRS_MMI/Tools/MinGW/include/c++/3.3.1/bits/stl_vector.h ****       iterator
GAS LISTING d:/MTK/MTK2503/MTK2503/11CW1418SP4_03_CORETEK03AE_11C_V1_GPRS_MMI/plutommi/Customer/ResGenerator/gcctmp/ccQHcaaa.s 			page 103


 652:d:/MTK/MTK2503/MTK2503/11CW1418SP4_03_CORETEK03AE_11C_V1_GPRS_MMI/Tools/MinGW/include/c++/3.3.1/bits/stl_vector.h ****       insert(iterator __position)
 653:d:/MTK/MTK2503/MTK2503/11CW1418SP4_03_CORETEK03AE_11C_V1_GPRS_MMI/Tools/MinGW/include/c++/3.3.1/bits/stl_vector.h ****       { return insert(__position, value_type()); }
 654:d:/MTK/MTK2503/MTK2503/11CW1418SP4_03_CORETEK03AE_11C_V1_GPRS_MMI/Tools/MinGW/include/c++/3.3.1/bits/stl_vector.h **** #endif
 655:d:/MTK/MTK2503/MTK2503/11CW1418SP4_03_CORETEK03AE_11C_V1_GPRS_MMI/Tools/MinGW/include/c++/3.3.1/bits/stl_vector.h ****       
 656:d:/MTK/MTK2503/MTK2503/11CW1418SP4_03_CORETEK03AE_11C_V1_GPRS_MMI/Tools/MinGW/include/c++/3.3.1/bits/stl_vector.h ****       /**
 657:d:/MTK/MTK2503/MTK2503/11CW1418SP4_03_CORETEK03AE_11C_V1_GPRS_MMI/Tools/MinGW/include/c++/3.3.1/bits/stl_vector.h ****        *  @brief  Inserts a number of copies of given data into the %vector.
 658:d:/MTK/MTK2503/MTK2503/11CW1418SP4_03_CORETEK03AE_11C_V1_GPRS_MMI/Tools/MinGW/include/c++/3.3.1/bits/stl_vector.h ****        *  @param  position  An iterator into the %vector.
 659:d:/MTK/MTK2503/MTK2503/11CW1418SP4_03_CORETEK03AE_11C_V1_GPRS_MMI/Tools/MinGW/include/c++/3.3.1/bits/stl_vector.h ****        *  @param  n  Number of elements to be inserted.
 660:d:/MTK/MTK2503/MTK2503/11CW1418SP4_03_CORETEK03AE_11C_V1_GPRS_MMI/Tools/MinGW/include/c++/3.3.1/bits/stl_vector.h ****        *  @param  x  Data to be inserted.
 661:d:/MTK/MTK2503/MTK2503/11CW1418SP4_03_CORETEK03AE_11C_V1_GPRS_MMI/Tools/MinGW/include/c++/3.3.1/bits/stl_vector.h ****        *
 662:d:/MTK/MTK2503/MTK2503/11CW1418SP4_03_CORETEK03AE_11C_V1_GPRS_MMI/Tools/MinGW/include/c++/3.3.1/bits/stl_vector.h ****        *  This function will insert a specified number of copies of
 663:d:/MTK/MTK2503/MTK2503/11CW1418SP4_03_CORETEK03AE_11C_V1_GPRS_MMI/Tools/MinGW/include/c++/3.3.1/bits/stl_vector.h ****        *  the given data before the location specified by @a position.
 664:d:/MTK/MTK2503/MTK2503/11CW1418SP4_03_CORETEK03AE_11C_V1_GPRS_MMI/Tools/MinGW/include/c++/3.3.1/bits/stl_vector.h ****        *
 665:d:/MTK/MTK2503/MTK2503/11CW1418SP4_03_CORETEK03AE_11C_V1_GPRS_MMI/Tools/MinGW/include/c++/3.3.1/bits/stl_vector.h ****        *  Note that this kind of operation could be expensive for a
 666:d:/MTK/MTK2503/MTK2503/11CW1418SP4_03_CORETEK03AE_11C_V1_GPRS_MMI/Tools/MinGW/include/c++/3.3.1/bits/stl_vector.h ****        *  %vector and if it is frequently used the user should
 667:d:/MTK/MTK2503/MTK2503/11CW1418SP4_03_CORETEK03AE_11C_V1_GPRS_MMI/Tools/MinGW/include/c++/3.3.1/bits/stl_vector.h ****        *  consider using std::list.
 668:d:/MTK/MTK2503/MTK2503/11CW1418SP4_03_CORETEK03AE_11C_V1_GPRS_MMI/Tools/MinGW/include/c++/3.3.1/bits/stl_vector.h ****        */
 669:d:/MTK/MTK2503/MTK2503/11CW1418SP4_03_CORETEK03AE_11C_V1_GPRS_MMI/Tools/MinGW/include/c++/3.3.1/bits/stl_vector.h ****       void
 670:d:/MTK/MTK2503/MTK2503/11CW1418SP4_03_CORETEK03AE_11C_V1_GPRS_MMI/Tools/MinGW/include/c++/3.3.1/bits/stl_vector.h ****       insert(iterator __pos, size_type __n, const value_type& __x)
 671:d:/MTK/MTK2503/MTK2503/11CW1418SP4_03_CORETEK03AE_11C_V1_GPRS_MMI/Tools/MinGW/include/c++/3.3.1/bits/stl_vector.h ****       { _M_fill_insert(__pos, __n, __x); }
 672:d:/MTK/MTK2503/MTK2503/11CW1418SP4_03_CORETEK03AE_11C_V1_GPRS_MMI/Tools/MinGW/include/c++/3.3.1/bits/stl_vector.h ****       
 673:d:/MTK/MTK2503/MTK2503/11CW1418SP4_03_CORETEK03AE_11C_V1_GPRS_MMI/Tools/MinGW/include/c++/3.3.1/bits/stl_vector.h ****       /**
 674:d:/MTK/MTK2503/MTK2503/11CW1418SP4_03_CORETEK03AE_11C_V1_GPRS_MMI/Tools/MinGW/include/c++/3.3.1/bits/stl_vector.h ****        *  @brief  Inserts a range into the %vector.
 675:d:/MTK/MTK2503/MTK2503/11CW1418SP4_03_CORETEK03AE_11C_V1_GPRS_MMI/Tools/MinGW/include/c++/3.3.1/bits/stl_vector.h ****        *  @param  pos  An iterator into the %vector.
 676:d:/MTK/MTK2503/MTK2503/11CW1418SP4_03_CORETEK03AE_11C_V1_GPRS_MMI/Tools/MinGW/include/c++/3.3.1/bits/stl_vector.h ****        *  @param  first  An input iterator.
 677:d:/MTK/MTK2503/MTK2503/11CW1418SP4_03_CORETEK03AE_11C_V1_GPRS_MMI/Tools/MinGW/include/c++/3.3.1/bits/stl_vector.h ****        *  @param  last   An input iterator.
 678:d:/MTK/MTK2503/MTK2503/11CW1418SP4_03_CORETEK03AE_11C_V1_GPRS_MMI/Tools/MinGW/include/c++/3.3.1/bits/stl_vector.h ****        *
 679:d:/MTK/MTK2503/MTK2503/11CW1418SP4_03_CORETEK03AE_11C_V1_GPRS_MMI/Tools/MinGW/include/c++/3.3.1/bits/stl_vector.h ****        *  This function will insert copies of the data in the range
 680:d:/MTK/MTK2503/MTK2503/11CW1418SP4_03_CORETEK03AE_11C_V1_GPRS_MMI/Tools/MinGW/include/c++/3.3.1/bits/stl_vector.h ****        *  [first,last) into the %vector before the location specified
 681:d:/MTK/MTK2503/MTK2503/11CW1418SP4_03_CORETEK03AE_11C_V1_GPRS_MMI/Tools/MinGW/include/c++/3.3.1/bits/stl_vector.h ****        *  by @a pos.
 682:d:/MTK/MTK2503/MTK2503/11CW1418SP4_03_CORETEK03AE_11C_V1_GPRS_MMI/Tools/MinGW/include/c++/3.3.1/bits/stl_vector.h ****        *
 683:d:/MTK/MTK2503/MTK2503/11CW1418SP4_03_CORETEK03AE_11C_V1_GPRS_MMI/Tools/MinGW/include/c++/3.3.1/bits/stl_vector.h ****        *  Note that this kind of operation could be expensive for a
 684:d:/MTK/MTK2503/MTK2503/11CW1418SP4_03_CORETEK03AE_11C_V1_GPRS_MMI/Tools/MinGW/include/c++/3.3.1/bits/stl_vector.h ****        *  %vector and if it is frequently used the user should
 685:d:/MTK/MTK2503/MTK2503/11CW1418SP4_03_CORETEK03AE_11C_V1_GPRS_MMI/Tools/MinGW/include/c++/3.3.1/bits/stl_vector.h ****        *  consider using std::list.
 686:d:/MTK/MTK2503/MTK2503/11CW1418SP4_03_CORETEK03AE_11C_V1_GPRS_MMI/Tools/MinGW/include/c++/3.3.1/bits/stl_vector.h ****        */
 687:d:/MTK/MTK2503/MTK2503/11CW1418SP4_03_CORETEK03AE_11C_V1_GPRS_MMI/Tools/MinGW/include/c++/3.3.1/bits/stl_vector.h ****       template<typename _InputIterator>
 688:d:/MTK/MTK2503/MTK2503/11CW1418SP4_03_CORETEK03AE_11C_V1_GPRS_MMI/Tools/MinGW/include/c++/3.3.1/bits/stl_vector.h ****         void
 689:d:/MTK/MTK2503/MTK2503/11CW1418SP4_03_CORETEK03AE_11C_V1_GPRS_MMI/Tools/MinGW/include/c++/3.3.1/bits/stl_vector.h ****         insert(iterator __pos, _InputIterator __first, _InputIterator __last)
 690:d:/MTK/MTK2503/MTK2503/11CW1418SP4_03_CORETEK03AE_11C_V1_GPRS_MMI/Tools/MinGW/include/c++/3.3.1/bits/stl_vector.h ****         {
 691:d:/MTK/MTK2503/MTK2503/11CW1418SP4_03_CORETEK03AE_11C_V1_GPRS_MMI/Tools/MinGW/include/c++/3.3.1/bits/stl_vector.h **** 	  // Check whether it's an integral type.  If so, it's not an iterator.
 692:d:/MTK/MTK2503/MTK2503/11CW1418SP4_03_CORETEK03AE_11C_V1_GPRS_MMI/Tools/MinGW/include/c++/3.3.1/bits/stl_vector.h **** 	  typedef typename _Is_integer<_InputIterator>::_Integral _Integral;
 693:d:/MTK/MTK2503/MTK2503/11CW1418SP4_03_CORETEK03AE_11C_V1_GPRS_MMI/Tools/MinGW/include/c++/3.3.1/bits/stl_vector.h **** 	  _M_insert_dispatch(__pos, __first, __last, _Integral());
 694:d:/MTK/MTK2503/MTK2503/11CW1418SP4_03_CORETEK03AE_11C_V1_GPRS_MMI/Tools/MinGW/include/c++/3.3.1/bits/stl_vector.h **** 	}
 695:d:/MTK/MTK2503/MTK2503/11CW1418SP4_03_CORETEK03AE_11C_V1_GPRS_MMI/Tools/MinGW/include/c++/3.3.1/bits/stl_vector.h ****       
 696:d:/MTK/MTK2503/MTK2503/11CW1418SP4_03_CORETEK03AE_11C_V1_GPRS_MMI/Tools/MinGW/include/c++/3.3.1/bits/stl_vector.h ****       /**
 697:d:/MTK/MTK2503/MTK2503/11CW1418SP4_03_CORETEK03AE_11C_V1_GPRS_MMI/Tools/MinGW/include/c++/3.3.1/bits/stl_vector.h ****        *  @brief  Remove element at given position.
 698:d:/MTK/MTK2503/MTK2503/11CW1418SP4_03_CORETEK03AE_11C_V1_GPRS_MMI/Tools/MinGW/include/c++/3.3.1/bits/stl_vector.h ****        *  @param  position  Iterator pointing to element to be erased.
 699:d:/MTK/MTK2503/MTK2503/11CW1418SP4_03_CORETEK03AE_11C_V1_GPRS_MMI/Tools/MinGW/include/c++/3.3.1/bits/stl_vector.h ****        *  @return  An iterator pointing to the next element (or end()).
 700:d:/MTK/MTK2503/MTK2503/11CW1418SP4_03_CORETEK03AE_11C_V1_GPRS_MMI/Tools/MinGW/include/c++/3.3.1/bits/stl_vector.h ****        *
 701:d:/MTK/MTK2503/MTK2503/11CW1418SP4_03_CORETEK03AE_11C_V1_GPRS_MMI/Tools/MinGW/include/c++/3.3.1/bits/stl_vector.h ****        *  This function will erase the element at the given position and thus
 702:d:/MTK/MTK2503/MTK2503/11CW1418SP4_03_CORETEK03AE_11C_V1_GPRS_MMI/Tools/MinGW/include/c++/3.3.1/bits/stl_vector.h ****        *  shorten the %vector by one.
 703:d:/MTK/MTK2503/MTK2503/11CW1418SP4_03_CORETEK03AE_11C_V1_GPRS_MMI/Tools/MinGW/include/c++/3.3.1/bits/stl_vector.h ****        *
 704:d:/MTK/MTK2503/MTK2503/11CW1418SP4_03_CORETEK03AE_11C_V1_GPRS_MMI/Tools/MinGW/include/c++/3.3.1/bits/stl_vector.h ****        *  Note This operation could be expensive and if it is
 705:d:/MTK/MTK2503/MTK2503/11CW1418SP4_03_CORETEK03AE_11C_V1_GPRS_MMI/Tools/MinGW/include/c++/3.3.1/bits/stl_vector.h ****        *  frequently used the user should consider using std::list.
 706:d:/MTK/MTK2503/MTK2503/11CW1418SP4_03_CORETEK03AE_11C_V1_GPRS_MMI/Tools/MinGW/include/c++/3.3.1/bits/stl_vector.h ****        *  The user is also cautioned that this function only erases
 707:d:/MTK/MTK2503/MTK2503/11CW1418SP4_03_CORETEK03AE_11C_V1_GPRS_MMI/Tools/MinGW/include/c++/3.3.1/bits/stl_vector.h ****        *  the element, and that if the element is itself a pointer,
 708:d:/MTK/MTK2503/MTK2503/11CW1418SP4_03_CORETEK03AE_11C_V1_GPRS_MMI/Tools/MinGW/include/c++/3.3.1/bits/stl_vector.h ****        *  the pointed-to memory is not touched in any way.  Managing
GAS LISTING d:/MTK/MTK2503/MTK2503/11CW1418SP4_03_CORETEK03AE_11C_V1_GPRS_MMI/plutommi/Customer/ResGenerator/gcctmp/ccQHcaaa.s 			page 104


 709:d:/MTK/MTK2503/MTK2503/11CW1418SP4_03_CORETEK03AE_11C_V1_GPRS_MMI/Tools/MinGW/include/c++/3.3.1/bits/stl_vector.h ****        *  the pointer is the user's responsibilty.
 710:d:/MTK/MTK2503/MTK2503/11CW1418SP4_03_CORETEK03AE_11C_V1_GPRS_MMI/Tools/MinGW/include/c++/3.3.1/bits/stl_vector.h ****        */
 711:d:/MTK/MTK2503/MTK2503/11CW1418SP4_03_CORETEK03AE_11C_V1_GPRS_MMI/Tools/MinGW/include/c++/3.3.1/bits/stl_vector.h ****       iterator
 712:d:/MTK/MTK2503/MTK2503/11CW1418SP4_03_CORETEK03AE_11C_V1_GPRS_MMI/Tools/MinGW/include/c++/3.3.1/bits/stl_vector.h ****       erase(iterator __position);
 713:d:/MTK/MTK2503/MTK2503/11CW1418SP4_03_CORETEK03AE_11C_V1_GPRS_MMI/Tools/MinGW/include/c++/3.3.1/bits/stl_vector.h ****   
 714:d:/MTK/MTK2503/MTK2503/11CW1418SP4_03_CORETEK03AE_11C_V1_GPRS_MMI/Tools/MinGW/include/c++/3.3.1/bits/stl_vector.h ****       /**
 715:d:/MTK/MTK2503/MTK2503/11CW1418SP4_03_CORETEK03AE_11C_V1_GPRS_MMI/Tools/MinGW/include/c++/3.3.1/bits/stl_vector.h ****        *  @brief  Remove a range of elements.
 716:d:/MTK/MTK2503/MTK2503/11CW1418SP4_03_CORETEK03AE_11C_V1_GPRS_MMI/Tools/MinGW/include/c++/3.3.1/bits/stl_vector.h ****        *  @param  first  Iterator pointing to the first element to be erased.
 717:d:/MTK/MTK2503/MTK2503/11CW1418SP4_03_CORETEK03AE_11C_V1_GPRS_MMI/Tools/MinGW/include/c++/3.3.1/bits/stl_vector.h ****        *  @param  last  Iterator pointing to one past the last element to be
 718:d:/MTK/MTK2503/MTK2503/11CW1418SP4_03_CORETEK03AE_11C_V1_GPRS_MMI/Tools/MinGW/include/c++/3.3.1/bits/stl_vector.h ****        *                erased.
 719:d:/MTK/MTK2503/MTK2503/11CW1418SP4_03_CORETEK03AE_11C_V1_GPRS_MMI/Tools/MinGW/include/c++/3.3.1/bits/stl_vector.h ****        *  @return  An iterator pointing to the element pointed to by @a last
 720:d:/MTK/MTK2503/MTK2503/11CW1418SP4_03_CORETEK03AE_11C_V1_GPRS_MMI/Tools/MinGW/include/c++/3.3.1/bits/stl_vector.h ****        *           prior to erasing (or end()).
 721:d:/MTK/MTK2503/MTK2503/11CW1418SP4_03_CORETEK03AE_11C_V1_GPRS_MMI/Tools/MinGW/include/c++/3.3.1/bits/stl_vector.h ****        *
 722:d:/MTK/MTK2503/MTK2503/11CW1418SP4_03_CORETEK03AE_11C_V1_GPRS_MMI/Tools/MinGW/include/c++/3.3.1/bits/stl_vector.h ****        *  This function will erase the elements in the range [first,last) and
 723:d:/MTK/MTK2503/MTK2503/11CW1418SP4_03_CORETEK03AE_11C_V1_GPRS_MMI/Tools/MinGW/include/c++/3.3.1/bits/stl_vector.h ****        *  shorten the %vector accordingly.
 724:d:/MTK/MTK2503/MTK2503/11CW1418SP4_03_CORETEK03AE_11C_V1_GPRS_MMI/Tools/MinGW/include/c++/3.3.1/bits/stl_vector.h ****        *
 725:d:/MTK/MTK2503/MTK2503/11CW1418SP4_03_CORETEK03AE_11C_V1_GPRS_MMI/Tools/MinGW/include/c++/3.3.1/bits/stl_vector.h ****        *  Note This operation could be expensive and if it is
 726:d:/MTK/MTK2503/MTK2503/11CW1418SP4_03_CORETEK03AE_11C_V1_GPRS_MMI/Tools/MinGW/include/c++/3.3.1/bits/stl_vector.h ****        *  frequently used the user should consider using std::list.
 727:d:/MTK/MTK2503/MTK2503/11CW1418SP4_03_CORETEK03AE_11C_V1_GPRS_MMI/Tools/MinGW/include/c++/3.3.1/bits/stl_vector.h ****        *  The user is also cautioned that this function only erases
 728:d:/MTK/MTK2503/MTK2503/11CW1418SP4_03_CORETEK03AE_11C_V1_GPRS_MMI/Tools/MinGW/include/c++/3.3.1/bits/stl_vector.h ****        *  the elements, and that if the elements themselves are
 729:d:/MTK/MTK2503/MTK2503/11CW1418SP4_03_CORETEK03AE_11C_V1_GPRS_MMI/Tools/MinGW/include/c++/3.3.1/bits/stl_vector.h ****        *  pointers, the pointed-to memory is not touched in any way.
 730:d:/MTK/MTK2503/MTK2503/11CW1418SP4_03_CORETEK03AE_11C_V1_GPRS_MMI/Tools/MinGW/include/c++/3.3.1/bits/stl_vector.h ****        *  Managing the pointer is the user's responsibilty.
 731:d:/MTK/MTK2503/MTK2503/11CW1418SP4_03_CORETEK03AE_11C_V1_GPRS_MMI/Tools/MinGW/include/c++/3.3.1/bits/stl_vector.h ****        */
 732:d:/MTK/MTK2503/MTK2503/11CW1418SP4_03_CORETEK03AE_11C_V1_GPRS_MMI/Tools/MinGW/include/c++/3.3.1/bits/stl_vector.h ****       iterator
 733:d:/MTK/MTK2503/MTK2503/11CW1418SP4_03_CORETEK03AE_11C_V1_GPRS_MMI/Tools/MinGW/include/c++/3.3.1/bits/stl_vector.h ****       erase(iterator __first, iterator __last);
 734:d:/MTK/MTK2503/MTK2503/11CW1418SP4_03_CORETEK03AE_11C_V1_GPRS_MMI/Tools/MinGW/include/c++/3.3.1/bits/stl_vector.h ****       
 735:d:/MTK/MTK2503/MTK2503/11CW1418SP4_03_CORETEK03AE_11C_V1_GPRS_MMI/Tools/MinGW/include/c++/3.3.1/bits/stl_vector.h ****       /**
 736:d:/MTK/MTK2503/MTK2503/11CW1418SP4_03_CORETEK03AE_11C_V1_GPRS_MMI/Tools/MinGW/include/c++/3.3.1/bits/stl_vector.h ****        *  @brief  Swaps data with another %vector.
 737:d:/MTK/MTK2503/MTK2503/11CW1418SP4_03_CORETEK03AE_11C_V1_GPRS_MMI/Tools/MinGW/include/c++/3.3.1/bits/stl_vector.h ****        *  @param  x  A %vector of the same element and allocator types.
 738:d:/MTK/MTK2503/MTK2503/11CW1418SP4_03_CORETEK03AE_11C_V1_GPRS_MMI/Tools/MinGW/include/c++/3.3.1/bits/stl_vector.h ****        *
 739:d:/MTK/MTK2503/MTK2503/11CW1418SP4_03_CORETEK03AE_11C_V1_GPRS_MMI/Tools/MinGW/include/c++/3.3.1/bits/stl_vector.h ****        *  This exchanges the elements between two vectors in constant time.
 740:d:/MTK/MTK2503/MTK2503/11CW1418SP4_03_CORETEK03AE_11C_V1_GPRS_MMI/Tools/MinGW/include/c++/3.3.1/bits/stl_vector.h ****        *  (Three pointers, so it should be quite fast.)
 741:d:/MTK/MTK2503/MTK2503/11CW1418SP4_03_CORETEK03AE_11C_V1_GPRS_MMI/Tools/MinGW/include/c++/3.3.1/bits/stl_vector.h ****        *  Note that the global std::swap() function is specialized such that
 742:d:/MTK/MTK2503/MTK2503/11CW1418SP4_03_CORETEK03AE_11C_V1_GPRS_MMI/Tools/MinGW/include/c++/3.3.1/bits/stl_vector.h ****        *  std::swap(v1,v2) will feed to this function.
 743:d:/MTK/MTK2503/MTK2503/11CW1418SP4_03_CORETEK03AE_11C_V1_GPRS_MMI/Tools/MinGW/include/c++/3.3.1/bits/stl_vector.h ****        */
 744:d:/MTK/MTK2503/MTK2503/11CW1418SP4_03_CORETEK03AE_11C_V1_GPRS_MMI/Tools/MinGW/include/c++/3.3.1/bits/stl_vector.h ****       void
 745:d:/MTK/MTK2503/MTK2503/11CW1418SP4_03_CORETEK03AE_11C_V1_GPRS_MMI/Tools/MinGW/include/c++/3.3.1/bits/stl_vector.h ****       swap(vector& __x)
 746:d:/MTK/MTK2503/MTK2503/11CW1418SP4_03_CORETEK03AE_11C_V1_GPRS_MMI/Tools/MinGW/include/c++/3.3.1/bits/stl_vector.h ****       {
 747:d:/MTK/MTK2503/MTK2503/11CW1418SP4_03_CORETEK03AE_11C_V1_GPRS_MMI/Tools/MinGW/include/c++/3.3.1/bits/stl_vector.h **** 	std::swap(_M_start, __x._M_start);
 748:d:/MTK/MTK2503/MTK2503/11CW1418SP4_03_CORETEK03AE_11C_V1_GPRS_MMI/Tools/MinGW/include/c++/3.3.1/bits/stl_vector.h **** 	std::swap(_M_finish, __x._M_finish);
 749:d:/MTK/MTK2503/MTK2503/11CW1418SP4_03_CORETEK03AE_11C_V1_GPRS_MMI/Tools/MinGW/include/c++/3.3.1/bits/stl_vector.h **** 	std::swap(_M_end_of_storage, __x._M_end_of_storage);
 750:d:/MTK/MTK2503/MTK2503/11CW1418SP4_03_CORETEK03AE_11C_V1_GPRS_MMI/Tools/MinGW/include/c++/3.3.1/bits/stl_vector.h ****       }
 751:d:/MTK/MTK2503/MTK2503/11CW1418SP4_03_CORETEK03AE_11C_V1_GPRS_MMI/Tools/MinGW/include/c++/3.3.1/bits/stl_vector.h ****       
 752:d:/MTK/MTK2503/MTK2503/11CW1418SP4_03_CORETEK03AE_11C_V1_GPRS_MMI/Tools/MinGW/include/c++/3.3.1/bits/stl_vector.h ****       /**
 753:d:/MTK/MTK2503/MTK2503/11CW1418SP4_03_CORETEK03AE_11C_V1_GPRS_MMI/Tools/MinGW/include/c++/3.3.1/bits/stl_vector.h ****        *  Erases all the elements.  Note that this function only erases the
 754:d:/MTK/MTK2503/MTK2503/11CW1418SP4_03_CORETEK03AE_11C_V1_GPRS_MMI/Tools/MinGW/include/c++/3.3.1/bits/stl_vector.h ****        *  elements, and that if the elements themselves are pointers, the
 755:d:/MTK/MTK2503/MTK2503/11CW1418SP4_03_CORETEK03AE_11C_V1_GPRS_MMI/Tools/MinGW/include/c++/3.3.1/bits/stl_vector.h ****        *  pointed-to memory is not touched in any way.  Managing the pointer is
 756:d:/MTK/MTK2503/MTK2503/11CW1418SP4_03_CORETEK03AE_11C_V1_GPRS_MMI/Tools/MinGW/include/c++/3.3.1/bits/stl_vector.h ****        *  the user's responsibilty.
 757:d:/MTK/MTK2503/MTK2503/11CW1418SP4_03_CORETEK03AE_11C_V1_GPRS_MMI/Tools/MinGW/include/c++/3.3.1/bits/stl_vector.h ****        */
 758:d:/MTK/MTK2503/MTK2503/11CW1418SP4_03_CORETEK03AE_11C_V1_GPRS_MMI/Tools/MinGW/include/c++/3.3.1/bits/stl_vector.h ****       void
 759:d:/MTK/MTK2503/MTK2503/11CW1418SP4_03_CORETEK03AE_11C_V1_GPRS_MMI/Tools/MinGW/include/c++/3.3.1/bits/stl_vector.h ****       clear() { erase(begin(), end()); }
 5459              	LM207:
 5460 0000 55       		pushl	%ebp
 5461 0001 89E5     		movl	%esp, %ebp
 5462 0003 83EC18   		subl	$24, %esp
 5464              	LM208:
 5465              	LBB50:
GAS LISTING d:/MTK/MTK2503/MTK2503/11CW1418SP4_03_CORETEK03AE_11C_V1_GPRS_MMI/plutommi/Customer/ResGenerator/gcctmp/ccQHcaaa.s 			page 105


 5466 0006 8B4508   		movl	8(%ebp), %eax
 5467 0009 890424   		movl	%eax, (%esp)
 5468 000c E8000000 		call	__ZNSt6vectorIN10ThreadPool10ThreadDataESaIS1_EE3endEv
 5468      00
 5469 0011 8945FC   		movl	%eax, -4(%ebp)
 5470 0014 8B4508   		movl	8(%ebp), %eax
 5471 0017 890424   		movl	%eax, (%esp)
 5472 001a E8000000 		call	__ZNSt6vectorIN10ThreadPool10ThreadDataESaIS1_EE5beginEv
 5472      00
 5473 001f 8945F8   		movl	%eax, -8(%ebp)
 5474 0022 8B45FC   		movl	-4(%ebp), %eax
 5475 0025 89442408 		movl	%eax, 8(%esp)
 5476 0029 8B45F8   		movl	-8(%ebp), %eax
 5477 002c 89442404 		movl	%eax, 4(%esp)
 5478 0030 8B4508   		movl	8(%ebp), %eax
 5479 0033 890424   		movl	%eax, (%esp)
 5480 0036 E8000000 		call	__ZNSt6vectorIN10ThreadPool10ThreadDataESaIS1_EE5eraseEN9__gnu_cxx17__normal_iteratorIPS1_S3_
 5480      00
 5481 003b C9       		leave
 5482 003c C3       		ret
 5483              	LBE50:
 5484              	Lscope29:
 5486 003d 909090   		.section	.text$_ZNSt4listIN10ThreadPool7JobDataESaIS1_EE9push_backERKS1_,"x"
 5487              		.linkonce discard
 5488              		.align 2
 5492              	.globl __ZNSt4listIN10ThreadPool7JobDataESaIS1_EE9push_backERKS1_
 5494              	__ZNSt4listIN10ThreadPool7JobDataESaIS1_EE9push_backERKS1_:
 5496              	Ltext8:
 5498              	LM209:
 5499 0000 55       		pushl	%ebp
 5500 0001 89E5     		movl	%esp, %ebp
 5501 0003 53       		pushl	%ebx
 5502 0004 83EC34   		subl	$52, %esp
 5504              	LM210:
 5505              	LBB51:
 5506 0007 8D5DE8   		leal	-24(%ebp), %ebx
 5507 000a 8D55D8   		leal	-40(%ebp), %edx
 5508 000d 8B4508   		movl	8(%ebp), %eax
 5509 0010 89442404 		movl	%eax, 4(%esp)
 5510 0014 891424   		movl	%edx, (%esp)
 5511 0017 E8000000 		call	__ZNSt4listIN10ThreadPool7JobDataESaIS1_EE3endEv
 5511      00
 5512 001c 83EC04   		subl	$4, %esp
 5513 001f 8D55D8   		leal	-40(%ebp), %edx
 5514 0022 8B450C   		movl	12(%ebp), %eax
 5515 0025 8944240C 		movl	%eax, 12(%esp)
 5516 0029 89542408 		movl	%edx, 8(%esp)
 5517 002d 8B4508   		movl	8(%ebp), %eax
 5518 0030 89442404 		movl	%eax, 4(%esp)
 5519 0034 891C24   		movl	%ebx, (%esp)
 5520 0037 E8000000 		call	__ZNSt4listIN10ThreadPool7JobDataESaIS1_EE6insertESt14_List_iteratorIS1_RS1_PS1_ERKS1_
 5520      00
 5521 003c 83EC04   		subl	$4, %esp
 5522 003f 8B5DFC   		movl	-4(%ebp), %ebx
 5523 0042 C9       		leave
 5524 0043 C3       		ret
 5525              	LBE51:
GAS LISTING d:/MTK/MTK2503/MTK2503/11CW1418SP4_03_CORETEK03AE_11C_V1_GPRS_MMI/plutommi/Customer/ResGenerator/gcctmp/ccQHcaaa.s 			page 106


 5526              	Lscope30:
 5528              		.section	.text$_ZNSt4listIN10ThreadPool7JobDataESaIS1_EE10push_frontERKS1_,"x"
 5529              		.linkonce discard
 5530              		.align 2
 5534              	.globl __ZNSt4listIN10ThreadPool7JobDataESaIS1_EE10push_frontERKS1_
 5536              	__ZNSt4listIN10ThreadPool7JobDataESaIS1_EE10push_frontERKS1_:
 5538              	LM211:
 5539 0000 55       		pushl	%ebp
 5540 0001 89E5     		movl	%esp, %ebp
 5541 0003 53       		pushl	%ebx
 5542 0004 83EC34   		subl	$52, %esp
 5544              	LM212:
 5545              	LBB52:
 5546 0007 8D5DE8   		leal	-24(%ebp), %ebx
 5547 000a 8D55D8   		leal	-40(%ebp), %edx
 5548 000d 8B4508   		movl	8(%ebp), %eax
 5549 0010 89442404 		movl	%eax, 4(%esp)
 5550 0014 891424   		movl	%edx, (%esp)
 5551 0017 E8000000 		call	__ZNSt4listIN10ThreadPool7JobDataESaIS1_EE5beginEv
 5551      00
 5552 001c 83EC04   		subl	$4, %esp
 5553 001f 8D55D8   		leal	-40(%ebp), %edx
 5554 0022 8B450C   		movl	12(%ebp), %eax
 5555 0025 8944240C 		movl	%eax, 12(%esp)
 5556 0029 89542408 		movl	%edx, 8(%esp)
 5557 002d 8B4508   		movl	8(%ebp), %eax
 5558 0030 89442404 		movl	%eax, 4(%esp)
 5559 0034 891C24   		movl	%ebx, (%esp)
 5560 0037 E8000000 		call	__ZNSt4listIN10ThreadPool7JobDataESaIS1_EE6insertESt14_List_iteratorIS1_RS1_PS1_ERKS1_
 5560      00
 5561 003c 83EC04   		subl	$4, %esp
 5562 003f 8B5DFC   		movl	-4(%ebp), %ebx
 5563 0042 C9       		leave
 5564 0043 C3       		ret
 5565              	LBE52:
 5566              	Lscope31:
 5568              		.section	.text$_ZNSt4listIN10ThreadPool7JobDataESaIS1_EE9pop_frontEv,"x"
 5569              		.linkonce discard
 5570              		.align 2
 5573              	.globl __ZNSt4listIN10ThreadPool7JobDataESaIS1_EE9pop_frontEv
 5575              	__ZNSt4listIN10ThreadPool7JobDataESaIS1_EE9pop_frontEv:
 5577              	LM213:
 5578 0000 55       		pushl	%ebp
 5579 0001 89E5     		movl	%esp, %ebp
 5580 0003 53       		pushl	%ebx
 5581 0004 83EC34   		subl	$52, %esp
 5583              	LM214:
 5584              	LBB53:
 5585 0007 8D5DE8   		leal	-24(%ebp), %ebx
 5586 000a 8D55D8   		leal	-40(%ebp), %edx
 5587 000d 8B4508   		movl	8(%ebp), %eax
 5588 0010 89442404 		movl	%eax, 4(%esp)
 5589 0014 891424   		movl	%edx, (%esp)
 5590 0017 E8000000 		call	__ZNSt4listIN10ThreadPool7JobDataESaIS1_EE5beginEv
 5590      00
 5591 001c 83EC04   		subl	$4, %esp
 5592 001f 8D45D8   		leal	-40(%ebp), %eax
GAS LISTING d:/MTK/MTK2503/MTK2503/11CW1418SP4_03_CORETEK03AE_11C_V1_GPRS_MMI/plutommi/Customer/ResGenerator/gcctmp/ccQHcaaa.s 			page 107


 5593 0022 89442408 		movl	%eax, 8(%esp)
 5594 0026 8B4508   		movl	8(%ebp), %eax
 5595 0029 89442404 		movl	%eax, 4(%esp)
 5596 002d 891C24   		movl	%ebx, (%esp)
 5597 0030 E8000000 		call	__ZNSt4listIN10ThreadPool7JobDataESaIS1_EE5eraseESt14_List_iteratorIS1_RS1_PS1_E
 5597      00
 5598 0035 83EC04   		subl	$4, %esp
 5599 0038 8B5DFC   		movl	-4(%ebp), %ebx
 5600 003b C9       		leave
 5601 003c C3       		ret
 5602              	LBE53:
 5603              	Lscope32:
 5607 003d 909090   		.section	.text$_ZSt8_DestroyIPN10ThreadPool10ThreadDataEEvT_S3_,"x"
 5608              		.linkonce discard
 5609              		.align 2
 5613              	.globl __ZSt8_DestroyIPN10ThreadPool10ThreadDataEEvT_S3_
 5615              	__ZSt8_DestroyIPN10ThreadPool10ThreadDataEEvT_S3_:
 5617              	Ltext9:
   1:d:/MTK/MTK2503/MTK2503/11CW1418SP4_03_CORETEK03AE_11C_V1_GPRS_MMI/Tools/MinGW/include/c++/3.3.1/bits/stl_construct.h **** // nonstandard construct and destroy functions -*- C++ -*-
   2:d:/MTK/MTK2503/MTK2503/11CW1418SP4_03_CORETEK03AE_11C_V1_GPRS_MMI/Tools/MinGW/include/c++/3.3.1/bits/stl_construct.h **** 
   3:d:/MTK/MTK2503/MTK2503/11CW1418SP4_03_CORETEK03AE_11C_V1_GPRS_MMI/Tools/MinGW/include/c++/3.3.1/bits/stl_construct.h **** // Copyright (C) 2001, 2002 Free Software Foundation, Inc.
   4:d:/MTK/MTK2503/MTK2503/11CW1418SP4_03_CORETEK03AE_11C_V1_GPRS_MMI/Tools/MinGW/include/c++/3.3.1/bits/stl_construct.h **** //
   5:d:/MTK/MTK2503/MTK2503/11CW1418SP4_03_CORETEK03AE_11C_V1_GPRS_MMI/Tools/MinGW/include/c++/3.3.1/bits/stl_construct.h **** // This file is part of the GNU ISO C++ Library.  This library is free
   6:d:/MTK/MTK2503/MTK2503/11CW1418SP4_03_CORETEK03AE_11C_V1_GPRS_MMI/Tools/MinGW/include/c++/3.3.1/bits/stl_construct.h **** // software; you can redistribute it and/or modify it under the
   7:d:/MTK/MTK2503/MTK2503/11CW1418SP4_03_CORETEK03AE_11C_V1_GPRS_MMI/Tools/MinGW/include/c++/3.3.1/bits/stl_construct.h **** // terms of the GNU General Public License as published by the
   8:d:/MTK/MTK2503/MTK2503/11CW1418SP4_03_CORETEK03AE_11C_V1_GPRS_MMI/Tools/MinGW/include/c++/3.3.1/bits/stl_construct.h **** // Free Software Foundation; either version 2, or (at your option)
   9:d:/MTK/MTK2503/MTK2503/11CW1418SP4_03_CORETEK03AE_11C_V1_GPRS_MMI/Tools/MinGW/include/c++/3.3.1/bits/stl_construct.h **** // any later version.
  10:d:/MTK/MTK2503/MTK2503/11CW1418SP4_03_CORETEK03AE_11C_V1_GPRS_MMI/Tools/MinGW/include/c++/3.3.1/bits/stl_construct.h **** 
  11:d:/MTK/MTK2503/MTK2503/11CW1418SP4_03_CORETEK03AE_11C_V1_GPRS_MMI/Tools/MinGW/include/c++/3.3.1/bits/stl_construct.h **** // This library is distributed in the hope that it will be useful,
  12:d:/MTK/MTK2503/MTK2503/11CW1418SP4_03_CORETEK03AE_11C_V1_GPRS_MMI/Tools/MinGW/include/c++/3.3.1/bits/stl_construct.h **** // but WITHOUT ANY WARRANTY; without even the implied warranty of
  13:d:/MTK/MTK2503/MTK2503/11CW1418SP4_03_CORETEK03AE_11C_V1_GPRS_MMI/Tools/MinGW/include/c++/3.3.1/bits/stl_construct.h **** // MERCHANTABILITY or FITNESS FOR A PARTICULAR PURPOSE.  See the
  14:d:/MTK/MTK2503/MTK2503/11CW1418SP4_03_CORETEK03AE_11C_V1_GPRS_MMI/Tools/MinGW/include/c++/3.3.1/bits/stl_construct.h **** // GNU General Public License for more details.
  15:d:/MTK/MTK2503/MTK2503/11CW1418SP4_03_CORETEK03AE_11C_V1_GPRS_MMI/Tools/MinGW/include/c++/3.3.1/bits/stl_construct.h **** 
  16:d:/MTK/MTK2503/MTK2503/11CW1418SP4_03_CORETEK03AE_11C_V1_GPRS_MMI/Tools/MinGW/include/c++/3.3.1/bits/stl_construct.h **** // You should have received a copy of the GNU General Public License along
  17:d:/MTK/MTK2503/MTK2503/11CW1418SP4_03_CORETEK03AE_11C_V1_GPRS_MMI/Tools/MinGW/include/c++/3.3.1/bits/stl_construct.h **** // with this library; see the file COPYING.  If not, write to the Free
  18:d:/MTK/MTK2503/MTK2503/11CW1418SP4_03_CORETEK03AE_11C_V1_GPRS_MMI/Tools/MinGW/include/c++/3.3.1/bits/stl_construct.h **** // Software Foundation, 59 Temple Place - Suite 330, Boston, MA 02111-1307,
  19:d:/MTK/MTK2503/MTK2503/11CW1418SP4_03_CORETEK03AE_11C_V1_GPRS_MMI/Tools/MinGW/include/c++/3.3.1/bits/stl_construct.h **** // USA.
  20:d:/MTK/MTK2503/MTK2503/11CW1418SP4_03_CORETEK03AE_11C_V1_GPRS_MMI/Tools/MinGW/include/c++/3.3.1/bits/stl_construct.h **** 
  21:d:/MTK/MTK2503/MTK2503/11CW1418SP4_03_CORETEK03AE_11C_V1_GPRS_MMI/Tools/MinGW/include/c++/3.3.1/bits/stl_construct.h **** // As a special exception, you may use this file as part of a free software
  22:d:/MTK/MTK2503/MTK2503/11CW1418SP4_03_CORETEK03AE_11C_V1_GPRS_MMI/Tools/MinGW/include/c++/3.3.1/bits/stl_construct.h **** // library without restriction.  Specifically, if other files instantiate
  23:d:/MTK/MTK2503/MTK2503/11CW1418SP4_03_CORETEK03AE_11C_V1_GPRS_MMI/Tools/MinGW/include/c++/3.3.1/bits/stl_construct.h **** // templates or use macros or inline functions from this file, or you compile
  24:d:/MTK/MTK2503/MTK2503/11CW1418SP4_03_CORETEK03AE_11C_V1_GPRS_MMI/Tools/MinGW/include/c++/3.3.1/bits/stl_construct.h **** // this file and link it with other files to produce an executable, this
  25:d:/MTK/MTK2503/MTK2503/11CW1418SP4_03_CORETEK03AE_11C_V1_GPRS_MMI/Tools/MinGW/include/c++/3.3.1/bits/stl_construct.h **** // file does not by itself cause the resulting executable to be covered by
  26:d:/MTK/MTK2503/MTK2503/11CW1418SP4_03_CORETEK03AE_11C_V1_GPRS_MMI/Tools/MinGW/include/c++/3.3.1/bits/stl_construct.h **** // the GNU General Public License.  This exception does not however
  27:d:/MTK/MTK2503/MTK2503/11CW1418SP4_03_CORETEK03AE_11C_V1_GPRS_MMI/Tools/MinGW/include/c++/3.3.1/bits/stl_construct.h **** // invalidate any other reasons why the executable file might be covered by
  28:d:/MTK/MTK2503/MTK2503/11CW1418SP4_03_CORETEK03AE_11C_V1_GPRS_MMI/Tools/MinGW/include/c++/3.3.1/bits/stl_construct.h **** // the GNU General Public License.
  29:d:/MTK/MTK2503/MTK2503/11CW1418SP4_03_CORETEK03AE_11C_V1_GPRS_MMI/Tools/MinGW/include/c++/3.3.1/bits/stl_construct.h **** 
  30:d:/MTK/MTK2503/MTK2503/11CW1418SP4_03_CORETEK03AE_11C_V1_GPRS_MMI/Tools/MinGW/include/c++/3.3.1/bits/stl_construct.h **** /*
  31:d:/MTK/MTK2503/MTK2503/11CW1418SP4_03_CORETEK03AE_11C_V1_GPRS_MMI/Tools/MinGW/include/c++/3.3.1/bits/stl_construct.h ****  *
  32:d:/MTK/MTK2503/MTK2503/11CW1418SP4_03_CORETEK03AE_11C_V1_GPRS_MMI/Tools/MinGW/include/c++/3.3.1/bits/stl_construct.h ****  * Copyright (c) 1994
  33:d:/MTK/MTK2503/MTK2503/11CW1418SP4_03_CORETEK03AE_11C_V1_GPRS_MMI/Tools/MinGW/include/c++/3.3.1/bits/stl_construct.h ****  * Hewlett-Packard Company
  34:d:/MTK/MTK2503/MTK2503/11CW1418SP4_03_CORETEK03AE_11C_V1_GPRS_MMI/Tools/MinGW/include/c++/3.3.1/bits/stl_construct.h ****  *
  35:d:/MTK/MTK2503/MTK2503/11CW1418SP4_03_CORETEK03AE_11C_V1_GPRS_MMI/Tools/MinGW/include/c++/3.3.1/bits/stl_construct.h ****  * Permission to use, copy, modify, distribute and sell this software
  36:d:/MTK/MTK2503/MTK2503/11CW1418SP4_03_CORETEK03AE_11C_V1_GPRS_MMI/Tools/MinGW/include/c++/3.3.1/bits/stl_construct.h ****  * and its documentation for any purpose is hereby granted without fee,
  37:d:/MTK/MTK2503/MTK2503/11CW1418SP4_03_CORETEK03AE_11C_V1_GPRS_MMI/Tools/MinGW/include/c++/3.3.1/bits/stl_construct.h ****  * provided that the above copyright notice appear in all copies and
  38:d:/MTK/MTK2503/MTK2503/11CW1418SP4_03_CORETEK03AE_11C_V1_GPRS_MMI/Tools/MinGW/include/c++/3.3.1/bits/stl_construct.h ****  * that both that copyright notice and this permission notice appear
  39:d:/MTK/MTK2503/MTK2503/11CW1418SP4_03_CORETEK03AE_11C_V1_GPRS_MMI/Tools/MinGW/include/c++/3.3.1/bits/stl_construct.h ****  * in supporting documentation.  Hewlett-Packard Company makes no
GAS LISTING d:/MTK/MTK2503/MTK2503/11CW1418SP4_03_CORETEK03AE_11C_V1_GPRS_MMI/plutommi/Customer/ResGenerator/gcctmp/ccQHcaaa.s 			page 108


  40:d:/MTK/MTK2503/MTK2503/11CW1418SP4_03_CORETEK03AE_11C_V1_GPRS_MMI/Tools/MinGW/include/c++/3.3.1/bits/stl_construct.h ****  * representations about the suitability of this software for any
  41:d:/MTK/MTK2503/MTK2503/11CW1418SP4_03_CORETEK03AE_11C_V1_GPRS_MMI/Tools/MinGW/include/c++/3.3.1/bits/stl_construct.h ****  * purpose.  It is provided "as is" without express or implied warranty.
  42:d:/MTK/MTK2503/MTK2503/11CW1418SP4_03_CORETEK03AE_11C_V1_GPRS_MMI/Tools/MinGW/include/c++/3.3.1/bits/stl_construct.h ****  *
  43:d:/MTK/MTK2503/MTK2503/11CW1418SP4_03_CORETEK03AE_11C_V1_GPRS_MMI/Tools/MinGW/include/c++/3.3.1/bits/stl_construct.h ****  *
  44:d:/MTK/MTK2503/MTK2503/11CW1418SP4_03_CORETEK03AE_11C_V1_GPRS_MMI/Tools/MinGW/include/c++/3.3.1/bits/stl_construct.h ****  * Copyright (c) 1996,1997
  45:d:/MTK/MTK2503/MTK2503/11CW1418SP4_03_CORETEK03AE_11C_V1_GPRS_MMI/Tools/MinGW/include/c++/3.3.1/bits/stl_construct.h ****  * Silicon Graphics Computer Systems, Inc.
  46:d:/MTK/MTK2503/MTK2503/11CW1418SP4_03_CORETEK03AE_11C_V1_GPRS_MMI/Tools/MinGW/include/c++/3.3.1/bits/stl_construct.h ****  *
  47:d:/MTK/MTK2503/MTK2503/11CW1418SP4_03_CORETEK03AE_11C_V1_GPRS_MMI/Tools/MinGW/include/c++/3.3.1/bits/stl_construct.h ****  * Permission to use, copy, modify, distribute and sell this software
  48:d:/MTK/MTK2503/MTK2503/11CW1418SP4_03_CORETEK03AE_11C_V1_GPRS_MMI/Tools/MinGW/include/c++/3.3.1/bits/stl_construct.h ****  * and its documentation for any purpose is hereby granted without fee,
  49:d:/MTK/MTK2503/MTK2503/11CW1418SP4_03_CORETEK03AE_11C_V1_GPRS_MMI/Tools/MinGW/include/c++/3.3.1/bits/stl_construct.h ****  * provided that the above copyright notice appear in all copies and
  50:d:/MTK/MTK2503/MTK2503/11CW1418SP4_03_CORETEK03AE_11C_V1_GPRS_MMI/Tools/MinGW/include/c++/3.3.1/bits/stl_construct.h ****  * that both that copyright notice and this permission notice appear
  51:d:/MTK/MTK2503/MTK2503/11CW1418SP4_03_CORETEK03AE_11C_V1_GPRS_MMI/Tools/MinGW/include/c++/3.3.1/bits/stl_construct.h ****  * in supporting documentation.  Silicon Graphics makes no
  52:d:/MTK/MTK2503/MTK2503/11CW1418SP4_03_CORETEK03AE_11C_V1_GPRS_MMI/Tools/MinGW/include/c++/3.3.1/bits/stl_construct.h ****  * representations about the suitability of this software for any
  53:d:/MTK/MTK2503/MTK2503/11CW1418SP4_03_CORETEK03AE_11C_V1_GPRS_MMI/Tools/MinGW/include/c++/3.3.1/bits/stl_construct.h ****  * purpose.  It is provided "as is" without express or implied warranty.
  54:d:/MTK/MTK2503/MTK2503/11CW1418SP4_03_CORETEK03AE_11C_V1_GPRS_MMI/Tools/MinGW/include/c++/3.3.1/bits/stl_construct.h ****  */
  55:d:/MTK/MTK2503/MTK2503/11CW1418SP4_03_CORETEK03AE_11C_V1_GPRS_MMI/Tools/MinGW/include/c++/3.3.1/bits/stl_construct.h **** 
  56:d:/MTK/MTK2503/MTK2503/11CW1418SP4_03_CORETEK03AE_11C_V1_GPRS_MMI/Tools/MinGW/include/c++/3.3.1/bits/stl_construct.h **** /** @file stl_construct.h
  57:d:/MTK/MTK2503/MTK2503/11CW1418SP4_03_CORETEK03AE_11C_V1_GPRS_MMI/Tools/MinGW/include/c++/3.3.1/bits/stl_construct.h ****  *  This is an internal header file, included by other library headers.
  58:d:/MTK/MTK2503/MTK2503/11CW1418SP4_03_CORETEK03AE_11C_V1_GPRS_MMI/Tools/MinGW/include/c++/3.3.1/bits/stl_construct.h ****  *  You should not attempt to use it directly.
  59:d:/MTK/MTK2503/MTK2503/11CW1418SP4_03_CORETEK03AE_11C_V1_GPRS_MMI/Tools/MinGW/include/c++/3.3.1/bits/stl_construct.h ****  */
  60:d:/MTK/MTK2503/MTK2503/11CW1418SP4_03_CORETEK03AE_11C_V1_GPRS_MMI/Tools/MinGW/include/c++/3.3.1/bits/stl_construct.h **** 
  61:d:/MTK/MTK2503/MTK2503/11CW1418SP4_03_CORETEK03AE_11C_V1_GPRS_MMI/Tools/MinGW/include/c++/3.3.1/bits/stl_construct.h **** #ifndef _CPP_BITS_STL_CONSTRUCT_H
  62:d:/MTK/MTK2503/MTK2503/11CW1418SP4_03_CORETEK03AE_11C_V1_GPRS_MMI/Tools/MinGW/include/c++/3.3.1/bits/stl_construct.h **** #define _CPP_BITS_STL_CONSTRUCT_H 1
  63:d:/MTK/MTK2503/MTK2503/11CW1418SP4_03_CORETEK03AE_11C_V1_GPRS_MMI/Tools/MinGW/include/c++/3.3.1/bits/stl_construct.h **** 
  64:d:/MTK/MTK2503/MTK2503/11CW1418SP4_03_CORETEK03AE_11C_V1_GPRS_MMI/Tools/MinGW/include/c++/3.3.1/bits/stl_construct.h **** #include <bits/type_traits.h>
  65:d:/MTK/MTK2503/MTK2503/11CW1418SP4_03_CORETEK03AE_11C_V1_GPRS_MMI/Tools/MinGW/include/c++/3.3.1/bits/stl_construct.h **** #include <new>
  66:d:/MTK/MTK2503/MTK2503/11CW1418SP4_03_CORETEK03AE_11C_V1_GPRS_MMI/Tools/MinGW/include/c++/3.3.1/bits/stl_construct.h **** 
  67:d:/MTK/MTK2503/MTK2503/11CW1418SP4_03_CORETEK03AE_11C_V1_GPRS_MMI/Tools/MinGW/include/c++/3.3.1/bits/stl_construct.h **** namespace std
  68:d:/MTK/MTK2503/MTK2503/11CW1418SP4_03_CORETEK03AE_11C_V1_GPRS_MMI/Tools/MinGW/include/c++/3.3.1/bits/stl_construct.h **** {
  69:d:/MTK/MTK2503/MTK2503/11CW1418SP4_03_CORETEK03AE_11C_V1_GPRS_MMI/Tools/MinGW/include/c++/3.3.1/bits/stl_construct.h ****   /**
  70:d:/MTK/MTK2503/MTK2503/11CW1418SP4_03_CORETEK03AE_11C_V1_GPRS_MMI/Tools/MinGW/include/c++/3.3.1/bits/stl_construct.h ****    * @if maint
  71:d:/MTK/MTK2503/MTK2503/11CW1418SP4_03_CORETEK03AE_11C_V1_GPRS_MMI/Tools/MinGW/include/c++/3.3.1/bits/stl_construct.h ****    * Constructs an object in existing memory by invoking an allocated
  72:d:/MTK/MTK2503/MTK2503/11CW1418SP4_03_CORETEK03AE_11C_V1_GPRS_MMI/Tools/MinGW/include/c++/3.3.1/bits/stl_construct.h ****    * object's constructor with an initializer.
  73:d:/MTK/MTK2503/MTK2503/11CW1418SP4_03_CORETEK03AE_11C_V1_GPRS_MMI/Tools/MinGW/include/c++/3.3.1/bits/stl_construct.h ****    * @endif
  74:d:/MTK/MTK2503/MTK2503/11CW1418SP4_03_CORETEK03AE_11C_V1_GPRS_MMI/Tools/MinGW/include/c++/3.3.1/bits/stl_construct.h ****    */
  75:d:/MTK/MTK2503/MTK2503/11CW1418SP4_03_CORETEK03AE_11C_V1_GPRS_MMI/Tools/MinGW/include/c++/3.3.1/bits/stl_construct.h ****   template <class _T1, class _T2>
  76:d:/MTK/MTK2503/MTK2503/11CW1418SP4_03_CORETEK03AE_11C_V1_GPRS_MMI/Tools/MinGW/include/c++/3.3.1/bits/stl_construct.h ****     inline void
  77:d:/MTK/MTK2503/MTK2503/11CW1418SP4_03_CORETEK03AE_11C_V1_GPRS_MMI/Tools/MinGW/include/c++/3.3.1/bits/stl_construct.h ****     _Construct(_T1* __p, const _T2& __value)
  78:d:/MTK/MTK2503/MTK2503/11CW1418SP4_03_CORETEK03AE_11C_V1_GPRS_MMI/Tools/MinGW/include/c++/3.3.1/bits/stl_construct.h ****     { new (static_cast<void*>(__p)) _T1(__value); }
  79:d:/MTK/MTK2503/MTK2503/11CW1418SP4_03_CORETEK03AE_11C_V1_GPRS_MMI/Tools/MinGW/include/c++/3.3.1/bits/stl_construct.h ****   
  80:d:/MTK/MTK2503/MTK2503/11CW1418SP4_03_CORETEK03AE_11C_V1_GPRS_MMI/Tools/MinGW/include/c++/3.3.1/bits/stl_construct.h ****   /**
  81:d:/MTK/MTK2503/MTK2503/11CW1418SP4_03_CORETEK03AE_11C_V1_GPRS_MMI/Tools/MinGW/include/c++/3.3.1/bits/stl_construct.h ****    * @if maint
  82:d:/MTK/MTK2503/MTK2503/11CW1418SP4_03_CORETEK03AE_11C_V1_GPRS_MMI/Tools/MinGW/include/c++/3.3.1/bits/stl_construct.h ****    * Constructs an object in existing memory by invoking an allocated
  83:d:/MTK/MTK2503/MTK2503/11CW1418SP4_03_CORETEK03AE_11C_V1_GPRS_MMI/Tools/MinGW/include/c++/3.3.1/bits/stl_construct.h ****    * object's default constructor (no initializers).
  84:d:/MTK/MTK2503/MTK2503/11CW1418SP4_03_CORETEK03AE_11C_V1_GPRS_MMI/Tools/MinGW/include/c++/3.3.1/bits/stl_construct.h ****    * @endif
  85:d:/MTK/MTK2503/MTK2503/11CW1418SP4_03_CORETEK03AE_11C_V1_GPRS_MMI/Tools/MinGW/include/c++/3.3.1/bits/stl_construct.h ****    */
  86:d:/MTK/MTK2503/MTK2503/11CW1418SP4_03_CORETEK03AE_11C_V1_GPRS_MMI/Tools/MinGW/include/c++/3.3.1/bits/stl_construct.h ****   template <class _T1>
  87:d:/MTK/MTK2503/MTK2503/11CW1418SP4_03_CORETEK03AE_11C_V1_GPRS_MMI/Tools/MinGW/include/c++/3.3.1/bits/stl_construct.h ****     inline void
  88:d:/MTK/MTK2503/MTK2503/11CW1418SP4_03_CORETEK03AE_11C_V1_GPRS_MMI/Tools/MinGW/include/c++/3.3.1/bits/stl_construct.h ****     _Construct(_T1* __p)
  89:d:/MTK/MTK2503/MTK2503/11CW1418SP4_03_CORETEK03AE_11C_V1_GPRS_MMI/Tools/MinGW/include/c++/3.3.1/bits/stl_construct.h ****     { new (static_cast<void*>(__p)) _T1(); }
  90:d:/MTK/MTK2503/MTK2503/11CW1418SP4_03_CORETEK03AE_11C_V1_GPRS_MMI/Tools/MinGW/include/c++/3.3.1/bits/stl_construct.h **** 
  91:d:/MTK/MTK2503/MTK2503/11CW1418SP4_03_CORETEK03AE_11C_V1_GPRS_MMI/Tools/MinGW/include/c++/3.3.1/bits/stl_construct.h ****   /**
  92:d:/MTK/MTK2503/MTK2503/11CW1418SP4_03_CORETEK03AE_11C_V1_GPRS_MMI/Tools/MinGW/include/c++/3.3.1/bits/stl_construct.h ****    * @if maint
  93:d:/MTK/MTK2503/MTK2503/11CW1418SP4_03_CORETEK03AE_11C_V1_GPRS_MMI/Tools/MinGW/include/c++/3.3.1/bits/stl_construct.h ****    * Destroy a range of objects with nontrivial destructors.  
  94:d:/MTK/MTK2503/MTK2503/11CW1418SP4_03_CORETEK03AE_11C_V1_GPRS_MMI/Tools/MinGW/include/c++/3.3.1/bits/stl_construct.h ****    *
  95:d:/MTK/MTK2503/MTK2503/11CW1418SP4_03_CORETEK03AE_11C_V1_GPRS_MMI/Tools/MinGW/include/c++/3.3.1/bits/stl_construct.h ****    * This is a helper function used only by _Destroy().
  96:d:/MTK/MTK2503/MTK2503/11CW1418SP4_03_CORETEK03AE_11C_V1_GPRS_MMI/Tools/MinGW/include/c++/3.3.1/bits/stl_construct.h ****    * @endif
GAS LISTING d:/MTK/MTK2503/MTK2503/11CW1418SP4_03_CORETEK03AE_11C_V1_GPRS_MMI/plutommi/Customer/ResGenerator/gcctmp/ccQHcaaa.s 			page 109


  97:d:/MTK/MTK2503/MTK2503/11CW1418SP4_03_CORETEK03AE_11C_V1_GPRS_MMI/Tools/MinGW/include/c++/3.3.1/bits/stl_construct.h ****    */
  98:d:/MTK/MTK2503/MTK2503/11CW1418SP4_03_CORETEK03AE_11C_V1_GPRS_MMI/Tools/MinGW/include/c++/3.3.1/bits/stl_construct.h ****   template <class _ForwardIterator>
  99:d:/MTK/MTK2503/MTK2503/11CW1418SP4_03_CORETEK03AE_11C_V1_GPRS_MMI/Tools/MinGW/include/c++/3.3.1/bits/stl_construct.h ****     inline void
 100:d:/MTK/MTK2503/MTK2503/11CW1418SP4_03_CORETEK03AE_11C_V1_GPRS_MMI/Tools/MinGW/include/c++/3.3.1/bits/stl_construct.h ****     __destroy_aux(_ForwardIterator __first, _ForwardIterator __last, __false_type)
 101:d:/MTK/MTK2503/MTK2503/11CW1418SP4_03_CORETEK03AE_11C_V1_GPRS_MMI/Tools/MinGW/include/c++/3.3.1/bits/stl_construct.h ****     { for ( ; __first != __last; ++__first) _Destroy(&*__first); }
 102:d:/MTK/MTK2503/MTK2503/11CW1418SP4_03_CORETEK03AE_11C_V1_GPRS_MMI/Tools/MinGW/include/c++/3.3.1/bits/stl_construct.h **** 
 103:d:/MTK/MTK2503/MTK2503/11CW1418SP4_03_CORETEK03AE_11C_V1_GPRS_MMI/Tools/MinGW/include/c++/3.3.1/bits/stl_construct.h ****   /**
 104:d:/MTK/MTK2503/MTK2503/11CW1418SP4_03_CORETEK03AE_11C_V1_GPRS_MMI/Tools/MinGW/include/c++/3.3.1/bits/stl_construct.h ****    * @if maint
 105:d:/MTK/MTK2503/MTK2503/11CW1418SP4_03_CORETEK03AE_11C_V1_GPRS_MMI/Tools/MinGW/include/c++/3.3.1/bits/stl_construct.h ****    * Destroy a range of objects with trivial destructors.  Since the destructors
 106:d:/MTK/MTK2503/MTK2503/11CW1418SP4_03_CORETEK03AE_11C_V1_GPRS_MMI/Tools/MinGW/include/c++/3.3.1/bits/stl_construct.h ****    * are trivial, there's nothing to do and hopefully this function will be
 107:d:/MTK/MTK2503/MTK2503/11CW1418SP4_03_CORETEK03AE_11C_V1_GPRS_MMI/Tools/MinGW/include/c++/3.3.1/bits/stl_construct.h ****    * entirely optimized away.
 108:d:/MTK/MTK2503/MTK2503/11CW1418SP4_03_CORETEK03AE_11C_V1_GPRS_MMI/Tools/MinGW/include/c++/3.3.1/bits/stl_construct.h ****    *
 109:d:/MTK/MTK2503/MTK2503/11CW1418SP4_03_CORETEK03AE_11C_V1_GPRS_MMI/Tools/MinGW/include/c++/3.3.1/bits/stl_construct.h ****    * This is a helper function used only by _Destroy().
 110:d:/MTK/MTK2503/MTK2503/11CW1418SP4_03_CORETEK03AE_11C_V1_GPRS_MMI/Tools/MinGW/include/c++/3.3.1/bits/stl_construct.h ****    * @endif
 111:d:/MTK/MTK2503/MTK2503/11CW1418SP4_03_CORETEK03AE_11C_V1_GPRS_MMI/Tools/MinGW/include/c++/3.3.1/bits/stl_construct.h ****    */
 112:d:/MTK/MTK2503/MTK2503/11CW1418SP4_03_CORETEK03AE_11C_V1_GPRS_MMI/Tools/MinGW/include/c++/3.3.1/bits/stl_construct.h ****   template <class _ForwardIterator> 
 113:d:/MTK/MTK2503/MTK2503/11CW1418SP4_03_CORETEK03AE_11C_V1_GPRS_MMI/Tools/MinGW/include/c++/3.3.1/bits/stl_construct.h ****     inline void
 114:d:/MTK/MTK2503/MTK2503/11CW1418SP4_03_CORETEK03AE_11C_V1_GPRS_MMI/Tools/MinGW/include/c++/3.3.1/bits/stl_construct.h ****     __destroy_aux(_ForwardIterator, _ForwardIterator, __true_type)
 115:d:/MTK/MTK2503/MTK2503/11CW1418SP4_03_CORETEK03AE_11C_V1_GPRS_MMI/Tools/MinGW/include/c++/3.3.1/bits/stl_construct.h ****     { }
 116:d:/MTK/MTK2503/MTK2503/11CW1418SP4_03_CORETEK03AE_11C_V1_GPRS_MMI/Tools/MinGW/include/c++/3.3.1/bits/stl_construct.h **** 
 117:d:/MTK/MTK2503/MTK2503/11CW1418SP4_03_CORETEK03AE_11C_V1_GPRS_MMI/Tools/MinGW/include/c++/3.3.1/bits/stl_construct.h ****   /**
 118:d:/MTK/MTK2503/MTK2503/11CW1418SP4_03_CORETEK03AE_11C_V1_GPRS_MMI/Tools/MinGW/include/c++/3.3.1/bits/stl_construct.h ****    * @if maint
 119:d:/MTK/MTK2503/MTK2503/11CW1418SP4_03_CORETEK03AE_11C_V1_GPRS_MMI/Tools/MinGW/include/c++/3.3.1/bits/stl_construct.h ****    * Destroy the object pointed to by a pointer type.
 120:d:/MTK/MTK2503/MTK2503/11CW1418SP4_03_CORETEK03AE_11C_V1_GPRS_MMI/Tools/MinGW/include/c++/3.3.1/bits/stl_construct.h ****    * @endif
 121:d:/MTK/MTK2503/MTK2503/11CW1418SP4_03_CORETEK03AE_11C_V1_GPRS_MMI/Tools/MinGW/include/c++/3.3.1/bits/stl_construct.h ****    */
 122:d:/MTK/MTK2503/MTK2503/11CW1418SP4_03_CORETEK03AE_11C_V1_GPRS_MMI/Tools/MinGW/include/c++/3.3.1/bits/stl_construct.h ****   template <class _Tp>
 123:d:/MTK/MTK2503/MTK2503/11CW1418SP4_03_CORETEK03AE_11C_V1_GPRS_MMI/Tools/MinGW/include/c++/3.3.1/bits/stl_construct.h ****     inline void
 124:d:/MTK/MTK2503/MTK2503/11CW1418SP4_03_CORETEK03AE_11C_V1_GPRS_MMI/Tools/MinGW/include/c++/3.3.1/bits/stl_construct.h ****     _Destroy(_Tp* __pointer)
 125:d:/MTK/MTK2503/MTK2503/11CW1418SP4_03_CORETEK03AE_11C_V1_GPRS_MMI/Tools/MinGW/include/c++/3.3.1/bits/stl_construct.h ****     { __pointer->~_Tp(); }
 126:d:/MTK/MTK2503/MTK2503/11CW1418SP4_03_CORETEK03AE_11C_V1_GPRS_MMI/Tools/MinGW/include/c++/3.3.1/bits/stl_construct.h ****   
 127:d:/MTK/MTK2503/MTK2503/11CW1418SP4_03_CORETEK03AE_11C_V1_GPRS_MMI/Tools/MinGW/include/c++/3.3.1/bits/stl_construct.h ****   /**
 128:d:/MTK/MTK2503/MTK2503/11CW1418SP4_03_CORETEK03AE_11C_V1_GPRS_MMI/Tools/MinGW/include/c++/3.3.1/bits/stl_construct.h ****    * @if maint
 129:d:/MTK/MTK2503/MTK2503/11CW1418SP4_03_CORETEK03AE_11C_V1_GPRS_MMI/Tools/MinGW/include/c++/3.3.1/bits/stl_construct.h ****    * Destroy a range of objects.  If the value_type of the object has
 130:d:/MTK/MTK2503/MTK2503/11CW1418SP4_03_CORETEK03AE_11C_V1_GPRS_MMI/Tools/MinGW/include/c++/3.3.1/bits/stl_construct.h ****    * a trivial destructor, the compiler should optimize all of this
 131:d:/MTK/MTK2503/MTK2503/11CW1418SP4_03_CORETEK03AE_11C_V1_GPRS_MMI/Tools/MinGW/include/c++/3.3.1/bits/stl_construct.h ****    * away, otherwise the objects' destructors must be invoked.
 132:d:/MTK/MTK2503/MTK2503/11CW1418SP4_03_CORETEK03AE_11C_V1_GPRS_MMI/Tools/MinGW/include/c++/3.3.1/bits/stl_construct.h ****    * @endif
 133:d:/MTK/MTK2503/MTK2503/11CW1418SP4_03_CORETEK03AE_11C_V1_GPRS_MMI/Tools/MinGW/include/c++/3.3.1/bits/stl_construct.h ****    */
 134:d:/MTK/MTK2503/MTK2503/11CW1418SP4_03_CORETEK03AE_11C_V1_GPRS_MMI/Tools/MinGW/include/c++/3.3.1/bits/stl_construct.h ****   template <class _ForwardIterator>
 135:d:/MTK/MTK2503/MTK2503/11CW1418SP4_03_CORETEK03AE_11C_V1_GPRS_MMI/Tools/MinGW/include/c++/3.3.1/bits/stl_construct.h ****     inline void
 136:d:/MTK/MTK2503/MTK2503/11CW1418SP4_03_CORETEK03AE_11C_V1_GPRS_MMI/Tools/MinGW/include/c++/3.3.1/bits/stl_construct.h ****     _Destroy(_ForwardIterator __first, _ForwardIterator __last)
 137:d:/MTK/MTK2503/MTK2503/11CW1418SP4_03_CORETEK03AE_11C_V1_GPRS_MMI/Tools/MinGW/include/c++/3.3.1/bits/stl_construct.h ****     {
 5619              	LM215:
 5620 0000 55       		pushl	%ebp
 5621 0001 89E5     		movl	%esp, %ebp
 5622 0003 83EC18   		subl	$24, %esp
 138:d:/MTK/MTK2503/MTK2503/11CW1418SP4_03_CORETEK03AE_11C_V1_GPRS_MMI/Tools/MinGW/include/c++/3.3.1/bits/stl_construct.h ****       typedef typename iterator_traits<_ForwardIterator>::value_type
 139:d:/MTK/MTK2503/MTK2503/11CW1418SP4_03_CORETEK03AE_11C_V1_GPRS_MMI/Tools/MinGW/include/c++/3.3.1/bits/stl_construct.h ****                        _Value_type;
 140:d:/MTK/MTK2503/MTK2503/11CW1418SP4_03_CORETEK03AE_11C_V1_GPRS_MMI/Tools/MinGW/include/c++/3.3.1/bits/stl_construct.h ****       typedef typename __type_traits<_Value_type>::has_trivial_destructor
 141:d:/MTK/MTK2503/MTK2503/11CW1418SP4_03_CORETEK03AE_11C_V1_GPRS_MMI/Tools/MinGW/include/c++/3.3.1/bits/stl_construct.h ****                        _Has_trivial_destructor;
 142:d:/MTK/MTK2503/MTK2503/11CW1418SP4_03_CORETEK03AE_11C_V1_GPRS_MMI/Tools/MinGW/include/c++/3.3.1/bits/stl_construct.h **** 
 143:d:/MTK/MTK2503/MTK2503/11CW1418SP4_03_CORETEK03AE_11C_V1_GPRS_MMI/Tools/MinGW/include/c++/3.3.1/bits/stl_construct.h ****       __destroy_aux(__first, __last, _Has_trivial_destructor());
 5624              	LM216:
 5625              	LBB54:
 5626 0006 C6442408 		movb	$0, 8(%esp)
 5626      00
 5627 000b 8B450C   		movl	12(%ebp), %eax
 5628 000e 89442404 		movl	%eax, 4(%esp)
GAS LISTING d:/MTK/MTK2503/MTK2503/11CW1418SP4_03_CORETEK03AE_11C_V1_GPRS_MMI/plutommi/Customer/ResGenerator/gcctmp/ccQHcaaa.s 			page 110


 5629 0012 8B4508   		movl	8(%ebp), %eax
 5630 0015 890424   		movl	%eax, (%esp)
 5631 0018 E8000000 		call	__ZSt13__destroy_auxIPN10ThreadPool10ThreadDataEEvT_S3_12__false_type
 5631      00
 5632 001d C9       		leave
 5633 001e C3       		ret
 5634              	LBE54:
 5635              	Lscope33:
 5639              	.globl __ZTV10ThreadPool
 5640 001f 90       		.section	.rdata$_ZTV10ThreadPool,""
 5641              		.linkonce same_size
 5642              		.align 8
 5643              	__ZTV10ThreadPool:
 5644 0000 00000000 		.long	0
 5645 0004 00000000 		.long	__ZTI10ThreadPool
 5646 0008 46060000 		.long	__ZN10ThreadPoolD1Ev
 5647 000c 66070000 		.long	__ZN10ThreadPoolD0Ev
 5649              		.section	.text$_ZNSt19_List_iterator_base7_M_incrEv,"x"
 5650              		.linkonce discard
 5651              		.align 2
 5654              	.globl __ZNSt19_List_iterator_base7_M_incrEv
 5656              	__ZNSt19_List_iterator_base7_M_incrEv:
 5658              	Ltext10:
 5660              	LM217:
 5661 0000 55       		pushl	%ebp
 5662 0001 89E5     		movl	%esp, %ebp
 5664              	LM218:
 5665              	LBB55:
 5666 0003 8B5508   		movl	8(%ebp), %edx
 5667 0006 8B4508   		movl	8(%ebp), %eax
 5668 0009 8B00     		movl	(%eax), %eax
 5669 000b 8B00     		movl	(%eax), %eax
 5670 000d 8902     		movl	%eax, (%edx)
 5671 000f 5D       		popl	%ebp
 5672 0010 C3       		ret
 5673              	LBE55:
 5674              	Lscope34:
 5676 0011 909090   		.section	.text$_ZNKSt19_List_iterator_baseeqERKS_,"x"
 5677              		.linkonce discard
 5678              		.align 2
 5682              	.globl __ZNKSt19_List_iterator_baseeqERKS_
 5684              	__ZNKSt19_List_iterator_baseeqERKS_:
 5686              	LM219:
 5687 0000 55       		pushl	%ebp
 5688 0001 89E5     		movl	%esp, %ebp
 5690              	LM220:
 5691              	LBB56:
 5692 0003 8B4508   		movl	8(%ebp), %eax
 5693 0006 8B550C   		movl	12(%ebp), %edx
 5694 0009 8B00     		movl	(%eax), %eax
 5695 000b 3B02     		cmpl	(%edx), %eax
 5696 000d 0F94C0   		sete	%al
 5697 0010 0FB6C0   		movzbl	%al, %eax
 5698 0013 5D       		popl	%ebp
 5699 0014 C3       		ret
 5700              	LBE56:
 5701              	Lscope35:
GAS LISTING d:/MTK/MTK2503/MTK2503/11CW1418SP4_03_CORETEK03AE_11C_V1_GPRS_MMI/plutommi/Customer/ResGenerator/gcctmp/ccQHcaaa.s 			page 111


 5703 0015 909090   		.section	.text$_ZNKSt19_List_iterator_baseneERKS_,"x"
 5704              		.linkonce discard
 5705              		.align 2
 5709              	.globl __ZNKSt19_List_iterator_baseneERKS_
 5711              	__ZNKSt19_List_iterator_baseneERKS_:
 5713              	LM221:
 5714 0000 55       		pushl	%ebp
 5715 0001 89E5     		movl	%esp, %ebp
 5717              	LM222:
 5718              	LBB57:
 5719 0003 8B4508   		movl	8(%ebp), %eax
 5720 0006 8B550C   		movl	12(%ebp), %edx
 5721 0009 8B00     		movl	(%eax), %eax
 5722 000b 3B02     		cmpl	(%edx), %eax
 5723 000d 0F95C0   		setne	%al
 5724 0010 0FB6C0   		movzbl	%al, %eax
 5725 0013 5D       		popl	%ebp
 5726 0014 C3       		ret
 5727              	LBE57:
 5728              	Lscope36:
 5730 0015 909090   		.section	.text$_ZN10ThreadPool15CheckThreadStopEv,"x"
 5731              		.linkonce discard
 5732              		.align 2
 5735              	.globl __ZN10ThreadPool15CheckThreadStopEv
 5737              	__ZN10ThreadPool15CheckThreadStopEv:
 5739              	Ltext11:
   1:../../mmi/resource/inc/ThreadPool.h **** #pragma once
   2:../../mmi/resource/inc/ThreadPool.h **** // Filename     : ThreadPool.h
   3:../../mmi/resource/inc/ThreadPool.h **** // Author       : Siddharth Barman
   4:../../mmi/resource/inc/ThreadPool.h **** // Date         : 18 Sept 2005
   5:../../mmi/resource/inc/ThreadPool.h **** // Refactored   : 29 Sept 2010 by Greg Labute
   6:../../mmi/resource/inc/ThreadPool.h **** /* Description  : Defines ThreadPool class. How to use the Thread Pool. First
   7:../../mmi/resource/inc/ThreadPool.h ****                 create a ThreadPool object. The default constructor will
   8:../../mmi/resource/inc/ThreadPool.h ****                 create 10 threads in the pool. To defer creation of the pool
   9:../../mmi/resource/inc/ThreadPool.h ****                 pass a pool size of 0 to the constructor.
  10:../../mmi/resource/inc/ThreadPool.h **** 
  11:../../mmi/resource/inc/ThreadPool.h ****                 You can use two approaches while working with the thread
  12:../../mmi/resource/inc/ThreadPool.h ****                 pool.
  13:../../mmi/resource/inc/ThreadPool.h **** 
  14:../../mmi/resource/inc/ThreadPool.h ****                 1. To make use of the thread pool, you will need to first
  15:../../mmi/resource/inc/ThreadPool.h ****                 create a function having the following signature
  16:../../mmi/resource/inc/ThreadPool.h ****                 DWORD WINAPI ThreadProc(LPVOID); Check the CreateThread
  17:../../mmi/resource/inc/ThreadPool.h ****                 documentation in MSDN to get details. Add this function to
  18:../../mmi/resource/inc/ThreadPool.h ****                 the pool by calling the Run() method and pass in the function
  19:../../mmi/resource/inc/ThreadPool.h ****                 name and a void* pointer to any object you want. The pool will
  20:../../mmi/resource/inc/ThreadPool.h ****                 pick up the function passed into Run() method and execute as
  21:../../mmi/resource/inc/ThreadPool.h ****                 threads in the pool become free.
  22:../../mmi/resource/inc/ThreadPool.h **** 
  23:../../mmi/resource/inc/ThreadPool.h ****                 2. Instead of using a function pointer, you can use an object
  24:../../mmi/resource/inc/ThreadPool.h ****                 of a class which derives from IRunObject. Pass a pointer to
  25:../../mmi/resource/inc/ThreadPool.h ****                 this object in the Run() method of the thread pool. As threads
  26:../../mmi/resource/inc/ThreadPool.h ****                 become free, the thread pool will call the Run() method of you
  27:../../mmi/resource/inc/ThreadPool.h ****                 r class. You will also need to write a body for AutoDelete() f
  28:../../mmi/resource/inc/ThreadPool.h ****                 unction. If the return value is true, the thread pool will use
  29:../../mmi/resource/inc/ThreadPool.h ****                 'delete' to free the object you pass in. If it returns false,
  30:../../mmi/resource/inc/ThreadPool.h ****                 the thread pool will not do anything else to the object after
  31:../../mmi/resource/inc/ThreadPool.h ****                 calling the Run() function.
GAS LISTING d:/MTK/MTK2503/MTK2503/11CW1418SP4_03_CORETEK03AE_11C_V1_GPRS_MMI/plutommi/Customer/ResGenerator/gcctmp/ccQHcaaa.s 			page 112


  32:../../mmi/resource/inc/ThreadPool.h **** 
  33:../../mmi/resource/inc/ThreadPool.h ****                 It is possible to destroy the pool whenever you want by
  34:../../mmi/resource/inc/ThreadPool.h ****                 calling the Destroy() method. If you want to create a new pool
  35:../../mmi/resource/inc/ThreadPool.h ****                 call the Create() method.
  36:../../mmi/resource/inc/ThreadPool.h **** 
  37:../../mmi/resource/inc/ThreadPool.h ****                 If this code works, it was written by Siddharth Barman, email
  38:../../mmi/resource/inc/ThreadPool.h ****                 siddharth_b@yahoo.com.
  39:../../mmi/resource/inc/ThreadPool.h ****                 _____ _                        _  ______           _
  40:../../mmi/resource/inc/ThreadPool.h ****                 |_   _| |                      | | | ___ \         | |
  41:../../mmi/resource/inc/ThreadPool.h ****                 | | | |__  _ __ ___  __ _  __| | | |_/ /__   ___ | |
  42:../../mmi/resource/inc/ThreadPool.h ****                 | | | '_ \| '__/ _ \/ _` |/ _` | |  __/ _ \ / _ \| |
  43:../../mmi/resource/inc/ThreadPool.h ****                 | | | | | | | |  __/ (_| | (_| | | | | (_) | (_) | |
  44:../../mmi/resource/inc/ThreadPool.h ****                 \_/ |_| |_|_|  \___|\__,_|\__,_| \_|  \___/ \___/|_|
  45:../../mmi/resource/inc/ThreadPool.h **** ------------------------------------------------------------------------------*/
  46:../../mmi/resource/inc/ThreadPool.h **** 
  47:../../mmi/resource/inc/ThreadPool.h **** #include <list>
  48:../../mmi/resource/inc/ThreadPool.h **** #include <vector>
  49:../../mmi/resource/inc/ThreadPool.h **** 
  50:../../mmi/resource/inc/ThreadPool.h **** class ThreadPool
  51:../../mmi/resource/inc/ThreadPool.h **** {
  52:../../mmi/resource/inc/ThreadPool.h **** public:
  53:../../mmi/resource/inc/ThreadPool.h ****     // PoolSize is the number of worker threads that will be created.
  54:../../mmi/resource/inc/ThreadPool.h ****     ThreadPool(int poolSize = 10, int waitTimeForThreadsToCompleteMS = 5000);
  55:../../mmi/resource/inc/ThreadPool.h ****     virtual ~ThreadPool();
  56:../../mmi/resource/inc/ThreadPool.h **** 
  57:../../mmi/resource/inc/ThreadPool.h ****     // Use this method to create the worker threads if you specified a poolSize
  58:../../mmi/resource/inc/ThreadPool.h ****     // of 0 in the constructor, or if you want to change the number of worker threads.
  59:../../mmi/resource/inc/ThreadPool.h ****     // Returns: true if no error.
  60:../../mmi/resource/inc/ThreadPool.h ****     bool Create(int poolSize);
  61:../../mmi/resource/inc/ThreadPool.h **** 
  62:../../mmi/resource/inc/ThreadPool.h ****     // Use this method to destroy the worker threads. The destructor of
  63:../../mmi/resource/inc/ThreadPool.h ****     // this class will destroy the threads automatically.
  64:../../mmi/resource/inc/ThreadPool.h ****     void Destroy();
  65:../../mmi/resource/inc/ThreadPool.h **** 
  66:../../mmi/resource/inc/ThreadPool.h ****     // How many worker threads are in the pool?
  67:../../mmi/resource/inc/ThreadPool.h ****     int GetPoolSize() { return m_threads.size(); }
  68:../../mmi/resource/inc/ThreadPool.h **** 
  69:../../mmi/resource/inc/ThreadPool.h ****     // This decides whether a job is added to the front or back of the queue.
  70:../../mmi/resource/inc/ThreadPool.h ****     enum ThreadPriority { High, Low };
  71:../../mmi/resource/inc/ThreadPool.h **** 
  72:../../mmi/resource/inc/ThreadPool.h ****     // Run a job
  73:../../mmi/resource/inc/ThreadPool.h ****     void Run(LPTHREAD_START_ROUTINE pFunc, LPVOID pData, ThreadPriority priority = Low)
  74:../../mmi/resource/inc/ThreadPool.h ****         { AddJobToQueue(pFunc, pData, NULL, priority); }
  75:../../mmi/resource/inc/ThreadPool.h ****     struct IRunObject
  76:../../mmi/resource/inc/ThreadPool.h ****     {
  77:../../mmi/resource/inc/ThreadPool.h ****         virtual ~IRunObject() {}
  78:../../mmi/resource/inc/ThreadPool.h ****         virtual void Run() = 0;
  79:../../mmi/resource/inc/ThreadPool.h ****         virtual bool AutoDelete() = 0;
  80:../../mmi/resource/inc/ThreadPool.h ****     };
  81:../../mmi/resource/inc/ThreadPool.h ****     void Run(IRunObject* job, ThreadPriority priority = Low)
  82:../../mmi/resource/inc/ThreadPool.h ****         { AddJobToQueue(NULL, NULL, job, priority); }
  83:../../mmi/resource/inc/ThreadPool.h **** 
  84:../../mmi/resource/inc/ThreadPool.h ****     // This is function expected to be called by thread functions or IRunObject
  85:../../mmi/resource/inc/ThreadPool.h ****     // derived. The expectation is that the code will check this 'property' of
  86:../../mmi/resource/inc/ThreadPool.h ****     // the pool and stop its processing as soon as possible.
  87:../../mmi/resource/inc/ThreadPool.h ****     bool CheckThreadStop()
  88:../../mmi/resource/inc/ThreadPool.h ****     { return WaitForSingleObject(m_hNotifyShutdown, 0) != WAIT_TIMEOUT; }
GAS LISTING d:/MTK/MTK2503/MTK2503/11CW1418SP4_03_CORETEK03AE_11C_V1_GPRS_MMI/plutommi/Customer/ResGenerator/gcctmp/ccQHcaaa.s 			page 113


 5741              	LM223:
 5742 0000 55       		pushl	%ebp
 5743 0001 89E5     		movl	%esp, %ebp
 5744 0003 83EC18   		subl	$24, %esp
 5746              	LM224:
 5747              	LBB58:
 5748 0006 C7442404 		movl	$0, 4(%esp)
 5748      00000000 
 5749 000e 8B4508   		movl	8(%ebp), %eax
 5750 0011 8B4018   		movl	24(%eax), %eax
 5751 0014 890424   		movl	%eax, (%esp)
 5752 0017 E8000000 		call	_WaitForSingleObject@8
 5752      00
 5753 001c 83EC08   		subl	$8, %esp
 5754 001f 8945FC   		movl	%eax, -4(%ebp)
 5755 0022 817DFC02 		cmpl	$258, -4(%ebp)
 5755      010000
 5756 0029 0F95C0   		setne	%al
 5757 002c 0FB6C0   		movzbl	%al, %eax
 5758 002f 8945FC   		movl	%eax, -4(%ebp)
 5759 0032 8B45FC   		movl	-4(%ebp), %eax
 5760 0035 C9       		leave
 5761 0036 C3       		ret
 5762              	LBE58:
 5763              	Lscope37:
 5765 0037 90       		.section	.text$_ZNSt4listIN10ThreadPool7JobDataESaIS1_EEC1ERKS2_,"x"
 5766              		.linkonce discard
 5767              		.align 2
 5771              	.globl __ZNSt4listIN10ThreadPool7JobDataESaIS1_EEC1ERKS2_
 5773              	__ZNSt4listIN10ThreadPool7JobDataESaIS1_EEC1ERKS2_:
 5775              	Ltext12:
 5777              	LM225:
 5778 0000 55       		pushl	%ebp
 5779 0001 89E5     		movl	%esp, %ebp
 5780 0003 83EC08   		subl	$8, %esp
 5782              	LM226:
 5783              	LBB59:
 5784 0006 8B450C   		movl	12(%ebp), %eax
 5785 0009 89442404 		movl	%eax, 4(%esp)
 5786 000d 8B4508   		movl	8(%ebp), %eax
 5787 0010 890424   		movl	%eax, (%esp)
 5788 0013 E8000000 		call	__ZNSt10_List_baseIN10ThreadPool7JobDataESaIS1_EEC2ERKS2_
 5788      00
 5789 0018 C9       		leave
 5790 0019 C3       		ret
 5791              	L214:
 5792              	L213:
 5793              	LBE59:
 5794              	Lscope38:
 5796 001a 9090     		.section	.text$_ZNSt10_List_baseIN10ThreadPool7JobDataESaIS1_EEC2ERKS2_,"x"
 5797              		.linkonce discard
 5798              		.align 2
 5802              	.globl __ZNSt10_List_baseIN10ThreadPool7JobDataESaIS1_EEC2ERKS2_
 5804              	__ZNSt10_List_baseIN10ThreadPool7JobDataESaIS1_EEC2ERKS2_:
 5806              	LM227:
 5807 0000 55       		pushl	%ebp
 5808 0001 89E5     		movl	%esp, %ebp
GAS LISTING d:/MTK/MTK2503/MTK2503/11CW1418SP4_03_CORETEK03AE_11C_V1_GPRS_MMI/plutommi/Customer/ResGenerator/gcctmp/ccQHcaaa.s 			page 114


 5809 0003 53       		pushl	%ebx
 5810 0004 83EC14   		subl	$20, %esp
 5812              	LM228:
 5813              	LBB60:
 5814 0007 8B450C   		movl	12(%ebp), %eax
 5815 000a 89442404 		movl	%eax, 4(%esp)
 5816 000e 8B4508   		movl	8(%ebp), %eax
 5817 0011 890424   		movl	%eax, (%esp)
 5818 0014 E8000000 		call	__ZNSt16_List_alloc_baseIN10ThreadPool7JobDataESaIS1_ELb1EEC2ERKS2_
 5818      00
 5820              	LM229:
 5821 0019 8B5D08   		movl	8(%ebp), %ebx
 5822 001c 8B4508   		movl	8(%ebp), %eax
 5823 001f 890424   		movl	%eax, (%esp)
 5824 0022 E8000000 		call	__ZNSt16_List_alloc_baseIN10ThreadPool7JobDataESaIS1_ELb1EE11_M_get_nodeEv
 5824      00
 5825 0027 8903     		movl	%eax, (%ebx)
 5827              	LM230:
 5828 0029 8B4508   		movl	8(%ebp), %eax
 5829 002c 8B10     		movl	(%eax), %edx
 5830 002e 8B4508   		movl	8(%ebp), %eax
 5831 0031 8B00     		movl	(%eax), %eax
 5832 0033 8902     		movl	%eax, (%edx)
 5834              	LM231:
 5835 0035 8B4508   		movl	8(%ebp), %eax
 5836 0038 8B10     		movl	(%eax), %edx
 5837 003a 8B4508   		movl	8(%ebp), %eax
 5838 003d 8B00     		movl	(%eax), %eax
 5839 003f 894204   		movl	%eax, 4(%edx)
 5840 0042 83C414   		addl	$20, %esp
 5841 0045 5B       		popl	%ebx
 5842 0046 5D       		popl	%ebp
 5843 0047 C3       		ret
 5844              	LBE60:
 5845              	Lscope39:
 5847              		.section	.text$_ZNSt16_List_alloc_baseIN10ThreadPool7JobDataESaIS1_ELb1EEC2ERKS2_,"x"
 5848              		.linkonce discard
 5849              		.align 2
 5852              	.globl __ZNSt16_List_alloc_baseIN10ThreadPool7JobDataESaIS1_ELb1EEC2ERKS2_
 5854              	__ZNSt16_List_alloc_baseIN10ThreadPool7JobDataESaIS1_ELb1EEC2ERKS2_:
 5856              	LM232:
 5857 0000 55       		pushl	%ebp
 5858 0001 89E5     		movl	%esp, %ebp
 5860              	LM233:
 5861 0003 5D       		popl	%ebp
 5862 0004 C3       		ret
 5863              	Lscope40:
 5865 0005 909090   		.section	.text$_ZNSt16_List_alloc_baseIN10ThreadPool7JobDataESaIS1_ELb1EE11_M_get_nodeEv,"x"
 5866              		.linkonce discard
 5867              		.align 2
 5870              	.globl __ZNSt16_List_alloc_baseIN10ThreadPool7JobDataESaIS1_ELb1EE11_M_get_nodeEv
 5872              	__ZNSt16_List_alloc_baseIN10ThreadPool7JobDataESaIS1_ELb1EE11_M_get_nodeEv:
 5874              	LM234:
 5875 0000 55       		pushl	%ebp
 5876 0001 89E5     		movl	%esp, %ebp
 5877 0003 83EC08   		subl	$8, %esp
 5879              	LM235:
GAS LISTING d:/MTK/MTK2503/MTK2503/11CW1418SP4_03_CORETEK03AE_11C_V1_GPRS_MMI/plutommi/Customer/ResGenerator/gcctmp/ccQHcaaa.s 			page 115


 5880              	LBB61:
 5881 0006 C7042401 		movl	$1, (%esp)
 5881      000000
 5882 000d E8000000 		call	__ZNSt14__simple_allocISt10_List_nodeIN10ThreadPool7JobDataEESt24__default_alloc_templateILb1
 5882      00
 5883 0012 C9       		leave
 5884 0013 C3       		ret
 5885              	LBE61:
 5886              	Lscope41:
 5888              		.section	.text$_ZNSt14__simple_allocISt10_List_nodeIN10ThreadPool7JobDataEESt24__default_alloc_tem
 5889              		.linkonce discard
 5890              		.align 2
 5893              	.globl __ZNSt14__simple_allocISt10_List_nodeIN10ThreadPool7JobDataEESt24__default_alloc_templateILb
 5895              	__ZNSt14__simple_allocISt10_List_nodeIN10ThreadPool7JobDataEESt24__default_alloc_templateILb1ELi0EE
 5897              	Ltext13:
 5899              	LM236:
 5900 0000 55       		pushl	%ebp
 5901 0001 89E5     		movl	%esp, %ebp
 5902 0003 83EC08   		subl	$8, %esp
 5904              	LM237:
 5905              	LBB62:
 5906 0006 C745FC00 		movl	$0, -4(%ebp)
 5906      000000
 5908              	LM238:
 5909 000d 837D0800 		cmpl	$0, 8(%ebp)
 5910 0011 741C     		je	L220
 5912              	LM239:
 5913 0013 8B4508   		movl	8(%ebp), %eax
 5914 0016 89C2     		movl	%eax, %edx
 5915 0018 C1E202   		sall	$2, %edx
 5916 001b 01C2     		addl	%eax, %edx
 5917 001d 8D049500 		leal	0(,%edx,4), %eax
 5917      000000
 5918 0024 890424   		movl	%eax, (%esp)
 5919 0027 E8000000 		call	__ZNSt24__default_alloc_templateILb1ELi0EE8allocateEj
 5919      00
 5920 002c 8945FC   		movl	%eax, -4(%ebp)
 5921              	L220:
 5923              	LM240:
 5924 002f 8B45FC   		movl	-4(%ebp), %eax
 5925 0032 C9       		leave
 5926 0033 C3       		ret
 5927              	LBE62:
 5931              	Lscope42:
 5933              		.section	.text$_ZNSt10_List_baseIN10ThreadPool7JobDataESaIS1_EED2Ev,"x"
 5934              		.linkonce discard
 5935              		.align 2
 5938              	.globl __ZNSt10_List_baseIN10ThreadPool7JobDataESaIS1_EED2Ev
 5940              	__ZNSt10_List_baseIN10ThreadPool7JobDataESaIS1_EED2Ev:
 5942              	Ltext14:
 5944              	LM241:
 5945 0000 55       		pushl	%ebp
 5946 0001 89E5     		movl	%esp, %ebp
 5947 0003 83EC08   		subl	$8, %esp
 5949              	LM242:
 5950              	LBB63:
 5951 0006 8B4508   		movl	8(%ebp), %eax
GAS LISTING d:/MTK/MTK2503/MTK2503/11CW1418SP4_03_CORETEK03AE_11C_V1_GPRS_MMI/plutommi/Customer/ResGenerator/gcctmp/ccQHcaaa.s 			page 116


 5952 0009 890424   		movl	%eax, (%esp)
 5953 000c E8000000 		call	__ZNSt10_List_baseIN10ThreadPool7JobDataESaIS1_EE7__clearEv
 5953      00
 5955              	LM243:
 5956 0011 8B4508   		movl	8(%ebp), %eax
 5957 0014 8B00     		movl	(%eax), %eax
 5958 0016 89442404 		movl	%eax, 4(%esp)
 5959 001a 8B4508   		movl	8(%ebp), %eax
 5960 001d 890424   		movl	%eax, (%esp)
 5961 0020 E8000000 		call	__ZNSt16_List_alloc_baseIN10ThreadPool7JobDataESaIS1_ELb1EE11_M_put_nodeEPSt10_List_nodeIS1_E
 5961      00
 5962 0025 C9       		leave
 5963 0026 C3       		ret
 5964              	LBE63:
 5965              	Lscope43:
 5967 0027 90       		.section	.text$_ZNSt16_List_alloc_baseIN10ThreadPool7JobDataESaIS1_ELb1EE11_M_put_nodeEPSt10_List_
 5968              		.linkonce discard
 5969              		.align 2
 5973              	.globl __ZNSt16_List_alloc_baseIN10ThreadPool7JobDataESaIS1_ELb1EE11_M_put_nodeEPSt10_List_nodeIS1_
 5975              	__ZNSt16_List_alloc_baseIN10ThreadPool7JobDataESaIS1_ELb1EE11_M_put_nodeEPSt10_List_nodeIS1_E:
 5977              	LM244:
 5978 0000 55       		pushl	%ebp
 5979 0001 89E5     		movl	%esp, %ebp
 5980 0003 83EC08   		subl	$8, %esp
 5982              	LM245:
 5983              	LBB64:
 5984 0006 C7442404 		movl	$1, 4(%esp)
 5984      01000000 
 5985 000e 8B450C   		movl	12(%ebp), %eax
 5986 0011 890424   		movl	%eax, (%esp)
 5987 0014 E8000000 		call	__ZNSt14__simple_allocISt10_List_nodeIN10ThreadPool7JobDataEESt24__default_alloc_templateILb1
 5987      00
 5988 0019 C9       		leave
 5989 001a C3       		ret
 5990              	LBE64:
 5991              	Lscope44:
 5993 001b 90       		.section	.text$_ZNSt14__simple_allocISt10_List_nodeIN10ThreadPool7JobDataEESt24__default_alloc_tem
 5994              		.linkonce discard
 5995              		.align 2
 5999              	.globl __ZNSt14__simple_allocISt10_List_nodeIN10ThreadPool7JobDataEESt24__default_alloc_templateILb
 6001              	__ZNSt14__simple_allocISt10_List_nodeIN10ThreadPool7JobDataEESt24__default_alloc_templateILb1ELi0EE
 6003              	Ltext15:
 6005              	LM246:
 6006 0000 55       		pushl	%ebp
 6007 0001 89E5     		movl	%esp, %ebp
 6008 0003 83EC08   		subl	$8, %esp
 6010              	LM247:
 6011              	LBB65:
 6012 0006 837D0C00 		cmpl	$0, 12(%ebp)
 6013 000a 741C     		je	L225
 6014 000c 8B550C   		movl	12(%ebp), %edx
 6015 000f 89D0     		movl	%edx, %eax
 6016 0011 C1E002   		sall	$2, %eax
 6017 0014 01D0     		addl	%edx, %eax
 6018 0016 C1E002   		sall	$2, %eax
 6019 0019 89442404 		movl	%eax, 4(%esp)
 6020 001d 8B4508   		movl	8(%ebp), %eax
GAS LISTING d:/MTK/MTK2503/MTK2503/11CW1418SP4_03_CORETEK03AE_11C_V1_GPRS_MMI/plutommi/Customer/ResGenerator/gcctmp/ccQHcaaa.s 			page 117


 6021 0020 890424   		movl	%eax, (%esp)
 6022 0023 E8000000 		call	__ZNSt24__default_alloc_templateILb1ELi0EE10deallocateEPvj
 6022      00
 6023              	L225:
 6024 0028 C9       		leave
 6025 0029 C3       		ret
 6026              	LBE65:
 6027              	Lscope45:
 6029 002a 9090     		.section	.text$_ZNSt10_List_baseIN10ThreadPool7JobDataESaIS1_EE7__clearEv,"x"
 6030              		.linkonce discard
 6031              		.align 2
 6034              	.globl __ZNSt10_List_baseIN10ThreadPool7JobDataESaIS1_EE7__clearEv
 6036              	__ZNSt10_List_baseIN10ThreadPool7JobDataESaIS1_EE7__clearEv:
 6038              	Ltext16:
   1:d:/MTK/MTK2503/MTK2503/11CW1418SP4_03_CORETEK03AE_11C_V1_GPRS_MMI/Tools/MinGW/include/c++/3.3.1/bits/list.tcc **** // List implementation (out of line) -*- C++ -*-
   2:d:/MTK/MTK2503/MTK2503/11CW1418SP4_03_CORETEK03AE_11C_V1_GPRS_MMI/Tools/MinGW/include/c++/3.3.1/bits/list.tcc **** 
   3:d:/MTK/MTK2503/MTK2503/11CW1418SP4_03_CORETEK03AE_11C_V1_GPRS_MMI/Tools/MinGW/include/c++/3.3.1/bits/list.tcc **** // Copyright (C) 2001, 2002 Free Software Foundation, Inc.
   4:d:/MTK/MTK2503/MTK2503/11CW1418SP4_03_CORETEK03AE_11C_V1_GPRS_MMI/Tools/MinGW/include/c++/3.3.1/bits/list.tcc **** //
   5:d:/MTK/MTK2503/MTK2503/11CW1418SP4_03_CORETEK03AE_11C_V1_GPRS_MMI/Tools/MinGW/include/c++/3.3.1/bits/list.tcc **** // This file is part of the GNU ISO C++ Library.  This library is free
   6:d:/MTK/MTK2503/MTK2503/11CW1418SP4_03_CORETEK03AE_11C_V1_GPRS_MMI/Tools/MinGW/include/c++/3.3.1/bits/list.tcc **** // software; you can redistribute it and/or modify it under the
   7:d:/MTK/MTK2503/MTK2503/11CW1418SP4_03_CORETEK03AE_11C_V1_GPRS_MMI/Tools/MinGW/include/c++/3.3.1/bits/list.tcc **** // terms of the GNU General Public License as published by the
   8:d:/MTK/MTK2503/MTK2503/11CW1418SP4_03_CORETEK03AE_11C_V1_GPRS_MMI/Tools/MinGW/include/c++/3.3.1/bits/list.tcc **** // Free Software Foundation; either version 2, or (at your option)
   9:d:/MTK/MTK2503/MTK2503/11CW1418SP4_03_CORETEK03AE_11C_V1_GPRS_MMI/Tools/MinGW/include/c++/3.3.1/bits/list.tcc **** // any later version.
  10:d:/MTK/MTK2503/MTK2503/11CW1418SP4_03_CORETEK03AE_11C_V1_GPRS_MMI/Tools/MinGW/include/c++/3.3.1/bits/list.tcc **** 
  11:d:/MTK/MTK2503/MTK2503/11CW1418SP4_03_CORETEK03AE_11C_V1_GPRS_MMI/Tools/MinGW/include/c++/3.3.1/bits/list.tcc **** // This library is distributed in the hope that it will be useful,
  12:d:/MTK/MTK2503/MTK2503/11CW1418SP4_03_CORETEK03AE_11C_V1_GPRS_MMI/Tools/MinGW/include/c++/3.3.1/bits/list.tcc **** // but WITHOUT ANY WARRANTY; without even the implied warranty of
  13:d:/MTK/MTK2503/MTK2503/11CW1418SP4_03_CORETEK03AE_11C_V1_GPRS_MMI/Tools/MinGW/include/c++/3.3.1/bits/list.tcc **** // MERCHANTABILITY or FITNESS FOR A PARTICULAR PURPOSE.  See the
  14:d:/MTK/MTK2503/MTK2503/11CW1418SP4_03_CORETEK03AE_11C_V1_GPRS_MMI/Tools/MinGW/include/c++/3.3.1/bits/list.tcc **** // GNU General Public License for more details.
  15:d:/MTK/MTK2503/MTK2503/11CW1418SP4_03_CORETEK03AE_11C_V1_GPRS_MMI/Tools/MinGW/include/c++/3.3.1/bits/list.tcc **** 
  16:d:/MTK/MTK2503/MTK2503/11CW1418SP4_03_CORETEK03AE_11C_V1_GPRS_MMI/Tools/MinGW/include/c++/3.3.1/bits/list.tcc **** // You should have received a copy of the GNU General Public License along
  17:d:/MTK/MTK2503/MTK2503/11CW1418SP4_03_CORETEK03AE_11C_V1_GPRS_MMI/Tools/MinGW/include/c++/3.3.1/bits/list.tcc **** // with this library; see the file COPYING.  If not, write to the Free
  18:d:/MTK/MTK2503/MTK2503/11CW1418SP4_03_CORETEK03AE_11C_V1_GPRS_MMI/Tools/MinGW/include/c++/3.3.1/bits/list.tcc **** // Software Foundation, 59 Temple Place - Suite 330, Boston, MA 02111-1307,
  19:d:/MTK/MTK2503/MTK2503/11CW1418SP4_03_CORETEK03AE_11C_V1_GPRS_MMI/Tools/MinGW/include/c++/3.3.1/bits/list.tcc **** // USA.
  20:d:/MTK/MTK2503/MTK2503/11CW1418SP4_03_CORETEK03AE_11C_V1_GPRS_MMI/Tools/MinGW/include/c++/3.3.1/bits/list.tcc **** 
  21:d:/MTK/MTK2503/MTK2503/11CW1418SP4_03_CORETEK03AE_11C_V1_GPRS_MMI/Tools/MinGW/include/c++/3.3.1/bits/list.tcc **** // As a special exception, you may use this file as part of a free software
  22:d:/MTK/MTK2503/MTK2503/11CW1418SP4_03_CORETEK03AE_11C_V1_GPRS_MMI/Tools/MinGW/include/c++/3.3.1/bits/list.tcc **** // library without restriction.  Specifically, if other files instantiate
  23:d:/MTK/MTK2503/MTK2503/11CW1418SP4_03_CORETEK03AE_11C_V1_GPRS_MMI/Tools/MinGW/include/c++/3.3.1/bits/list.tcc **** // templates or use macros or inline functions from this file, or you compile
  24:d:/MTK/MTK2503/MTK2503/11CW1418SP4_03_CORETEK03AE_11C_V1_GPRS_MMI/Tools/MinGW/include/c++/3.3.1/bits/list.tcc **** // this file and link it with other files to produce an executable, this
  25:d:/MTK/MTK2503/MTK2503/11CW1418SP4_03_CORETEK03AE_11C_V1_GPRS_MMI/Tools/MinGW/include/c++/3.3.1/bits/list.tcc **** // file does not by itself cause the resulting executable to be covered by
  26:d:/MTK/MTK2503/MTK2503/11CW1418SP4_03_CORETEK03AE_11C_V1_GPRS_MMI/Tools/MinGW/include/c++/3.3.1/bits/list.tcc **** // the GNU General Public License.  This exception does not however
  27:d:/MTK/MTK2503/MTK2503/11CW1418SP4_03_CORETEK03AE_11C_V1_GPRS_MMI/Tools/MinGW/include/c++/3.3.1/bits/list.tcc **** // invalidate any other reasons why the executable file might be covered by
  28:d:/MTK/MTK2503/MTK2503/11CW1418SP4_03_CORETEK03AE_11C_V1_GPRS_MMI/Tools/MinGW/include/c++/3.3.1/bits/list.tcc **** // the GNU General Public License.
  29:d:/MTK/MTK2503/MTK2503/11CW1418SP4_03_CORETEK03AE_11C_V1_GPRS_MMI/Tools/MinGW/include/c++/3.3.1/bits/list.tcc **** 
  30:d:/MTK/MTK2503/MTK2503/11CW1418SP4_03_CORETEK03AE_11C_V1_GPRS_MMI/Tools/MinGW/include/c++/3.3.1/bits/list.tcc **** /*
  31:d:/MTK/MTK2503/MTK2503/11CW1418SP4_03_CORETEK03AE_11C_V1_GPRS_MMI/Tools/MinGW/include/c++/3.3.1/bits/list.tcc ****  *
  32:d:/MTK/MTK2503/MTK2503/11CW1418SP4_03_CORETEK03AE_11C_V1_GPRS_MMI/Tools/MinGW/include/c++/3.3.1/bits/list.tcc ****  * Copyright (c) 1994
  33:d:/MTK/MTK2503/MTK2503/11CW1418SP4_03_CORETEK03AE_11C_V1_GPRS_MMI/Tools/MinGW/include/c++/3.3.1/bits/list.tcc ****  * Hewlett-Packard Company
  34:d:/MTK/MTK2503/MTK2503/11CW1418SP4_03_CORETEK03AE_11C_V1_GPRS_MMI/Tools/MinGW/include/c++/3.3.1/bits/list.tcc ****  *
  35:d:/MTK/MTK2503/MTK2503/11CW1418SP4_03_CORETEK03AE_11C_V1_GPRS_MMI/Tools/MinGW/include/c++/3.3.1/bits/list.tcc ****  * Permission to use, copy, modify, distribute and sell this software
  36:d:/MTK/MTK2503/MTK2503/11CW1418SP4_03_CORETEK03AE_11C_V1_GPRS_MMI/Tools/MinGW/include/c++/3.3.1/bits/list.tcc ****  * and its documentation for any purpose is hereby granted without fee,
  37:d:/MTK/MTK2503/MTK2503/11CW1418SP4_03_CORETEK03AE_11C_V1_GPRS_MMI/Tools/MinGW/include/c++/3.3.1/bits/list.tcc ****  * provided that the above copyright notice appear in all copies and
  38:d:/MTK/MTK2503/MTK2503/11CW1418SP4_03_CORETEK03AE_11C_V1_GPRS_MMI/Tools/MinGW/include/c++/3.3.1/bits/list.tcc ****  * that both that copyright notice and this permission notice appear
  39:d:/MTK/MTK2503/MTK2503/11CW1418SP4_03_CORETEK03AE_11C_V1_GPRS_MMI/Tools/MinGW/include/c++/3.3.1/bits/list.tcc ****  * in supporting documentation.  Hewlett-Packard Company makes no
  40:d:/MTK/MTK2503/MTK2503/11CW1418SP4_03_CORETEK03AE_11C_V1_GPRS_MMI/Tools/MinGW/include/c++/3.3.1/bits/list.tcc ****  * representations about the suitability of this software for any
  41:d:/MTK/MTK2503/MTK2503/11CW1418SP4_03_CORETEK03AE_11C_V1_GPRS_MMI/Tools/MinGW/include/c++/3.3.1/bits/list.tcc ****  * purpose.  It is provided "as is" without express or implied warranty.
  42:d:/MTK/MTK2503/MTK2503/11CW1418SP4_03_CORETEK03AE_11C_V1_GPRS_MMI/Tools/MinGW/include/c++/3.3.1/bits/list.tcc ****  *
  43:d:/MTK/MTK2503/MTK2503/11CW1418SP4_03_CORETEK03AE_11C_V1_GPRS_MMI/Tools/MinGW/include/c++/3.3.1/bits/list.tcc ****  *
GAS LISTING d:/MTK/MTK2503/MTK2503/11CW1418SP4_03_CORETEK03AE_11C_V1_GPRS_MMI/plutommi/Customer/ResGenerator/gcctmp/ccQHcaaa.s 			page 118


  44:d:/MTK/MTK2503/MTK2503/11CW1418SP4_03_CORETEK03AE_11C_V1_GPRS_MMI/Tools/MinGW/include/c++/3.3.1/bits/list.tcc ****  * Copyright (c) 1996,1997
  45:d:/MTK/MTK2503/MTK2503/11CW1418SP4_03_CORETEK03AE_11C_V1_GPRS_MMI/Tools/MinGW/include/c++/3.3.1/bits/list.tcc ****  * Silicon Graphics Computer Systems, Inc.
  46:d:/MTK/MTK2503/MTK2503/11CW1418SP4_03_CORETEK03AE_11C_V1_GPRS_MMI/Tools/MinGW/include/c++/3.3.1/bits/list.tcc ****  *
  47:d:/MTK/MTK2503/MTK2503/11CW1418SP4_03_CORETEK03AE_11C_V1_GPRS_MMI/Tools/MinGW/include/c++/3.3.1/bits/list.tcc ****  * Permission to use, copy, modify, distribute and sell this software
  48:d:/MTK/MTK2503/MTK2503/11CW1418SP4_03_CORETEK03AE_11C_V1_GPRS_MMI/Tools/MinGW/include/c++/3.3.1/bits/list.tcc ****  * and its documentation for any purpose is hereby granted without fee,
  49:d:/MTK/MTK2503/MTK2503/11CW1418SP4_03_CORETEK03AE_11C_V1_GPRS_MMI/Tools/MinGW/include/c++/3.3.1/bits/list.tcc ****  * provided that the above copyright notice appear in all copies and
  50:d:/MTK/MTK2503/MTK2503/11CW1418SP4_03_CORETEK03AE_11C_V1_GPRS_MMI/Tools/MinGW/include/c++/3.3.1/bits/list.tcc ****  * that both that copyright notice and this permission notice appear
  51:d:/MTK/MTK2503/MTK2503/11CW1418SP4_03_CORETEK03AE_11C_V1_GPRS_MMI/Tools/MinGW/include/c++/3.3.1/bits/list.tcc ****  * in supporting documentation.  Silicon Graphics makes no
  52:d:/MTK/MTK2503/MTK2503/11CW1418SP4_03_CORETEK03AE_11C_V1_GPRS_MMI/Tools/MinGW/include/c++/3.3.1/bits/list.tcc ****  * representations about the suitability of this software for any
  53:d:/MTK/MTK2503/MTK2503/11CW1418SP4_03_CORETEK03AE_11C_V1_GPRS_MMI/Tools/MinGW/include/c++/3.3.1/bits/list.tcc ****  * purpose.  It is provided "as is" without express or implied warranty.
  54:d:/MTK/MTK2503/MTK2503/11CW1418SP4_03_CORETEK03AE_11C_V1_GPRS_MMI/Tools/MinGW/include/c++/3.3.1/bits/list.tcc ****  */
  55:d:/MTK/MTK2503/MTK2503/11CW1418SP4_03_CORETEK03AE_11C_V1_GPRS_MMI/Tools/MinGW/include/c++/3.3.1/bits/list.tcc **** 
  56:d:/MTK/MTK2503/MTK2503/11CW1418SP4_03_CORETEK03AE_11C_V1_GPRS_MMI/Tools/MinGW/include/c++/3.3.1/bits/list.tcc **** /** @file list.tcc
  57:d:/MTK/MTK2503/MTK2503/11CW1418SP4_03_CORETEK03AE_11C_V1_GPRS_MMI/Tools/MinGW/include/c++/3.3.1/bits/list.tcc ****  *  This is an internal header file, included by other library headers.
  58:d:/MTK/MTK2503/MTK2503/11CW1418SP4_03_CORETEK03AE_11C_V1_GPRS_MMI/Tools/MinGW/include/c++/3.3.1/bits/list.tcc ****  *  You should not attempt to use it directly.
  59:d:/MTK/MTK2503/MTK2503/11CW1418SP4_03_CORETEK03AE_11C_V1_GPRS_MMI/Tools/MinGW/include/c++/3.3.1/bits/list.tcc ****  */
  60:d:/MTK/MTK2503/MTK2503/11CW1418SP4_03_CORETEK03AE_11C_V1_GPRS_MMI/Tools/MinGW/include/c++/3.3.1/bits/list.tcc **** 
  61:d:/MTK/MTK2503/MTK2503/11CW1418SP4_03_CORETEK03AE_11C_V1_GPRS_MMI/Tools/MinGW/include/c++/3.3.1/bits/list.tcc **** #ifndef __GLIBCPP_INTERNAL_LIST_TCC
  62:d:/MTK/MTK2503/MTK2503/11CW1418SP4_03_CORETEK03AE_11C_V1_GPRS_MMI/Tools/MinGW/include/c++/3.3.1/bits/list.tcc **** #define __GLIBCPP_INTERNAL_LIST_TCC
  63:d:/MTK/MTK2503/MTK2503/11CW1418SP4_03_CORETEK03AE_11C_V1_GPRS_MMI/Tools/MinGW/include/c++/3.3.1/bits/list.tcc **** 
  64:d:/MTK/MTK2503/MTK2503/11CW1418SP4_03_CORETEK03AE_11C_V1_GPRS_MMI/Tools/MinGW/include/c++/3.3.1/bits/list.tcc **** namespace std
  65:d:/MTK/MTK2503/MTK2503/11CW1418SP4_03_CORETEK03AE_11C_V1_GPRS_MMI/Tools/MinGW/include/c++/3.3.1/bits/list.tcc **** {
  66:d:/MTK/MTK2503/MTK2503/11CW1418SP4_03_CORETEK03AE_11C_V1_GPRS_MMI/Tools/MinGW/include/c++/3.3.1/bits/list.tcc ****   template<typename _Tp, typename _Alloc>
  67:d:/MTK/MTK2503/MTK2503/11CW1418SP4_03_CORETEK03AE_11C_V1_GPRS_MMI/Tools/MinGW/include/c++/3.3.1/bits/list.tcc ****     void
  68:d:/MTK/MTK2503/MTK2503/11CW1418SP4_03_CORETEK03AE_11C_V1_GPRS_MMI/Tools/MinGW/include/c++/3.3.1/bits/list.tcc ****     _List_base<_Tp,_Alloc>::
  69:d:/MTK/MTK2503/MTK2503/11CW1418SP4_03_CORETEK03AE_11C_V1_GPRS_MMI/Tools/MinGW/include/c++/3.3.1/bits/list.tcc ****     __clear()
  70:d:/MTK/MTK2503/MTK2503/11CW1418SP4_03_CORETEK03AE_11C_V1_GPRS_MMI/Tools/MinGW/include/c++/3.3.1/bits/list.tcc ****     {
 6040              	LM248:
 6041 0000 55       		pushl	%ebp
 6042 0001 89E5     		movl	%esp, %ebp
 6043 0003 83EC18   		subl	$24, %esp
  71:d:/MTK/MTK2503/MTK2503/11CW1418SP4_03_CORETEK03AE_11C_V1_GPRS_MMI/Tools/MinGW/include/c++/3.3.1/bits/list.tcc ****       typedef _List_node<_Tp>  _Node;
  72:d:/MTK/MTK2503/MTK2503/11CW1418SP4_03_CORETEK03AE_11C_V1_GPRS_MMI/Tools/MinGW/include/c++/3.3.1/bits/list.tcc ****       _Node* __cur = static_cast<_Node*>(_M_node->_M_next);
 6045              	LM249:
 6046              	LBB66:
 6047 0006 8B4508   		movl	8(%ebp), %eax
 6048 0009 8B00     		movl	(%eax), %eax
 6049 000b 8B00     		movl	(%eax), %eax
 6050 000d 8945FC   		movl	%eax, -4(%ebp)
  73:d:/MTK/MTK2503/MTK2503/11CW1418SP4_03_CORETEK03AE_11C_V1_GPRS_MMI/Tools/MinGW/include/c++/3.3.1/bits/list.tcc ****       while (__cur != _M_node)
 6052              	LM250:
 6053              	L228:
 6054 0010 8B5508   		movl	8(%ebp), %edx
 6055 0013 8B45FC   		movl	-4(%ebp), %eax
 6056 0016 3B02     		cmpl	(%edx), %eax
 6057 0018 7502     		jne	L230
 6058 001a EB30     		jmp	L229
 6059              	L230:
  74:d:/MTK/MTK2503/MTK2503/11CW1418SP4_03_CORETEK03AE_11C_V1_GPRS_MMI/Tools/MinGW/include/c++/3.3.1/bits/list.tcc ****       {
  75:d:/MTK/MTK2503/MTK2503/11CW1418SP4_03_CORETEK03AE_11C_V1_GPRS_MMI/Tools/MinGW/include/c++/3.3.1/bits/list.tcc ****         _Node* __tmp = __cur;
 6061              	LM251:
 6062              	LBB67:
 6063              	LBB68:
 6064 001c 8B45FC   		movl	-4(%ebp), %eax
 6065 001f 8945F8   		movl	%eax, -8(%ebp)
  76:d:/MTK/MTK2503/MTK2503/11CW1418SP4_03_CORETEK03AE_11C_V1_GPRS_MMI/Tools/MinGW/include/c++/3.3.1/bits/list.tcc ****         __cur = static_cast<_Node*>(__cur->_M_next);
 6067              	LM252:
GAS LISTING d:/MTK/MTK2503/MTK2503/11CW1418SP4_03_CORETEK03AE_11C_V1_GPRS_MMI/plutommi/Customer/ResGenerator/gcctmp/ccQHcaaa.s 			page 119


 6068 0022 8B45FC   		movl	-4(%ebp), %eax
 6069 0025 8B00     		movl	(%eax), %eax
 6070 0027 8945FC   		movl	%eax, -4(%ebp)
  77:d:/MTK/MTK2503/MTK2503/11CW1418SP4_03_CORETEK03AE_11C_V1_GPRS_MMI/Tools/MinGW/include/c++/3.3.1/bits/list.tcc ****         _Destroy(&__tmp->_M_data);
 6072              	LM253:
 6073 002a 8B45F8   		movl	-8(%ebp), %eax
 6074 002d 83C008   		addl	$8, %eax
 6075 0030 890424   		movl	%eax, (%esp)
 6076 0033 E8000000 		call	__ZSt8_DestroyIN10ThreadPool7JobDataEEvPT_
 6076      00
  78:d:/MTK/MTK2503/MTK2503/11CW1418SP4_03_CORETEK03AE_11C_V1_GPRS_MMI/Tools/MinGW/include/c++/3.3.1/bits/list.tcc ****         _M_put_node(__tmp);
 6078              	LM254:
 6079 0038 8B45F8   		movl	-8(%ebp), %eax
 6080 003b 89442404 		movl	%eax, 4(%esp)
 6081 003f 8B4508   		movl	8(%ebp), %eax
 6082 0042 890424   		movl	%eax, (%esp)
 6083 0045 E8000000 		call	__ZNSt16_List_alloc_baseIN10ThreadPool7JobDataESaIS1_ELb1EE11_M_put_nodeEPSt10_List_nodeIS1_E
 6083      00
 6084              	LBE68:
 6085              	LBE67:
 6086 004a EBC4     		jmp	L228
 6087              	L229:
  79:d:/MTK/MTK2503/MTK2503/11CW1418SP4_03_CORETEK03AE_11C_V1_GPRS_MMI/Tools/MinGW/include/c++/3.3.1/bits/list.tcc ****       }
  80:d:/MTK/MTK2503/MTK2503/11CW1418SP4_03_CORETEK03AE_11C_V1_GPRS_MMI/Tools/MinGW/include/c++/3.3.1/bits/list.tcc ****       _M_node->_M_next = _M_node;
 6089              	LM255:
 6090 004c 8B4508   		movl	8(%ebp), %eax
 6091 004f 8B10     		movl	(%eax), %edx
 6092 0051 8B4508   		movl	8(%ebp), %eax
 6093 0054 8B00     		movl	(%eax), %eax
 6094 0056 8902     		movl	%eax, (%edx)
  81:d:/MTK/MTK2503/MTK2503/11CW1418SP4_03_CORETEK03AE_11C_V1_GPRS_MMI/Tools/MinGW/include/c++/3.3.1/bits/list.tcc ****       _M_node->_M_prev = _M_node;
 6096              	LM256:
 6097 0058 8B4508   		movl	8(%ebp), %eax
 6098 005b 8B10     		movl	(%eax), %edx
 6099 005d 8B4508   		movl	8(%ebp), %eax
 6100 0060 8B00     		movl	(%eax), %eax
 6101 0062 894204   		movl	%eax, 4(%edx)
 6102 0065 C9       		leave
 6103 0066 C3       		ret
 6104              	LBE66:
 6111              	Lscope46:
 6113 0067 90       		.section	.text$_ZNSt14_List_iteratorIN10ThreadPool7JobDataERS1_PS1_EC1ERKS4_,"x"
 6114              		.linkonce discard
 6115              		.align 2
 6119              	.globl __ZNSt14_List_iteratorIN10ThreadPool7JobDataERS1_PS1_EC1ERKS4_
 6121              	__ZNSt14_List_iteratorIN10ThreadPool7JobDataERS1_PS1_EC1ERKS4_:
 6123              	Ltext17:
 6125              	LM257:
 6126 0000 55       		pushl	%ebp
 6127 0001 89E5     		movl	%esp, %ebp
 6128 0003 83EC08   		subl	$8, %esp
 6130              	LM258:
 6131              	LBB69:
 6132 0006 8B450C   		movl	12(%ebp), %eax
 6133 0009 8B00     		movl	(%eax), %eax
 6134 000b 89442404 		movl	%eax, 4(%esp)
 6135 000f 8B4508   		movl	8(%ebp), %eax
GAS LISTING d:/MTK/MTK2503/MTK2503/11CW1418SP4_03_CORETEK03AE_11C_V1_GPRS_MMI/plutommi/Customer/ResGenerator/gcctmp/ccQHcaaa.s 			page 120


 6136 0012 890424   		movl	%eax, (%esp)
 6137 0015 E8000000 		call	__ZNSt19_List_iterator_baseC2EPSt15_List_node_base
 6137      00
 6138 001a C9       		leave
 6139 001b C3       		ret
 6140              	LBE69:
 6141              	Lscope47:
 6143              		.section	.text$_ZNSt12_Vector_baseIN10ThreadPool10ThreadDataESaIS1_EEC2ERKS2_,"x"
 6144              		.linkonce discard
 6145              		.align 2
 6149              	.globl __ZNSt12_Vector_baseIN10ThreadPool10ThreadDataESaIS1_EEC2ERKS2_
 6151              	__ZNSt12_Vector_baseIN10ThreadPool10ThreadDataESaIS1_EEC2ERKS2_:
 6153              	Ltext18:
 6155              	LM259:
 6156 0000 55       		pushl	%ebp
 6157 0001 89E5     		movl	%esp, %ebp
 6158 0003 83EC08   		subl	$8, %esp
 6160              	LM260:
 6161              	LBB70:
 6162 0006 8B450C   		movl	12(%ebp), %eax
 6163 0009 89442404 		movl	%eax, 4(%esp)
 6164 000d 8B4508   		movl	8(%ebp), %eax
 6165 0010 890424   		movl	%eax, (%esp)
 6166 0013 E8000000 		call	__ZNSt18_Vector_alloc_baseIN10ThreadPool10ThreadDataESaIS1_ELb1EEC2ERKS2_
 6166      00
 6167 0018 C9       		leave
 6168 0019 C3       		ret
 6169              	LBE70:
 6170              	Lscope48:
 6172 001a 9090     		.section	.text$_ZNSt18_Vector_alloc_baseIN10ThreadPool10ThreadDataESaIS1_ELb1EEC2ERKS2_,"x"
 6173              		.linkonce discard
 6174              		.align 2
 6177              	.globl __ZNSt18_Vector_alloc_baseIN10ThreadPool10ThreadDataESaIS1_ELb1EEC2ERKS2_
 6179              	__ZNSt18_Vector_alloc_baseIN10ThreadPool10ThreadDataESaIS1_ELb1EEC2ERKS2_:
 6181              	LM261:
 6182 0000 55       		pushl	%ebp
 6183 0001 89E5     		movl	%esp, %ebp
 6185              	LM262:
 6186              	LBB71:
 6187 0003 8B4508   		movl	8(%ebp), %eax
 6188 0006 C7000000 		movl	$0, (%eax)
 6188      0000
 6189 000c 8B4508   		movl	8(%ebp), %eax
 6190 000f C7400400 		movl	$0, 4(%eax)
 6190      000000
 6191 0016 8B4508   		movl	8(%ebp), %eax
 6192 0019 C7400800 		movl	$0, 8(%eax)
 6192      000000
 6193 0020 5D       		popl	%ebp
 6194 0021 C3       		ret
 6195              	LBE71:
 6196              	Lscope49:
 6198 0022 9090     		.section	.text$_ZNSt12_Vector_baseIN10ThreadPool10ThreadDataESaIS1_EED2Ev,"x"
 6199              		.linkonce discard
 6200              		.align 2
 6203              	.globl __ZNSt12_Vector_baseIN10ThreadPool10ThreadDataESaIS1_EED2Ev
 6205              	__ZNSt12_Vector_baseIN10ThreadPool10ThreadDataESaIS1_EED2Ev:
GAS LISTING d:/MTK/MTK2503/MTK2503/11CW1418SP4_03_CORETEK03AE_11C_V1_GPRS_MMI/plutommi/Customer/ResGenerator/gcctmp/ccQHcaaa.s 			page 121


 6207              	LM263:
 6208 0000 55       		pushl	%ebp
 6209 0001 89E5     		movl	%esp, %ebp
 6210 0003 83EC18   		subl	$24, %esp
 6212              	LM264:
 6213              	LBB72:
 6214 0006 8B4D08   		movl	8(%ebp), %ecx
 6215 0009 8B4508   		movl	8(%ebp), %eax
 6216 000c 8B10     		movl	(%eax), %edx
 6217 000e 8B4108   		movl	8(%ecx), %eax
 6218 0011 29D0     		subl	%edx, %eax
 6219 0013 C1F802   		sarl	$2, %eax
 6220 0016 69C0ABAA 		imull	$-1431655765, %eax, %eax
 6220      AAAA
 6221 001c 89442408 		movl	%eax, 8(%esp)
 6222 0020 8B4508   		movl	8(%ebp), %eax
 6223 0023 8B00     		movl	(%eax), %eax
 6224 0025 89442404 		movl	%eax, 4(%esp)
 6225 0029 8B4508   		movl	8(%ebp), %eax
 6226 002c 890424   		movl	%eax, (%esp)
 6227 002f E8000000 		call	__ZNSt18_Vector_alloc_baseIN10ThreadPool10ThreadDataESaIS1_ELb1EE13_M_deallocateEPS1_j
 6227      00
 6228 0034 C9       		leave
 6229 0035 C3       		ret
 6230              	LBE72:
 6231              	Lscope50:
 6233 0036 9090     		.section	.text$_ZNSt18_Vector_alloc_baseIN10ThreadPool10ThreadDataESaIS1_ELb1EE13_M_deallocateEPS1
 6234              		.linkonce discard
 6235              		.align 2
 6240              	.globl __ZNSt18_Vector_alloc_baseIN10ThreadPool10ThreadDataESaIS1_ELb1EE13_M_deallocateEPS1_j
 6242              	__ZNSt18_Vector_alloc_baseIN10ThreadPool10ThreadDataESaIS1_ELb1EE13_M_deallocateEPS1_j:
 6244              	LM265:
 6245 0000 55       		pushl	%ebp
 6246 0001 89E5     		movl	%esp, %ebp
 6247 0003 83EC08   		subl	$8, %esp
 6249              	LM266:
 6250              	LBB73:
 6251 0006 8B4510   		movl	16(%ebp), %eax
 6252 0009 89442404 		movl	%eax, 4(%esp)
 6253 000d 8B450C   		movl	12(%ebp), %eax
 6254 0010 890424   		movl	%eax, (%esp)
 6255 0013 E8000000 		call	__ZNSt14__simple_allocIN10ThreadPool10ThreadDataESt24__default_alloc_templateILb1ELi0EEE10dea
 6255      00
 6256 0018 C9       		leave
 6257 0019 C3       		ret
 6258              	LBE73:
 6259              	Lscope51:
 6261 001a 9090     		.section	.text$_ZNSt14__simple_allocIN10ThreadPool10ThreadDataESt24__default_alloc_templateILb1ELi
 6262              		.linkonce discard
 6263              		.align 2
 6267              	.globl __ZNSt14__simple_allocIN10ThreadPool10ThreadDataESt24__default_alloc_templateILb1ELi0EEE10de
 6269              	__ZNSt14__simple_allocIN10ThreadPool10ThreadDataESt24__default_alloc_templateILb1ELi0EEE10deallocat
 6271              	Ltext19:
 6273              	LM267:
 6274 0000 55       		pushl	%ebp
 6275 0001 89E5     		movl	%esp, %ebp
 6276 0003 83EC08   		subl	$8, %esp
GAS LISTING d:/MTK/MTK2503/MTK2503/11CW1418SP4_03_CORETEK03AE_11C_V1_GPRS_MMI/plutommi/Customer/ResGenerator/gcctmp/ccQHcaaa.s 			page 122


 6278              	LM268:
 6279              	LBB74:
 6280 0006 837D0C00 		cmpl	$0, 12(%ebp)
 6281 000a 741B     		je	L238
 6282 000c 8B550C   		movl	12(%ebp), %edx
 6283 000f 89D0     		movl	%edx, %eax
 6284 0011 01C0     		addl	%eax, %eax
 6285 0013 01D0     		addl	%edx, %eax
 6286 0015 C1E002   		sall	$2, %eax
 6287 0018 89442404 		movl	%eax, 4(%esp)
 6288 001c 8B4508   		movl	8(%ebp), %eax
 6289 001f 890424   		movl	%eax, (%esp)
 6290 0022 E8000000 		call	__ZNSt24__default_alloc_templateILb1ELi0EE10deallocateEPvj
 6290      00
 6291              	L238:
 6292 0027 C9       		leave
 6293 0028 C3       		ret
 6294              	LBE74:
 6295              	Lscope52:
 6297 0029 909090   		.section	.text$_ZSt10_ConstructIN10ThreadPool10ThreadDataES1_EvPT_RKT0_,"x"
 6298              		.linkonce discard
 6299              		.align 2
 6303              	.globl __ZSt10_ConstructIN10ThreadPool10ThreadDataES1_EvPT_RKT0_
 6305              	__ZSt10_ConstructIN10ThreadPool10ThreadDataES1_EvPT_RKT0_:
 6307              	Ltext20:
 6309              	LM269:
 6310 0000 55       		pushl	%ebp
 6311 0001 89E5     		movl	%esp, %ebp
 6312 0003 83EC18   		subl	$24, %esp
 6314              	LM270:
 6315              	LBB75:
 6316 0006 8B4508   		movl	8(%ebp), %eax
 6317 0009 89442404 		movl	%eax, 4(%esp)
 6318 000d C704240C 		movl	$12, (%esp)
 6318      000000
 6319 0014 E8000000 		call	__ZnwjPv
 6319      00
 6320 0019 8945FC   		movl	%eax, -4(%ebp)
 6321 001c 837DFC00 		cmpl	$0, -4(%ebp)
 6322 0020 741C     		je	L240
 6323 0022 8B550C   		movl	12(%ebp), %edx
 6324 0025 8B02     		movl	(%edx), %eax
 6325 0027 8B4DFC   		movl	-4(%ebp), %ecx
 6326 002a 8901     		movl	%eax, (%ecx)
 6327 002c 8B4204   		movl	4(%edx), %eax
 6328 002f 8B4DFC   		movl	-4(%ebp), %ecx
 6329 0032 894104   		movl	%eax, 4(%ecx)
 6330 0035 8B4208   		movl	8(%edx), %eax
 6331 0038 8B55FC   		movl	-4(%ebp), %edx
 6332 003b 894208   		movl	%eax, 8(%edx)
 6333              	L243:
 6334              	L240:
 6335 003e C9       		leave
 6336 003f C3       		ret
 6337              	LBE75:
 6338              	Lscope53:
 6340              		.section	.text$_ZN9__gnu_cxx17__normal_iteratorIPN10ThreadPool10ThreadDataESt6vectorIS2_SaIS2_EEEC
GAS LISTING d:/MTK/MTK2503/MTK2503/11CW1418SP4_03_CORETEK03AE_11C_V1_GPRS_MMI/plutommi/Customer/ResGenerator/gcctmp/ccQHcaaa.s 			page 123


 6341              		.linkonce discard
 6342              		.align 2
 6346              	.globl __ZN9__gnu_cxx17__normal_iteratorIPN10ThreadPool10ThreadDataESt6vectorIS2_SaIS2_EEEC1ERKS3_
 6348              	__ZN9__gnu_cxx17__normal_iteratorIPN10ThreadPool10ThreadDataESt6vectorIS2_SaIS2_EEEC1ERKS3_:
 6350              	Ltext21:
 6352              	LM271:
 6353 0000 55       		pushl	%ebp
 6354 0001 89E5     		movl	%esp, %ebp
 6355 0003 83EC08   		subl	$8, %esp
 6357              	LM272:
 6358              	LBB76:
 6359 0006 8B4508   		movl	8(%ebp), %eax
 6360 0009 890424   		movl	%eax, (%esp)
 6361 000c E8000000 		call	__ZNSt8iteratorISt26random_access_iterator_tagN10ThreadPool10ThreadDataEiPS2_RS2_EC2Ev
 6361      00
 6362 0011 8B5508   		movl	8(%ebp), %edx
 6363 0014 8B450C   		movl	12(%ebp), %eax
 6364 0017 8B00     		movl	(%eax), %eax
 6365 0019 8902     		movl	%eax, (%edx)
 6366 001b C9       		leave
 6367 001c C3       		ret
 6368              	LBE76:
 6369              	Lscope54:
 6371 001d 909090   		.section	.text$_ZNK9__gnu_cxx17__normal_iteratorIPN10ThreadPool10ThreadDataESt6vectorIS2_SaIS2_EEE
 6372              		.linkonce discard
 6373              		.align 2
 6376              	.globl __ZNK9__gnu_cxx17__normal_iteratorIPN10ThreadPool10ThreadDataESt6vectorIS2_SaIS2_EEE4baseEv
 6378              	__ZNK9__gnu_cxx17__normal_iteratorIPN10ThreadPool10ThreadDataESt6vectorIS2_SaIS2_EEE4baseEv:
 6380              	LM273:
 6381 0000 55       		pushl	%ebp
 6382 0001 89E5     		movl	%esp, %ebp
 6384              	LM274:
 6385              	LBB77:
 6386 0003 8B4508   		movl	8(%ebp), %eax
 6387 0006 5D       		popl	%ebp
 6388 0007 C3       		ret
 6389              	LBE77:
 6390              	Lscope55:
 6392              		.section	.text$_ZNSt6vectorIN10ThreadPool10ThreadDataESaIS1_EE13_M_insert_auxEN9__gnu_cxx17__norma
 6393              		.linkonce discard
 6394              		.align 2
 6399              	.globl __ZNSt6vectorIN10ThreadPool10ThreadDataESaIS1_EE13_M_insert_auxEN9__gnu_cxx17__normal_iterat
 6401              	__ZNSt6vectorIN10ThreadPool10ThreadDataESaIS1_EE13_M_insert_auxEN9__gnu_cxx17__normal_iteratorIPS1_
 6403              	Ltext22:
   1:d:/MTK/MTK2503/MTK2503/11CW1418SP4_03_CORETEK03AE_11C_V1_GPRS_MMI/Tools/MinGW/include/c++/3.3.1/bits/vector.tcc **** // Vector implementation (out of line) -*- C++ -*-
   2:d:/MTK/MTK2503/MTK2503/11CW1418SP4_03_CORETEK03AE_11C_V1_GPRS_MMI/Tools/MinGW/include/c++/3.3.1/bits/vector.tcc **** 
   3:d:/MTK/MTK2503/MTK2503/11CW1418SP4_03_CORETEK03AE_11C_V1_GPRS_MMI/Tools/MinGW/include/c++/3.3.1/bits/vector.tcc **** // Copyright (C) 2001, 2002 Free Software Foundation, Inc.
   4:d:/MTK/MTK2503/MTK2503/11CW1418SP4_03_CORETEK03AE_11C_V1_GPRS_MMI/Tools/MinGW/include/c++/3.3.1/bits/vector.tcc **** //
   5:d:/MTK/MTK2503/MTK2503/11CW1418SP4_03_CORETEK03AE_11C_V1_GPRS_MMI/Tools/MinGW/include/c++/3.3.1/bits/vector.tcc **** // This file is part of the GNU ISO C++ Library.  This library is free
   6:d:/MTK/MTK2503/MTK2503/11CW1418SP4_03_CORETEK03AE_11C_V1_GPRS_MMI/Tools/MinGW/include/c++/3.3.1/bits/vector.tcc **** // software; you can redistribute it and/or modify it under the
   7:d:/MTK/MTK2503/MTK2503/11CW1418SP4_03_CORETEK03AE_11C_V1_GPRS_MMI/Tools/MinGW/include/c++/3.3.1/bits/vector.tcc **** // terms of the GNU General Public License as published by the
   8:d:/MTK/MTK2503/MTK2503/11CW1418SP4_03_CORETEK03AE_11C_V1_GPRS_MMI/Tools/MinGW/include/c++/3.3.1/bits/vector.tcc **** // Free Software Foundation; either version 2, or (at your option)
   9:d:/MTK/MTK2503/MTK2503/11CW1418SP4_03_CORETEK03AE_11C_V1_GPRS_MMI/Tools/MinGW/include/c++/3.3.1/bits/vector.tcc **** // any later version.
  10:d:/MTK/MTK2503/MTK2503/11CW1418SP4_03_CORETEK03AE_11C_V1_GPRS_MMI/Tools/MinGW/include/c++/3.3.1/bits/vector.tcc **** 
  11:d:/MTK/MTK2503/MTK2503/11CW1418SP4_03_CORETEK03AE_11C_V1_GPRS_MMI/Tools/MinGW/include/c++/3.3.1/bits/vector.tcc **** // This library is distributed in the hope that it will be useful,
  12:d:/MTK/MTK2503/MTK2503/11CW1418SP4_03_CORETEK03AE_11C_V1_GPRS_MMI/Tools/MinGW/include/c++/3.3.1/bits/vector.tcc **** // but WITHOUT ANY WARRANTY; without even the implied warranty of
  13:d:/MTK/MTK2503/MTK2503/11CW1418SP4_03_CORETEK03AE_11C_V1_GPRS_MMI/Tools/MinGW/include/c++/3.3.1/bits/vector.tcc **** // MERCHANTABILITY or FITNESS FOR A PARTICULAR PURPOSE.  See the
GAS LISTING d:/MTK/MTK2503/MTK2503/11CW1418SP4_03_CORETEK03AE_11C_V1_GPRS_MMI/plutommi/Customer/ResGenerator/gcctmp/ccQHcaaa.s 			page 124


  14:d:/MTK/MTK2503/MTK2503/11CW1418SP4_03_CORETEK03AE_11C_V1_GPRS_MMI/Tools/MinGW/include/c++/3.3.1/bits/vector.tcc **** // GNU General Public License for more details.
  15:d:/MTK/MTK2503/MTK2503/11CW1418SP4_03_CORETEK03AE_11C_V1_GPRS_MMI/Tools/MinGW/include/c++/3.3.1/bits/vector.tcc **** 
  16:d:/MTK/MTK2503/MTK2503/11CW1418SP4_03_CORETEK03AE_11C_V1_GPRS_MMI/Tools/MinGW/include/c++/3.3.1/bits/vector.tcc **** // You should have received a copy of the GNU General Public License along
  17:d:/MTK/MTK2503/MTK2503/11CW1418SP4_03_CORETEK03AE_11C_V1_GPRS_MMI/Tools/MinGW/include/c++/3.3.1/bits/vector.tcc **** // with this library; see the file COPYING.  If not, write to the Free
  18:d:/MTK/MTK2503/MTK2503/11CW1418SP4_03_CORETEK03AE_11C_V1_GPRS_MMI/Tools/MinGW/include/c++/3.3.1/bits/vector.tcc **** // Software Foundation, 59 Temple Place - Suite 330, Boston, MA 02111-1307,
  19:d:/MTK/MTK2503/MTK2503/11CW1418SP4_03_CORETEK03AE_11C_V1_GPRS_MMI/Tools/MinGW/include/c++/3.3.1/bits/vector.tcc **** // USA.
  20:d:/MTK/MTK2503/MTK2503/11CW1418SP4_03_CORETEK03AE_11C_V1_GPRS_MMI/Tools/MinGW/include/c++/3.3.1/bits/vector.tcc **** 
  21:d:/MTK/MTK2503/MTK2503/11CW1418SP4_03_CORETEK03AE_11C_V1_GPRS_MMI/Tools/MinGW/include/c++/3.3.1/bits/vector.tcc **** // As a special exception, you may use this file as part of a free software
  22:d:/MTK/MTK2503/MTK2503/11CW1418SP4_03_CORETEK03AE_11C_V1_GPRS_MMI/Tools/MinGW/include/c++/3.3.1/bits/vector.tcc **** // library without restriction.  Specifically, if other files instantiate
  23:d:/MTK/MTK2503/MTK2503/11CW1418SP4_03_CORETEK03AE_11C_V1_GPRS_MMI/Tools/MinGW/include/c++/3.3.1/bits/vector.tcc **** // templates or use macros or inline functions from this file, or you compile
  24:d:/MTK/MTK2503/MTK2503/11CW1418SP4_03_CORETEK03AE_11C_V1_GPRS_MMI/Tools/MinGW/include/c++/3.3.1/bits/vector.tcc **** // this file and link it with other files to produce an executable, this
  25:d:/MTK/MTK2503/MTK2503/11CW1418SP4_03_CORETEK03AE_11C_V1_GPRS_MMI/Tools/MinGW/include/c++/3.3.1/bits/vector.tcc **** // file does not by itself cause the resulting executable to be covered by
  26:d:/MTK/MTK2503/MTK2503/11CW1418SP4_03_CORETEK03AE_11C_V1_GPRS_MMI/Tools/MinGW/include/c++/3.3.1/bits/vector.tcc **** // the GNU General Public License.  This exception does not however
  27:d:/MTK/MTK2503/MTK2503/11CW1418SP4_03_CORETEK03AE_11C_V1_GPRS_MMI/Tools/MinGW/include/c++/3.3.1/bits/vector.tcc **** // invalidate any other reasons why the executable file might be covered by
  28:d:/MTK/MTK2503/MTK2503/11CW1418SP4_03_CORETEK03AE_11C_V1_GPRS_MMI/Tools/MinGW/include/c++/3.3.1/bits/vector.tcc **** // the GNU General Public License.
  29:d:/MTK/MTK2503/MTK2503/11CW1418SP4_03_CORETEK03AE_11C_V1_GPRS_MMI/Tools/MinGW/include/c++/3.3.1/bits/vector.tcc **** 
  30:d:/MTK/MTK2503/MTK2503/11CW1418SP4_03_CORETEK03AE_11C_V1_GPRS_MMI/Tools/MinGW/include/c++/3.3.1/bits/vector.tcc **** /*
  31:d:/MTK/MTK2503/MTK2503/11CW1418SP4_03_CORETEK03AE_11C_V1_GPRS_MMI/Tools/MinGW/include/c++/3.3.1/bits/vector.tcc ****  *
  32:d:/MTK/MTK2503/MTK2503/11CW1418SP4_03_CORETEK03AE_11C_V1_GPRS_MMI/Tools/MinGW/include/c++/3.3.1/bits/vector.tcc ****  * Copyright (c) 1994
  33:d:/MTK/MTK2503/MTK2503/11CW1418SP4_03_CORETEK03AE_11C_V1_GPRS_MMI/Tools/MinGW/include/c++/3.3.1/bits/vector.tcc ****  * Hewlett-Packard Company
  34:d:/MTK/MTK2503/MTK2503/11CW1418SP4_03_CORETEK03AE_11C_V1_GPRS_MMI/Tools/MinGW/include/c++/3.3.1/bits/vector.tcc ****  *
  35:d:/MTK/MTK2503/MTK2503/11CW1418SP4_03_CORETEK03AE_11C_V1_GPRS_MMI/Tools/MinGW/include/c++/3.3.1/bits/vector.tcc ****  * Permission to use, copy, modify, distribute and sell this software
  36:d:/MTK/MTK2503/MTK2503/11CW1418SP4_03_CORETEK03AE_11C_V1_GPRS_MMI/Tools/MinGW/include/c++/3.3.1/bits/vector.tcc ****  * and its documentation for any purpose is hereby granted without fee,
  37:d:/MTK/MTK2503/MTK2503/11CW1418SP4_03_CORETEK03AE_11C_V1_GPRS_MMI/Tools/MinGW/include/c++/3.3.1/bits/vector.tcc ****  * provided that the above copyright notice appear in all copies and
  38:d:/MTK/MTK2503/MTK2503/11CW1418SP4_03_CORETEK03AE_11C_V1_GPRS_MMI/Tools/MinGW/include/c++/3.3.1/bits/vector.tcc ****  * that both that copyright notice and this permission notice appear
  39:d:/MTK/MTK2503/MTK2503/11CW1418SP4_03_CORETEK03AE_11C_V1_GPRS_MMI/Tools/MinGW/include/c++/3.3.1/bits/vector.tcc ****  * in supporting documentation.  Hewlett-Packard Company makes no
  40:d:/MTK/MTK2503/MTK2503/11CW1418SP4_03_CORETEK03AE_11C_V1_GPRS_MMI/Tools/MinGW/include/c++/3.3.1/bits/vector.tcc ****  * representations about the suitability of this software for any
  41:d:/MTK/MTK2503/MTK2503/11CW1418SP4_03_CORETEK03AE_11C_V1_GPRS_MMI/Tools/MinGW/include/c++/3.3.1/bits/vector.tcc ****  * purpose.  It is provided "as is" without express or implied warranty.
  42:d:/MTK/MTK2503/MTK2503/11CW1418SP4_03_CORETEK03AE_11C_V1_GPRS_MMI/Tools/MinGW/include/c++/3.3.1/bits/vector.tcc ****  *
  43:d:/MTK/MTK2503/MTK2503/11CW1418SP4_03_CORETEK03AE_11C_V1_GPRS_MMI/Tools/MinGW/include/c++/3.3.1/bits/vector.tcc ****  *
  44:d:/MTK/MTK2503/MTK2503/11CW1418SP4_03_CORETEK03AE_11C_V1_GPRS_MMI/Tools/MinGW/include/c++/3.3.1/bits/vector.tcc ****  * Copyright (c) 1996
  45:d:/MTK/MTK2503/MTK2503/11CW1418SP4_03_CORETEK03AE_11C_V1_GPRS_MMI/Tools/MinGW/include/c++/3.3.1/bits/vector.tcc ****  * Silicon Graphics Computer Systems, Inc.
  46:d:/MTK/MTK2503/MTK2503/11CW1418SP4_03_CORETEK03AE_11C_V1_GPRS_MMI/Tools/MinGW/include/c++/3.3.1/bits/vector.tcc ****  *
  47:d:/MTK/MTK2503/MTK2503/11CW1418SP4_03_CORETEK03AE_11C_V1_GPRS_MMI/Tools/MinGW/include/c++/3.3.1/bits/vector.tcc ****  * Permission to use, copy, modify, distribute and sell this software
  48:d:/MTK/MTK2503/MTK2503/11CW1418SP4_03_CORETEK03AE_11C_V1_GPRS_MMI/Tools/MinGW/include/c++/3.3.1/bits/vector.tcc ****  * and its documentation for any purpose is hereby granted without fee,
  49:d:/MTK/MTK2503/MTK2503/11CW1418SP4_03_CORETEK03AE_11C_V1_GPRS_MMI/Tools/MinGW/include/c++/3.3.1/bits/vector.tcc ****  * provided that the above copyright notice appear in all copies and
  50:d:/MTK/MTK2503/MTK2503/11CW1418SP4_03_CORETEK03AE_11C_V1_GPRS_MMI/Tools/MinGW/include/c++/3.3.1/bits/vector.tcc ****  * that both that copyright notice and this permission notice appear
  51:d:/MTK/MTK2503/MTK2503/11CW1418SP4_03_CORETEK03AE_11C_V1_GPRS_MMI/Tools/MinGW/include/c++/3.3.1/bits/vector.tcc ****  * in supporting documentation.  Silicon Graphics makes no
  52:d:/MTK/MTK2503/MTK2503/11CW1418SP4_03_CORETEK03AE_11C_V1_GPRS_MMI/Tools/MinGW/include/c++/3.3.1/bits/vector.tcc ****  * representations about the suitability of this  software for any
  53:d:/MTK/MTK2503/MTK2503/11CW1418SP4_03_CORETEK03AE_11C_V1_GPRS_MMI/Tools/MinGW/include/c++/3.3.1/bits/vector.tcc ****  * purpose.  It is provided "as is" without express or implied warranty.
  54:d:/MTK/MTK2503/MTK2503/11CW1418SP4_03_CORETEK03AE_11C_V1_GPRS_MMI/Tools/MinGW/include/c++/3.3.1/bits/vector.tcc ****  */
  55:d:/MTK/MTK2503/MTK2503/11CW1418SP4_03_CORETEK03AE_11C_V1_GPRS_MMI/Tools/MinGW/include/c++/3.3.1/bits/vector.tcc **** 
  56:d:/MTK/MTK2503/MTK2503/11CW1418SP4_03_CORETEK03AE_11C_V1_GPRS_MMI/Tools/MinGW/include/c++/3.3.1/bits/vector.tcc **** /** @file vector.tcc
  57:d:/MTK/MTK2503/MTK2503/11CW1418SP4_03_CORETEK03AE_11C_V1_GPRS_MMI/Tools/MinGW/include/c++/3.3.1/bits/vector.tcc ****  *  This is an internal header file, included by other library headers.
  58:d:/MTK/MTK2503/MTK2503/11CW1418SP4_03_CORETEK03AE_11C_V1_GPRS_MMI/Tools/MinGW/include/c++/3.3.1/bits/vector.tcc ****  *  You should not attempt to use it directly.
  59:d:/MTK/MTK2503/MTK2503/11CW1418SP4_03_CORETEK03AE_11C_V1_GPRS_MMI/Tools/MinGW/include/c++/3.3.1/bits/vector.tcc ****  */
  60:d:/MTK/MTK2503/MTK2503/11CW1418SP4_03_CORETEK03AE_11C_V1_GPRS_MMI/Tools/MinGW/include/c++/3.3.1/bits/vector.tcc **** 
  61:d:/MTK/MTK2503/MTK2503/11CW1418SP4_03_CORETEK03AE_11C_V1_GPRS_MMI/Tools/MinGW/include/c++/3.3.1/bits/vector.tcc **** #ifndef __GLIBCPP_INTERNAL_VECTOR_TCC
  62:d:/MTK/MTK2503/MTK2503/11CW1418SP4_03_CORETEK03AE_11C_V1_GPRS_MMI/Tools/MinGW/include/c++/3.3.1/bits/vector.tcc **** #define __GLIBCPP_INTERNAL_VECTOR_TCC
  63:d:/MTK/MTK2503/MTK2503/11CW1418SP4_03_CORETEK03AE_11C_V1_GPRS_MMI/Tools/MinGW/include/c++/3.3.1/bits/vector.tcc **** 
  64:d:/MTK/MTK2503/MTK2503/11CW1418SP4_03_CORETEK03AE_11C_V1_GPRS_MMI/Tools/MinGW/include/c++/3.3.1/bits/vector.tcc **** namespace std
  65:d:/MTK/MTK2503/MTK2503/11CW1418SP4_03_CORETEK03AE_11C_V1_GPRS_MMI/Tools/MinGW/include/c++/3.3.1/bits/vector.tcc **** {
  66:d:/MTK/MTK2503/MTK2503/11CW1418SP4_03_CORETEK03AE_11C_V1_GPRS_MMI/Tools/MinGW/include/c++/3.3.1/bits/vector.tcc ****   template<typename _Tp, typename _Alloc>
  67:d:/MTK/MTK2503/MTK2503/11CW1418SP4_03_CORETEK03AE_11C_V1_GPRS_MMI/Tools/MinGW/include/c++/3.3.1/bits/vector.tcc ****     void
  68:d:/MTK/MTK2503/MTK2503/11CW1418SP4_03_CORETEK03AE_11C_V1_GPRS_MMI/Tools/MinGW/include/c++/3.3.1/bits/vector.tcc ****     vector<_Tp,_Alloc>::
  69:d:/MTK/MTK2503/MTK2503/11CW1418SP4_03_CORETEK03AE_11C_V1_GPRS_MMI/Tools/MinGW/include/c++/3.3.1/bits/vector.tcc ****     reserve(size_type __n)
  70:d:/MTK/MTK2503/MTK2503/11CW1418SP4_03_CORETEK03AE_11C_V1_GPRS_MMI/Tools/MinGW/include/c++/3.3.1/bits/vector.tcc ****     {
GAS LISTING d:/MTK/MTK2503/MTK2503/11CW1418SP4_03_CORETEK03AE_11C_V1_GPRS_MMI/plutommi/Customer/ResGenerator/gcctmp/ccQHcaaa.s 			page 125


  71:d:/MTK/MTK2503/MTK2503/11CW1418SP4_03_CORETEK03AE_11C_V1_GPRS_MMI/Tools/MinGW/include/c++/3.3.1/bits/vector.tcc ****       if (__n > this->max_size())
  72:d:/MTK/MTK2503/MTK2503/11CW1418SP4_03_CORETEK03AE_11C_V1_GPRS_MMI/Tools/MinGW/include/c++/3.3.1/bits/vector.tcc **** 	__throw_length_error("vector::reserve");
  73:d:/MTK/MTK2503/MTK2503/11CW1418SP4_03_CORETEK03AE_11C_V1_GPRS_MMI/Tools/MinGW/include/c++/3.3.1/bits/vector.tcc ****       if (this->capacity() < __n)
  74:d:/MTK/MTK2503/MTK2503/11CW1418SP4_03_CORETEK03AE_11C_V1_GPRS_MMI/Tools/MinGW/include/c++/3.3.1/bits/vector.tcc **** 	{
  75:d:/MTK/MTK2503/MTK2503/11CW1418SP4_03_CORETEK03AE_11C_V1_GPRS_MMI/Tools/MinGW/include/c++/3.3.1/bits/vector.tcc **** 	  const size_type __old_size = size();
  76:d:/MTK/MTK2503/MTK2503/11CW1418SP4_03_CORETEK03AE_11C_V1_GPRS_MMI/Tools/MinGW/include/c++/3.3.1/bits/vector.tcc **** 	  pointer __tmp = _M_allocate_and_copy(__n, _M_start, _M_finish);
  77:d:/MTK/MTK2503/MTK2503/11CW1418SP4_03_CORETEK03AE_11C_V1_GPRS_MMI/Tools/MinGW/include/c++/3.3.1/bits/vector.tcc **** 	  _Destroy(_M_start, _M_finish);
  78:d:/MTK/MTK2503/MTK2503/11CW1418SP4_03_CORETEK03AE_11C_V1_GPRS_MMI/Tools/MinGW/include/c++/3.3.1/bits/vector.tcc **** 	  _M_deallocate(_M_start, _M_end_of_storage - _M_start);
  79:d:/MTK/MTK2503/MTK2503/11CW1418SP4_03_CORETEK03AE_11C_V1_GPRS_MMI/Tools/MinGW/include/c++/3.3.1/bits/vector.tcc **** 	  _M_start = __tmp;
  80:d:/MTK/MTK2503/MTK2503/11CW1418SP4_03_CORETEK03AE_11C_V1_GPRS_MMI/Tools/MinGW/include/c++/3.3.1/bits/vector.tcc **** 	  _M_finish = __tmp + __old_size;
  81:d:/MTK/MTK2503/MTK2503/11CW1418SP4_03_CORETEK03AE_11C_V1_GPRS_MMI/Tools/MinGW/include/c++/3.3.1/bits/vector.tcc **** 	  _M_end_of_storage = _M_start + __n;
  82:d:/MTK/MTK2503/MTK2503/11CW1418SP4_03_CORETEK03AE_11C_V1_GPRS_MMI/Tools/MinGW/include/c++/3.3.1/bits/vector.tcc **** 	}
  83:d:/MTK/MTK2503/MTK2503/11CW1418SP4_03_CORETEK03AE_11C_V1_GPRS_MMI/Tools/MinGW/include/c++/3.3.1/bits/vector.tcc ****     }
  84:d:/MTK/MTK2503/MTK2503/11CW1418SP4_03_CORETEK03AE_11C_V1_GPRS_MMI/Tools/MinGW/include/c++/3.3.1/bits/vector.tcc ****   
  85:d:/MTK/MTK2503/MTK2503/11CW1418SP4_03_CORETEK03AE_11C_V1_GPRS_MMI/Tools/MinGW/include/c++/3.3.1/bits/vector.tcc ****   template<typename _Tp, typename _Alloc>
  86:d:/MTK/MTK2503/MTK2503/11CW1418SP4_03_CORETEK03AE_11C_V1_GPRS_MMI/Tools/MinGW/include/c++/3.3.1/bits/vector.tcc ****     typename vector<_Tp,_Alloc>::iterator
  87:d:/MTK/MTK2503/MTK2503/11CW1418SP4_03_CORETEK03AE_11C_V1_GPRS_MMI/Tools/MinGW/include/c++/3.3.1/bits/vector.tcc ****     vector<_Tp,_Alloc>::
  88:d:/MTK/MTK2503/MTK2503/11CW1418SP4_03_CORETEK03AE_11C_V1_GPRS_MMI/Tools/MinGW/include/c++/3.3.1/bits/vector.tcc ****     insert(iterator __position, const value_type& __x)
  89:d:/MTK/MTK2503/MTK2503/11CW1418SP4_03_CORETEK03AE_11C_V1_GPRS_MMI/Tools/MinGW/include/c++/3.3.1/bits/vector.tcc ****     {
  90:d:/MTK/MTK2503/MTK2503/11CW1418SP4_03_CORETEK03AE_11C_V1_GPRS_MMI/Tools/MinGW/include/c++/3.3.1/bits/vector.tcc ****       size_type __n = __position - begin();
  91:d:/MTK/MTK2503/MTK2503/11CW1418SP4_03_CORETEK03AE_11C_V1_GPRS_MMI/Tools/MinGW/include/c++/3.3.1/bits/vector.tcc ****       if (_M_finish != _M_end_of_storage && __position == end())
  92:d:/MTK/MTK2503/MTK2503/11CW1418SP4_03_CORETEK03AE_11C_V1_GPRS_MMI/Tools/MinGW/include/c++/3.3.1/bits/vector.tcc ****       {
  93:d:/MTK/MTK2503/MTK2503/11CW1418SP4_03_CORETEK03AE_11C_V1_GPRS_MMI/Tools/MinGW/include/c++/3.3.1/bits/vector.tcc ****         _Construct(_M_finish, __x);
  94:d:/MTK/MTK2503/MTK2503/11CW1418SP4_03_CORETEK03AE_11C_V1_GPRS_MMI/Tools/MinGW/include/c++/3.3.1/bits/vector.tcc ****         ++_M_finish;
  95:d:/MTK/MTK2503/MTK2503/11CW1418SP4_03_CORETEK03AE_11C_V1_GPRS_MMI/Tools/MinGW/include/c++/3.3.1/bits/vector.tcc ****       }
  96:d:/MTK/MTK2503/MTK2503/11CW1418SP4_03_CORETEK03AE_11C_V1_GPRS_MMI/Tools/MinGW/include/c++/3.3.1/bits/vector.tcc ****       else
  97:d:/MTK/MTK2503/MTK2503/11CW1418SP4_03_CORETEK03AE_11C_V1_GPRS_MMI/Tools/MinGW/include/c++/3.3.1/bits/vector.tcc ****         _M_insert_aux(__position, __x);
  98:d:/MTK/MTK2503/MTK2503/11CW1418SP4_03_CORETEK03AE_11C_V1_GPRS_MMI/Tools/MinGW/include/c++/3.3.1/bits/vector.tcc ****       return begin() + __n;
  99:d:/MTK/MTK2503/MTK2503/11CW1418SP4_03_CORETEK03AE_11C_V1_GPRS_MMI/Tools/MinGW/include/c++/3.3.1/bits/vector.tcc ****     }
 100:d:/MTK/MTK2503/MTK2503/11CW1418SP4_03_CORETEK03AE_11C_V1_GPRS_MMI/Tools/MinGW/include/c++/3.3.1/bits/vector.tcc ****   
 101:d:/MTK/MTK2503/MTK2503/11CW1418SP4_03_CORETEK03AE_11C_V1_GPRS_MMI/Tools/MinGW/include/c++/3.3.1/bits/vector.tcc ****   template<typename _Tp, typename _Alloc>
 102:d:/MTK/MTK2503/MTK2503/11CW1418SP4_03_CORETEK03AE_11C_V1_GPRS_MMI/Tools/MinGW/include/c++/3.3.1/bits/vector.tcc ****     typename vector<_Tp,_Alloc>::iterator
 103:d:/MTK/MTK2503/MTK2503/11CW1418SP4_03_CORETEK03AE_11C_V1_GPRS_MMI/Tools/MinGW/include/c++/3.3.1/bits/vector.tcc ****     vector<_Tp,_Alloc>::
 104:d:/MTK/MTK2503/MTK2503/11CW1418SP4_03_CORETEK03AE_11C_V1_GPRS_MMI/Tools/MinGW/include/c++/3.3.1/bits/vector.tcc ****     erase(iterator __position)
 105:d:/MTK/MTK2503/MTK2503/11CW1418SP4_03_CORETEK03AE_11C_V1_GPRS_MMI/Tools/MinGW/include/c++/3.3.1/bits/vector.tcc ****     {
 106:d:/MTK/MTK2503/MTK2503/11CW1418SP4_03_CORETEK03AE_11C_V1_GPRS_MMI/Tools/MinGW/include/c++/3.3.1/bits/vector.tcc ****       if (__position + 1 != end())
 107:d:/MTK/MTK2503/MTK2503/11CW1418SP4_03_CORETEK03AE_11C_V1_GPRS_MMI/Tools/MinGW/include/c++/3.3.1/bits/vector.tcc ****         copy(__position + 1, end(), __position);
 108:d:/MTK/MTK2503/MTK2503/11CW1418SP4_03_CORETEK03AE_11C_V1_GPRS_MMI/Tools/MinGW/include/c++/3.3.1/bits/vector.tcc ****       --_M_finish;
 109:d:/MTK/MTK2503/MTK2503/11CW1418SP4_03_CORETEK03AE_11C_V1_GPRS_MMI/Tools/MinGW/include/c++/3.3.1/bits/vector.tcc ****       _Destroy(_M_finish);
 110:d:/MTK/MTK2503/MTK2503/11CW1418SP4_03_CORETEK03AE_11C_V1_GPRS_MMI/Tools/MinGW/include/c++/3.3.1/bits/vector.tcc ****       return __position;
 111:d:/MTK/MTK2503/MTK2503/11CW1418SP4_03_CORETEK03AE_11C_V1_GPRS_MMI/Tools/MinGW/include/c++/3.3.1/bits/vector.tcc ****     }
 112:d:/MTK/MTK2503/MTK2503/11CW1418SP4_03_CORETEK03AE_11C_V1_GPRS_MMI/Tools/MinGW/include/c++/3.3.1/bits/vector.tcc ****   
 113:d:/MTK/MTK2503/MTK2503/11CW1418SP4_03_CORETEK03AE_11C_V1_GPRS_MMI/Tools/MinGW/include/c++/3.3.1/bits/vector.tcc ****   template<typename _Tp, typename _Alloc>
 114:d:/MTK/MTK2503/MTK2503/11CW1418SP4_03_CORETEK03AE_11C_V1_GPRS_MMI/Tools/MinGW/include/c++/3.3.1/bits/vector.tcc ****     typename vector<_Tp,_Alloc>::iterator
 115:d:/MTK/MTK2503/MTK2503/11CW1418SP4_03_CORETEK03AE_11C_V1_GPRS_MMI/Tools/MinGW/include/c++/3.3.1/bits/vector.tcc ****     vector<_Tp,_Alloc>::
 116:d:/MTK/MTK2503/MTK2503/11CW1418SP4_03_CORETEK03AE_11C_V1_GPRS_MMI/Tools/MinGW/include/c++/3.3.1/bits/vector.tcc ****     erase(iterator __first, iterator __last)
 117:d:/MTK/MTK2503/MTK2503/11CW1418SP4_03_CORETEK03AE_11C_V1_GPRS_MMI/Tools/MinGW/include/c++/3.3.1/bits/vector.tcc ****     {
 118:d:/MTK/MTK2503/MTK2503/11CW1418SP4_03_CORETEK03AE_11C_V1_GPRS_MMI/Tools/MinGW/include/c++/3.3.1/bits/vector.tcc ****       iterator __i(copy(__last, end(), __first));
 119:d:/MTK/MTK2503/MTK2503/11CW1418SP4_03_CORETEK03AE_11C_V1_GPRS_MMI/Tools/MinGW/include/c++/3.3.1/bits/vector.tcc ****       _Destroy(__i, end());
 120:d:/MTK/MTK2503/MTK2503/11CW1418SP4_03_CORETEK03AE_11C_V1_GPRS_MMI/Tools/MinGW/include/c++/3.3.1/bits/vector.tcc ****       _M_finish = _M_finish - (__last - __first);
 121:d:/MTK/MTK2503/MTK2503/11CW1418SP4_03_CORETEK03AE_11C_V1_GPRS_MMI/Tools/MinGW/include/c++/3.3.1/bits/vector.tcc ****       return __first;
 122:d:/MTK/MTK2503/MTK2503/11CW1418SP4_03_CORETEK03AE_11C_V1_GPRS_MMI/Tools/MinGW/include/c++/3.3.1/bits/vector.tcc ****     }
 123:d:/MTK/MTK2503/MTK2503/11CW1418SP4_03_CORETEK03AE_11C_V1_GPRS_MMI/Tools/MinGW/include/c++/3.3.1/bits/vector.tcc ****   
 124:d:/MTK/MTK2503/MTK2503/11CW1418SP4_03_CORETEK03AE_11C_V1_GPRS_MMI/Tools/MinGW/include/c++/3.3.1/bits/vector.tcc ****   template<typename _Tp, typename _Alloc>
 125:d:/MTK/MTK2503/MTK2503/11CW1418SP4_03_CORETEK03AE_11C_V1_GPRS_MMI/Tools/MinGW/include/c++/3.3.1/bits/vector.tcc ****     vector<_Tp,_Alloc>&
 126:d:/MTK/MTK2503/MTK2503/11CW1418SP4_03_CORETEK03AE_11C_V1_GPRS_MMI/Tools/MinGW/include/c++/3.3.1/bits/vector.tcc ****     vector<_Tp,_Alloc>::
 127:d:/MTK/MTK2503/MTK2503/11CW1418SP4_03_CORETEK03AE_11C_V1_GPRS_MMI/Tools/MinGW/include/c++/3.3.1/bits/vector.tcc ****     operator=(const vector<_Tp,_Alloc>& __x)
GAS LISTING d:/MTK/MTK2503/MTK2503/11CW1418SP4_03_CORETEK03AE_11C_V1_GPRS_MMI/plutommi/Customer/ResGenerator/gcctmp/ccQHcaaa.s 			page 126


 128:d:/MTK/MTK2503/MTK2503/11CW1418SP4_03_CORETEK03AE_11C_V1_GPRS_MMI/Tools/MinGW/include/c++/3.3.1/bits/vector.tcc ****     {
 129:d:/MTK/MTK2503/MTK2503/11CW1418SP4_03_CORETEK03AE_11C_V1_GPRS_MMI/Tools/MinGW/include/c++/3.3.1/bits/vector.tcc ****       if (&__x != this)
 130:d:/MTK/MTK2503/MTK2503/11CW1418SP4_03_CORETEK03AE_11C_V1_GPRS_MMI/Tools/MinGW/include/c++/3.3.1/bits/vector.tcc ****       {
 131:d:/MTK/MTK2503/MTK2503/11CW1418SP4_03_CORETEK03AE_11C_V1_GPRS_MMI/Tools/MinGW/include/c++/3.3.1/bits/vector.tcc ****         const size_type __xlen = __x.size();
 132:d:/MTK/MTK2503/MTK2503/11CW1418SP4_03_CORETEK03AE_11C_V1_GPRS_MMI/Tools/MinGW/include/c++/3.3.1/bits/vector.tcc ****         if (__xlen > capacity())
 133:d:/MTK/MTK2503/MTK2503/11CW1418SP4_03_CORETEK03AE_11C_V1_GPRS_MMI/Tools/MinGW/include/c++/3.3.1/bits/vector.tcc ****         {
 134:d:/MTK/MTK2503/MTK2503/11CW1418SP4_03_CORETEK03AE_11C_V1_GPRS_MMI/Tools/MinGW/include/c++/3.3.1/bits/vector.tcc ****           pointer __tmp = _M_allocate_and_copy(__xlen, __x.begin(), __x.end());
 135:d:/MTK/MTK2503/MTK2503/11CW1418SP4_03_CORETEK03AE_11C_V1_GPRS_MMI/Tools/MinGW/include/c++/3.3.1/bits/vector.tcc ****           _Destroy(_M_start, _M_finish);
 136:d:/MTK/MTK2503/MTK2503/11CW1418SP4_03_CORETEK03AE_11C_V1_GPRS_MMI/Tools/MinGW/include/c++/3.3.1/bits/vector.tcc ****           _M_deallocate(_M_start, _M_end_of_storage - _M_start);
 137:d:/MTK/MTK2503/MTK2503/11CW1418SP4_03_CORETEK03AE_11C_V1_GPRS_MMI/Tools/MinGW/include/c++/3.3.1/bits/vector.tcc ****           _M_start = __tmp;
 138:d:/MTK/MTK2503/MTK2503/11CW1418SP4_03_CORETEK03AE_11C_V1_GPRS_MMI/Tools/MinGW/include/c++/3.3.1/bits/vector.tcc ****           _M_end_of_storage = _M_start + __xlen;
 139:d:/MTK/MTK2503/MTK2503/11CW1418SP4_03_CORETEK03AE_11C_V1_GPRS_MMI/Tools/MinGW/include/c++/3.3.1/bits/vector.tcc ****         }
 140:d:/MTK/MTK2503/MTK2503/11CW1418SP4_03_CORETEK03AE_11C_V1_GPRS_MMI/Tools/MinGW/include/c++/3.3.1/bits/vector.tcc ****         else if (size() >= __xlen)
 141:d:/MTK/MTK2503/MTK2503/11CW1418SP4_03_CORETEK03AE_11C_V1_GPRS_MMI/Tools/MinGW/include/c++/3.3.1/bits/vector.tcc ****         {
 142:d:/MTK/MTK2503/MTK2503/11CW1418SP4_03_CORETEK03AE_11C_V1_GPRS_MMI/Tools/MinGW/include/c++/3.3.1/bits/vector.tcc ****           iterator __i(copy(__x.begin(), __x.end(), begin()));
 143:d:/MTK/MTK2503/MTK2503/11CW1418SP4_03_CORETEK03AE_11C_V1_GPRS_MMI/Tools/MinGW/include/c++/3.3.1/bits/vector.tcc ****           _Destroy(__i, end());
 144:d:/MTK/MTK2503/MTK2503/11CW1418SP4_03_CORETEK03AE_11C_V1_GPRS_MMI/Tools/MinGW/include/c++/3.3.1/bits/vector.tcc ****         }
 145:d:/MTK/MTK2503/MTK2503/11CW1418SP4_03_CORETEK03AE_11C_V1_GPRS_MMI/Tools/MinGW/include/c++/3.3.1/bits/vector.tcc ****         else
 146:d:/MTK/MTK2503/MTK2503/11CW1418SP4_03_CORETEK03AE_11C_V1_GPRS_MMI/Tools/MinGW/include/c++/3.3.1/bits/vector.tcc ****         {
 147:d:/MTK/MTK2503/MTK2503/11CW1418SP4_03_CORETEK03AE_11C_V1_GPRS_MMI/Tools/MinGW/include/c++/3.3.1/bits/vector.tcc ****           copy(__x.begin(), __x.begin() + size(), _M_start);
 148:d:/MTK/MTK2503/MTK2503/11CW1418SP4_03_CORETEK03AE_11C_V1_GPRS_MMI/Tools/MinGW/include/c++/3.3.1/bits/vector.tcc ****           uninitialized_copy(__x.begin() + size(), __x.end(), _M_finish);
 149:d:/MTK/MTK2503/MTK2503/11CW1418SP4_03_CORETEK03AE_11C_V1_GPRS_MMI/Tools/MinGW/include/c++/3.3.1/bits/vector.tcc ****         }
 150:d:/MTK/MTK2503/MTK2503/11CW1418SP4_03_CORETEK03AE_11C_V1_GPRS_MMI/Tools/MinGW/include/c++/3.3.1/bits/vector.tcc ****         _M_finish = _M_start + __xlen;
 151:d:/MTK/MTK2503/MTK2503/11CW1418SP4_03_CORETEK03AE_11C_V1_GPRS_MMI/Tools/MinGW/include/c++/3.3.1/bits/vector.tcc ****       }
 152:d:/MTK/MTK2503/MTK2503/11CW1418SP4_03_CORETEK03AE_11C_V1_GPRS_MMI/Tools/MinGW/include/c++/3.3.1/bits/vector.tcc ****       return *this;
 153:d:/MTK/MTK2503/MTK2503/11CW1418SP4_03_CORETEK03AE_11C_V1_GPRS_MMI/Tools/MinGW/include/c++/3.3.1/bits/vector.tcc ****     }
 154:d:/MTK/MTK2503/MTK2503/11CW1418SP4_03_CORETEK03AE_11C_V1_GPRS_MMI/Tools/MinGW/include/c++/3.3.1/bits/vector.tcc ****   
 155:d:/MTK/MTK2503/MTK2503/11CW1418SP4_03_CORETEK03AE_11C_V1_GPRS_MMI/Tools/MinGW/include/c++/3.3.1/bits/vector.tcc ****   template<typename _Tp, typename _Alloc>
 156:d:/MTK/MTK2503/MTK2503/11CW1418SP4_03_CORETEK03AE_11C_V1_GPRS_MMI/Tools/MinGW/include/c++/3.3.1/bits/vector.tcc ****     void
 157:d:/MTK/MTK2503/MTK2503/11CW1418SP4_03_CORETEK03AE_11C_V1_GPRS_MMI/Tools/MinGW/include/c++/3.3.1/bits/vector.tcc ****     vector<_Tp,_Alloc>::
 158:d:/MTK/MTK2503/MTK2503/11CW1418SP4_03_CORETEK03AE_11C_V1_GPRS_MMI/Tools/MinGW/include/c++/3.3.1/bits/vector.tcc ****     _M_fill_assign(size_t __n, const value_type& __val)
 159:d:/MTK/MTK2503/MTK2503/11CW1418SP4_03_CORETEK03AE_11C_V1_GPRS_MMI/Tools/MinGW/include/c++/3.3.1/bits/vector.tcc ****     {
 160:d:/MTK/MTK2503/MTK2503/11CW1418SP4_03_CORETEK03AE_11C_V1_GPRS_MMI/Tools/MinGW/include/c++/3.3.1/bits/vector.tcc ****       if (__n > capacity())
 161:d:/MTK/MTK2503/MTK2503/11CW1418SP4_03_CORETEK03AE_11C_V1_GPRS_MMI/Tools/MinGW/include/c++/3.3.1/bits/vector.tcc ****       {
 162:d:/MTK/MTK2503/MTK2503/11CW1418SP4_03_CORETEK03AE_11C_V1_GPRS_MMI/Tools/MinGW/include/c++/3.3.1/bits/vector.tcc ****         vector __tmp(__n, __val, get_allocator());
 163:d:/MTK/MTK2503/MTK2503/11CW1418SP4_03_CORETEK03AE_11C_V1_GPRS_MMI/Tools/MinGW/include/c++/3.3.1/bits/vector.tcc ****         __tmp.swap(*this);
 164:d:/MTK/MTK2503/MTK2503/11CW1418SP4_03_CORETEK03AE_11C_V1_GPRS_MMI/Tools/MinGW/include/c++/3.3.1/bits/vector.tcc ****       }
 165:d:/MTK/MTK2503/MTK2503/11CW1418SP4_03_CORETEK03AE_11C_V1_GPRS_MMI/Tools/MinGW/include/c++/3.3.1/bits/vector.tcc ****       else if (__n > size())
 166:d:/MTK/MTK2503/MTK2503/11CW1418SP4_03_CORETEK03AE_11C_V1_GPRS_MMI/Tools/MinGW/include/c++/3.3.1/bits/vector.tcc ****       {
 167:d:/MTK/MTK2503/MTK2503/11CW1418SP4_03_CORETEK03AE_11C_V1_GPRS_MMI/Tools/MinGW/include/c++/3.3.1/bits/vector.tcc ****         fill(begin(), end(), __val);
 168:d:/MTK/MTK2503/MTK2503/11CW1418SP4_03_CORETEK03AE_11C_V1_GPRS_MMI/Tools/MinGW/include/c++/3.3.1/bits/vector.tcc ****         _M_finish = uninitialized_fill_n(_M_finish, __n - size(), __val);
 169:d:/MTK/MTK2503/MTK2503/11CW1418SP4_03_CORETEK03AE_11C_V1_GPRS_MMI/Tools/MinGW/include/c++/3.3.1/bits/vector.tcc ****       }
 170:d:/MTK/MTK2503/MTK2503/11CW1418SP4_03_CORETEK03AE_11C_V1_GPRS_MMI/Tools/MinGW/include/c++/3.3.1/bits/vector.tcc ****       else
 171:d:/MTK/MTK2503/MTK2503/11CW1418SP4_03_CORETEK03AE_11C_V1_GPRS_MMI/Tools/MinGW/include/c++/3.3.1/bits/vector.tcc ****         erase(fill_n(begin(), __n, __val), end());
 172:d:/MTK/MTK2503/MTK2503/11CW1418SP4_03_CORETEK03AE_11C_V1_GPRS_MMI/Tools/MinGW/include/c++/3.3.1/bits/vector.tcc ****     }
 173:d:/MTK/MTK2503/MTK2503/11CW1418SP4_03_CORETEK03AE_11C_V1_GPRS_MMI/Tools/MinGW/include/c++/3.3.1/bits/vector.tcc ****   
 174:d:/MTK/MTK2503/MTK2503/11CW1418SP4_03_CORETEK03AE_11C_V1_GPRS_MMI/Tools/MinGW/include/c++/3.3.1/bits/vector.tcc ****   template<typename _Tp, typename _Alloc> template<typename _InputIter>
 175:d:/MTK/MTK2503/MTK2503/11CW1418SP4_03_CORETEK03AE_11C_V1_GPRS_MMI/Tools/MinGW/include/c++/3.3.1/bits/vector.tcc ****     void
 176:d:/MTK/MTK2503/MTK2503/11CW1418SP4_03_CORETEK03AE_11C_V1_GPRS_MMI/Tools/MinGW/include/c++/3.3.1/bits/vector.tcc ****     vector<_Tp,_Alloc>::
 177:d:/MTK/MTK2503/MTK2503/11CW1418SP4_03_CORETEK03AE_11C_V1_GPRS_MMI/Tools/MinGW/include/c++/3.3.1/bits/vector.tcc ****     _M_assign_aux(_InputIter __first, _InputIter __last, input_iterator_tag)
 178:d:/MTK/MTK2503/MTK2503/11CW1418SP4_03_CORETEK03AE_11C_V1_GPRS_MMI/Tools/MinGW/include/c++/3.3.1/bits/vector.tcc ****     {
 179:d:/MTK/MTK2503/MTK2503/11CW1418SP4_03_CORETEK03AE_11C_V1_GPRS_MMI/Tools/MinGW/include/c++/3.3.1/bits/vector.tcc ****       iterator __cur(begin());
 180:d:/MTK/MTK2503/MTK2503/11CW1418SP4_03_CORETEK03AE_11C_V1_GPRS_MMI/Tools/MinGW/include/c++/3.3.1/bits/vector.tcc ****       for ( ; __first != __last && __cur != end(); ++__cur, ++__first)
 181:d:/MTK/MTK2503/MTK2503/11CW1418SP4_03_CORETEK03AE_11C_V1_GPRS_MMI/Tools/MinGW/include/c++/3.3.1/bits/vector.tcc ****         *__cur = *__first;
 182:d:/MTK/MTK2503/MTK2503/11CW1418SP4_03_CORETEK03AE_11C_V1_GPRS_MMI/Tools/MinGW/include/c++/3.3.1/bits/vector.tcc ****       if (__first == __last)
 183:d:/MTK/MTK2503/MTK2503/11CW1418SP4_03_CORETEK03AE_11C_V1_GPRS_MMI/Tools/MinGW/include/c++/3.3.1/bits/vector.tcc ****         erase(__cur, end());
 184:d:/MTK/MTK2503/MTK2503/11CW1418SP4_03_CORETEK03AE_11C_V1_GPRS_MMI/Tools/MinGW/include/c++/3.3.1/bits/vector.tcc ****       else
GAS LISTING d:/MTK/MTK2503/MTK2503/11CW1418SP4_03_CORETEK03AE_11C_V1_GPRS_MMI/plutommi/Customer/ResGenerator/gcctmp/ccQHcaaa.s 			page 127


 185:d:/MTK/MTK2503/MTK2503/11CW1418SP4_03_CORETEK03AE_11C_V1_GPRS_MMI/Tools/MinGW/include/c++/3.3.1/bits/vector.tcc ****         insert(end(), __first, __last);
 186:d:/MTK/MTK2503/MTK2503/11CW1418SP4_03_CORETEK03AE_11C_V1_GPRS_MMI/Tools/MinGW/include/c++/3.3.1/bits/vector.tcc ****     }
 187:d:/MTK/MTK2503/MTK2503/11CW1418SP4_03_CORETEK03AE_11C_V1_GPRS_MMI/Tools/MinGW/include/c++/3.3.1/bits/vector.tcc ****   
 188:d:/MTK/MTK2503/MTK2503/11CW1418SP4_03_CORETEK03AE_11C_V1_GPRS_MMI/Tools/MinGW/include/c++/3.3.1/bits/vector.tcc ****   template<typename _Tp, typename _Alloc> template<typename _ForwardIter>
 189:d:/MTK/MTK2503/MTK2503/11CW1418SP4_03_CORETEK03AE_11C_V1_GPRS_MMI/Tools/MinGW/include/c++/3.3.1/bits/vector.tcc ****     void
 190:d:/MTK/MTK2503/MTK2503/11CW1418SP4_03_CORETEK03AE_11C_V1_GPRS_MMI/Tools/MinGW/include/c++/3.3.1/bits/vector.tcc ****     vector<_Tp,_Alloc>::
 191:d:/MTK/MTK2503/MTK2503/11CW1418SP4_03_CORETEK03AE_11C_V1_GPRS_MMI/Tools/MinGW/include/c++/3.3.1/bits/vector.tcc ****     _M_assign_aux(_ForwardIter __first, _ForwardIter __last,
 192:d:/MTK/MTK2503/MTK2503/11CW1418SP4_03_CORETEK03AE_11C_V1_GPRS_MMI/Tools/MinGW/include/c++/3.3.1/bits/vector.tcc ****                   forward_iterator_tag)
 193:d:/MTK/MTK2503/MTK2503/11CW1418SP4_03_CORETEK03AE_11C_V1_GPRS_MMI/Tools/MinGW/include/c++/3.3.1/bits/vector.tcc ****     {
 194:d:/MTK/MTK2503/MTK2503/11CW1418SP4_03_CORETEK03AE_11C_V1_GPRS_MMI/Tools/MinGW/include/c++/3.3.1/bits/vector.tcc ****       size_type __len = distance(__first, __last);
 195:d:/MTK/MTK2503/MTK2503/11CW1418SP4_03_CORETEK03AE_11C_V1_GPRS_MMI/Tools/MinGW/include/c++/3.3.1/bits/vector.tcc ****   
 196:d:/MTK/MTK2503/MTK2503/11CW1418SP4_03_CORETEK03AE_11C_V1_GPRS_MMI/Tools/MinGW/include/c++/3.3.1/bits/vector.tcc ****       if (__len > capacity())
 197:d:/MTK/MTK2503/MTK2503/11CW1418SP4_03_CORETEK03AE_11C_V1_GPRS_MMI/Tools/MinGW/include/c++/3.3.1/bits/vector.tcc ****       {
 198:d:/MTK/MTK2503/MTK2503/11CW1418SP4_03_CORETEK03AE_11C_V1_GPRS_MMI/Tools/MinGW/include/c++/3.3.1/bits/vector.tcc ****         pointer __tmp(_M_allocate_and_copy(__len, __first, __last));
 199:d:/MTK/MTK2503/MTK2503/11CW1418SP4_03_CORETEK03AE_11C_V1_GPRS_MMI/Tools/MinGW/include/c++/3.3.1/bits/vector.tcc ****         _Destroy(_M_start, _M_finish);
 200:d:/MTK/MTK2503/MTK2503/11CW1418SP4_03_CORETEK03AE_11C_V1_GPRS_MMI/Tools/MinGW/include/c++/3.3.1/bits/vector.tcc ****         _M_deallocate(_M_start, _M_end_of_storage - _M_start);
 201:d:/MTK/MTK2503/MTK2503/11CW1418SP4_03_CORETEK03AE_11C_V1_GPRS_MMI/Tools/MinGW/include/c++/3.3.1/bits/vector.tcc ****         _M_start = __tmp;
 202:d:/MTK/MTK2503/MTK2503/11CW1418SP4_03_CORETEK03AE_11C_V1_GPRS_MMI/Tools/MinGW/include/c++/3.3.1/bits/vector.tcc ****         _M_end_of_storage = _M_finish = _M_start + __len;
 203:d:/MTK/MTK2503/MTK2503/11CW1418SP4_03_CORETEK03AE_11C_V1_GPRS_MMI/Tools/MinGW/include/c++/3.3.1/bits/vector.tcc ****       }
 204:d:/MTK/MTK2503/MTK2503/11CW1418SP4_03_CORETEK03AE_11C_V1_GPRS_MMI/Tools/MinGW/include/c++/3.3.1/bits/vector.tcc ****       else if (size() >= __len)
 205:d:/MTK/MTK2503/MTK2503/11CW1418SP4_03_CORETEK03AE_11C_V1_GPRS_MMI/Tools/MinGW/include/c++/3.3.1/bits/vector.tcc ****       {
 206:d:/MTK/MTK2503/MTK2503/11CW1418SP4_03_CORETEK03AE_11C_V1_GPRS_MMI/Tools/MinGW/include/c++/3.3.1/bits/vector.tcc ****         iterator __new_finish(copy(__first, __last, _M_start));
 207:d:/MTK/MTK2503/MTK2503/11CW1418SP4_03_CORETEK03AE_11C_V1_GPRS_MMI/Tools/MinGW/include/c++/3.3.1/bits/vector.tcc ****         _Destroy(__new_finish, end());
 208:d:/MTK/MTK2503/MTK2503/11CW1418SP4_03_CORETEK03AE_11C_V1_GPRS_MMI/Tools/MinGW/include/c++/3.3.1/bits/vector.tcc ****         _M_finish = __new_finish.base();
 209:d:/MTK/MTK2503/MTK2503/11CW1418SP4_03_CORETEK03AE_11C_V1_GPRS_MMI/Tools/MinGW/include/c++/3.3.1/bits/vector.tcc ****       }
 210:d:/MTK/MTK2503/MTK2503/11CW1418SP4_03_CORETEK03AE_11C_V1_GPRS_MMI/Tools/MinGW/include/c++/3.3.1/bits/vector.tcc ****       else
 211:d:/MTK/MTK2503/MTK2503/11CW1418SP4_03_CORETEK03AE_11C_V1_GPRS_MMI/Tools/MinGW/include/c++/3.3.1/bits/vector.tcc ****       {
 212:d:/MTK/MTK2503/MTK2503/11CW1418SP4_03_CORETEK03AE_11C_V1_GPRS_MMI/Tools/MinGW/include/c++/3.3.1/bits/vector.tcc ****         _ForwardIter __mid = __first;
 213:d:/MTK/MTK2503/MTK2503/11CW1418SP4_03_CORETEK03AE_11C_V1_GPRS_MMI/Tools/MinGW/include/c++/3.3.1/bits/vector.tcc ****         advance(__mid, size());
 214:d:/MTK/MTK2503/MTK2503/11CW1418SP4_03_CORETEK03AE_11C_V1_GPRS_MMI/Tools/MinGW/include/c++/3.3.1/bits/vector.tcc ****         copy(__first, __mid, _M_start);
 215:d:/MTK/MTK2503/MTK2503/11CW1418SP4_03_CORETEK03AE_11C_V1_GPRS_MMI/Tools/MinGW/include/c++/3.3.1/bits/vector.tcc ****         _M_finish = uninitialized_copy(__mid, __last, _M_finish);
 216:d:/MTK/MTK2503/MTK2503/11CW1418SP4_03_CORETEK03AE_11C_V1_GPRS_MMI/Tools/MinGW/include/c++/3.3.1/bits/vector.tcc ****       }
 217:d:/MTK/MTK2503/MTK2503/11CW1418SP4_03_CORETEK03AE_11C_V1_GPRS_MMI/Tools/MinGW/include/c++/3.3.1/bits/vector.tcc ****     }
 218:d:/MTK/MTK2503/MTK2503/11CW1418SP4_03_CORETEK03AE_11C_V1_GPRS_MMI/Tools/MinGW/include/c++/3.3.1/bits/vector.tcc ****   
 219:d:/MTK/MTK2503/MTK2503/11CW1418SP4_03_CORETEK03AE_11C_V1_GPRS_MMI/Tools/MinGW/include/c++/3.3.1/bits/vector.tcc ****   template<typename _Tp, typename _Alloc>
 220:d:/MTK/MTK2503/MTK2503/11CW1418SP4_03_CORETEK03AE_11C_V1_GPRS_MMI/Tools/MinGW/include/c++/3.3.1/bits/vector.tcc ****     void
 221:d:/MTK/MTK2503/MTK2503/11CW1418SP4_03_CORETEK03AE_11C_V1_GPRS_MMI/Tools/MinGW/include/c++/3.3.1/bits/vector.tcc ****     vector<_Tp,_Alloc>::
 222:d:/MTK/MTK2503/MTK2503/11CW1418SP4_03_CORETEK03AE_11C_V1_GPRS_MMI/Tools/MinGW/include/c++/3.3.1/bits/vector.tcc ****     _M_insert_aux(iterator __position, const _Tp& __x)
 223:d:/MTK/MTK2503/MTK2503/11CW1418SP4_03_CORETEK03AE_11C_V1_GPRS_MMI/Tools/MinGW/include/c++/3.3.1/bits/vector.tcc ****     {
 6405              	LM275:
 6406 0000 55       		pushl	%ebp
 6407 0001 89E5     		movl	%esp, %ebp
 6408 0003 57       		pushl	%edi
 6409 0004 56       		pushl	%esi
 6410 0005 53       		pushl	%ebx
 6411 0006 81ECAC00 		subl	$172, %esp
 6411      0000
 6412 000c C7458800 		movl	$___gxx_personality_sj0, -120(%ebp)
 6412      000000
 6413 0013 C7458C34 		movl	$LLSDA819, -116(%ebp)
 6413      000000
 6414 001a 8D4590   		leal	-112(%ebp), %eax
 6415 001d 8D55E8   		leal	-24(%ebp), %edx
 6416 0020 8910     		movl	%edx, (%eax)
 6417 0022 BA5D0200 		movl	$L259, %edx
 6417      00
 6418 0027 895004   		movl	%edx, 4(%eax)
GAS LISTING d:/MTK/MTK2503/MTK2503/11CW1418SP4_03_CORETEK03AE_11C_V1_GPRS_MMI/plutommi/Customer/ResGenerator/gcctmp/ccQHcaaa.s 			page 128


 6419 002a 896008   		movl	%esp, 8(%eax)
 6420 002d 8D8570FF 		leal	-144(%ebp), %eax
 6420      FFFF
 6421 0033 890424   		movl	%eax, (%esp)
 6422 0036 E8000000 		call	__Unwind_SjLj_Register
 6422      00
 224:d:/MTK/MTK2503/MTK2503/11CW1418SP4_03_CORETEK03AE_11C_V1_GPRS_MMI/Tools/MinGW/include/c++/3.3.1/bits/vector.tcc ****       if (_M_finish != _M_end_of_storage)
 6424              	LM276:
 6425              	LBB78:
 6426              	LBB79:
 6427 003b 8B4508   		movl	8(%ebp), %eax
 6428 003e 8B5508   		movl	8(%ebp), %edx
 6429 0041 8B4004   		movl	4(%eax), %eax
 6430 0044 3B4208   		cmpl	8(%edx), %eax
 6431 0047 0F84AE00 		je	L248
 6431      0000
 225:d:/MTK/MTK2503/MTK2503/11CW1418SP4_03_CORETEK03AE_11C_V1_GPRS_MMI/Tools/MinGW/include/c++/3.3.1/bits/vector.tcc ****       {
 226:d:/MTK/MTK2503/MTK2503/11CW1418SP4_03_CORETEK03AE_11C_V1_GPRS_MMI/Tools/MinGW/include/c++/3.3.1/bits/vector.tcc ****         _Construct(_M_finish, *(_M_finish - 1));
 6433              	LM277:
 6434              	LBB80:
 6435 004d 8B4508   		movl	8(%ebp), %eax
 6436 0050 8B4004   		movl	4(%eax), %eax
 6437 0053 83E80C   		subl	$12, %eax
 6438 0056 89442404 		movl	%eax, 4(%esp)
 6439 005a 8B4508   		movl	8(%ebp), %eax
 6440 005d 8B4004   		movl	4(%eax), %eax
 6441 0060 890424   		movl	%eax, (%esp)
 6442 0063 E8000000 		call	__ZSt10_ConstructIN10ThreadPool10ThreadDataES1_EvPT_RKT0_
 6442      00
 227:d:/MTK/MTK2503/MTK2503/11CW1418SP4_03_CORETEK03AE_11C_V1_GPRS_MMI/Tools/MinGW/include/c++/3.3.1/bits/vector.tcc ****         ++_M_finish;
 6444              	LM278:
 6445 0068 8B4508   		movl	8(%ebp), %eax
 6446 006b 8340040C 		addl	$12, 4(%eax)
 228:d:/MTK/MTK2503/MTK2503/11CW1418SP4_03_CORETEK03AE_11C_V1_GPRS_MMI/Tools/MinGW/include/c++/3.3.1/bits/vector.tcc ****         _Tp __x_copy = __x;
 6448              	LM279:
 6449 006f 8B5510   		movl	16(%ebp), %edx
 6450 0072 8B02     		movl	(%edx), %eax
 6451 0074 8945D8   		movl	%eax, -40(%ebp)
 6452 0077 8B4204   		movl	4(%edx), %eax
 6453 007a 8945DC   		movl	%eax, -36(%ebp)
 6454 007d 8B4208   		movl	8(%edx), %eax
 6455 0080 8945E0   		movl	%eax, -32(%ebp)
 229:d:/MTK/MTK2503/MTK2503/11CW1418SP4_03_CORETEK03AE_11C_V1_GPRS_MMI/Tools/MinGW/include/c++/3.3.1/bits/vector.tcc ****         copy_backward(__position, iterator(_M_finish-2), iterator(_M_finish-1));
 6457              	LM280:
 6458 0083 8B4508   		movl	8(%ebp), %eax
 6459 0086 8B4004   		movl	4(%eax), %eax
 6460 0089 83E80C   		subl	$12, %eax
 6461 008c 8945D0   		movl	%eax, -48(%ebp)
 6462 008f 8D45D0   		leal	-48(%ebp), %eax
 6463 0092 89442404 		movl	%eax, 4(%esp)
 6464 0096 8D45D4   		leal	-44(%ebp), %eax
 6465 0099 890424   		movl	%eax, (%esp)
 6466 009c E8000000 		call	__ZN9__gnu_cxx17__normal_iteratorIPN10ThreadPool10ThreadDataESt6vectorIS2_SaIS2_EEEC1ERKS3_
 6466      00
 6467 00a1 8B4508   		movl	8(%ebp), %eax
 6468 00a4 8B4004   		movl	4(%eax), %eax
 6469 00a7 83E818   		subl	$24, %eax
GAS LISTING d:/MTK/MTK2503/MTK2503/11CW1418SP4_03_CORETEK03AE_11C_V1_GPRS_MMI/plutommi/Customer/ResGenerator/gcctmp/ccQHcaaa.s 			page 129


 6470 00aa 8945C8   		movl	%eax, -56(%ebp)
 6471 00ad 8D45C8   		leal	-56(%ebp), %eax
 6472 00b0 89442404 		movl	%eax, 4(%esp)
 6473 00b4 8D45CC   		leal	-52(%ebp), %eax
 6474 00b7 890424   		movl	%eax, (%esp)
 6475 00ba E8000000 		call	__ZN9__gnu_cxx17__normal_iteratorIPN10ThreadPool10ThreadDataESt6vectorIS2_SaIS2_EEEC1ERKS3_
 6475      00
 6476 00bf 8B45D4   		movl	-44(%ebp), %eax
 6477 00c2 89442408 		movl	%eax, 8(%esp)
 6478 00c6 8B45CC   		movl	-52(%ebp), %eax
 6479 00c9 89442404 		movl	%eax, 4(%esp)
 6480 00cd 8B450C   		movl	12(%ebp), %eax
 6481 00d0 890424   		movl	%eax, (%esp)
 6482 00d3 E8000000 		call	__ZSt13copy_backwardIN9__gnu_cxx17__normal_iteratorIPN10ThreadPool10ThreadDataESt6vectorIS3_S
 6482      00
 230:d:/MTK/MTK2503/MTK2503/11CW1418SP4_03_CORETEK03AE_11C_V1_GPRS_MMI/Tools/MinGW/include/c++/3.3.1/bits/vector.tcc ****         *__position = __x_copy;
 6484              	LM281:
 6485 00d8 8D450C   		leal	12(%ebp), %eax
 6486 00db 890424   		movl	%eax, (%esp)
 6487 00de E8000000 		call	__ZNK9__gnu_cxx17__normal_iteratorIPN10ThreadPool10ThreadDataESt6vectorIS2_SaIS2_EEEdeEv
 6487      00
 6488 00e3 89C2     		movl	%eax, %edx
 6489 00e5 8B45D8   		movl	-40(%ebp), %eax
 6490 00e8 8902     		movl	%eax, (%edx)
 6491 00ea 8B45DC   		movl	-36(%ebp), %eax
 6492 00ed 894204   		movl	%eax, 4(%edx)
 6493 00f0 8B45E0   		movl	-32(%ebp), %eax
 6494 00f3 894208   		movl	%eax, 8(%edx)
 6495              	LBE80:
 6496 00f6 E98B0200 		jmp	L247
 6496      00
 6497              	L248:
 231:d:/MTK/MTK2503/MTK2503/11CW1418SP4_03_CORETEK03AE_11C_V1_GPRS_MMI/Tools/MinGW/include/c++/3.3.1/bits/vector.tcc ****       }
 232:d:/MTK/MTK2503/MTK2503/11CW1418SP4_03_CORETEK03AE_11C_V1_GPRS_MMI/Tools/MinGW/include/c++/3.3.1/bits/vector.tcc ****       else
 233:d:/MTK/MTK2503/MTK2503/11CW1418SP4_03_CORETEK03AE_11C_V1_GPRS_MMI/Tools/MinGW/include/c++/3.3.1/bits/vector.tcc ****       {
 234:d:/MTK/MTK2503/MTK2503/11CW1418SP4_03_CORETEK03AE_11C_V1_GPRS_MMI/Tools/MinGW/include/c++/3.3.1/bits/vector.tcc ****         const size_type __old_size = size();
 6499              	LM282:
 6500              	LBB81:
 6501 00fb 8B4508   		movl	8(%ebp), %eax
 6502 00fe 890424   		movl	%eax, (%esp)
 6503 0101 E8000000 		call	__ZNKSt6vectorIN10ThreadPool10ThreadDataESaIS1_EE4sizeEv
 6503      00
 6504 0106 8945C4   		movl	%eax, -60(%ebp)
 235:d:/MTK/MTK2503/MTK2503/11CW1418SP4_03_CORETEK03AE_11C_V1_GPRS_MMI/Tools/MinGW/include/c++/3.3.1/bits/vector.tcc ****         const size_type __len = __old_size != 0 ? 2 * __old_size : 1;
 6506              	LM283:
 6507 0109 837DC400 		cmpl	$0, -60(%ebp)
 6508 010d 740D     		je	L250
 6509 010f 8B45C4   		movl	-60(%ebp), %eax
 6510 0112 01C0     		addl	%eax, %eax
 6511 0114 89856CFF 		movl	%eax, -148(%ebp)
 6511      FFFF
 6512 011a EB0A     		jmp	L251
 6513              	L250:
 6514 011c C7856CFF 		movl	$1, -148(%ebp)
 6514      FFFF0100 
 6514      0000
 6515              	L251:
GAS LISTING d:/MTK/MTK2503/MTK2503/11CW1418SP4_03_CORETEK03AE_11C_V1_GPRS_MMI/plutommi/Customer/ResGenerator/gcctmp/ccQHcaaa.s 			page 130


 6516 0126 8B856CFF 		movl	-148(%ebp), %eax
 6516      FFFF
 6517 012c 8945C0   		movl	%eax, -64(%ebp)
 236:d:/MTK/MTK2503/MTK2503/11CW1418SP4_03_CORETEK03AE_11C_V1_GPRS_MMI/Tools/MinGW/include/c++/3.3.1/bits/vector.tcc ****         iterator __new_start(_M_allocate(__len));
 6519              	LM284:
 6520 012f 8B45C0   		movl	-64(%ebp), %eax
 6521 0132 89442404 		movl	%eax, 4(%esp)
 6522 0136 8B4508   		movl	8(%ebp), %eax
 6523 0139 890424   		movl	%eax, (%esp)
 6524 013c C78574FF 		movl	$-1, -140(%ebp)
 6524      FFFFFFFF 
 6524      FFFF
 6525 0146 E8000000 		call	__ZNSt18_Vector_alloc_baseIN10ThreadPool10ThreadDataESaIS1_ELb1EE11_M_allocateEj
 6525      00
 6526 014b 8945B8   		movl	%eax, -72(%ebp)
 6527 014e 8D45B8   		leal	-72(%ebp), %eax
 6528 0151 89442404 		movl	%eax, 4(%esp)
 6529 0155 8D45BC   		leal	-68(%ebp), %eax
 6530 0158 890424   		movl	%eax, (%esp)
 6531 015b E8000000 		call	__ZN9__gnu_cxx17__normal_iteratorIPN10ThreadPool10ThreadDataESt6vectorIS2_SaIS2_EEEC1ERKS3_
 6531      00
 237:d:/MTK/MTK2503/MTK2503/11CW1418SP4_03_CORETEK03AE_11C_V1_GPRS_MMI/Tools/MinGW/include/c++/3.3.1/bits/vector.tcc ****         iterator __new_finish(__new_start);
 6533              	LM285:
 6534 0160 8B45BC   		movl	-68(%ebp), %eax
 6535 0163 8945B4   		movl	%eax, -76(%ebp)
 238:d:/MTK/MTK2503/MTK2503/11CW1418SP4_03_CORETEK03AE_11C_V1_GPRS_MMI/Tools/MinGW/include/c++/3.3.1/bits/vector.tcc ****         try
 239:d:/MTK/MTK2503/MTK2503/11CW1418SP4_03_CORETEK03AE_11C_V1_GPRS_MMI/Tools/MinGW/include/c++/3.3.1/bits/vector.tcc ****           {
 240:d:/MTK/MTK2503/MTK2503/11CW1418SP4_03_CORETEK03AE_11C_V1_GPRS_MMI/Tools/MinGW/include/c++/3.3.1/bits/vector.tcc ****             __new_finish = uninitialized_copy(iterator(_M_start), __position,
 6537              	LM286:
 6538 0166 8B4508   		movl	8(%ebp), %eax
 6539 0169 89442404 		movl	%eax, 4(%esp)
 6540 016d 8D45AC   		leal	-84(%ebp), %eax
 6541 0170 890424   		movl	%eax, (%esp)
 6542 0173 E8000000 		call	__ZN9__gnu_cxx17__normal_iteratorIPN10ThreadPool10ThreadDataESt6vectorIS2_SaIS2_EEEC1ERKS3_
 6542      00
 6543 0178 8B45BC   		movl	-68(%ebp), %eax
 6544 017b 89442408 		movl	%eax, 8(%esp)
 6545 017f 8B450C   		movl	12(%ebp), %eax
 6546 0182 89442404 		movl	%eax, 4(%esp)
 6547 0186 8B45AC   		movl	-84(%ebp), %eax
 6548 0189 890424   		movl	%eax, (%esp)
 6549 018c C78574FF 		movl	$2, -140(%ebp)
 6549      FFFF0200 
 6549      0000
 6550 0196 E8000000 		call	__ZSt18uninitialized_copyIN9__gnu_cxx17__normal_iteratorIPN10ThreadPool10ThreadDataESt6vector
 6550      00
 6551 019b 8945B0   		movl	%eax, -80(%ebp)
 6552 019e 8B45B0   		movl	-80(%ebp), %eax
 6553 01a1 8945B4   		movl	%eax, -76(%ebp)
 241:d:/MTK/MTK2503/MTK2503/11CW1418SP4_03_CORETEK03AE_11C_V1_GPRS_MMI/Tools/MinGW/include/c++/3.3.1/bits/vector.tcc ****                                               __new_start);
 242:d:/MTK/MTK2503/MTK2503/11CW1418SP4_03_CORETEK03AE_11C_V1_GPRS_MMI/Tools/MinGW/include/c++/3.3.1/bits/vector.tcc ****             _Construct(__new_finish.base(), __x);
 6555              	LM287:
 6556 01a4 8D45B4   		leal	-76(%ebp), %eax
 6557 01a7 890424   		movl	%eax, (%esp)
 6558 01aa E8000000 		call	__ZNK9__gnu_cxx17__normal_iteratorIPN10ThreadPool10ThreadDataESt6vectorIS2_SaIS2_EEE4baseEv
 6558      00
 6559 01af 89C2     		movl	%eax, %edx
GAS LISTING d:/MTK/MTK2503/MTK2503/11CW1418SP4_03_CORETEK03AE_11C_V1_GPRS_MMI/plutommi/Customer/ResGenerator/gcctmp/ccQHcaaa.s 			page 131


 6560 01b1 8B4510   		movl	16(%ebp), %eax
 6561 01b4 89442404 		movl	%eax, 4(%esp)
 6562 01b8 8B02     		movl	(%edx), %eax
 6563 01ba 890424   		movl	%eax, (%esp)
 6564 01bd E8000000 		call	__ZSt10_ConstructIN10ThreadPool10ThreadDataES1_EvPT_RKT0_
 6564      00
 243:d:/MTK/MTK2503/MTK2503/11CW1418SP4_03_CORETEK03AE_11C_V1_GPRS_MMI/Tools/MinGW/include/c++/3.3.1/bits/vector.tcc ****             ++__new_finish;
 6566              	LM288:
 6567 01c2 8D45B4   		leal	-76(%ebp), %eax
 6568 01c5 890424   		movl	%eax, (%esp)
 6569 01c8 E8000000 		call	__ZN9__gnu_cxx17__normal_iteratorIPN10ThreadPool10ThreadDataESt6vectorIS2_SaIS2_EEEppEv
 6569      00
 244:d:/MTK/MTK2503/MTK2503/11CW1418SP4_03_CORETEK03AE_11C_V1_GPRS_MMI/Tools/MinGW/include/c++/3.3.1/bits/vector.tcc ****             __new_finish = uninitialized_copy(__position, iterator(_M_finish),
 6571              	LM289:
 6572 01cd 8B4508   		movl	8(%ebp), %eax
 6573 01d0 83C004   		addl	$4, %eax
 6574 01d3 89442404 		movl	%eax, 4(%esp)
 6575 01d7 8D45A4   		leal	-92(%ebp), %eax
 6576 01da 890424   		movl	%eax, (%esp)
 6577 01dd E8000000 		call	__ZN9__gnu_cxx17__normal_iteratorIPN10ThreadPool10ThreadDataESt6vectorIS2_SaIS2_EEEC1ERKS3_
 6577      00
 6578 01e2 8B45B4   		movl	-76(%ebp), %eax
 6579 01e5 89442408 		movl	%eax, 8(%esp)
 6580 01e9 8B45A4   		movl	-92(%ebp), %eax
 6581 01ec 89442404 		movl	%eax, 4(%esp)
 6582 01f0 8B450C   		movl	12(%ebp), %eax
 6583 01f3 890424   		movl	%eax, (%esp)
 6584 01f6 E8000000 		call	__ZSt18uninitialized_copyIN9__gnu_cxx17__normal_iteratorIPN10ThreadPool10ThreadDataESt6vector
 6584      00
 6585 01fb 8945A8   		movl	%eax, -88(%ebp)
 6586 01fe 8B45A8   		movl	-88(%ebp), %eax
 6587 0201 8945B4   		movl	%eax, -76(%ebp)
 6588 0204 E9AD0000 		jmp	L252
 6588      00
 245:d:/MTK/MTK2503/MTK2503/11CW1418SP4_03_CORETEK03AE_11C_V1_GPRS_MMI/Tools/MinGW/include/c++/3.3.1/bits/vector.tcc ****                                               __new_finish);
 246:d:/MTK/MTK2503/MTK2503/11CW1418SP4_03_CORETEK03AE_11C_V1_GPRS_MMI/Tools/MinGW/include/c++/3.3.1/bits/vector.tcc ****           }
 247:d:/MTK/MTK2503/MTK2503/11CW1418SP4_03_CORETEK03AE_11C_V1_GPRS_MMI/Tools/MinGW/include/c++/3.3.1/bits/vector.tcc ****         catch(...)
 6590              	LM290:
 6591              	L258:
 6592              	L253:
 6593 0209 8B9568FF 		movl	-152(%ebp), %edx
 6593      FFFF
 6594 020f 891424   		movl	%edx, (%esp)
 6595 0212 E8000000 		call	___cxa_begin_catch
 6595      00
 248:d:/MTK/MTK2503/MTK2503/11CW1418SP4_03_CORETEK03AE_11C_V1_GPRS_MMI/Tools/MinGW/include/c++/3.3.1/bits/vector.tcc ****           {
 249:d:/MTK/MTK2503/MTK2503/11CW1418SP4_03_CORETEK03AE_11C_V1_GPRS_MMI/Tools/MinGW/include/c++/3.3.1/bits/vector.tcc ****             _Destroy(__new_start,__new_finish);
 6597              	LM291:
 6598 0217 8B45B4   		movl	-76(%ebp), %eax
 6599 021a 89442404 		movl	%eax, 4(%esp)
 6600 021e 8B45BC   		movl	-68(%ebp), %eax
 6601 0221 890424   		movl	%eax, (%esp)
 6602 0224 E8000000 		call	__ZSt8_DestroyIN9__gnu_cxx17__normal_iteratorIPN10ThreadPool10ThreadDataESt6vectorIS3_SaIS3_E
 6602      00
 250:d:/MTK/MTK2503/MTK2503/11CW1418SP4_03_CORETEK03AE_11C_V1_GPRS_MMI/Tools/MinGW/include/c++/3.3.1/bits/vector.tcc ****             _M_deallocate(__new_start.base(),__len);
 6604              	LM292:
 6605 0229 8D45BC   		leal	-68(%ebp), %eax
GAS LISTING d:/MTK/MTK2503/MTK2503/11CW1418SP4_03_CORETEK03AE_11C_V1_GPRS_MMI/plutommi/Customer/ResGenerator/gcctmp/ccQHcaaa.s 			page 132


 6606 022c 890424   		movl	%eax, (%esp)
 6607 022f E8000000 		call	__ZNK9__gnu_cxx17__normal_iteratorIPN10ThreadPool10ThreadDataESt6vectorIS2_SaIS2_EEE4baseEv
 6607      00
 6608 0234 89C2     		movl	%eax, %edx
 6609 0236 8B45C0   		movl	-64(%ebp), %eax
 6610 0239 89442408 		movl	%eax, 8(%esp)
 6611 023d 8B02     		movl	(%edx), %eax
 6612 023f 89442404 		movl	%eax, 4(%esp)
 6613 0243 8B4508   		movl	8(%ebp), %eax
 6614 0246 890424   		movl	%eax, (%esp)
 6615 0249 C78574FF 		movl	$1, -140(%ebp)
 6615      FFFF0100 
 6615      0000
 6616 0253 E8000000 		call	__ZNSt18_Vector_alloc_baseIN10ThreadPool10ThreadDataESaIS1_ELb1EE13_M_deallocateEPS1_j
 6616      00
 251:d:/MTK/MTK2503/MTK2503/11CW1418SP4_03_CORETEK03AE_11C_V1_GPRS_MMI/Tools/MinGW/include/c++/3.3.1/bits/vector.tcc ****             __throw_exception_again;
 6618              	LM293:
 6619 0258 E8000000 		call	___cxa_rethrow
 6619      00
 6620              	L259:
 6621 025d 8D6D18   		leal	24(%ebp), %ebp
 6622 0260 8B8574FF 		movl	-140(%ebp), %eax
 6622      FFFF
 6623 0266 8B9578FF 		movl	-136(%ebp), %edx
 6623      FFFF
 6624 026c 899568FF 		movl	%edx, -152(%ebp)
 6624      FFFF
 6625 0272 83F801   		cmpl	$1, %eax
 6626 0275 7492     		je	L258
 6627              	L254:
 6628 0277 8B8568FF 		movl	-152(%ebp), %eax
 6628      FFFF
 6629 027d 898564FF 		movl	%eax, -156(%ebp)
 6629      FFFF
 6630 0283 C78574FF 		movl	$0, -140(%ebp)
 6630      FFFF0000 
 6630      0000
 6631 028d E8000000 		call	___cxa_end_catch
 6631      00
 6632 0292 8B9564FF 		movl	-156(%ebp), %edx
 6632      FFFF
 6633 0298 899568FF 		movl	%edx, -152(%ebp)
 6633      FFFF
 6634              	L256:
 6635 029e 8B8568FF 		movl	-152(%ebp), %eax
 6635      FFFF
 6636 02a4 890424   		movl	%eax, (%esp)
 6637 02a7 C78574FF 		movl	$-1, -140(%ebp)
 6637      FFFFFFFF 
 6637      FFFF
 6638 02b1 E8000000 		call	__Unwind_SjLj_Resume
 6638      00
 6639              	L252:
 252:d:/MTK/MTK2503/MTK2503/11CW1418SP4_03_CORETEK03AE_11C_V1_GPRS_MMI/Tools/MinGW/include/c++/3.3.1/bits/vector.tcc ****           }
 253:d:/MTK/MTK2503/MTK2503/11CW1418SP4_03_CORETEK03AE_11C_V1_GPRS_MMI/Tools/MinGW/include/c++/3.3.1/bits/vector.tcc ****         _Destroy(begin(), end());
 6641              	LM294:
 6642 02b6 8B4508   		movl	8(%ebp), %eax
GAS LISTING d:/MTK/MTK2503/MTK2503/11CW1418SP4_03_CORETEK03AE_11C_V1_GPRS_MMI/plutommi/Customer/ResGenerator/gcctmp/ccQHcaaa.s 			page 133


 6643 02b9 890424   		movl	%eax, (%esp)
 6644 02bc E8000000 		call	__ZNSt6vectorIN10ThreadPool10ThreadDataESaIS1_EE3endEv
 6644      00
 6645 02c1 8945A0   		movl	%eax, -96(%ebp)
 6646 02c4 8B4508   		movl	8(%ebp), %eax
 6647 02c7 890424   		movl	%eax, (%esp)
 6648 02ca E8000000 		call	__ZNSt6vectorIN10ThreadPool10ThreadDataESaIS1_EE5beginEv
 6648      00
 6649 02cf 89459C   		movl	%eax, -100(%ebp)
 6650 02d2 8B45A0   		movl	-96(%ebp), %eax
 6651 02d5 89442404 		movl	%eax, 4(%esp)
 6652 02d9 8B459C   		movl	-100(%ebp), %eax
 6653 02dc 890424   		movl	%eax, (%esp)
 6654 02df E8000000 		call	__ZSt8_DestroyIN9__gnu_cxx17__normal_iteratorIPN10ThreadPool10ThreadDataESt6vectorIS3_SaIS3_E
 6654      00
 254:d:/MTK/MTK2503/MTK2503/11CW1418SP4_03_CORETEK03AE_11C_V1_GPRS_MMI/Tools/MinGW/include/c++/3.3.1/bits/vector.tcc ****         _M_deallocate(_M_start, _M_end_of_storage - _M_start);
 6656              	LM295:
 6657 02e4 8B4D08   		movl	8(%ebp), %ecx
 6658 02e7 8B4508   		movl	8(%ebp), %eax
 6659 02ea 8B10     		movl	(%eax), %edx
 6660 02ec 8B4108   		movl	8(%ecx), %eax
 6661 02ef 29D0     		subl	%edx, %eax
 6662 02f1 C1F802   		sarl	$2, %eax
 6663 02f4 69C0ABAA 		imull	$-1431655765, %eax, %eax
 6663      AAAA
 6664 02fa 89442408 		movl	%eax, 8(%esp)
 6665 02fe 8B4508   		movl	8(%ebp), %eax
 6666 0301 8B00     		movl	(%eax), %eax
 6667 0303 89442404 		movl	%eax, 4(%esp)
 6668 0307 8B4508   		movl	8(%ebp), %eax
 6669 030a 890424   		movl	%eax, (%esp)
 6670 030d C78574FF 		movl	$-1, -140(%ebp)
 6670      FFFFFFFF 
 6670      FFFF
 6671 0317 E8000000 		call	__ZNSt18_Vector_alloc_baseIN10ThreadPool10ThreadDataESaIS1_ELb1EE13_M_deallocateEPS1_j
 6671      00
 255:d:/MTK/MTK2503/MTK2503/11CW1418SP4_03_CORETEK03AE_11C_V1_GPRS_MMI/Tools/MinGW/include/c++/3.3.1/bits/vector.tcc ****         _M_start = __new_start.base();
 6673              	LM296:
 6674 031c 8B5508   		movl	8(%ebp), %edx
 6675 031f 899560FF 		movl	%edx, -160(%ebp)
 6675      FFFF
 6676 0325 8D45BC   		leal	-68(%ebp), %eax
 6677 0328 890424   		movl	%eax, (%esp)
 6678 032b E8000000 		call	__ZNK9__gnu_cxx17__normal_iteratorIPN10ThreadPool10ThreadDataESt6vectorIS2_SaIS2_EEE4baseEv
 6678      00
 6679 0330 8B00     		movl	(%eax), %eax
 6680 0332 8B9560FF 		movl	-160(%ebp), %edx
 6680      FFFF
 6681 0338 8902     		movl	%eax, (%edx)
 256:d:/MTK/MTK2503/MTK2503/11CW1418SP4_03_CORETEK03AE_11C_V1_GPRS_MMI/Tools/MinGW/include/c++/3.3.1/bits/vector.tcc ****         _M_finish = __new_finish.base();
 6683              	LM297:
 6684 033a 8B4508   		movl	8(%ebp), %eax
 6685 033d 89855CFF 		movl	%eax, -164(%ebp)
 6685      FFFF
 6686 0343 8D45B4   		leal	-76(%ebp), %eax
 6687 0346 890424   		movl	%eax, (%esp)
 6688 0349 E8000000 		call	__ZNK9__gnu_cxx17__normal_iteratorIPN10ThreadPool10ThreadDataESt6vectorIS2_SaIS2_EEE4baseEv
GAS LISTING d:/MTK/MTK2503/MTK2503/11CW1418SP4_03_CORETEK03AE_11C_V1_GPRS_MMI/plutommi/Customer/ResGenerator/gcctmp/ccQHcaaa.s 			page 134


 6688      00
 6689 034e 8B00     		movl	(%eax), %eax
 6690 0350 8B955CFF 		movl	-164(%ebp), %edx
 6690      FFFF
 6691 0356 894204   		movl	%eax, 4(%edx)
 257:d:/MTK/MTK2503/MTK2503/11CW1418SP4_03_CORETEK03AE_11C_V1_GPRS_MMI/Tools/MinGW/include/c++/3.3.1/bits/vector.tcc ****         _M_end_of_storage = __new_start.base() + __len;
 6693              	LM298:
 6694 0359 8B4508   		movl	8(%ebp), %eax
 6695 035c 898558FF 		movl	%eax, -168(%ebp)
 6695      FFFF
 6696 0362 8D45BC   		leal	-68(%ebp), %eax
 6697 0365 890424   		movl	%eax, (%esp)
 6698 0368 E8000000 		call	__ZNK9__gnu_cxx17__normal_iteratorIPN10ThreadPool10ThreadDataESt6vectorIS2_SaIS2_EEE4baseEv
 6698      00
 6699 036d 89C1     		movl	%eax, %ecx
 6700 036f 8B55C0   		movl	-64(%ebp), %edx
 6701 0372 89D0     		movl	%edx, %eax
 6702 0374 01C0     		addl	%eax, %eax
 6703 0376 01D0     		addl	%edx, %eax
 6704 0378 C1E002   		sall	$2, %eax
 6705 037b 0301     		addl	(%ecx), %eax
 6706 037d 8B9558FF 		movl	-168(%ebp), %edx
 6706      FFFF
 6707 0383 894208   		movl	%eax, 8(%edx)
 6708              	L247:
 6709 0386 8D8570FF 		leal	-144(%ebp), %eax
 6709      FFFF
 6710 038c 890424   		movl	%eax, (%esp)
 6711 038f E8000000 		call	__Unwind_SjLj_Unregister
 6711      00
 6712 0394 81C4AC00 		addl	$172, %esp
 6712      0000
 6713 039a 5B       		popl	%ebx
 6714 039b 5E       		popl	%esi
 6715 039c 5F       		popl	%edi
 6716 039d 5D       		popl	%ebp
 6717 039e C3       		ret
 6718              	LBE81:
 6719              	LBE79:
 6720              	LBE78:
 6721              		.section	.gcc_except_table,""
 6722 0032 0000     		.align 4
 6723              	LLSDA819:
 6724 0034 FF       		.byte	0xff
 6725 0035 00       		.byte	0x0
 6726 0036 0D       		.uleb128 LLSDATT819-LLSDATTD819
 6727              	LLSDATTD819:
 6728 0037 01       		.byte	0x1
 6729 0038 04       		.uleb128 LLSDACSE819-LLSDACSB819
 6730              	LLSDACSB819:
 6731 0039 00       		.uleb128 0x0
 6732 003a 00       		.uleb128 0x0
 6733 003b 01       		.uleb128 0x1
 6734 003c 01       		.uleb128 0x1
 6735              	LLSDACSE819:
 6736 003d 01       		.byte	0x1
 6737 003e 00       		.byte	0x0
GAS LISTING d:/MTK/MTK2503/MTK2503/11CW1418SP4_03_CORETEK03AE_11C_V1_GPRS_MMI/plutommi/Customer/ResGenerator/gcctmp/ccQHcaaa.s 			page 135


 6738 003f 00       		.align 4
 6739 0040 00000000 		.long	0
 6740              	LLSDATT819:
 6741              		.section	.text$_ZNSt6vectorIN10ThreadPool10ThreadDataESaIS1_EE13_M_insert_auxEN9__gnu_cxx17__norma
 6742              		.linkonce discard
 6752              	Lscope56:
 6754 039f 90       		.section	.text$_ZNSt14_List_iteratorIN10ThreadPool7JobDataERS1_PS1_EC1EPSt10_List_nodeIS1_E,"x"
 6755              		.linkonce discard
 6756              		.align 2
 6760              	.globl __ZNSt14_List_iteratorIN10ThreadPool7JobDataERS1_PS1_EC1EPSt10_List_nodeIS1_E
 6762              	__ZNSt14_List_iteratorIN10ThreadPool7JobDataERS1_PS1_EC1EPSt10_List_nodeIS1_E:
 6764              	Ltext23:
 6766              	LM299:
 6767 0000 55       		pushl	%ebp
 6768 0001 89E5     		movl	%esp, %ebp
 6769 0003 83EC08   		subl	$8, %esp
 6771              	LM300:
 6772              	LBB82:
 6773 0006 8B450C   		movl	12(%ebp), %eax
 6774 0009 89442404 		movl	%eax, 4(%esp)
 6775 000d 8B4508   		movl	8(%ebp), %eax
 6776 0010 890424   		movl	%eax, (%esp)
 6777 0013 E8000000 		call	__ZNSt19_List_iterator_baseC2EPSt15_List_node_base
 6777      00
 6778 0018 C9       		leave
 6779 0019 C3       		ret
 6780              	LBE82:
 6781              	Lscope57:
 6783 001a 9090     		.section	.text$_ZNKSt14_List_iteratorIN10ThreadPool7JobDataERS1_PS1_EdeEv,"x"
 6784              		.linkonce discard
 6785              		.align 2
 6788              	.globl __ZNKSt14_List_iteratorIN10ThreadPool7JobDataERS1_PS1_EdeEv
 6790              	__ZNKSt14_List_iteratorIN10ThreadPool7JobDataERS1_PS1_EdeEv:
 6792              	LM301:
 6793 0000 55       		pushl	%ebp
 6794 0001 89E5     		movl	%esp, %ebp
 6796              	LM302:
 6797              	LBB83:
 6798 0003 8B4508   		movl	8(%ebp), %eax
 6799 0006 8B00     		movl	(%eax), %eax
 6800 0008 83C008   		addl	$8, %eax
 6801 000b 5D       		popl	%ebp
 6802 000c C3       		ret
 6803              	LBE83:
 6804              	Lscope58:
 6806 000d 909090   		.section	.text$_ZSt8_DestroyIN9__gnu_cxx17__normal_iteratorIPN10ThreadPool10ThreadDataESt6vectorIS
 6807              		.linkonce discard
 6808              		.align 2
 6812              	.globl __ZSt8_DestroyIN9__gnu_cxx17__normal_iteratorIPN10ThreadPool10ThreadDataESt6vectorIS3_SaIS3_
 6814              	__ZSt8_DestroyIN9__gnu_cxx17__normal_iteratorIPN10ThreadPool10ThreadDataESt6vectorIS3_SaIS3_EEEEEvT
 6816              	Ltext24:
 6818              	LM303:
 6819 0000 55       		pushl	%ebp
 6820 0001 89E5     		movl	%esp, %ebp
 6821 0003 83EC18   		subl	$24, %esp
 6823              	LM304:
 6824              	LBB84:
GAS LISTING d:/MTK/MTK2503/MTK2503/11CW1418SP4_03_CORETEK03AE_11C_V1_GPRS_MMI/plutommi/Customer/ResGenerator/gcctmp/ccQHcaaa.s 			page 136


 6825 0006 C6442408 		movb	$0, 8(%esp)
 6825      00
 6826 000b 8B450C   		movl	12(%ebp), %eax
 6827 000e 89442404 		movl	%eax, 4(%esp)
 6828 0012 8B4508   		movl	8(%ebp), %eax
 6829 0015 890424   		movl	%eax, (%esp)
 6830 0018 E8000000 		call	__ZSt13__destroy_auxIN9__gnu_cxx17__normal_iteratorIPN10ThreadPool10ThreadDataESt6vectorIS3_S
 6830      00
 6831 001d C9       		leave
 6832 001e C3       		ret
 6833              	LBE84:
 6834              	Lscope59:
 6836 001f 90       		.section	.text$_ZNSt6vectorIN10ThreadPool10ThreadDataESaIS1_EE5eraseEN9__gnu_cxx17__normal_iterato
 6837              		.linkonce discard
 6838              		.align 2
 6843              	.globl __ZNSt6vectorIN10ThreadPool10ThreadDataESaIS1_EE5eraseEN9__gnu_cxx17__normal_iteratorIPS1_S3
 6845              	__ZNSt6vectorIN10ThreadPool10ThreadDataESaIS1_EE5eraseEN9__gnu_cxx17__normal_iteratorIPS1_S3_EES7_:
 6847              	Ltext25:
 6849              	LM305:
 6850 0000 55       		pushl	%ebp
 6851 0001 89E5     		movl	%esp, %ebp
 6852 0003 56       		pushl	%esi
 6853 0004 53       		pushl	%ebx
 6854 0005 83EC20   		subl	$32, %esp
 6856              	LM306:
 6857              	LBB85:
 6858 0008 8B4508   		movl	8(%ebp), %eax
 6859 000b 890424   		movl	%eax, (%esp)
 6860 000e E8000000 		call	__ZNSt6vectorIN10ThreadPool10ThreadDataESaIS1_EE3endEv
 6860      00
 6861 0013 8945F0   		movl	%eax, -16(%ebp)
 6862 0016 8B450C   		movl	12(%ebp), %eax
 6863 0019 89442408 		movl	%eax, 8(%esp)
 6864 001d 8B45F0   		movl	-16(%ebp), %eax
 6865 0020 89442404 		movl	%eax, 4(%esp)
 6866 0024 8B4510   		movl	16(%ebp), %eax
 6867 0027 890424   		movl	%eax, (%esp)
 6868 002a E8000000 		call	__ZSt4copyIN9__gnu_cxx17__normal_iteratorIPN10ThreadPool10ThreadDataESt6vectorIS3_SaIS3_EEEES
 6868      00
 6869 002f 8945F4   		movl	%eax, -12(%ebp)
 6871              	LM307:
 6872 0032 8B4508   		movl	8(%ebp), %eax
 6873 0035 890424   		movl	%eax, (%esp)
 6874 0038 E8000000 		call	__ZNSt6vectorIN10ThreadPool10ThreadDataESaIS1_EE3endEv
 6874      00
 6875 003d 8945EC   		movl	%eax, -20(%ebp)
 6876 0040 8B45EC   		movl	-20(%ebp), %eax
 6877 0043 89442404 		movl	%eax, 4(%esp)
 6878 0047 8B45F4   		movl	-12(%ebp), %eax
 6879 004a 890424   		movl	%eax, (%esp)
 6880 004d E8000000 		call	__ZSt8_DestroyIN9__gnu_cxx17__normal_iteratorIPN10ThreadPool10ThreadDataESt6vectorIS3_SaIS3_E
 6880      00
 6882              	LM308:
 6883 0052 8B5D08   		movl	8(%ebp), %ebx
 6884 0055 8B7508   		movl	8(%ebp), %esi
 6885 0058 8D450C   		leal	12(%ebp), %eax
 6886 005b 89442404 		movl	%eax, 4(%esp)
GAS LISTING d:/MTK/MTK2503/MTK2503/11CW1418SP4_03_CORETEK03AE_11C_V1_GPRS_MMI/plutommi/Customer/ResGenerator/gcctmp/ccQHcaaa.s 			page 137


 6887 005f 8D4510   		leal	16(%ebp), %eax
 6888 0062 890424   		movl	%eax, (%esp)
 6889 0065 E8000000 		call	__ZN9__gnu_cxxmiIPN10ThreadPool10ThreadDataES3_St6vectorIS2_SaIS2_EEEENS_17__normal_iteratorI
 6889      00
 6890 006a 89C2     		movl	%eax, %edx
 6891 006c 89D0     		movl	%edx, %eax
 6892 006e 01C0     		addl	%eax, %eax
 6893 0070 01D0     		addl	%edx, %eax
 6894 0072 8D148500 		leal	0(,%eax,4), %edx
 6894      000000
 6895 0079 8B4604   		movl	4(%esi), %eax
 6896 007c 29D0     		subl	%edx, %eax
 6897 007e 894304   		movl	%eax, 4(%ebx)
 6899              	LM309:
 6900 0081 8B450C   		movl	12(%ebp), %eax
 6901 0084 83C420   		addl	$32, %esp
 6902 0087 5B       		popl	%ebx
 6903 0088 5E       		popl	%esi
 6904 0089 5D       		popl	%ebp
 6905 008a C3       		ret
 6906              	LBE85:
 6910              	Lscope60:
 6912 008b 90       		.section	.text$_ZNSt4listIN10ThreadPool7JobDataESaIS1_EE6insertESt14_List_iteratorIS1_RS1_PS1_ERKS
 6913              		.linkonce discard
 6914              		.align 2
 6919              	.globl __ZNSt4listIN10ThreadPool7JobDataESaIS1_EE6insertESt14_List_iteratorIS1_RS1_PS1_ERKS1_
 6921              	__ZNSt4listIN10ThreadPool7JobDataESaIS1_EE6insertESt14_List_iteratorIS1_RS1_PS1_ERKS1_:
 6923              	Ltext26:
  82:d:/MTK/MTK2503/MTK2503/11CW1418SP4_03_CORETEK03AE_11C_V1_GPRS_MMI/Tools/MinGW/include/c++/3.3.1/bits/list.tcc ****     }
  83:d:/MTK/MTK2503/MTK2503/11CW1418SP4_03_CORETEK03AE_11C_V1_GPRS_MMI/Tools/MinGW/include/c++/3.3.1/bits/list.tcc ****   
  84:d:/MTK/MTK2503/MTK2503/11CW1418SP4_03_CORETEK03AE_11C_V1_GPRS_MMI/Tools/MinGW/include/c++/3.3.1/bits/list.tcc ****   template<typename _Tp, typename _Alloc>
  85:d:/MTK/MTK2503/MTK2503/11CW1418SP4_03_CORETEK03AE_11C_V1_GPRS_MMI/Tools/MinGW/include/c++/3.3.1/bits/list.tcc ****     typename list<_Tp,_Alloc>::iterator
  86:d:/MTK/MTK2503/MTK2503/11CW1418SP4_03_CORETEK03AE_11C_V1_GPRS_MMI/Tools/MinGW/include/c++/3.3.1/bits/list.tcc ****     list<_Tp,_Alloc>::
  87:d:/MTK/MTK2503/MTK2503/11CW1418SP4_03_CORETEK03AE_11C_V1_GPRS_MMI/Tools/MinGW/include/c++/3.3.1/bits/list.tcc ****     insert(iterator __position, const value_type& __x)
  88:d:/MTK/MTK2503/MTK2503/11CW1418SP4_03_CORETEK03AE_11C_V1_GPRS_MMI/Tools/MinGW/include/c++/3.3.1/bits/list.tcc ****     {
 6925              	LM310:
 6926 0000 55       		pushl	%ebp
 6927 0001 89E5     		movl	%esp, %ebp
 6928 0003 56       		pushl	%esi
 6929 0004 53       		pushl	%ebx
 6930 0005 83EC10   		subl	$16, %esp
 6931 0008 8B7508   		movl	8(%ebp), %esi
 6932 000b 8B5D10   		movl	16(%ebp), %ebx
  89:d:/MTK/MTK2503/MTK2503/11CW1418SP4_03_CORETEK03AE_11C_V1_GPRS_MMI/Tools/MinGW/include/c++/3.3.1/bits/list.tcc ****       _Node* __tmp = _M_create_node(__x);
 6934              	LM311:
 6935              	LBB86:
 6936 000e 8B4514   		movl	20(%ebp), %eax
 6937 0011 89442404 		movl	%eax, 4(%esp)
 6938 0015 8B450C   		movl	12(%ebp), %eax
 6939 0018 890424   		movl	%eax, (%esp)
 6940 001b E8000000 		call	__ZNSt4listIN10ThreadPool7JobDataESaIS1_EE14_M_create_nodeERKS1_
 6940      00
 6941 0020 8945F4   		movl	%eax, -12(%ebp)
  90:d:/MTK/MTK2503/MTK2503/11CW1418SP4_03_CORETEK03AE_11C_V1_GPRS_MMI/Tools/MinGW/include/c++/3.3.1/bits/list.tcc ****       __tmp->_M_next = __position._M_node;
 6943              	LM312:
 6944 0023 8B55F4   		movl	-12(%ebp), %edx
 6945 0026 8B03     		movl	(%ebx), %eax
GAS LISTING d:/MTK/MTK2503/MTK2503/11CW1418SP4_03_CORETEK03AE_11C_V1_GPRS_MMI/plutommi/Customer/ResGenerator/gcctmp/ccQHcaaa.s 			page 138


 6946 0028 8902     		movl	%eax, (%edx)
  91:d:/MTK/MTK2503/MTK2503/11CW1418SP4_03_CORETEK03AE_11C_V1_GPRS_MMI/Tools/MinGW/include/c++/3.3.1/bits/list.tcc ****       __tmp->_M_prev = __position._M_node->_M_prev;
 6948              	LM313:
 6949 002a 8B55F4   		movl	-12(%ebp), %edx
 6950 002d 8B03     		movl	(%ebx), %eax
 6951 002f 8B4004   		movl	4(%eax), %eax
 6952 0032 894204   		movl	%eax, 4(%edx)
  92:d:/MTK/MTK2503/MTK2503/11CW1418SP4_03_CORETEK03AE_11C_V1_GPRS_MMI/Tools/MinGW/include/c++/3.3.1/bits/list.tcc ****       __position._M_node->_M_prev->_M_next = __tmp;
 6954              	LM314:
 6955 0035 8B03     		movl	(%ebx), %eax
 6956 0037 8B5004   		movl	4(%eax), %edx
 6957 003a 8B45F4   		movl	-12(%ebp), %eax
 6958 003d 8902     		movl	%eax, (%edx)
  93:d:/MTK/MTK2503/MTK2503/11CW1418SP4_03_CORETEK03AE_11C_V1_GPRS_MMI/Tools/MinGW/include/c++/3.3.1/bits/list.tcc ****       __position._M_node->_M_prev = __tmp;
 6960              	LM315:
 6961 003f 8B13     		movl	(%ebx), %edx
 6962 0041 8B45F4   		movl	-12(%ebp), %eax
 6963 0044 894204   		movl	%eax, 4(%edx)
  94:d:/MTK/MTK2503/MTK2503/11CW1418SP4_03_CORETEK03AE_11C_V1_GPRS_MMI/Tools/MinGW/include/c++/3.3.1/bits/list.tcc ****       return __tmp;
 6965              	LM316:
 6966 0047 8B45F4   		movl	-12(%ebp), %eax
 6967 004a 89442404 		movl	%eax, 4(%esp)
 6968 004e 893424   		movl	%esi, (%esp)
 6969 0051 E8000000 		call	__ZNSt14_List_iteratorIN10ThreadPool7JobDataERS1_PS1_EC1EPSt10_List_nodeIS1_E
 6969      00
 6970              	LBE86:
 6971 0056 89F0     		movl	%esi, %eax
 6972 0058 83C410   		addl	$16, %esp
 6973 005b 5B       		popl	%ebx
 6974 005c 5E       		popl	%esi
 6975 005d 5D       		popl	%ebp
 6976 005e C20400   		ret	$4
 6981              	Lscope61:
 6983 0061 909090   		.section	.text$_ZNSt4listIN10ThreadPool7JobDataESaIS1_EE5eraseESt14_List_iteratorIS1_RS1_PS1_E,"x"
 6984              		.linkonce discard
 6985              		.align 2
 6989              	.globl __ZNSt4listIN10ThreadPool7JobDataESaIS1_EE5eraseESt14_List_iteratorIS1_RS1_PS1_E
 6991              	__ZNSt4listIN10ThreadPool7JobDataESaIS1_EE5eraseESt14_List_iteratorIS1_RS1_PS1_E:
  95:d:/MTK/MTK2503/MTK2503/11CW1418SP4_03_CORETEK03AE_11C_V1_GPRS_MMI/Tools/MinGW/include/c++/3.3.1/bits/list.tcc ****     }
  96:d:/MTK/MTK2503/MTK2503/11CW1418SP4_03_CORETEK03AE_11C_V1_GPRS_MMI/Tools/MinGW/include/c++/3.3.1/bits/list.tcc ****   
  97:d:/MTK/MTK2503/MTK2503/11CW1418SP4_03_CORETEK03AE_11C_V1_GPRS_MMI/Tools/MinGW/include/c++/3.3.1/bits/list.tcc ****   template<typename _Tp, typename _Alloc>
  98:d:/MTK/MTK2503/MTK2503/11CW1418SP4_03_CORETEK03AE_11C_V1_GPRS_MMI/Tools/MinGW/include/c++/3.3.1/bits/list.tcc ****     typename list<_Tp,_Alloc>::iterator
  99:d:/MTK/MTK2503/MTK2503/11CW1418SP4_03_CORETEK03AE_11C_V1_GPRS_MMI/Tools/MinGW/include/c++/3.3.1/bits/list.tcc ****     list<_Tp,_Alloc>::
 100:d:/MTK/MTK2503/MTK2503/11CW1418SP4_03_CORETEK03AE_11C_V1_GPRS_MMI/Tools/MinGW/include/c++/3.3.1/bits/list.tcc ****     erase(iterator __position)
 101:d:/MTK/MTK2503/MTK2503/11CW1418SP4_03_CORETEK03AE_11C_V1_GPRS_MMI/Tools/MinGW/include/c++/3.3.1/bits/list.tcc ****     {
 6993              	LM317:
 6994 0000 55       		pushl	%ebp
 6995 0001 89E5     		movl	%esp, %ebp
 6996 0003 53       		pushl	%ebx
 6997 0004 83EC14   		subl	$20, %esp
 6998 0007 8B5D08   		movl	8(%ebp), %ebx
 6999 000a 8B5510   		movl	16(%ebp), %edx
 102:d:/MTK/MTK2503/MTK2503/11CW1418SP4_03_CORETEK03AE_11C_V1_GPRS_MMI/Tools/MinGW/include/c++/3.3.1/bits/list.tcc ****       _List_node_base* __next_node = __position._M_node->_M_next;
 7001              	LM318:
 7002              	LBB87:
 7003 000d 8B02     		movl	(%edx), %eax
 7004 000f 8B00     		movl	(%eax), %eax
GAS LISTING d:/MTK/MTK2503/MTK2503/11CW1418SP4_03_CORETEK03AE_11C_V1_GPRS_MMI/plutommi/Customer/ResGenerator/gcctmp/ccQHcaaa.s 			page 139


 7005 0011 8945F8   		movl	%eax, -8(%ebp)
 103:d:/MTK/MTK2503/MTK2503/11CW1418SP4_03_CORETEK03AE_11C_V1_GPRS_MMI/Tools/MinGW/include/c++/3.3.1/bits/list.tcc ****       _List_node_base* __prev_node = __position._M_node->_M_prev;
 7007              	LM319:
 7008 0014 8B02     		movl	(%edx), %eax
 7009 0016 8B4004   		movl	4(%eax), %eax
 7010 0019 8945F4   		movl	%eax, -12(%ebp)
 104:d:/MTK/MTK2503/MTK2503/11CW1418SP4_03_CORETEK03AE_11C_V1_GPRS_MMI/Tools/MinGW/include/c++/3.3.1/bits/list.tcc ****       _Node* __n = static_cast<_Node*>(__position._M_node);
 7012              	LM320:
 7013 001c 8B02     		movl	(%edx), %eax
 7014 001e 8945F0   		movl	%eax, -16(%ebp)
 105:d:/MTK/MTK2503/MTK2503/11CW1418SP4_03_CORETEK03AE_11C_V1_GPRS_MMI/Tools/MinGW/include/c++/3.3.1/bits/list.tcc ****       __prev_node->_M_next = __next_node;
 7016              	LM321:
 7017 0021 8B55F4   		movl	-12(%ebp), %edx
 7018 0024 8B45F8   		movl	-8(%ebp), %eax
 7019 0027 8902     		movl	%eax, (%edx)
 106:d:/MTK/MTK2503/MTK2503/11CW1418SP4_03_CORETEK03AE_11C_V1_GPRS_MMI/Tools/MinGW/include/c++/3.3.1/bits/list.tcc ****       __next_node->_M_prev = __prev_node;
 7021              	LM322:
 7022 0029 8B55F8   		movl	-8(%ebp), %edx
 7023 002c 8B45F4   		movl	-12(%ebp), %eax
 7024 002f 894204   		movl	%eax, 4(%edx)
 107:d:/MTK/MTK2503/MTK2503/11CW1418SP4_03_CORETEK03AE_11C_V1_GPRS_MMI/Tools/MinGW/include/c++/3.3.1/bits/list.tcc ****       _Destroy(&__n->_M_data);
 7026              	LM323:
 7027 0032 8B45F0   		movl	-16(%ebp), %eax
 7028 0035 83C008   		addl	$8, %eax
 7029 0038 890424   		movl	%eax, (%esp)
 7030 003b E8000000 		call	__ZSt8_DestroyIN10ThreadPool7JobDataEEvPT_
 7030      00
 108:d:/MTK/MTK2503/MTK2503/11CW1418SP4_03_CORETEK03AE_11C_V1_GPRS_MMI/Tools/MinGW/include/c++/3.3.1/bits/list.tcc ****       _M_put_node(__n);
 7032              	LM324:
 7033 0040 8B45F0   		movl	-16(%ebp), %eax
 7034 0043 89442404 		movl	%eax, 4(%esp)
 7035 0047 8B450C   		movl	12(%ebp), %eax
 7036 004a 890424   		movl	%eax, (%esp)
 7037 004d E8000000 		call	__ZNSt16_List_alloc_baseIN10ThreadPool7JobDataESaIS1_ELb1EE11_M_put_nodeEPSt10_List_nodeIS1_E
 7037      00
 109:d:/MTK/MTK2503/MTK2503/11CW1418SP4_03_CORETEK03AE_11C_V1_GPRS_MMI/Tools/MinGW/include/c++/3.3.1/bits/list.tcc ****       return iterator(static_cast<_Node*>(__next_node));
 7039              	LM325:
 7040 0052 8B45F8   		movl	-8(%ebp), %eax
 7041 0055 89442404 		movl	%eax, 4(%esp)
 7042 0059 891C24   		movl	%ebx, (%esp)
 7043 005c E8000000 		call	__ZNSt14_List_iteratorIN10ThreadPool7JobDataERS1_PS1_EC1EPSt10_List_nodeIS1_E
 7043      00
 7044              	LBE87:
 7045 0061 89D8     		movl	%ebx, %eax
 7046 0063 83C414   		addl	$20, %esp
 7047 0066 5B       		popl	%ebx
 7048 0067 5D       		popl	%ebp
 7049 0068 C20400   		ret	$4
 7056              	Lscope62:
 7058 006b 90       		.section	.text$_ZSt13__destroy_auxIPN10ThreadPool10ThreadDataEEvT_S3_12__false_type,"x"
 7059              		.linkonce discard
 7060              		.align 2
 7064              	.globl __ZSt13__destroy_auxIPN10ThreadPool10ThreadDataEEvT_S3_12__false_type
 7066              	__ZSt13__destroy_auxIPN10ThreadPool10ThreadDataEEvT_S3_12__false_type:
 7068              	Ltext27:
 7070              	LM326:
 7071 0000 55       		pushl	%ebp
GAS LISTING d:/MTK/MTK2503/MTK2503/11CW1418SP4_03_CORETEK03AE_11C_V1_GPRS_MMI/plutommi/Customer/ResGenerator/gcctmp/ccQHcaaa.s 			page 140


 7072 0001 89E5     		movl	%esp, %ebp
 7073 0003 83EC08   		subl	$8, %esp
 7075              	LM327:
 7076              	LBB88:
 7077 0006 90       		nop
 7078              	L267:
 7079 0007 8B4508   		movl	8(%ebp), %eax
 7080 000a 3B450C   		cmpl	12(%ebp), %eax
 7081 000d 7502     		jne	L270
 7082 000f EB11     		jmp	L266
 7083              	L270:
 7084 0011 8B4508   		movl	8(%ebp), %eax
 7085 0014 890424   		movl	%eax, (%esp)
 7086 0017 E8000000 		call	__ZSt8_DestroyIN10ThreadPool10ThreadDataEEvPT_
 7086      00
 7087 001c 8345080C 		addl	$12, 8(%ebp)
 7088 0020 EBE5     		jmp	L267
 7089              	L266:
 7090 0022 C9       		leave
 7091 0023 C3       		ret
 7092              	LBE88:
 7093              	Lscope63:
 7095              		.section	.text$_ZSt18uninitialized_copyIN9__gnu_cxx17__normal_iteratorIPN10ThreadPool10ThreadDataE
 7096              		.linkonce discard
 7097              		.align 2
 7102              	.globl __ZSt18uninitialized_copyIN9__gnu_cxx17__normal_iteratorIPN10ThreadPool10ThreadDataESt6vecto
 7104              	__ZSt18uninitialized_copyIN9__gnu_cxx17__normal_iteratorIPN10ThreadPool10ThreadDataESt6vectorIS3_Sa
 7106              	Ltext28:
   1:d:/MTK/MTK2503/MTK2503/11CW1418SP4_03_CORETEK03AE_11C_V1_GPRS_MMI/Tools/MinGW/include/c++/3.3.1/bits/stl_uninitialized.h **** // Raw memory manipulators -*- C++ -*-
   2:d:/MTK/MTK2503/MTK2503/11CW1418SP4_03_CORETEK03AE_11C_V1_GPRS_MMI/Tools/MinGW/include/c++/3.3.1/bits/stl_uninitialized.h **** 
   3:d:/MTK/MTK2503/MTK2503/11CW1418SP4_03_CORETEK03AE_11C_V1_GPRS_MMI/Tools/MinGW/include/c++/3.3.1/bits/stl_uninitialized.h **** // Copyright (C) 2001 Free Software Foundation, Inc.
   4:d:/MTK/MTK2503/MTK2503/11CW1418SP4_03_CORETEK03AE_11C_V1_GPRS_MMI/Tools/MinGW/include/c++/3.3.1/bits/stl_uninitialized.h **** //
   5:d:/MTK/MTK2503/MTK2503/11CW1418SP4_03_CORETEK03AE_11C_V1_GPRS_MMI/Tools/MinGW/include/c++/3.3.1/bits/stl_uninitialized.h **** // This file is part of the GNU ISO C++ Library.  This library is free
   6:d:/MTK/MTK2503/MTK2503/11CW1418SP4_03_CORETEK03AE_11C_V1_GPRS_MMI/Tools/MinGW/include/c++/3.3.1/bits/stl_uninitialized.h **** // software; you can redistribute it and/or modify it under the
   7:d:/MTK/MTK2503/MTK2503/11CW1418SP4_03_CORETEK03AE_11C_V1_GPRS_MMI/Tools/MinGW/include/c++/3.3.1/bits/stl_uninitialized.h **** // terms of the GNU General Public License as published by the
   8:d:/MTK/MTK2503/MTK2503/11CW1418SP4_03_CORETEK03AE_11C_V1_GPRS_MMI/Tools/MinGW/include/c++/3.3.1/bits/stl_uninitialized.h **** // Free Software Foundation; either version 2, or (at your option)
   9:d:/MTK/MTK2503/MTK2503/11CW1418SP4_03_CORETEK03AE_11C_V1_GPRS_MMI/Tools/MinGW/include/c++/3.3.1/bits/stl_uninitialized.h **** // any later version.
  10:d:/MTK/MTK2503/MTK2503/11CW1418SP4_03_CORETEK03AE_11C_V1_GPRS_MMI/Tools/MinGW/include/c++/3.3.1/bits/stl_uninitialized.h **** 
  11:d:/MTK/MTK2503/MTK2503/11CW1418SP4_03_CORETEK03AE_11C_V1_GPRS_MMI/Tools/MinGW/include/c++/3.3.1/bits/stl_uninitialized.h **** // This library is distributed in the hope that it will be useful,
  12:d:/MTK/MTK2503/MTK2503/11CW1418SP4_03_CORETEK03AE_11C_V1_GPRS_MMI/Tools/MinGW/include/c++/3.3.1/bits/stl_uninitialized.h **** // but WITHOUT ANY WARRANTY; without even the implied warranty of
  13:d:/MTK/MTK2503/MTK2503/11CW1418SP4_03_CORETEK03AE_11C_V1_GPRS_MMI/Tools/MinGW/include/c++/3.3.1/bits/stl_uninitialized.h **** // MERCHANTABILITY or FITNESS FOR A PARTICULAR PURPOSE.  See the
  14:d:/MTK/MTK2503/MTK2503/11CW1418SP4_03_CORETEK03AE_11C_V1_GPRS_MMI/Tools/MinGW/include/c++/3.3.1/bits/stl_uninitialized.h **** // GNU General Public License for more details.
  15:d:/MTK/MTK2503/MTK2503/11CW1418SP4_03_CORETEK03AE_11C_V1_GPRS_MMI/Tools/MinGW/include/c++/3.3.1/bits/stl_uninitialized.h **** 
  16:d:/MTK/MTK2503/MTK2503/11CW1418SP4_03_CORETEK03AE_11C_V1_GPRS_MMI/Tools/MinGW/include/c++/3.3.1/bits/stl_uninitialized.h **** // You should have received a copy of the GNU General Public License along
  17:d:/MTK/MTK2503/MTK2503/11CW1418SP4_03_CORETEK03AE_11C_V1_GPRS_MMI/Tools/MinGW/include/c++/3.3.1/bits/stl_uninitialized.h **** // with this library; see the file COPYING.  If not, write to the Free
  18:d:/MTK/MTK2503/MTK2503/11CW1418SP4_03_CORETEK03AE_11C_V1_GPRS_MMI/Tools/MinGW/include/c++/3.3.1/bits/stl_uninitialized.h **** // Software Foundation, 59 Temple Place - Suite 330, Boston, MA 02111-1307,
  19:d:/MTK/MTK2503/MTK2503/11CW1418SP4_03_CORETEK03AE_11C_V1_GPRS_MMI/Tools/MinGW/include/c++/3.3.1/bits/stl_uninitialized.h **** // USA.
  20:d:/MTK/MTK2503/MTK2503/11CW1418SP4_03_CORETEK03AE_11C_V1_GPRS_MMI/Tools/MinGW/include/c++/3.3.1/bits/stl_uninitialized.h **** 
  21:d:/MTK/MTK2503/MTK2503/11CW1418SP4_03_CORETEK03AE_11C_V1_GPRS_MMI/Tools/MinGW/include/c++/3.3.1/bits/stl_uninitialized.h **** // As a special exception, you may use this file as part of a free software
  22:d:/MTK/MTK2503/MTK2503/11CW1418SP4_03_CORETEK03AE_11C_V1_GPRS_MMI/Tools/MinGW/include/c++/3.3.1/bits/stl_uninitialized.h **** // library without restriction.  Specifically, if other files instantiate
  23:d:/MTK/MTK2503/MTK2503/11CW1418SP4_03_CORETEK03AE_11C_V1_GPRS_MMI/Tools/MinGW/include/c++/3.3.1/bits/stl_uninitialized.h **** // templates or use macros or inline functions from this file, or you compile
  24:d:/MTK/MTK2503/MTK2503/11CW1418SP4_03_CORETEK03AE_11C_V1_GPRS_MMI/Tools/MinGW/include/c++/3.3.1/bits/stl_uninitialized.h **** // this file and link it with other files to produce an executable, this
  25:d:/MTK/MTK2503/MTK2503/11CW1418SP4_03_CORETEK03AE_11C_V1_GPRS_MMI/Tools/MinGW/include/c++/3.3.1/bits/stl_uninitialized.h **** // file does not by itself cause the resulting executable to be covered by
  26:d:/MTK/MTK2503/MTK2503/11CW1418SP4_03_CORETEK03AE_11C_V1_GPRS_MMI/Tools/MinGW/include/c++/3.3.1/bits/stl_uninitialized.h **** // the GNU General Public License.  This exception does not however
  27:d:/MTK/MTK2503/MTK2503/11CW1418SP4_03_CORETEK03AE_11C_V1_GPRS_MMI/Tools/MinGW/include/c++/3.3.1/bits/stl_uninitialized.h **** // invalidate any other reasons why the executable file might be covered by
  28:d:/MTK/MTK2503/MTK2503/11CW1418SP4_03_CORETEK03AE_11C_V1_GPRS_MMI/Tools/MinGW/include/c++/3.3.1/bits/stl_uninitialized.h **** // the GNU General Public License.
  29:d:/MTK/MTK2503/MTK2503/11CW1418SP4_03_CORETEK03AE_11C_V1_GPRS_MMI/Tools/MinGW/include/c++/3.3.1/bits/stl_uninitialized.h **** 
GAS LISTING d:/MTK/MTK2503/MTK2503/11CW1418SP4_03_CORETEK03AE_11C_V1_GPRS_MMI/plutommi/Customer/ResGenerator/gcctmp/ccQHcaaa.s 			page 141


  30:d:/MTK/MTK2503/MTK2503/11CW1418SP4_03_CORETEK03AE_11C_V1_GPRS_MMI/Tools/MinGW/include/c++/3.3.1/bits/stl_uninitialized.h **** /*
  31:d:/MTK/MTK2503/MTK2503/11CW1418SP4_03_CORETEK03AE_11C_V1_GPRS_MMI/Tools/MinGW/include/c++/3.3.1/bits/stl_uninitialized.h ****  *
  32:d:/MTK/MTK2503/MTK2503/11CW1418SP4_03_CORETEK03AE_11C_V1_GPRS_MMI/Tools/MinGW/include/c++/3.3.1/bits/stl_uninitialized.h ****  * Copyright (c) 1994
  33:d:/MTK/MTK2503/MTK2503/11CW1418SP4_03_CORETEK03AE_11C_V1_GPRS_MMI/Tools/MinGW/include/c++/3.3.1/bits/stl_uninitialized.h ****  * Hewlett-Packard Company
  34:d:/MTK/MTK2503/MTK2503/11CW1418SP4_03_CORETEK03AE_11C_V1_GPRS_MMI/Tools/MinGW/include/c++/3.3.1/bits/stl_uninitialized.h ****  *
  35:d:/MTK/MTK2503/MTK2503/11CW1418SP4_03_CORETEK03AE_11C_V1_GPRS_MMI/Tools/MinGW/include/c++/3.3.1/bits/stl_uninitialized.h ****  * Permission to use, copy, modify, distribute and sell this software
  36:d:/MTK/MTK2503/MTK2503/11CW1418SP4_03_CORETEK03AE_11C_V1_GPRS_MMI/Tools/MinGW/include/c++/3.3.1/bits/stl_uninitialized.h ****  * and its documentation for any purpose is hereby granted without fee,
  37:d:/MTK/MTK2503/MTK2503/11CW1418SP4_03_CORETEK03AE_11C_V1_GPRS_MMI/Tools/MinGW/include/c++/3.3.1/bits/stl_uninitialized.h ****  * provided that the above copyright notice appear in all copies and
  38:d:/MTK/MTK2503/MTK2503/11CW1418SP4_03_CORETEK03AE_11C_V1_GPRS_MMI/Tools/MinGW/include/c++/3.3.1/bits/stl_uninitialized.h ****  * that both that copyright notice and this permission notice appear
  39:d:/MTK/MTK2503/MTK2503/11CW1418SP4_03_CORETEK03AE_11C_V1_GPRS_MMI/Tools/MinGW/include/c++/3.3.1/bits/stl_uninitialized.h ****  * in supporting documentation.  Hewlett-Packard Company makes no
  40:d:/MTK/MTK2503/MTK2503/11CW1418SP4_03_CORETEK03AE_11C_V1_GPRS_MMI/Tools/MinGW/include/c++/3.3.1/bits/stl_uninitialized.h ****  * representations about the suitability of this software for any
  41:d:/MTK/MTK2503/MTK2503/11CW1418SP4_03_CORETEK03AE_11C_V1_GPRS_MMI/Tools/MinGW/include/c++/3.3.1/bits/stl_uninitialized.h ****  * purpose.  It is provided "as is" without express or implied warranty.
  42:d:/MTK/MTK2503/MTK2503/11CW1418SP4_03_CORETEK03AE_11C_V1_GPRS_MMI/Tools/MinGW/include/c++/3.3.1/bits/stl_uninitialized.h ****  *
  43:d:/MTK/MTK2503/MTK2503/11CW1418SP4_03_CORETEK03AE_11C_V1_GPRS_MMI/Tools/MinGW/include/c++/3.3.1/bits/stl_uninitialized.h ****  *
  44:d:/MTK/MTK2503/MTK2503/11CW1418SP4_03_CORETEK03AE_11C_V1_GPRS_MMI/Tools/MinGW/include/c++/3.3.1/bits/stl_uninitialized.h ****  * Copyright (c) 1996,1997
  45:d:/MTK/MTK2503/MTK2503/11CW1418SP4_03_CORETEK03AE_11C_V1_GPRS_MMI/Tools/MinGW/include/c++/3.3.1/bits/stl_uninitialized.h ****  * Silicon Graphics Computer Systems, Inc.
  46:d:/MTK/MTK2503/MTK2503/11CW1418SP4_03_CORETEK03AE_11C_V1_GPRS_MMI/Tools/MinGW/include/c++/3.3.1/bits/stl_uninitialized.h ****  *
  47:d:/MTK/MTK2503/MTK2503/11CW1418SP4_03_CORETEK03AE_11C_V1_GPRS_MMI/Tools/MinGW/include/c++/3.3.1/bits/stl_uninitialized.h ****  * Permission to use, copy, modify, distribute and sell this software
  48:d:/MTK/MTK2503/MTK2503/11CW1418SP4_03_CORETEK03AE_11C_V1_GPRS_MMI/Tools/MinGW/include/c++/3.3.1/bits/stl_uninitialized.h ****  * and its documentation for any purpose is hereby granted without fee,
  49:d:/MTK/MTK2503/MTK2503/11CW1418SP4_03_CORETEK03AE_11C_V1_GPRS_MMI/Tools/MinGW/include/c++/3.3.1/bits/stl_uninitialized.h ****  * provided that the above copyright notice appear in all copies and
  50:d:/MTK/MTK2503/MTK2503/11CW1418SP4_03_CORETEK03AE_11C_V1_GPRS_MMI/Tools/MinGW/include/c++/3.3.1/bits/stl_uninitialized.h ****  * that both that copyright notice and this permission notice appear
  51:d:/MTK/MTK2503/MTK2503/11CW1418SP4_03_CORETEK03AE_11C_V1_GPRS_MMI/Tools/MinGW/include/c++/3.3.1/bits/stl_uninitialized.h ****  * in supporting documentation.  Silicon Graphics makes no
  52:d:/MTK/MTK2503/MTK2503/11CW1418SP4_03_CORETEK03AE_11C_V1_GPRS_MMI/Tools/MinGW/include/c++/3.3.1/bits/stl_uninitialized.h ****  * representations about the suitability of this software for any
  53:d:/MTK/MTK2503/MTK2503/11CW1418SP4_03_CORETEK03AE_11C_V1_GPRS_MMI/Tools/MinGW/include/c++/3.3.1/bits/stl_uninitialized.h ****  * purpose.  It is provided "as is" without express or implied warranty.
  54:d:/MTK/MTK2503/MTK2503/11CW1418SP4_03_CORETEK03AE_11C_V1_GPRS_MMI/Tools/MinGW/include/c++/3.3.1/bits/stl_uninitialized.h ****  */
  55:d:/MTK/MTK2503/MTK2503/11CW1418SP4_03_CORETEK03AE_11C_V1_GPRS_MMI/Tools/MinGW/include/c++/3.3.1/bits/stl_uninitialized.h **** 
  56:d:/MTK/MTK2503/MTK2503/11CW1418SP4_03_CORETEK03AE_11C_V1_GPRS_MMI/Tools/MinGW/include/c++/3.3.1/bits/stl_uninitialized.h **** /** @file stl_uninitialized.h
  57:d:/MTK/MTK2503/MTK2503/11CW1418SP4_03_CORETEK03AE_11C_V1_GPRS_MMI/Tools/MinGW/include/c++/3.3.1/bits/stl_uninitialized.h ****  *  This is an internal header file, included by other library headers.
  58:d:/MTK/MTK2503/MTK2503/11CW1418SP4_03_CORETEK03AE_11C_V1_GPRS_MMI/Tools/MinGW/include/c++/3.3.1/bits/stl_uninitialized.h ****  *  You should not attempt to use it directly.
  59:d:/MTK/MTK2503/MTK2503/11CW1418SP4_03_CORETEK03AE_11C_V1_GPRS_MMI/Tools/MinGW/include/c++/3.3.1/bits/stl_uninitialized.h ****  */
  60:d:/MTK/MTK2503/MTK2503/11CW1418SP4_03_CORETEK03AE_11C_V1_GPRS_MMI/Tools/MinGW/include/c++/3.3.1/bits/stl_uninitialized.h **** 
  61:d:/MTK/MTK2503/MTK2503/11CW1418SP4_03_CORETEK03AE_11C_V1_GPRS_MMI/Tools/MinGW/include/c++/3.3.1/bits/stl_uninitialized.h **** #ifndef _CPP_BITS_STL_UNINITIALIZED_H
  62:d:/MTK/MTK2503/MTK2503/11CW1418SP4_03_CORETEK03AE_11C_V1_GPRS_MMI/Tools/MinGW/include/c++/3.3.1/bits/stl_uninitialized.h **** #define _CPP_BITS_STL_UNINITIALIZED_H 1
  63:d:/MTK/MTK2503/MTK2503/11CW1418SP4_03_CORETEK03AE_11C_V1_GPRS_MMI/Tools/MinGW/include/c++/3.3.1/bits/stl_uninitialized.h **** 
  64:d:/MTK/MTK2503/MTK2503/11CW1418SP4_03_CORETEK03AE_11C_V1_GPRS_MMI/Tools/MinGW/include/c++/3.3.1/bits/stl_uninitialized.h **** #include <cstring>
  65:d:/MTK/MTK2503/MTK2503/11CW1418SP4_03_CORETEK03AE_11C_V1_GPRS_MMI/Tools/MinGW/include/c++/3.3.1/bits/stl_uninitialized.h **** 
  66:d:/MTK/MTK2503/MTK2503/11CW1418SP4_03_CORETEK03AE_11C_V1_GPRS_MMI/Tools/MinGW/include/c++/3.3.1/bits/stl_uninitialized.h **** namespace std
  67:d:/MTK/MTK2503/MTK2503/11CW1418SP4_03_CORETEK03AE_11C_V1_GPRS_MMI/Tools/MinGW/include/c++/3.3.1/bits/stl_uninitialized.h **** {
  68:d:/MTK/MTK2503/MTK2503/11CW1418SP4_03_CORETEK03AE_11C_V1_GPRS_MMI/Tools/MinGW/include/c++/3.3.1/bits/stl_uninitialized.h **** 
  69:d:/MTK/MTK2503/MTK2503/11CW1418SP4_03_CORETEK03AE_11C_V1_GPRS_MMI/Tools/MinGW/include/c++/3.3.1/bits/stl_uninitialized.h ****   // uninitialized_copy
  70:d:/MTK/MTK2503/MTK2503/11CW1418SP4_03_CORETEK03AE_11C_V1_GPRS_MMI/Tools/MinGW/include/c++/3.3.1/bits/stl_uninitialized.h **** 
  71:d:/MTK/MTK2503/MTK2503/11CW1418SP4_03_CORETEK03AE_11C_V1_GPRS_MMI/Tools/MinGW/include/c++/3.3.1/bits/stl_uninitialized.h ****   template<typename _InputIter, typename _ForwardIter>
  72:d:/MTK/MTK2503/MTK2503/11CW1418SP4_03_CORETEK03AE_11C_V1_GPRS_MMI/Tools/MinGW/include/c++/3.3.1/bits/stl_uninitialized.h ****     inline _ForwardIter 
  73:d:/MTK/MTK2503/MTK2503/11CW1418SP4_03_CORETEK03AE_11C_V1_GPRS_MMI/Tools/MinGW/include/c++/3.3.1/bits/stl_uninitialized.h ****     __uninitialized_copy_aux(_InputIter __first, _InputIter __last,
  74:d:/MTK/MTK2503/MTK2503/11CW1418SP4_03_CORETEK03AE_11C_V1_GPRS_MMI/Tools/MinGW/include/c++/3.3.1/bits/stl_uninitialized.h **** 			     _ForwardIter __result,
  75:d:/MTK/MTK2503/MTK2503/11CW1418SP4_03_CORETEK03AE_11C_V1_GPRS_MMI/Tools/MinGW/include/c++/3.3.1/bits/stl_uninitialized.h **** 			     __true_type)
  76:d:/MTK/MTK2503/MTK2503/11CW1418SP4_03_CORETEK03AE_11C_V1_GPRS_MMI/Tools/MinGW/include/c++/3.3.1/bits/stl_uninitialized.h ****     { return copy(__first, __last, __result); }
  77:d:/MTK/MTK2503/MTK2503/11CW1418SP4_03_CORETEK03AE_11C_V1_GPRS_MMI/Tools/MinGW/include/c++/3.3.1/bits/stl_uninitialized.h **** 
  78:d:/MTK/MTK2503/MTK2503/11CW1418SP4_03_CORETEK03AE_11C_V1_GPRS_MMI/Tools/MinGW/include/c++/3.3.1/bits/stl_uninitialized.h ****   template<typename _InputIter, typename _ForwardIter>
  79:d:/MTK/MTK2503/MTK2503/11CW1418SP4_03_CORETEK03AE_11C_V1_GPRS_MMI/Tools/MinGW/include/c++/3.3.1/bits/stl_uninitialized.h ****     _ForwardIter 
  80:d:/MTK/MTK2503/MTK2503/11CW1418SP4_03_CORETEK03AE_11C_V1_GPRS_MMI/Tools/MinGW/include/c++/3.3.1/bits/stl_uninitialized.h ****     __uninitialized_copy_aux(_InputIter __first, _InputIter __last,
  81:d:/MTK/MTK2503/MTK2503/11CW1418SP4_03_CORETEK03AE_11C_V1_GPRS_MMI/Tools/MinGW/include/c++/3.3.1/bits/stl_uninitialized.h **** 			     _ForwardIter __result,
  82:d:/MTK/MTK2503/MTK2503/11CW1418SP4_03_CORETEK03AE_11C_V1_GPRS_MMI/Tools/MinGW/include/c++/3.3.1/bits/stl_uninitialized.h **** 			     __false_type)
  83:d:/MTK/MTK2503/MTK2503/11CW1418SP4_03_CORETEK03AE_11C_V1_GPRS_MMI/Tools/MinGW/include/c++/3.3.1/bits/stl_uninitialized.h ****     {
  84:d:/MTK/MTK2503/MTK2503/11CW1418SP4_03_CORETEK03AE_11C_V1_GPRS_MMI/Tools/MinGW/include/c++/3.3.1/bits/stl_uninitialized.h ****       _ForwardIter __cur = __result;
  85:d:/MTK/MTK2503/MTK2503/11CW1418SP4_03_CORETEK03AE_11C_V1_GPRS_MMI/Tools/MinGW/include/c++/3.3.1/bits/stl_uninitialized.h ****       try {
  86:d:/MTK/MTK2503/MTK2503/11CW1418SP4_03_CORETEK03AE_11C_V1_GPRS_MMI/Tools/MinGW/include/c++/3.3.1/bits/stl_uninitialized.h **** 	for ( ; __first != __last; ++__first, ++__cur)
GAS LISTING d:/MTK/MTK2503/MTK2503/11CW1418SP4_03_CORETEK03AE_11C_V1_GPRS_MMI/plutommi/Customer/ResGenerator/gcctmp/ccQHcaaa.s 			page 142


  87:d:/MTK/MTK2503/MTK2503/11CW1418SP4_03_CORETEK03AE_11C_V1_GPRS_MMI/Tools/MinGW/include/c++/3.3.1/bits/stl_uninitialized.h **** 	  _Construct(&*__cur, *__first);
  88:d:/MTK/MTK2503/MTK2503/11CW1418SP4_03_CORETEK03AE_11C_V1_GPRS_MMI/Tools/MinGW/include/c++/3.3.1/bits/stl_uninitialized.h **** 	return __cur;
  89:d:/MTK/MTK2503/MTK2503/11CW1418SP4_03_CORETEK03AE_11C_V1_GPRS_MMI/Tools/MinGW/include/c++/3.3.1/bits/stl_uninitialized.h ****       }
  90:d:/MTK/MTK2503/MTK2503/11CW1418SP4_03_CORETEK03AE_11C_V1_GPRS_MMI/Tools/MinGW/include/c++/3.3.1/bits/stl_uninitialized.h ****       catch(...)
  91:d:/MTK/MTK2503/MTK2503/11CW1418SP4_03_CORETEK03AE_11C_V1_GPRS_MMI/Tools/MinGW/include/c++/3.3.1/bits/stl_uninitialized.h **** 	{
  92:d:/MTK/MTK2503/MTK2503/11CW1418SP4_03_CORETEK03AE_11C_V1_GPRS_MMI/Tools/MinGW/include/c++/3.3.1/bits/stl_uninitialized.h **** 	  _Destroy(__result, __cur);
  93:d:/MTK/MTK2503/MTK2503/11CW1418SP4_03_CORETEK03AE_11C_V1_GPRS_MMI/Tools/MinGW/include/c++/3.3.1/bits/stl_uninitialized.h **** 	  __throw_exception_again; 
  94:d:/MTK/MTK2503/MTK2503/11CW1418SP4_03_CORETEK03AE_11C_V1_GPRS_MMI/Tools/MinGW/include/c++/3.3.1/bits/stl_uninitialized.h **** 	}
  95:d:/MTK/MTK2503/MTK2503/11CW1418SP4_03_CORETEK03AE_11C_V1_GPRS_MMI/Tools/MinGW/include/c++/3.3.1/bits/stl_uninitialized.h ****     }
  96:d:/MTK/MTK2503/MTK2503/11CW1418SP4_03_CORETEK03AE_11C_V1_GPRS_MMI/Tools/MinGW/include/c++/3.3.1/bits/stl_uninitialized.h **** 
  97:d:/MTK/MTK2503/MTK2503/11CW1418SP4_03_CORETEK03AE_11C_V1_GPRS_MMI/Tools/MinGW/include/c++/3.3.1/bits/stl_uninitialized.h ****   /**
  98:d:/MTK/MTK2503/MTK2503/11CW1418SP4_03_CORETEK03AE_11C_V1_GPRS_MMI/Tools/MinGW/include/c++/3.3.1/bits/stl_uninitialized.h ****    *  @brief Copies the range [first,last) into result.
  99:d:/MTK/MTK2503/MTK2503/11CW1418SP4_03_CORETEK03AE_11C_V1_GPRS_MMI/Tools/MinGW/include/c++/3.3.1/bits/stl_uninitialized.h ****    *  @param  first  An input iterator.
 100:d:/MTK/MTK2503/MTK2503/11CW1418SP4_03_CORETEK03AE_11C_V1_GPRS_MMI/Tools/MinGW/include/c++/3.3.1/bits/stl_uninitialized.h ****    *  @param  last   An input iterator.
 101:d:/MTK/MTK2503/MTK2503/11CW1418SP4_03_CORETEK03AE_11C_V1_GPRS_MMI/Tools/MinGW/include/c++/3.3.1/bits/stl_uninitialized.h ****    *  @param  result An output iterator.
 102:d:/MTK/MTK2503/MTK2503/11CW1418SP4_03_CORETEK03AE_11C_V1_GPRS_MMI/Tools/MinGW/include/c++/3.3.1/bits/stl_uninitialized.h ****    *  @return   result + (first - last)
 103:d:/MTK/MTK2503/MTK2503/11CW1418SP4_03_CORETEK03AE_11C_V1_GPRS_MMI/Tools/MinGW/include/c++/3.3.1/bits/stl_uninitialized.h ****    *
 104:d:/MTK/MTK2503/MTK2503/11CW1418SP4_03_CORETEK03AE_11C_V1_GPRS_MMI/Tools/MinGW/include/c++/3.3.1/bits/stl_uninitialized.h ****    *  Like copy(), but does not require an initialized output range.
 105:d:/MTK/MTK2503/MTK2503/11CW1418SP4_03_CORETEK03AE_11C_V1_GPRS_MMI/Tools/MinGW/include/c++/3.3.1/bits/stl_uninitialized.h ****   */
 106:d:/MTK/MTK2503/MTK2503/11CW1418SP4_03_CORETEK03AE_11C_V1_GPRS_MMI/Tools/MinGW/include/c++/3.3.1/bits/stl_uninitialized.h ****   template<typename _InputIter, typename _ForwardIter>
 107:d:/MTK/MTK2503/MTK2503/11CW1418SP4_03_CORETEK03AE_11C_V1_GPRS_MMI/Tools/MinGW/include/c++/3.3.1/bits/stl_uninitialized.h ****     inline _ForwardIter
 108:d:/MTK/MTK2503/MTK2503/11CW1418SP4_03_CORETEK03AE_11C_V1_GPRS_MMI/Tools/MinGW/include/c++/3.3.1/bits/stl_uninitialized.h ****     uninitialized_copy(_InputIter __first, _InputIter __last, _ForwardIter __result)
 109:d:/MTK/MTK2503/MTK2503/11CW1418SP4_03_CORETEK03AE_11C_V1_GPRS_MMI/Tools/MinGW/include/c++/3.3.1/bits/stl_uninitialized.h ****     {
 7108              	LM328:
 7109 0000 55       		pushl	%ebp
 7110 0001 89E5     		movl	%esp, %ebp
 7111 0003 83EC18   		subl	$24, %esp
 110:d:/MTK/MTK2503/MTK2503/11CW1418SP4_03_CORETEK03AE_11C_V1_GPRS_MMI/Tools/MinGW/include/c++/3.3.1/bits/stl_uninitialized.h ****       typedef typename iterator_traits<_ForwardIter>::value_type _ValueType;
 111:d:/MTK/MTK2503/MTK2503/11CW1418SP4_03_CORETEK03AE_11C_V1_GPRS_MMI/Tools/MinGW/include/c++/3.3.1/bits/stl_uninitialized.h ****       typedef typename __type_traits<_ValueType>::is_POD_type _Is_POD;
 112:d:/MTK/MTK2503/MTK2503/11CW1418SP4_03_CORETEK03AE_11C_V1_GPRS_MMI/Tools/MinGW/include/c++/3.3.1/bits/stl_uninitialized.h ****       return __uninitialized_copy_aux(__first, __last, __result, _Is_POD());
 7113              	LM329:
 7114              	LBB89:
 7115 0006 C644240C 		movb	$0, 12(%esp)
 7115      00
 7116 000b 8B4510   		movl	16(%ebp), %eax
 7117 000e 89442408 		movl	%eax, 8(%esp)
 7118 0012 8B450C   		movl	12(%ebp), %eax
 7119 0015 89442404 		movl	%eax, 4(%esp)
 7120 0019 8B4508   		movl	8(%ebp), %eax
 7121 001c 890424   		movl	%eax, (%esp)
 7122 001f E8000000 		call	__ZSt24__uninitialized_copy_auxIN9__gnu_cxx17__normal_iteratorIPN10ThreadPool10ThreadDataESt6
 7122      00
 7123 0024 8945FC   		movl	%eax, -4(%ebp)
 7124 0027 8B45FC   		movl	-4(%ebp), %eax
 7125 002a C9       		leave
 7126 002b C3       		ret
 7127              	LBE89:
 7128              	Lscope64:
 7130              	.globl __ZTI10ThreadPool
 7131              		.section	.rdata$_ZTI10ThreadPool,""
 7132              		.linkonce same_size
 7133              		.align 4
 7134              	__ZTI10ThreadPool:
 7135 0000 08000000 		.long	__ZTVN10__cxxabiv117__class_type_infoE+8
 7136 0004 00000000 		.long	__ZTS10ThreadPool
 7137              	.globl __ZTS10ThreadPool
 7138              		.section	.rdata$_ZTS10ThreadPool,""
GAS LISTING d:/MTK/MTK2503/MTK2503/11CW1418SP4_03_CORETEK03AE_11C_V1_GPRS_MMI/plutommi/Customer/ResGenerator/gcctmp/ccQHcaaa.s 			page 143


 7139              		.linkonce same_size
 7140              	__ZTS10ThreadPool:
 7141 0000 31305468 		.ascii "10ThreadPool\0"
 7141      72656164 
 7141      506F6F6C 
 7141      00
 7142 000d 000000   		.section	.text$_ZnwjPv,"x"
 7143              		.linkonce discard
 7144              		.align 2
 7147              	.globl __ZnwjPv
 7149              	__ZnwjPv:
 7151              	Ltext29:
   1:d:/MTK/MTK2503/MTK2503/11CW1418SP4_03_CORETEK03AE_11C_V1_GPRS_MMI/Tools/MinGW/include/c++/3.3.1/new **** // The -*- C++ -*- dynamic memory management header.
   2:d:/MTK/MTK2503/MTK2503/11CW1418SP4_03_CORETEK03AE_11C_V1_GPRS_MMI/Tools/MinGW/include/c++/3.3.1/new **** 
   3:d:/MTK/MTK2503/MTK2503/11CW1418SP4_03_CORETEK03AE_11C_V1_GPRS_MMI/Tools/MinGW/include/c++/3.3.1/new **** // Copyright (C) 1994, 1996, 1997, 1998, 2000, 2001, 2002
   4:d:/MTK/MTK2503/MTK2503/11CW1418SP4_03_CORETEK03AE_11C_V1_GPRS_MMI/Tools/MinGW/include/c++/3.3.1/new **** // Free Software Foundation
   5:d:/MTK/MTK2503/MTK2503/11CW1418SP4_03_CORETEK03AE_11C_V1_GPRS_MMI/Tools/MinGW/include/c++/3.3.1/new **** 
   6:d:/MTK/MTK2503/MTK2503/11CW1418SP4_03_CORETEK03AE_11C_V1_GPRS_MMI/Tools/MinGW/include/c++/3.3.1/new **** // This file is part of GNU CC.
   7:d:/MTK/MTK2503/MTK2503/11CW1418SP4_03_CORETEK03AE_11C_V1_GPRS_MMI/Tools/MinGW/include/c++/3.3.1/new **** //
   8:d:/MTK/MTK2503/MTK2503/11CW1418SP4_03_CORETEK03AE_11C_V1_GPRS_MMI/Tools/MinGW/include/c++/3.3.1/new **** // GNU CC is free software; you can redistribute it and/or modify
   9:d:/MTK/MTK2503/MTK2503/11CW1418SP4_03_CORETEK03AE_11C_V1_GPRS_MMI/Tools/MinGW/include/c++/3.3.1/new **** // it under the terms of the GNU General Public License as published by
  10:d:/MTK/MTK2503/MTK2503/11CW1418SP4_03_CORETEK03AE_11C_V1_GPRS_MMI/Tools/MinGW/include/c++/3.3.1/new **** // the Free Software Foundation; either version 2, or (at your option)
  11:d:/MTK/MTK2503/MTK2503/11CW1418SP4_03_CORETEK03AE_11C_V1_GPRS_MMI/Tools/MinGW/include/c++/3.3.1/new **** // any later version.
  12:d:/MTK/MTK2503/MTK2503/11CW1418SP4_03_CORETEK03AE_11C_V1_GPRS_MMI/Tools/MinGW/include/c++/3.3.1/new **** // 
  13:d:/MTK/MTK2503/MTK2503/11CW1418SP4_03_CORETEK03AE_11C_V1_GPRS_MMI/Tools/MinGW/include/c++/3.3.1/new **** // GNU CC is distributed in the hope that it will be useful,
  14:d:/MTK/MTK2503/MTK2503/11CW1418SP4_03_CORETEK03AE_11C_V1_GPRS_MMI/Tools/MinGW/include/c++/3.3.1/new **** // but WITHOUT ANY WARRANTY; without even the implied warranty of
  15:d:/MTK/MTK2503/MTK2503/11CW1418SP4_03_CORETEK03AE_11C_V1_GPRS_MMI/Tools/MinGW/include/c++/3.3.1/new **** // MERCHANTABILITY or FITNESS FOR A PARTICULAR PURPOSE.  See the
  16:d:/MTK/MTK2503/MTK2503/11CW1418SP4_03_CORETEK03AE_11C_V1_GPRS_MMI/Tools/MinGW/include/c++/3.3.1/new **** // GNU General Public License for more details.
  17:d:/MTK/MTK2503/MTK2503/11CW1418SP4_03_CORETEK03AE_11C_V1_GPRS_MMI/Tools/MinGW/include/c++/3.3.1/new **** // 
  18:d:/MTK/MTK2503/MTK2503/11CW1418SP4_03_CORETEK03AE_11C_V1_GPRS_MMI/Tools/MinGW/include/c++/3.3.1/new **** // You should have received a copy of the GNU General Public License
  19:d:/MTK/MTK2503/MTK2503/11CW1418SP4_03_CORETEK03AE_11C_V1_GPRS_MMI/Tools/MinGW/include/c++/3.3.1/new **** // along with GNU CC; see the file COPYING.  If not, write to
  20:d:/MTK/MTK2503/MTK2503/11CW1418SP4_03_CORETEK03AE_11C_V1_GPRS_MMI/Tools/MinGW/include/c++/3.3.1/new **** // the Free Software Foundation, 59 Temple Place - Suite 330,
  21:d:/MTK/MTK2503/MTK2503/11CW1418SP4_03_CORETEK03AE_11C_V1_GPRS_MMI/Tools/MinGW/include/c++/3.3.1/new **** // Boston, MA 02111-1307, USA.
  22:d:/MTK/MTK2503/MTK2503/11CW1418SP4_03_CORETEK03AE_11C_V1_GPRS_MMI/Tools/MinGW/include/c++/3.3.1/new **** 
  23:d:/MTK/MTK2503/MTK2503/11CW1418SP4_03_CORETEK03AE_11C_V1_GPRS_MMI/Tools/MinGW/include/c++/3.3.1/new **** // As a special exception, you may use this file as part of a free software
  24:d:/MTK/MTK2503/MTK2503/11CW1418SP4_03_CORETEK03AE_11C_V1_GPRS_MMI/Tools/MinGW/include/c++/3.3.1/new **** // library without restriction.  Specifically, if other files instantiate
  25:d:/MTK/MTK2503/MTK2503/11CW1418SP4_03_CORETEK03AE_11C_V1_GPRS_MMI/Tools/MinGW/include/c++/3.3.1/new **** // templates or use macros or inline functions from this file, or you compile
  26:d:/MTK/MTK2503/MTK2503/11CW1418SP4_03_CORETEK03AE_11C_V1_GPRS_MMI/Tools/MinGW/include/c++/3.3.1/new **** // this file and link it with other files to produce an executable, this
  27:d:/MTK/MTK2503/MTK2503/11CW1418SP4_03_CORETEK03AE_11C_V1_GPRS_MMI/Tools/MinGW/include/c++/3.3.1/new **** // file does not by itself cause the resulting executable to be covered by
  28:d:/MTK/MTK2503/MTK2503/11CW1418SP4_03_CORETEK03AE_11C_V1_GPRS_MMI/Tools/MinGW/include/c++/3.3.1/new **** // the GNU General Public License.  This exception does not however
  29:d:/MTK/MTK2503/MTK2503/11CW1418SP4_03_CORETEK03AE_11C_V1_GPRS_MMI/Tools/MinGW/include/c++/3.3.1/new **** // invalidate any other reasons why the executable file might be covered by
  30:d:/MTK/MTK2503/MTK2503/11CW1418SP4_03_CORETEK03AE_11C_V1_GPRS_MMI/Tools/MinGW/include/c++/3.3.1/new **** // the GNU General Public License.
  31:d:/MTK/MTK2503/MTK2503/11CW1418SP4_03_CORETEK03AE_11C_V1_GPRS_MMI/Tools/MinGW/include/c++/3.3.1/new **** 
  32:d:/MTK/MTK2503/MTK2503/11CW1418SP4_03_CORETEK03AE_11C_V1_GPRS_MMI/Tools/MinGW/include/c++/3.3.1/new **** /** @file new
  33:d:/MTK/MTK2503/MTK2503/11CW1418SP4_03_CORETEK03AE_11C_V1_GPRS_MMI/Tools/MinGW/include/c++/3.3.1/new ****  *  The header @c new defines several functions to manage dynamic memory and
  34:d:/MTK/MTK2503/MTK2503/11CW1418SP4_03_CORETEK03AE_11C_V1_GPRS_MMI/Tools/MinGW/include/c++/3.3.1/new ****  *  handling memory allocation errors; see
  35:d:/MTK/MTK2503/MTK2503/11CW1418SP4_03_CORETEK03AE_11C_V1_GPRS_MMI/Tools/MinGW/include/c++/3.3.1/new ****  *  http://gcc.gnu.org/onlinedocs/libstdc++/18_support/howto.html#4 for more.
  36:d:/MTK/MTK2503/MTK2503/11CW1418SP4_03_CORETEK03AE_11C_V1_GPRS_MMI/Tools/MinGW/include/c++/3.3.1/new ****  */
  37:d:/MTK/MTK2503/MTK2503/11CW1418SP4_03_CORETEK03AE_11C_V1_GPRS_MMI/Tools/MinGW/include/c++/3.3.1/new **** 
  38:d:/MTK/MTK2503/MTK2503/11CW1418SP4_03_CORETEK03AE_11C_V1_GPRS_MMI/Tools/MinGW/include/c++/3.3.1/new **** #ifndef __NEW__
  39:d:/MTK/MTK2503/MTK2503/11CW1418SP4_03_CORETEK03AE_11C_V1_GPRS_MMI/Tools/MinGW/include/c++/3.3.1/new **** #define __NEW__
  40:d:/MTK/MTK2503/MTK2503/11CW1418SP4_03_CORETEK03AE_11C_V1_GPRS_MMI/Tools/MinGW/include/c++/3.3.1/new **** 
  41:d:/MTK/MTK2503/MTK2503/11CW1418SP4_03_CORETEK03AE_11C_V1_GPRS_MMI/Tools/MinGW/include/c++/3.3.1/new **** #include <cstddef>
  42:d:/MTK/MTK2503/MTK2503/11CW1418SP4_03_CORETEK03AE_11C_V1_GPRS_MMI/Tools/MinGW/include/c++/3.3.1/new **** #include <exception>
  43:d:/MTK/MTK2503/MTK2503/11CW1418SP4_03_CORETEK03AE_11C_V1_GPRS_MMI/Tools/MinGW/include/c++/3.3.1/new **** 
  44:d:/MTK/MTK2503/MTK2503/11CW1418SP4_03_CORETEK03AE_11C_V1_GPRS_MMI/Tools/MinGW/include/c++/3.3.1/new **** extern "C++" {
  45:d:/MTK/MTK2503/MTK2503/11CW1418SP4_03_CORETEK03AE_11C_V1_GPRS_MMI/Tools/MinGW/include/c++/3.3.1/new **** 
GAS LISTING d:/MTK/MTK2503/MTK2503/11CW1418SP4_03_CORETEK03AE_11C_V1_GPRS_MMI/plutommi/Customer/ResGenerator/gcctmp/ccQHcaaa.s 			page 144


  46:d:/MTK/MTK2503/MTK2503/11CW1418SP4_03_CORETEK03AE_11C_V1_GPRS_MMI/Tools/MinGW/include/c++/3.3.1/new **** namespace std 
  47:d:/MTK/MTK2503/MTK2503/11CW1418SP4_03_CORETEK03AE_11C_V1_GPRS_MMI/Tools/MinGW/include/c++/3.3.1/new **** {
  48:d:/MTK/MTK2503/MTK2503/11CW1418SP4_03_CORETEK03AE_11C_V1_GPRS_MMI/Tools/MinGW/include/c++/3.3.1/new ****   /**
  49:d:/MTK/MTK2503/MTK2503/11CW1418SP4_03_CORETEK03AE_11C_V1_GPRS_MMI/Tools/MinGW/include/c++/3.3.1/new ****    *  @brief  Exception possibly thrown by @c new.
  50:d:/MTK/MTK2503/MTK2503/11CW1418SP4_03_CORETEK03AE_11C_V1_GPRS_MMI/Tools/MinGW/include/c++/3.3.1/new ****    *
  51:d:/MTK/MTK2503/MTK2503/11CW1418SP4_03_CORETEK03AE_11C_V1_GPRS_MMI/Tools/MinGW/include/c++/3.3.1/new ****    *  @c bad_alloc (or classes derived from it) is used to report allocation
  52:d:/MTK/MTK2503/MTK2503/11CW1418SP4_03_CORETEK03AE_11C_V1_GPRS_MMI/Tools/MinGW/include/c++/3.3.1/new ****    *  errors from the throwing forms of @c new.  */
  53:d:/MTK/MTK2503/MTK2503/11CW1418SP4_03_CORETEK03AE_11C_V1_GPRS_MMI/Tools/MinGW/include/c++/3.3.1/new ****   class bad_alloc : public exception 
  54:d:/MTK/MTK2503/MTK2503/11CW1418SP4_03_CORETEK03AE_11C_V1_GPRS_MMI/Tools/MinGW/include/c++/3.3.1/new ****   {
  55:d:/MTK/MTK2503/MTK2503/11CW1418SP4_03_CORETEK03AE_11C_V1_GPRS_MMI/Tools/MinGW/include/c++/3.3.1/new ****   public:
  56:d:/MTK/MTK2503/MTK2503/11CW1418SP4_03_CORETEK03AE_11C_V1_GPRS_MMI/Tools/MinGW/include/c++/3.3.1/new ****     bad_alloc() throw() { }
  57:d:/MTK/MTK2503/MTK2503/11CW1418SP4_03_CORETEK03AE_11C_V1_GPRS_MMI/Tools/MinGW/include/c++/3.3.1/new ****     // This declaration is not useless:
  58:d:/MTK/MTK2503/MTK2503/11CW1418SP4_03_CORETEK03AE_11C_V1_GPRS_MMI/Tools/MinGW/include/c++/3.3.1/new ****     // http://gcc.gnu.org/onlinedocs/gcc-3.0.2/gcc_6.html#SEC118
  59:d:/MTK/MTK2503/MTK2503/11CW1418SP4_03_CORETEK03AE_11C_V1_GPRS_MMI/Tools/MinGW/include/c++/3.3.1/new ****     virtual ~bad_alloc() throw();
  60:d:/MTK/MTK2503/MTK2503/11CW1418SP4_03_CORETEK03AE_11C_V1_GPRS_MMI/Tools/MinGW/include/c++/3.3.1/new ****   };
  61:d:/MTK/MTK2503/MTK2503/11CW1418SP4_03_CORETEK03AE_11C_V1_GPRS_MMI/Tools/MinGW/include/c++/3.3.1/new **** 
  62:d:/MTK/MTK2503/MTK2503/11CW1418SP4_03_CORETEK03AE_11C_V1_GPRS_MMI/Tools/MinGW/include/c++/3.3.1/new ****   struct nothrow_t { };
  63:d:/MTK/MTK2503/MTK2503/11CW1418SP4_03_CORETEK03AE_11C_V1_GPRS_MMI/Tools/MinGW/include/c++/3.3.1/new ****   extern const nothrow_t nothrow;
  64:d:/MTK/MTK2503/MTK2503/11CW1418SP4_03_CORETEK03AE_11C_V1_GPRS_MMI/Tools/MinGW/include/c++/3.3.1/new ****   /** If you write your own error handler to be called by @c new, it must
  65:d:/MTK/MTK2503/MTK2503/11CW1418SP4_03_CORETEK03AE_11C_V1_GPRS_MMI/Tools/MinGW/include/c++/3.3.1/new ****    *  be of this type.  */
  66:d:/MTK/MTK2503/MTK2503/11CW1418SP4_03_CORETEK03AE_11C_V1_GPRS_MMI/Tools/MinGW/include/c++/3.3.1/new ****   typedef void (*new_handler)();
  67:d:/MTK/MTK2503/MTK2503/11CW1418SP4_03_CORETEK03AE_11C_V1_GPRS_MMI/Tools/MinGW/include/c++/3.3.1/new ****   /// Takes a replacement handler as the argument, returns the previous handler.
  68:d:/MTK/MTK2503/MTK2503/11CW1418SP4_03_CORETEK03AE_11C_V1_GPRS_MMI/Tools/MinGW/include/c++/3.3.1/new ****   new_handler set_new_handler(new_handler) throw();
  69:d:/MTK/MTK2503/MTK2503/11CW1418SP4_03_CORETEK03AE_11C_V1_GPRS_MMI/Tools/MinGW/include/c++/3.3.1/new **** } // namespace std
  70:d:/MTK/MTK2503/MTK2503/11CW1418SP4_03_CORETEK03AE_11C_V1_GPRS_MMI/Tools/MinGW/include/c++/3.3.1/new **** 
  71:d:/MTK/MTK2503/MTK2503/11CW1418SP4_03_CORETEK03AE_11C_V1_GPRS_MMI/Tools/MinGW/include/c++/3.3.1/new **** //@{
  72:d:/MTK/MTK2503/MTK2503/11CW1418SP4_03_CORETEK03AE_11C_V1_GPRS_MMI/Tools/MinGW/include/c++/3.3.1/new **** /** These are replaceable signatures:
  73:d:/MTK/MTK2503/MTK2503/11CW1418SP4_03_CORETEK03AE_11C_V1_GPRS_MMI/Tools/MinGW/include/c++/3.3.1/new ****  *  - normal single new and delete (no arguments, throw @c bad_alloc on error)
  74:d:/MTK/MTK2503/MTK2503/11CW1418SP4_03_CORETEK03AE_11C_V1_GPRS_MMI/Tools/MinGW/include/c++/3.3.1/new ****  *  - normal array new and delete (same)
  75:d:/MTK/MTK2503/MTK2503/11CW1418SP4_03_CORETEK03AE_11C_V1_GPRS_MMI/Tools/MinGW/include/c++/3.3.1/new ****  *  - @c nothrow single new and delete (take a @c nothrow argument, return
  76:d:/MTK/MTK2503/MTK2503/11CW1418SP4_03_CORETEK03AE_11C_V1_GPRS_MMI/Tools/MinGW/include/c++/3.3.1/new ****  *    @c NULL on error)
  77:d:/MTK/MTK2503/MTK2503/11CW1418SP4_03_CORETEK03AE_11C_V1_GPRS_MMI/Tools/MinGW/include/c++/3.3.1/new ****  *  - @c nothrow array new and delete (same)
  78:d:/MTK/MTK2503/MTK2503/11CW1418SP4_03_CORETEK03AE_11C_V1_GPRS_MMI/Tools/MinGW/include/c++/3.3.1/new ****  *
  79:d:/MTK/MTK2503/MTK2503/11CW1418SP4_03_CORETEK03AE_11C_V1_GPRS_MMI/Tools/MinGW/include/c++/3.3.1/new ****  *  Placement new and delete signatures (take a memory address argument,
  80:d:/MTK/MTK2503/MTK2503/11CW1418SP4_03_CORETEK03AE_11C_V1_GPRS_MMI/Tools/MinGW/include/c++/3.3.1/new ****  *  does nothing) may not be replaced by a user's program.
  81:d:/MTK/MTK2503/MTK2503/11CW1418SP4_03_CORETEK03AE_11C_V1_GPRS_MMI/Tools/MinGW/include/c++/3.3.1/new **** */
  82:d:/MTK/MTK2503/MTK2503/11CW1418SP4_03_CORETEK03AE_11C_V1_GPRS_MMI/Tools/MinGW/include/c++/3.3.1/new **** void* operator new(std::size_t) throw (std::bad_alloc);
  83:d:/MTK/MTK2503/MTK2503/11CW1418SP4_03_CORETEK03AE_11C_V1_GPRS_MMI/Tools/MinGW/include/c++/3.3.1/new **** void* operator new[](std::size_t) throw (std::bad_alloc);
  84:d:/MTK/MTK2503/MTK2503/11CW1418SP4_03_CORETEK03AE_11C_V1_GPRS_MMI/Tools/MinGW/include/c++/3.3.1/new **** void operator delete(void*) throw();
  85:d:/MTK/MTK2503/MTK2503/11CW1418SP4_03_CORETEK03AE_11C_V1_GPRS_MMI/Tools/MinGW/include/c++/3.3.1/new **** void operator delete[](void*) throw();
  86:d:/MTK/MTK2503/MTK2503/11CW1418SP4_03_CORETEK03AE_11C_V1_GPRS_MMI/Tools/MinGW/include/c++/3.3.1/new **** void* operator new(std::size_t, const std::nothrow_t&) throw();
  87:d:/MTK/MTK2503/MTK2503/11CW1418SP4_03_CORETEK03AE_11C_V1_GPRS_MMI/Tools/MinGW/include/c++/3.3.1/new **** void* operator new[](std::size_t, const std::nothrow_t&) throw();
  88:d:/MTK/MTK2503/MTK2503/11CW1418SP4_03_CORETEK03AE_11C_V1_GPRS_MMI/Tools/MinGW/include/c++/3.3.1/new **** void operator delete(void*, const std::nothrow_t&) throw();
  89:d:/MTK/MTK2503/MTK2503/11CW1418SP4_03_CORETEK03AE_11C_V1_GPRS_MMI/Tools/MinGW/include/c++/3.3.1/new **** void operator delete[](void*, const std::nothrow_t&) throw();
  90:d:/MTK/MTK2503/MTK2503/11CW1418SP4_03_CORETEK03AE_11C_V1_GPRS_MMI/Tools/MinGW/include/c++/3.3.1/new **** 
  91:d:/MTK/MTK2503/MTK2503/11CW1418SP4_03_CORETEK03AE_11C_V1_GPRS_MMI/Tools/MinGW/include/c++/3.3.1/new **** // Default placement versions of operator new.
  92:d:/MTK/MTK2503/MTK2503/11CW1418SP4_03_CORETEK03AE_11C_V1_GPRS_MMI/Tools/MinGW/include/c++/3.3.1/new **** inline void* operator new(std::size_t, void* __p) throw() { return __p; }
 7153              	LM330:
 7154 0000 55       		pushl	%ebp
 7155 0001 89E5     		movl	%esp, %ebp
 7157              	LM331:
 7158              	LBB90:
 7159 0003 8B450C   		movl	12(%ebp), %eax
 7160              	L273:
 7161              	L272:
 7162 0006 5D       		popl	%ebp
 7163 0007 C3       		ret
GAS LISTING d:/MTK/MTK2503/MTK2503/11CW1418SP4_03_CORETEK03AE_11C_V1_GPRS_MMI/plutommi/Customer/ResGenerator/gcctmp/ccQHcaaa.s 			page 145


 7164              	LBE90:
 7165              	Lscope65:
 7167              		.section	.text$_ZNSt19_List_iterator_baseC2EPSt15_List_node_base,"x"
 7168              		.linkonce discard
 7169              		.align 2
 7173              	.globl __ZNSt19_List_iterator_baseC2EPSt15_List_node_base
 7175              	__ZNSt19_List_iterator_baseC2EPSt15_List_node_base:
 7177              	Ltext30:
 7179              	LM332:
 7180 0000 55       		pushl	%ebp
 7181 0001 89E5     		movl	%esp, %ebp
 7183              	LM333:
 7184              	LBB91:
 7185 0003 8B5508   		movl	8(%ebp), %edx
 7186 0006 8B450C   		movl	12(%ebp), %eax
 7187 0009 8902     		movl	%eax, (%edx)
 7188 000b 5D       		popl	%ebp
 7189 000c C3       		ret
 7190              	LBE91:
 7191              	Lscope66:
 7193 000d 909090   		.section	.text$_ZNKSt6vectorIN10ThreadPool10ThreadDataESaIS1_EE4sizeEv,"x"
 7194              		.linkonce discard
 7195              		.align 2
 7198              	.globl __ZNKSt6vectorIN10ThreadPool10ThreadDataESaIS1_EE4sizeEv
 7200              	__ZNKSt6vectorIN10ThreadPool10ThreadDataESaIS1_EE4sizeEv:
 7202              	Ltext31:
 7204              	LM334:
 7205 0000 55       		pushl	%ebp
 7206 0001 89E5     		movl	%esp, %ebp
 7207 0003 53       		pushl	%ebx
 7208 0004 83EC14   		subl	$20, %esp
 7210              	LM335:
 7211              	LBB92:
 7212 0007 8B4508   		movl	8(%ebp), %eax
 7213 000a 890424   		movl	%eax, (%esp)
 7214 000d E8000000 		call	__ZNKSt6vectorIN10ThreadPool10ThreadDataESaIS1_EE5beginEv
 7214      00
 7215 0012 8945F8   		movl	%eax, -8(%ebp)
 7216 0015 8D5DF8   		leal	-8(%ebp), %ebx
 7217 0018 8B4508   		movl	8(%ebp), %eax
 7218 001b 890424   		movl	%eax, (%esp)
 7219 001e E8000000 		call	__ZNKSt6vectorIN10ThreadPool10ThreadDataESaIS1_EE3endEv
 7219      00
 7220 0023 8945F4   		movl	%eax, -12(%ebp)
 7221 0026 8D45F4   		leal	-12(%ebp), %eax
 7222 0029 895C2404 		movl	%ebx, 4(%esp)
 7223 002d 890424   		movl	%eax, (%esp)
 7224 0030 E8000000 		call	__ZN9__gnu_cxxmiIPKN10ThreadPool10ThreadDataES4_St6vectorIS2_SaIS2_EEEENS_17__normal_iterator
 7224      00
 7225 0035 83C414   		addl	$20, %esp
 7226 0038 5B       		popl	%ebx
 7227 0039 5D       		popl	%ebp
 7228 003a C3       		ret
 7229              	LBE92:
 7230              	Lscope67:
 7232 003b 90       		.section	.text$_ZNKSt6vectorIN10ThreadPool10ThreadDataESaIS1_EE5beginEv,"x"
 7233              		.linkonce discard
GAS LISTING d:/MTK/MTK2503/MTK2503/11CW1418SP4_03_CORETEK03AE_11C_V1_GPRS_MMI/plutommi/Customer/ResGenerator/gcctmp/ccQHcaaa.s 			page 146


 7234              		.align 2
 7237              	.globl __ZNKSt6vectorIN10ThreadPool10ThreadDataESaIS1_EE5beginEv
 7239              	__ZNKSt6vectorIN10ThreadPool10ThreadDataESaIS1_EE5beginEv:
 7241              	LM336:
 7242 0000 55       		pushl	%ebp
 7243 0001 89E5     		movl	%esp, %ebp
 7244 0003 83EC18   		subl	$24, %esp
 7246              	LM337:
 7247              	LBB93:
 7248 0006 8B4508   		movl	8(%ebp), %eax
 7249 0009 8B00     		movl	(%eax), %eax
 7250 000b 8945F8   		movl	%eax, -8(%ebp)
 7251 000e 8D45F8   		leal	-8(%ebp), %eax
 7252 0011 89442404 		movl	%eax, 4(%esp)
 7253 0015 8D45FC   		leal	-4(%ebp), %eax
 7254 0018 890424   		movl	%eax, (%esp)
 7255 001b E8000000 		call	__ZN9__gnu_cxx17__normal_iteratorIPKN10ThreadPool10ThreadDataESt6vectorIS2_SaIS2_EEEC1ERKS4_
 7255      00
 7256 0020 8B45FC   		movl	-4(%ebp), %eax
 7257 0023 C9       		leave
 7258 0024 C3       		ret
 7259              	LBE93:
 7260              	Lscope68:
 7262 0025 909090   		.section	.text$_ZN9__gnu_cxx17__normal_iteratorIPKN10ThreadPool10ThreadDataESt6vectorIS2_SaIS2_EEE
 7263              		.linkonce discard
 7264              		.align 2
 7268              	.globl __ZN9__gnu_cxx17__normal_iteratorIPKN10ThreadPool10ThreadDataESt6vectorIS2_SaIS2_EEEC1ERKS4_
 7270              	__ZN9__gnu_cxx17__normal_iteratorIPKN10ThreadPool10ThreadDataESt6vectorIS2_SaIS2_EEEC1ERKS4_:
 7272              	Ltext32:
 7274              	LM338:
 7275 0000 55       		pushl	%ebp
 7276 0001 89E5     		movl	%esp, %ebp
 7277 0003 83EC08   		subl	$8, %esp
 7279              	LM339:
 7280              	LBB94:
 7281 0006 8B4508   		movl	8(%ebp), %eax
 7282 0009 890424   		movl	%eax, (%esp)
 7283 000c E8000000 		call	__ZNSt8iteratorISt26random_access_iterator_tagN10ThreadPool10ThreadDataEiPKS2_RS3_EC2Ev
 7283      00
 7284 0011 8B5508   		movl	8(%ebp), %edx
 7285 0014 8B450C   		movl	12(%ebp), %eax
 7286 0017 8B00     		movl	(%eax), %eax
 7287 0019 8902     		movl	%eax, (%edx)
 7288 001b C9       		leave
 7289 001c C3       		ret
 7290              	LBE94:
 7291              	Lscope69:
 7293 001d 909090   		.section	.text$_ZNKSt6vectorIN10ThreadPool10ThreadDataESaIS1_EE3endEv,"x"
 7294              		.linkonce discard
 7295              		.align 2
 7298              	.globl __ZNKSt6vectorIN10ThreadPool10ThreadDataESaIS1_EE3endEv
 7300              	__ZNKSt6vectorIN10ThreadPool10ThreadDataESaIS1_EE3endEv:
 7302              	Ltext33:
 7304              	LM340:
 7305 0000 55       		pushl	%ebp
 7306 0001 89E5     		movl	%esp, %ebp
 7307 0003 83EC18   		subl	$24, %esp
GAS LISTING d:/MTK/MTK2503/MTK2503/11CW1418SP4_03_CORETEK03AE_11C_V1_GPRS_MMI/plutommi/Customer/ResGenerator/gcctmp/ccQHcaaa.s 			page 147


 7309              	LM341:
 7310              	LBB95:
 7311 0006 8B4508   		movl	8(%ebp), %eax
 7312 0009 8B4004   		movl	4(%eax), %eax
 7313 000c 8945F8   		movl	%eax, -8(%ebp)
 7314 000f 8D45F8   		leal	-8(%ebp), %eax
 7315 0012 89442404 		movl	%eax, 4(%esp)
 7316 0016 8D45FC   		leal	-4(%ebp), %eax
 7317 0019 890424   		movl	%eax, (%esp)
 7318 001c E8000000 		call	__ZN9__gnu_cxx17__normal_iteratorIPKN10ThreadPool10ThreadDataESt6vectorIS2_SaIS2_EEEC1ERKS4_
 7318      00
 7319 0021 8B45FC   		movl	-4(%ebp), %eax
 7320 0024 C9       		leave
 7321 0025 C3       		ret
 7322              	LBE95:
 7323              	Lscope70:
 7325 0026 9090     		.section	.text$_ZN9__gnu_cxxmiIPKN10ThreadPool10ThreadDataES4_St6vectorIS2_SaIS2_EEEENS_17__normal
 7326              		.linkonce discard
 7327              		.align 2
 7331              	.globl __ZN9__gnu_cxxmiIPKN10ThreadPool10ThreadDataES4_St6vectorIS2_SaIS2_EEEENS_17__normal_iterato
 7333              	__ZN9__gnu_cxxmiIPKN10ThreadPool10ThreadDataES4_St6vectorIS2_SaIS2_EEEENS_17__normal_iteratorIT_T1_
 7335              	Ltext34:
 677:d:/MTK/MTK2503/MTK2503/11CW1418SP4_03_CORETEK03AE_11C_V1_GPRS_MMI/Tools/MinGW/include/c++/3.3.1/bits/stl_iterator.h **** 
 678:d:/MTK/MTK2503/MTK2503/11CW1418SP4_03_CORETEK03AE_11C_V1_GPRS_MMI/Tools/MinGW/include/c++/3.3.1/bits/stl_iterator.h ****   // Random access iterator requirements
 679:d:/MTK/MTK2503/MTK2503/11CW1418SP4_03_CORETEK03AE_11C_V1_GPRS_MMI/Tools/MinGW/include/c++/3.3.1/bits/stl_iterator.h ****   template<typename _IteratorL, typename _IteratorR, typename _Container>
 680:d:/MTK/MTK2503/MTK2503/11CW1418SP4_03_CORETEK03AE_11C_V1_GPRS_MMI/Tools/MinGW/include/c++/3.3.1/bits/stl_iterator.h ****   inline bool 
 681:d:/MTK/MTK2503/MTK2503/11CW1418SP4_03_CORETEK03AE_11C_V1_GPRS_MMI/Tools/MinGW/include/c++/3.3.1/bits/stl_iterator.h ****   operator<(const __normal_iterator<_IteratorL, _Container>& __lhs,
 682:d:/MTK/MTK2503/MTK2503/11CW1418SP4_03_CORETEK03AE_11C_V1_GPRS_MMI/Tools/MinGW/include/c++/3.3.1/bits/stl_iterator.h **** 	    const __normal_iterator<_IteratorR, _Container>& __rhs)
 683:d:/MTK/MTK2503/MTK2503/11CW1418SP4_03_CORETEK03AE_11C_V1_GPRS_MMI/Tools/MinGW/include/c++/3.3.1/bits/stl_iterator.h ****   { return __lhs.base() < __rhs.base(); }
 684:d:/MTK/MTK2503/MTK2503/11CW1418SP4_03_CORETEK03AE_11C_V1_GPRS_MMI/Tools/MinGW/include/c++/3.3.1/bits/stl_iterator.h **** 
 685:d:/MTK/MTK2503/MTK2503/11CW1418SP4_03_CORETEK03AE_11C_V1_GPRS_MMI/Tools/MinGW/include/c++/3.3.1/bits/stl_iterator.h ****   template<typename _Iterator, typename _Container>
 686:d:/MTK/MTK2503/MTK2503/11CW1418SP4_03_CORETEK03AE_11C_V1_GPRS_MMI/Tools/MinGW/include/c++/3.3.1/bits/stl_iterator.h ****   inline bool
 687:d:/MTK/MTK2503/MTK2503/11CW1418SP4_03_CORETEK03AE_11C_V1_GPRS_MMI/Tools/MinGW/include/c++/3.3.1/bits/stl_iterator.h ****   operator<(const __normal_iterator<_Iterator, _Container>& __lhs,
 688:d:/MTK/MTK2503/MTK2503/11CW1418SP4_03_CORETEK03AE_11C_V1_GPRS_MMI/Tools/MinGW/include/c++/3.3.1/bits/stl_iterator.h ****              const __normal_iterator<_Iterator, _Container>& __rhs)
 689:d:/MTK/MTK2503/MTK2503/11CW1418SP4_03_CORETEK03AE_11C_V1_GPRS_MMI/Tools/MinGW/include/c++/3.3.1/bits/stl_iterator.h ****   { return __lhs.base() < __rhs.base(); }
 690:d:/MTK/MTK2503/MTK2503/11CW1418SP4_03_CORETEK03AE_11C_V1_GPRS_MMI/Tools/MinGW/include/c++/3.3.1/bits/stl_iterator.h **** 
 691:d:/MTK/MTK2503/MTK2503/11CW1418SP4_03_CORETEK03AE_11C_V1_GPRS_MMI/Tools/MinGW/include/c++/3.3.1/bits/stl_iterator.h ****   template<typename _IteratorL, typename _IteratorR, typename _Container>
 692:d:/MTK/MTK2503/MTK2503/11CW1418SP4_03_CORETEK03AE_11C_V1_GPRS_MMI/Tools/MinGW/include/c++/3.3.1/bits/stl_iterator.h ****   inline bool
 693:d:/MTK/MTK2503/MTK2503/11CW1418SP4_03_CORETEK03AE_11C_V1_GPRS_MMI/Tools/MinGW/include/c++/3.3.1/bits/stl_iterator.h ****   operator>(const __normal_iterator<_IteratorL, _Container>& __lhs,
 694:d:/MTK/MTK2503/MTK2503/11CW1418SP4_03_CORETEK03AE_11C_V1_GPRS_MMI/Tools/MinGW/include/c++/3.3.1/bits/stl_iterator.h **** 	    const __normal_iterator<_IteratorR, _Container>& __rhs)
 695:d:/MTK/MTK2503/MTK2503/11CW1418SP4_03_CORETEK03AE_11C_V1_GPRS_MMI/Tools/MinGW/include/c++/3.3.1/bits/stl_iterator.h ****   { return __lhs.base() > __rhs.base(); }
 696:d:/MTK/MTK2503/MTK2503/11CW1418SP4_03_CORETEK03AE_11C_V1_GPRS_MMI/Tools/MinGW/include/c++/3.3.1/bits/stl_iterator.h **** 
 697:d:/MTK/MTK2503/MTK2503/11CW1418SP4_03_CORETEK03AE_11C_V1_GPRS_MMI/Tools/MinGW/include/c++/3.3.1/bits/stl_iterator.h ****   template<typename _Iterator, typename _Container>
 698:d:/MTK/MTK2503/MTK2503/11CW1418SP4_03_CORETEK03AE_11C_V1_GPRS_MMI/Tools/MinGW/include/c++/3.3.1/bits/stl_iterator.h ****   inline bool
 699:d:/MTK/MTK2503/MTK2503/11CW1418SP4_03_CORETEK03AE_11C_V1_GPRS_MMI/Tools/MinGW/include/c++/3.3.1/bits/stl_iterator.h ****   operator>(const __normal_iterator<_Iterator, _Container>& __lhs,
 700:d:/MTK/MTK2503/MTK2503/11CW1418SP4_03_CORETEK03AE_11C_V1_GPRS_MMI/Tools/MinGW/include/c++/3.3.1/bits/stl_iterator.h **** 	    const __normal_iterator<_Iterator, _Container>& __rhs)
 701:d:/MTK/MTK2503/MTK2503/11CW1418SP4_03_CORETEK03AE_11C_V1_GPRS_MMI/Tools/MinGW/include/c++/3.3.1/bits/stl_iterator.h ****   { return __lhs.base() > __rhs.base(); }
 702:d:/MTK/MTK2503/MTK2503/11CW1418SP4_03_CORETEK03AE_11C_V1_GPRS_MMI/Tools/MinGW/include/c++/3.3.1/bits/stl_iterator.h **** 
 703:d:/MTK/MTK2503/MTK2503/11CW1418SP4_03_CORETEK03AE_11C_V1_GPRS_MMI/Tools/MinGW/include/c++/3.3.1/bits/stl_iterator.h ****   template<typename _IteratorL, typename _IteratorR, typename _Container>
 704:d:/MTK/MTK2503/MTK2503/11CW1418SP4_03_CORETEK03AE_11C_V1_GPRS_MMI/Tools/MinGW/include/c++/3.3.1/bits/stl_iterator.h ****   inline bool
 705:d:/MTK/MTK2503/MTK2503/11CW1418SP4_03_CORETEK03AE_11C_V1_GPRS_MMI/Tools/MinGW/include/c++/3.3.1/bits/stl_iterator.h ****   operator<=(const __normal_iterator<_IteratorL, _Container>& __lhs,
 706:d:/MTK/MTK2503/MTK2503/11CW1418SP4_03_CORETEK03AE_11C_V1_GPRS_MMI/Tools/MinGW/include/c++/3.3.1/bits/stl_iterator.h **** 	     const __normal_iterator<_IteratorR, _Container>& __rhs)
 707:d:/MTK/MTK2503/MTK2503/11CW1418SP4_03_CORETEK03AE_11C_V1_GPRS_MMI/Tools/MinGW/include/c++/3.3.1/bits/stl_iterator.h ****   { return __lhs.base() <= __rhs.base(); }
 708:d:/MTK/MTK2503/MTK2503/11CW1418SP4_03_CORETEK03AE_11C_V1_GPRS_MMI/Tools/MinGW/include/c++/3.3.1/bits/stl_iterator.h **** 
 709:d:/MTK/MTK2503/MTK2503/11CW1418SP4_03_CORETEK03AE_11C_V1_GPRS_MMI/Tools/MinGW/include/c++/3.3.1/bits/stl_iterator.h ****   template<typename _Iterator, typename _Container>
 710:d:/MTK/MTK2503/MTK2503/11CW1418SP4_03_CORETEK03AE_11C_V1_GPRS_MMI/Tools/MinGW/include/c++/3.3.1/bits/stl_iterator.h ****   inline bool
 711:d:/MTK/MTK2503/MTK2503/11CW1418SP4_03_CORETEK03AE_11C_V1_GPRS_MMI/Tools/MinGW/include/c++/3.3.1/bits/stl_iterator.h ****   operator<=(const __normal_iterator<_Iterator, _Container>& __lhs,
GAS LISTING d:/MTK/MTK2503/MTK2503/11CW1418SP4_03_CORETEK03AE_11C_V1_GPRS_MMI/plutommi/Customer/ResGenerator/gcctmp/ccQHcaaa.s 			page 148


 712:d:/MTK/MTK2503/MTK2503/11CW1418SP4_03_CORETEK03AE_11C_V1_GPRS_MMI/Tools/MinGW/include/c++/3.3.1/bits/stl_iterator.h **** 	     const __normal_iterator<_Iterator, _Container>& __rhs)
 713:d:/MTK/MTK2503/MTK2503/11CW1418SP4_03_CORETEK03AE_11C_V1_GPRS_MMI/Tools/MinGW/include/c++/3.3.1/bits/stl_iterator.h ****   { return __lhs.base() <= __rhs.base(); }
 714:d:/MTK/MTK2503/MTK2503/11CW1418SP4_03_CORETEK03AE_11C_V1_GPRS_MMI/Tools/MinGW/include/c++/3.3.1/bits/stl_iterator.h **** 
 715:d:/MTK/MTK2503/MTK2503/11CW1418SP4_03_CORETEK03AE_11C_V1_GPRS_MMI/Tools/MinGW/include/c++/3.3.1/bits/stl_iterator.h ****   template<typename _IteratorL, typename _IteratorR, typename _Container>
 716:d:/MTK/MTK2503/MTK2503/11CW1418SP4_03_CORETEK03AE_11C_V1_GPRS_MMI/Tools/MinGW/include/c++/3.3.1/bits/stl_iterator.h ****   inline bool
 717:d:/MTK/MTK2503/MTK2503/11CW1418SP4_03_CORETEK03AE_11C_V1_GPRS_MMI/Tools/MinGW/include/c++/3.3.1/bits/stl_iterator.h ****   operator>=(const __normal_iterator<_IteratorL, _Container>& __lhs,
 718:d:/MTK/MTK2503/MTK2503/11CW1418SP4_03_CORETEK03AE_11C_V1_GPRS_MMI/Tools/MinGW/include/c++/3.3.1/bits/stl_iterator.h **** 	     const __normal_iterator<_IteratorR, _Container>& __rhs)
 719:d:/MTK/MTK2503/MTK2503/11CW1418SP4_03_CORETEK03AE_11C_V1_GPRS_MMI/Tools/MinGW/include/c++/3.3.1/bits/stl_iterator.h ****   { return __lhs.base() >= __rhs.base(); }
 720:d:/MTK/MTK2503/MTK2503/11CW1418SP4_03_CORETEK03AE_11C_V1_GPRS_MMI/Tools/MinGW/include/c++/3.3.1/bits/stl_iterator.h **** 
 721:d:/MTK/MTK2503/MTK2503/11CW1418SP4_03_CORETEK03AE_11C_V1_GPRS_MMI/Tools/MinGW/include/c++/3.3.1/bits/stl_iterator.h ****   template<typename _Iterator, typename _Container>
 722:d:/MTK/MTK2503/MTK2503/11CW1418SP4_03_CORETEK03AE_11C_V1_GPRS_MMI/Tools/MinGW/include/c++/3.3.1/bits/stl_iterator.h ****   inline bool
 723:d:/MTK/MTK2503/MTK2503/11CW1418SP4_03_CORETEK03AE_11C_V1_GPRS_MMI/Tools/MinGW/include/c++/3.3.1/bits/stl_iterator.h ****   operator>=(const __normal_iterator<_Iterator, _Container>& __lhs,
 724:d:/MTK/MTK2503/MTK2503/11CW1418SP4_03_CORETEK03AE_11C_V1_GPRS_MMI/Tools/MinGW/include/c++/3.3.1/bits/stl_iterator.h **** 	     const __normal_iterator<_Iterator, _Container>& __rhs)
 725:d:/MTK/MTK2503/MTK2503/11CW1418SP4_03_CORETEK03AE_11C_V1_GPRS_MMI/Tools/MinGW/include/c++/3.3.1/bits/stl_iterator.h ****   { return __lhs.base() >= __rhs.base(); }
 726:d:/MTK/MTK2503/MTK2503/11CW1418SP4_03_CORETEK03AE_11C_V1_GPRS_MMI/Tools/MinGW/include/c++/3.3.1/bits/stl_iterator.h **** 
 727:d:/MTK/MTK2503/MTK2503/11CW1418SP4_03_CORETEK03AE_11C_V1_GPRS_MMI/Tools/MinGW/include/c++/3.3.1/bits/stl_iterator.h ****   // _GLIBCPP_RESOLVE_LIB_DEFECTS
 728:d:/MTK/MTK2503/MTK2503/11CW1418SP4_03_CORETEK03AE_11C_V1_GPRS_MMI/Tools/MinGW/include/c++/3.3.1/bits/stl_iterator.h ****   // According to the resolution of DR179 not only the various comparison
 729:d:/MTK/MTK2503/MTK2503/11CW1418SP4_03_CORETEK03AE_11C_V1_GPRS_MMI/Tools/MinGW/include/c++/3.3.1/bits/stl_iterator.h ****   // operators but also operator- must accept mixed iterator/const_iterator
 730:d:/MTK/MTK2503/MTK2503/11CW1418SP4_03_CORETEK03AE_11C_V1_GPRS_MMI/Tools/MinGW/include/c++/3.3.1/bits/stl_iterator.h ****   // parameters.
 731:d:/MTK/MTK2503/MTK2503/11CW1418SP4_03_CORETEK03AE_11C_V1_GPRS_MMI/Tools/MinGW/include/c++/3.3.1/bits/stl_iterator.h ****   template<typename _IteratorL, typename _IteratorR, typename _Container>
 732:d:/MTK/MTK2503/MTK2503/11CW1418SP4_03_CORETEK03AE_11C_V1_GPRS_MMI/Tools/MinGW/include/c++/3.3.1/bits/stl_iterator.h ****   inline typename __normal_iterator<_IteratorL, _Container>::difference_type
 733:d:/MTK/MTK2503/MTK2503/11CW1418SP4_03_CORETEK03AE_11C_V1_GPRS_MMI/Tools/MinGW/include/c++/3.3.1/bits/stl_iterator.h ****   operator-(const __normal_iterator<_IteratorL, _Container>& __lhs,
 734:d:/MTK/MTK2503/MTK2503/11CW1418SP4_03_CORETEK03AE_11C_V1_GPRS_MMI/Tools/MinGW/include/c++/3.3.1/bits/stl_iterator.h **** 	     const __normal_iterator<_IteratorR, _Container>& __rhs)
 735:d:/MTK/MTK2503/MTK2503/11CW1418SP4_03_CORETEK03AE_11C_V1_GPRS_MMI/Tools/MinGW/include/c++/3.3.1/bits/stl_iterator.h ****   { return __lhs.base() - __rhs.base(); }
 7337              	LM342:
 7338 0000 55       		pushl	%ebp
 7339 0001 89E5     		movl	%esp, %ebp
 7340 0003 53       		pushl	%ebx
 7341 0004 83EC04   		subl	$4, %esp
 7343              	LM343:
 7344              	LBB96:
 7345 0007 8B4508   		movl	8(%ebp), %eax
 7346 000a 890424   		movl	%eax, (%esp)
 7347 000d E8000000 		call	__ZNK9__gnu_cxx17__normal_iteratorIPKN10ThreadPool10ThreadDataESt6vectorIS2_SaIS2_EEE4baseEv
 7347      00
 7348 0012 89C3     		movl	%eax, %ebx
 7349 0014 8B450C   		movl	12(%ebp), %eax
 7350 0017 890424   		movl	%eax, (%esp)
 7351 001a E8000000 		call	__ZNK9__gnu_cxx17__normal_iteratorIPKN10ThreadPool10ThreadDataESt6vectorIS2_SaIS2_EEE4baseEv
 7351      00
 7352 001f 8B10     		movl	(%eax), %edx
 7353 0021 8B03     		movl	(%ebx), %eax
 7354 0023 29D0     		subl	%edx, %eax
 7355 0025 C1F802   		sarl	$2, %eax
 7356 0028 69C0ABAA 		imull	$-1431655765, %eax, %eax
 7356      AAAA
 7357 002e 83C404   		addl	$4, %esp
 7358 0031 5B       		popl	%ebx
 7359 0032 5D       		popl	%ebp
 7360 0033 C3       		ret
 7361              	LBE96:
 7362              	Lscope71:
 7364              		.section	.text$_ZNK9__gnu_cxx17__normal_iteratorIPKN10ThreadPool10ThreadDataESt6vectorIS2_SaIS2_EE
 7365              		.linkonce discard
 7366              		.align 2
 7369              	.globl __ZNK9__gnu_cxx17__normal_iteratorIPKN10ThreadPool10ThreadDataESt6vectorIS2_SaIS2_EEE4baseEv
 7371              	__ZNK9__gnu_cxx17__normal_iteratorIPKN10ThreadPool10ThreadDataESt6vectorIS2_SaIS2_EEE4baseEv:
GAS LISTING d:/MTK/MTK2503/MTK2503/11CW1418SP4_03_CORETEK03AE_11C_V1_GPRS_MMI/plutommi/Customer/ResGenerator/gcctmp/ccQHcaaa.s 			page 149


 7373              	LM344:
 7374 0000 55       		pushl	%ebp
 7375 0001 89E5     		movl	%esp, %ebp
 7377              	LM345:
 7378              	LBB97:
 7379 0003 8B4508   		movl	8(%ebp), %eax
 7380 0006 5D       		popl	%ebp
 7381 0007 C3       		ret
 7382              	LBE97:
 7383              	Lscope72:
 7385              		.section	.text$_ZSt8_DestroyIN10ThreadPool7JobDataEEvPT_,"x"
 7386              		.linkonce discard
 7387              		.align 2
 7390              	.globl __ZSt8_DestroyIN10ThreadPool7JobDataEEvPT_
 7392              	__ZSt8_DestroyIN10ThreadPool7JobDataEEvPT_:
 7394              	Ltext35:
 7396              	LM346:
 7397 0000 55       		pushl	%ebp
 7398 0001 89E5     		movl	%esp, %ebp
 7400              	LM347:
 7401 0003 5D       		popl	%ebp
 7402 0004 C3       		ret
 7403              	Lscope73:
 7405 0005 909090   		.section	.text$_ZNSt8iteratorISt26random_access_iterator_tagN10ThreadPool10ThreadDataEiPS2_RS2_EC2
 7406              		.linkonce discard
 7407              		.align 2
 7410              	.globl __ZNSt8iteratorISt26random_access_iterator_tagN10ThreadPool10ThreadDataEiPS2_RS2_EC2Ev
 7412              	__ZNSt8iteratorISt26random_access_iterator_tagN10ThreadPool10ThreadDataEiPS2_RS2_EC2Ev:
 7414              	Ltext36:
 7416              	LM348:
 7417              	L284:
 7418              	L283:
 7419 0000 55       		pushl	%ebp
 7420 0001 89E5     		movl	%esp, %ebp
 7422              	LM349:
 7423 0003 5D       		popl	%ebp
 7424 0004 C3       		ret
 7425              	Lscope74:
 7427 0005 909090   		.section	.text$_ZSt13copy_backwardIN9__gnu_cxx17__normal_iteratorIPN10ThreadPool10ThreadDataESt6ve
 7428              		.linkonce discard
 7429              		.align 2
 7434              	.globl __ZSt13copy_backwardIN9__gnu_cxx17__normal_iteratorIPN10ThreadPool10ThreadDataESt6vectorIS3_
 7436              	__ZSt13copy_backwardIN9__gnu_cxx17__normal_iteratorIPN10ThreadPool10ThreadDataESt6vectorIS3_SaIS3_E
 7438              	Ltext37:
   1:d:/MTK/MTK2503/MTK2503/11CW1418SP4_03_CORETEK03AE_11C_V1_GPRS_MMI/Tools/MinGW/include/c++/3.3.1/bits/stl_algobase.h **** // Bits and pieces used in algorithms -*- C++ -*-
   2:d:/MTK/MTK2503/MTK2503/11CW1418SP4_03_CORETEK03AE_11C_V1_GPRS_MMI/Tools/MinGW/include/c++/3.3.1/bits/stl_algobase.h **** 
   3:d:/MTK/MTK2503/MTK2503/11CW1418SP4_03_CORETEK03AE_11C_V1_GPRS_MMI/Tools/MinGW/include/c++/3.3.1/bits/stl_algobase.h **** // Copyright (C) 2001, 2002 Free Software Foundation, Inc.
   4:d:/MTK/MTK2503/MTK2503/11CW1418SP4_03_CORETEK03AE_11C_V1_GPRS_MMI/Tools/MinGW/include/c++/3.3.1/bits/stl_algobase.h **** //
   5:d:/MTK/MTK2503/MTK2503/11CW1418SP4_03_CORETEK03AE_11C_V1_GPRS_MMI/Tools/MinGW/include/c++/3.3.1/bits/stl_algobase.h **** // This file is part of the GNU ISO C++ Library.  This library is free
   6:d:/MTK/MTK2503/MTK2503/11CW1418SP4_03_CORETEK03AE_11C_V1_GPRS_MMI/Tools/MinGW/include/c++/3.3.1/bits/stl_algobase.h **** // software; you can redistribute it and/or modify it under the
   7:d:/MTK/MTK2503/MTK2503/11CW1418SP4_03_CORETEK03AE_11C_V1_GPRS_MMI/Tools/MinGW/include/c++/3.3.1/bits/stl_algobase.h **** // terms of the GNU General Public License as published by the
   8:d:/MTK/MTK2503/MTK2503/11CW1418SP4_03_CORETEK03AE_11C_V1_GPRS_MMI/Tools/MinGW/include/c++/3.3.1/bits/stl_algobase.h **** // Free Software Foundation; either version 2, or (at your option)
   9:d:/MTK/MTK2503/MTK2503/11CW1418SP4_03_CORETEK03AE_11C_V1_GPRS_MMI/Tools/MinGW/include/c++/3.3.1/bits/stl_algobase.h **** // any later version.
  10:d:/MTK/MTK2503/MTK2503/11CW1418SP4_03_CORETEK03AE_11C_V1_GPRS_MMI/Tools/MinGW/include/c++/3.3.1/bits/stl_algobase.h **** 
  11:d:/MTK/MTK2503/MTK2503/11CW1418SP4_03_CORETEK03AE_11C_V1_GPRS_MMI/Tools/MinGW/include/c++/3.3.1/bits/stl_algobase.h **** // This library is distributed in the hope that it will be useful,
  12:d:/MTK/MTK2503/MTK2503/11CW1418SP4_03_CORETEK03AE_11C_V1_GPRS_MMI/Tools/MinGW/include/c++/3.3.1/bits/stl_algobase.h **** // but WITHOUT ANY WARRANTY; without even the implied warranty of
  13:d:/MTK/MTK2503/MTK2503/11CW1418SP4_03_CORETEK03AE_11C_V1_GPRS_MMI/Tools/MinGW/include/c++/3.3.1/bits/stl_algobase.h **** // MERCHANTABILITY or FITNESS FOR A PARTICULAR PURPOSE.  See the
GAS LISTING d:/MTK/MTK2503/MTK2503/11CW1418SP4_03_CORETEK03AE_11C_V1_GPRS_MMI/plutommi/Customer/ResGenerator/gcctmp/ccQHcaaa.s 			page 150


  14:d:/MTK/MTK2503/MTK2503/11CW1418SP4_03_CORETEK03AE_11C_V1_GPRS_MMI/Tools/MinGW/include/c++/3.3.1/bits/stl_algobase.h **** // GNU General Public License for more details.
  15:d:/MTK/MTK2503/MTK2503/11CW1418SP4_03_CORETEK03AE_11C_V1_GPRS_MMI/Tools/MinGW/include/c++/3.3.1/bits/stl_algobase.h **** 
  16:d:/MTK/MTK2503/MTK2503/11CW1418SP4_03_CORETEK03AE_11C_V1_GPRS_MMI/Tools/MinGW/include/c++/3.3.1/bits/stl_algobase.h **** // You should have received a copy of the GNU General Public License along
  17:d:/MTK/MTK2503/MTK2503/11CW1418SP4_03_CORETEK03AE_11C_V1_GPRS_MMI/Tools/MinGW/include/c++/3.3.1/bits/stl_algobase.h **** // with this library; see the file COPYING.  If not, write to the Free
  18:d:/MTK/MTK2503/MTK2503/11CW1418SP4_03_CORETEK03AE_11C_V1_GPRS_MMI/Tools/MinGW/include/c++/3.3.1/bits/stl_algobase.h **** // Software Foundation, 59 Temple Place - Suite 330, Boston, MA 02111-1307,
  19:d:/MTK/MTK2503/MTK2503/11CW1418SP4_03_CORETEK03AE_11C_V1_GPRS_MMI/Tools/MinGW/include/c++/3.3.1/bits/stl_algobase.h **** // USA.
  20:d:/MTK/MTK2503/MTK2503/11CW1418SP4_03_CORETEK03AE_11C_V1_GPRS_MMI/Tools/MinGW/include/c++/3.3.1/bits/stl_algobase.h **** 
  21:d:/MTK/MTK2503/MTK2503/11CW1418SP4_03_CORETEK03AE_11C_V1_GPRS_MMI/Tools/MinGW/include/c++/3.3.1/bits/stl_algobase.h **** // As a special exception, you may use this file as part of a free software
  22:d:/MTK/MTK2503/MTK2503/11CW1418SP4_03_CORETEK03AE_11C_V1_GPRS_MMI/Tools/MinGW/include/c++/3.3.1/bits/stl_algobase.h **** // library without restriction.  Specifically, if other files instantiate
  23:d:/MTK/MTK2503/MTK2503/11CW1418SP4_03_CORETEK03AE_11C_V1_GPRS_MMI/Tools/MinGW/include/c++/3.3.1/bits/stl_algobase.h **** // templates or use macros or inline functions from this file, or you compile
  24:d:/MTK/MTK2503/MTK2503/11CW1418SP4_03_CORETEK03AE_11C_V1_GPRS_MMI/Tools/MinGW/include/c++/3.3.1/bits/stl_algobase.h **** // this file and link it with other files to produce an executable, this
  25:d:/MTK/MTK2503/MTK2503/11CW1418SP4_03_CORETEK03AE_11C_V1_GPRS_MMI/Tools/MinGW/include/c++/3.3.1/bits/stl_algobase.h **** // file does not by itself cause the resulting executable to be covered by
  26:d:/MTK/MTK2503/MTK2503/11CW1418SP4_03_CORETEK03AE_11C_V1_GPRS_MMI/Tools/MinGW/include/c++/3.3.1/bits/stl_algobase.h **** // the GNU General Public License.  This exception does not however
  27:d:/MTK/MTK2503/MTK2503/11CW1418SP4_03_CORETEK03AE_11C_V1_GPRS_MMI/Tools/MinGW/include/c++/3.3.1/bits/stl_algobase.h **** // invalidate any other reasons why the executable file might be covered by
  28:d:/MTK/MTK2503/MTK2503/11CW1418SP4_03_CORETEK03AE_11C_V1_GPRS_MMI/Tools/MinGW/include/c++/3.3.1/bits/stl_algobase.h **** // the GNU General Public License.
  29:d:/MTK/MTK2503/MTK2503/11CW1418SP4_03_CORETEK03AE_11C_V1_GPRS_MMI/Tools/MinGW/include/c++/3.3.1/bits/stl_algobase.h **** 
  30:d:/MTK/MTK2503/MTK2503/11CW1418SP4_03_CORETEK03AE_11C_V1_GPRS_MMI/Tools/MinGW/include/c++/3.3.1/bits/stl_algobase.h **** /*
  31:d:/MTK/MTK2503/MTK2503/11CW1418SP4_03_CORETEK03AE_11C_V1_GPRS_MMI/Tools/MinGW/include/c++/3.3.1/bits/stl_algobase.h ****  *
  32:d:/MTK/MTK2503/MTK2503/11CW1418SP4_03_CORETEK03AE_11C_V1_GPRS_MMI/Tools/MinGW/include/c++/3.3.1/bits/stl_algobase.h ****  * Copyright (c) 1994
  33:d:/MTK/MTK2503/MTK2503/11CW1418SP4_03_CORETEK03AE_11C_V1_GPRS_MMI/Tools/MinGW/include/c++/3.3.1/bits/stl_algobase.h ****  * Hewlett-Packard Company
  34:d:/MTK/MTK2503/MTK2503/11CW1418SP4_03_CORETEK03AE_11C_V1_GPRS_MMI/Tools/MinGW/include/c++/3.3.1/bits/stl_algobase.h ****  *
  35:d:/MTK/MTK2503/MTK2503/11CW1418SP4_03_CORETEK03AE_11C_V1_GPRS_MMI/Tools/MinGW/include/c++/3.3.1/bits/stl_algobase.h ****  * Permission to use, copy, modify, distribute and sell this software
  36:d:/MTK/MTK2503/MTK2503/11CW1418SP4_03_CORETEK03AE_11C_V1_GPRS_MMI/Tools/MinGW/include/c++/3.3.1/bits/stl_algobase.h ****  * and its documentation for any purpose is hereby granted without fee,
  37:d:/MTK/MTK2503/MTK2503/11CW1418SP4_03_CORETEK03AE_11C_V1_GPRS_MMI/Tools/MinGW/include/c++/3.3.1/bits/stl_algobase.h ****  * provided that the above copyright notice appear in all copies and
  38:d:/MTK/MTK2503/MTK2503/11CW1418SP4_03_CORETEK03AE_11C_V1_GPRS_MMI/Tools/MinGW/include/c++/3.3.1/bits/stl_algobase.h ****  * that both that copyright notice and this permission notice appear
  39:d:/MTK/MTK2503/MTK2503/11CW1418SP4_03_CORETEK03AE_11C_V1_GPRS_MMI/Tools/MinGW/include/c++/3.3.1/bits/stl_algobase.h ****  * in supporting documentation.  Hewlett-Packard Company makes no
  40:d:/MTK/MTK2503/MTK2503/11CW1418SP4_03_CORETEK03AE_11C_V1_GPRS_MMI/Tools/MinGW/include/c++/3.3.1/bits/stl_algobase.h ****  * representations about the suitability of this software for any
  41:d:/MTK/MTK2503/MTK2503/11CW1418SP4_03_CORETEK03AE_11C_V1_GPRS_MMI/Tools/MinGW/include/c++/3.3.1/bits/stl_algobase.h ****  * purpose.  It is provided "as is" without express or implied warranty.
  42:d:/MTK/MTK2503/MTK2503/11CW1418SP4_03_CORETEK03AE_11C_V1_GPRS_MMI/Tools/MinGW/include/c++/3.3.1/bits/stl_algobase.h ****  *
  43:d:/MTK/MTK2503/MTK2503/11CW1418SP4_03_CORETEK03AE_11C_V1_GPRS_MMI/Tools/MinGW/include/c++/3.3.1/bits/stl_algobase.h ****  *
  44:d:/MTK/MTK2503/MTK2503/11CW1418SP4_03_CORETEK03AE_11C_V1_GPRS_MMI/Tools/MinGW/include/c++/3.3.1/bits/stl_algobase.h ****  * Copyright (c) 1996-1998
  45:d:/MTK/MTK2503/MTK2503/11CW1418SP4_03_CORETEK03AE_11C_V1_GPRS_MMI/Tools/MinGW/include/c++/3.3.1/bits/stl_algobase.h ****  * Silicon Graphics Computer Systems, Inc.
  46:d:/MTK/MTK2503/MTK2503/11CW1418SP4_03_CORETEK03AE_11C_V1_GPRS_MMI/Tools/MinGW/include/c++/3.3.1/bits/stl_algobase.h ****  *
  47:d:/MTK/MTK2503/MTK2503/11CW1418SP4_03_CORETEK03AE_11C_V1_GPRS_MMI/Tools/MinGW/include/c++/3.3.1/bits/stl_algobase.h ****  * Permission to use, copy, modify, distribute and sell this software
  48:d:/MTK/MTK2503/MTK2503/11CW1418SP4_03_CORETEK03AE_11C_V1_GPRS_MMI/Tools/MinGW/include/c++/3.3.1/bits/stl_algobase.h ****  * and its documentation for any purpose is hereby granted without fee,
  49:d:/MTK/MTK2503/MTK2503/11CW1418SP4_03_CORETEK03AE_11C_V1_GPRS_MMI/Tools/MinGW/include/c++/3.3.1/bits/stl_algobase.h ****  * provided that the above copyright notice appear in all copies and
  50:d:/MTK/MTK2503/MTK2503/11CW1418SP4_03_CORETEK03AE_11C_V1_GPRS_MMI/Tools/MinGW/include/c++/3.3.1/bits/stl_algobase.h ****  * that both that copyright notice and this permission notice appear
  51:d:/MTK/MTK2503/MTK2503/11CW1418SP4_03_CORETEK03AE_11C_V1_GPRS_MMI/Tools/MinGW/include/c++/3.3.1/bits/stl_algobase.h ****  * in supporting documentation.  Silicon Graphics makes no
  52:d:/MTK/MTK2503/MTK2503/11CW1418SP4_03_CORETEK03AE_11C_V1_GPRS_MMI/Tools/MinGW/include/c++/3.3.1/bits/stl_algobase.h ****  * representations about the suitability of this software for any
  53:d:/MTK/MTK2503/MTK2503/11CW1418SP4_03_CORETEK03AE_11C_V1_GPRS_MMI/Tools/MinGW/include/c++/3.3.1/bits/stl_algobase.h ****  * purpose.  It is provided "as is" without express or implied warranty.
  54:d:/MTK/MTK2503/MTK2503/11CW1418SP4_03_CORETEK03AE_11C_V1_GPRS_MMI/Tools/MinGW/include/c++/3.3.1/bits/stl_algobase.h ****  */
  55:d:/MTK/MTK2503/MTK2503/11CW1418SP4_03_CORETEK03AE_11C_V1_GPRS_MMI/Tools/MinGW/include/c++/3.3.1/bits/stl_algobase.h **** 
  56:d:/MTK/MTK2503/MTK2503/11CW1418SP4_03_CORETEK03AE_11C_V1_GPRS_MMI/Tools/MinGW/include/c++/3.3.1/bits/stl_algobase.h **** /** @file stl_algobase.h
  57:d:/MTK/MTK2503/MTK2503/11CW1418SP4_03_CORETEK03AE_11C_V1_GPRS_MMI/Tools/MinGW/include/c++/3.3.1/bits/stl_algobase.h ****  *  This is an internal header file, included by other library headers.
  58:d:/MTK/MTK2503/MTK2503/11CW1418SP4_03_CORETEK03AE_11C_V1_GPRS_MMI/Tools/MinGW/include/c++/3.3.1/bits/stl_algobase.h ****  *  You should not attempt to use it directly.
  59:d:/MTK/MTK2503/MTK2503/11CW1418SP4_03_CORETEK03AE_11C_V1_GPRS_MMI/Tools/MinGW/include/c++/3.3.1/bits/stl_algobase.h ****  */
  60:d:/MTK/MTK2503/MTK2503/11CW1418SP4_03_CORETEK03AE_11C_V1_GPRS_MMI/Tools/MinGW/include/c++/3.3.1/bits/stl_algobase.h **** 
  61:d:/MTK/MTK2503/MTK2503/11CW1418SP4_03_CORETEK03AE_11C_V1_GPRS_MMI/Tools/MinGW/include/c++/3.3.1/bits/stl_algobase.h **** #ifndef __GLIBCPP_INTERNAL_ALGOBASE_H
  62:d:/MTK/MTK2503/MTK2503/11CW1418SP4_03_CORETEK03AE_11C_V1_GPRS_MMI/Tools/MinGW/include/c++/3.3.1/bits/stl_algobase.h **** #define __GLIBCPP_INTERNAL_ALGOBASE_H
  63:d:/MTK/MTK2503/MTK2503/11CW1418SP4_03_CORETEK03AE_11C_V1_GPRS_MMI/Tools/MinGW/include/c++/3.3.1/bits/stl_algobase.h **** 
  64:d:/MTK/MTK2503/MTK2503/11CW1418SP4_03_CORETEK03AE_11C_V1_GPRS_MMI/Tools/MinGW/include/c++/3.3.1/bits/stl_algobase.h **** #include <bits/c++config.h>
  65:d:/MTK/MTK2503/MTK2503/11CW1418SP4_03_CORETEK03AE_11C_V1_GPRS_MMI/Tools/MinGW/include/c++/3.3.1/bits/stl_algobase.h **** #include <cstring>
  66:d:/MTK/MTK2503/MTK2503/11CW1418SP4_03_CORETEK03AE_11C_V1_GPRS_MMI/Tools/MinGW/include/c++/3.3.1/bits/stl_algobase.h **** #include <climits>
  67:d:/MTK/MTK2503/MTK2503/11CW1418SP4_03_CORETEK03AE_11C_V1_GPRS_MMI/Tools/MinGW/include/c++/3.3.1/bits/stl_algobase.h **** #include <cstdlib>
  68:d:/MTK/MTK2503/MTK2503/11CW1418SP4_03_CORETEK03AE_11C_V1_GPRS_MMI/Tools/MinGW/include/c++/3.3.1/bits/stl_algobase.h **** #include <cstddef>
  69:d:/MTK/MTK2503/MTK2503/11CW1418SP4_03_CORETEK03AE_11C_V1_GPRS_MMI/Tools/MinGW/include/c++/3.3.1/bits/stl_algobase.h **** #include <new>
  70:d:/MTK/MTK2503/MTK2503/11CW1418SP4_03_CORETEK03AE_11C_V1_GPRS_MMI/Tools/MinGW/include/c++/3.3.1/bits/stl_algobase.h **** #include <iosfwd>
GAS LISTING d:/MTK/MTK2503/MTK2503/11CW1418SP4_03_CORETEK03AE_11C_V1_GPRS_MMI/plutommi/Customer/ResGenerator/gcctmp/ccQHcaaa.s 			page 151


  71:d:/MTK/MTK2503/MTK2503/11CW1418SP4_03_CORETEK03AE_11C_V1_GPRS_MMI/Tools/MinGW/include/c++/3.3.1/bits/stl_algobase.h **** #include <bits/stl_pair.h>
  72:d:/MTK/MTK2503/MTK2503/11CW1418SP4_03_CORETEK03AE_11C_V1_GPRS_MMI/Tools/MinGW/include/c++/3.3.1/bits/stl_algobase.h **** #include <bits/type_traits.h>
  73:d:/MTK/MTK2503/MTK2503/11CW1418SP4_03_CORETEK03AE_11C_V1_GPRS_MMI/Tools/MinGW/include/c++/3.3.1/bits/stl_algobase.h **** #include <bits/stl_iterator_base_types.h>
  74:d:/MTK/MTK2503/MTK2503/11CW1418SP4_03_CORETEK03AE_11C_V1_GPRS_MMI/Tools/MinGW/include/c++/3.3.1/bits/stl_algobase.h **** #include <bits/stl_iterator_base_funcs.h>
  75:d:/MTK/MTK2503/MTK2503/11CW1418SP4_03_CORETEK03AE_11C_V1_GPRS_MMI/Tools/MinGW/include/c++/3.3.1/bits/stl_algobase.h **** #include <bits/stl_iterator.h>
  76:d:/MTK/MTK2503/MTK2503/11CW1418SP4_03_CORETEK03AE_11C_V1_GPRS_MMI/Tools/MinGW/include/c++/3.3.1/bits/stl_algobase.h **** #include <bits/concept_check.h>
  77:d:/MTK/MTK2503/MTK2503/11CW1418SP4_03_CORETEK03AE_11C_V1_GPRS_MMI/Tools/MinGW/include/c++/3.3.1/bits/stl_algobase.h **** 
  78:d:/MTK/MTK2503/MTK2503/11CW1418SP4_03_CORETEK03AE_11C_V1_GPRS_MMI/Tools/MinGW/include/c++/3.3.1/bits/stl_algobase.h **** namespace std
  79:d:/MTK/MTK2503/MTK2503/11CW1418SP4_03_CORETEK03AE_11C_V1_GPRS_MMI/Tools/MinGW/include/c++/3.3.1/bits/stl_algobase.h **** {
  80:d:/MTK/MTK2503/MTK2503/11CW1418SP4_03_CORETEK03AE_11C_V1_GPRS_MMI/Tools/MinGW/include/c++/3.3.1/bits/stl_algobase.h ****   // swap and iter_swap
  81:d:/MTK/MTK2503/MTK2503/11CW1418SP4_03_CORETEK03AE_11C_V1_GPRS_MMI/Tools/MinGW/include/c++/3.3.1/bits/stl_algobase.h **** 
  82:d:/MTK/MTK2503/MTK2503/11CW1418SP4_03_CORETEK03AE_11C_V1_GPRS_MMI/Tools/MinGW/include/c++/3.3.1/bits/stl_algobase.h ****   /**
  83:d:/MTK/MTK2503/MTK2503/11CW1418SP4_03_CORETEK03AE_11C_V1_GPRS_MMI/Tools/MinGW/include/c++/3.3.1/bits/stl_algobase.h ****    *  @brief Swaps the contents of two iterators.
  84:d:/MTK/MTK2503/MTK2503/11CW1418SP4_03_CORETEK03AE_11C_V1_GPRS_MMI/Tools/MinGW/include/c++/3.3.1/bits/stl_algobase.h ****    *  @param  a  An iterator.
  85:d:/MTK/MTK2503/MTK2503/11CW1418SP4_03_CORETEK03AE_11C_V1_GPRS_MMI/Tools/MinGW/include/c++/3.3.1/bits/stl_algobase.h ****    *  @param  b  Another iterator.
  86:d:/MTK/MTK2503/MTK2503/11CW1418SP4_03_CORETEK03AE_11C_V1_GPRS_MMI/Tools/MinGW/include/c++/3.3.1/bits/stl_algobase.h ****    *  @return   Nothing.
  87:d:/MTK/MTK2503/MTK2503/11CW1418SP4_03_CORETEK03AE_11C_V1_GPRS_MMI/Tools/MinGW/include/c++/3.3.1/bits/stl_algobase.h ****    *
  88:d:/MTK/MTK2503/MTK2503/11CW1418SP4_03_CORETEK03AE_11C_V1_GPRS_MMI/Tools/MinGW/include/c++/3.3.1/bits/stl_algobase.h ****    *  This function swaps the values pointed to by two iterators, not the
  89:d:/MTK/MTK2503/MTK2503/11CW1418SP4_03_CORETEK03AE_11C_V1_GPRS_MMI/Tools/MinGW/include/c++/3.3.1/bits/stl_algobase.h ****    *  iterators themselves.
  90:d:/MTK/MTK2503/MTK2503/11CW1418SP4_03_CORETEK03AE_11C_V1_GPRS_MMI/Tools/MinGW/include/c++/3.3.1/bits/stl_algobase.h ****   */
  91:d:/MTK/MTK2503/MTK2503/11CW1418SP4_03_CORETEK03AE_11C_V1_GPRS_MMI/Tools/MinGW/include/c++/3.3.1/bits/stl_algobase.h ****   template<typename _ForwardIter1, typename _ForwardIter2>
  92:d:/MTK/MTK2503/MTK2503/11CW1418SP4_03_CORETEK03AE_11C_V1_GPRS_MMI/Tools/MinGW/include/c++/3.3.1/bits/stl_algobase.h ****     inline void
  93:d:/MTK/MTK2503/MTK2503/11CW1418SP4_03_CORETEK03AE_11C_V1_GPRS_MMI/Tools/MinGW/include/c++/3.3.1/bits/stl_algobase.h ****     iter_swap(_ForwardIter1 __a, _ForwardIter2 __b)
  94:d:/MTK/MTK2503/MTK2503/11CW1418SP4_03_CORETEK03AE_11C_V1_GPRS_MMI/Tools/MinGW/include/c++/3.3.1/bits/stl_algobase.h ****     {
  95:d:/MTK/MTK2503/MTK2503/11CW1418SP4_03_CORETEK03AE_11C_V1_GPRS_MMI/Tools/MinGW/include/c++/3.3.1/bits/stl_algobase.h ****       typedef typename iterator_traits<_ForwardIter1>::value_type _ValueType1;
  96:d:/MTK/MTK2503/MTK2503/11CW1418SP4_03_CORETEK03AE_11C_V1_GPRS_MMI/Tools/MinGW/include/c++/3.3.1/bits/stl_algobase.h ****       typedef typename iterator_traits<_ForwardIter2>::value_type _ValueType2;
  97:d:/MTK/MTK2503/MTK2503/11CW1418SP4_03_CORETEK03AE_11C_V1_GPRS_MMI/Tools/MinGW/include/c++/3.3.1/bits/stl_algobase.h **** 
  98:d:/MTK/MTK2503/MTK2503/11CW1418SP4_03_CORETEK03AE_11C_V1_GPRS_MMI/Tools/MinGW/include/c++/3.3.1/bits/stl_algobase.h ****       // concept requirements
  99:d:/MTK/MTK2503/MTK2503/11CW1418SP4_03_CORETEK03AE_11C_V1_GPRS_MMI/Tools/MinGW/include/c++/3.3.1/bits/stl_algobase.h ****       __glibcpp_function_requires(_Mutable_ForwardIteratorConcept<_ForwardIter1>)
 100:d:/MTK/MTK2503/MTK2503/11CW1418SP4_03_CORETEK03AE_11C_V1_GPRS_MMI/Tools/MinGW/include/c++/3.3.1/bits/stl_algobase.h ****       __glibcpp_function_requires(_Mutable_ForwardIteratorConcept<_ForwardIter2>)
 101:d:/MTK/MTK2503/MTK2503/11CW1418SP4_03_CORETEK03AE_11C_V1_GPRS_MMI/Tools/MinGW/include/c++/3.3.1/bits/stl_algobase.h ****       __glibcpp_function_requires(_ConvertibleConcept<_ValueType1, _ValueType2>)
 102:d:/MTK/MTK2503/MTK2503/11CW1418SP4_03_CORETEK03AE_11C_V1_GPRS_MMI/Tools/MinGW/include/c++/3.3.1/bits/stl_algobase.h ****       __glibcpp_function_requires(_ConvertibleConcept<_ValueType2, _ValueType1>)
 103:d:/MTK/MTK2503/MTK2503/11CW1418SP4_03_CORETEK03AE_11C_V1_GPRS_MMI/Tools/MinGW/include/c++/3.3.1/bits/stl_algobase.h **** 
 104:d:/MTK/MTK2503/MTK2503/11CW1418SP4_03_CORETEK03AE_11C_V1_GPRS_MMI/Tools/MinGW/include/c++/3.3.1/bits/stl_algobase.h ****       _ValueType1 __tmp = *__a;
 105:d:/MTK/MTK2503/MTK2503/11CW1418SP4_03_CORETEK03AE_11C_V1_GPRS_MMI/Tools/MinGW/include/c++/3.3.1/bits/stl_algobase.h ****       *__a = *__b;
 106:d:/MTK/MTK2503/MTK2503/11CW1418SP4_03_CORETEK03AE_11C_V1_GPRS_MMI/Tools/MinGW/include/c++/3.3.1/bits/stl_algobase.h ****       *__b = __tmp;
 107:d:/MTK/MTK2503/MTK2503/11CW1418SP4_03_CORETEK03AE_11C_V1_GPRS_MMI/Tools/MinGW/include/c++/3.3.1/bits/stl_algobase.h ****     }
 108:d:/MTK/MTK2503/MTK2503/11CW1418SP4_03_CORETEK03AE_11C_V1_GPRS_MMI/Tools/MinGW/include/c++/3.3.1/bits/stl_algobase.h **** 
 109:d:/MTK/MTK2503/MTK2503/11CW1418SP4_03_CORETEK03AE_11C_V1_GPRS_MMI/Tools/MinGW/include/c++/3.3.1/bits/stl_algobase.h ****   /**
 110:d:/MTK/MTK2503/MTK2503/11CW1418SP4_03_CORETEK03AE_11C_V1_GPRS_MMI/Tools/MinGW/include/c++/3.3.1/bits/stl_algobase.h ****    *  @brief Swaps two values.
 111:d:/MTK/MTK2503/MTK2503/11CW1418SP4_03_CORETEK03AE_11C_V1_GPRS_MMI/Tools/MinGW/include/c++/3.3.1/bits/stl_algobase.h ****    *  @param  a  A thing of arbitrary type.
 112:d:/MTK/MTK2503/MTK2503/11CW1418SP4_03_CORETEK03AE_11C_V1_GPRS_MMI/Tools/MinGW/include/c++/3.3.1/bits/stl_algobase.h ****    *  @param  b  Another thing of arbitrary type.
 113:d:/MTK/MTK2503/MTK2503/11CW1418SP4_03_CORETEK03AE_11C_V1_GPRS_MMI/Tools/MinGW/include/c++/3.3.1/bits/stl_algobase.h ****    *  @return   Nothing.
 114:d:/MTK/MTK2503/MTK2503/11CW1418SP4_03_CORETEK03AE_11C_V1_GPRS_MMI/Tools/MinGW/include/c++/3.3.1/bits/stl_algobase.h ****    *
 115:d:/MTK/MTK2503/MTK2503/11CW1418SP4_03_CORETEK03AE_11C_V1_GPRS_MMI/Tools/MinGW/include/c++/3.3.1/bits/stl_algobase.h ****    *  This is the simple classic generic implementation.  It will work on
 116:d:/MTK/MTK2503/MTK2503/11CW1418SP4_03_CORETEK03AE_11C_V1_GPRS_MMI/Tools/MinGW/include/c++/3.3.1/bits/stl_algobase.h ****    *  any type which has a copy constructor and an assignment operator.
 117:d:/MTK/MTK2503/MTK2503/11CW1418SP4_03_CORETEK03AE_11C_V1_GPRS_MMI/Tools/MinGW/include/c++/3.3.1/bits/stl_algobase.h ****   */
 118:d:/MTK/MTK2503/MTK2503/11CW1418SP4_03_CORETEK03AE_11C_V1_GPRS_MMI/Tools/MinGW/include/c++/3.3.1/bits/stl_algobase.h ****   template<typename _Tp>
 119:d:/MTK/MTK2503/MTK2503/11CW1418SP4_03_CORETEK03AE_11C_V1_GPRS_MMI/Tools/MinGW/include/c++/3.3.1/bits/stl_algobase.h ****     inline void
 120:d:/MTK/MTK2503/MTK2503/11CW1418SP4_03_CORETEK03AE_11C_V1_GPRS_MMI/Tools/MinGW/include/c++/3.3.1/bits/stl_algobase.h ****     swap(_Tp& __a, _Tp& __b)
 121:d:/MTK/MTK2503/MTK2503/11CW1418SP4_03_CORETEK03AE_11C_V1_GPRS_MMI/Tools/MinGW/include/c++/3.3.1/bits/stl_algobase.h ****     {
 122:d:/MTK/MTK2503/MTK2503/11CW1418SP4_03_CORETEK03AE_11C_V1_GPRS_MMI/Tools/MinGW/include/c++/3.3.1/bits/stl_algobase.h ****       // concept requirements
 123:d:/MTK/MTK2503/MTK2503/11CW1418SP4_03_CORETEK03AE_11C_V1_GPRS_MMI/Tools/MinGW/include/c++/3.3.1/bits/stl_algobase.h ****       __glibcpp_function_requires(_SGIAssignableConcept<_Tp>)
 124:d:/MTK/MTK2503/MTK2503/11CW1418SP4_03_CORETEK03AE_11C_V1_GPRS_MMI/Tools/MinGW/include/c++/3.3.1/bits/stl_algobase.h ****       
 125:d:/MTK/MTK2503/MTK2503/11CW1418SP4_03_CORETEK03AE_11C_V1_GPRS_MMI/Tools/MinGW/include/c++/3.3.1/bits/stl_algobase.h ****       _Tp __tmp = __a;
 126:d:/MTK/MTK2503/MTK2503/11CW1418SP4_03_CORETEK03AE_11C_V1_GPRS_MMI/Tools/MinGW/include/c++/3.3.1/bits/stl_algobase.h ****       __a = __b;
 127:d:/MTK/MTK2503/MTK2503/11CW1418SP4_03_CORETEK03AE_11C_V1_GPRS_MMI/Tools/MinGW/include/c++/3.3.1/bits/stl_algobase.h ****       __b = __tmp;
GAS LISTING d:/MTK/MTK2503/MTK2503/11CW1418SP4_03_CORETEK03AE_11C_V1_GPRS_MMI/plutommi/Customer/ResGenerator/gcctmp/ccQHcaaa.s 			page 152


 128:d:/MTK/MTK2503/MTK2503/11CW1418SP4_03_CORETEK03AE_11C_V1_GPRS_MMI/Tools/MinGW/include/c++/3.3.1/bits/stl_algobase.h ****     }
 129:d:/MTK/MTK2503/MTK2503/11CW1418SP4_03_CORETEK03AE_11C_V1_GPRS_MMI/Tools/MinGW/include/c++/3.3.1/bits/stl_algobase.h **** 
 130:d:/MTK/MTK2503/MTK2503/11CW1418SP4_03_CORETEK03AE_11C_V1_GPRS_MMI/Tools/MinGW/include/c++/3.3.1/bits/stl_algobase.h ****   //--------------------------------------------------
 131:d:/MTK/MTK2503/MTK2503/11CW1418SP4_03_CORETEK03AE_11C_V1_GPRS_MMI/Tools/MinGW/include/c++/3.3.1/bits/stl_algobase.h ****   // min and max
 132:d:/MTK/MTK2503/MTK2503/11CW1418SP4_03_CORETEK03AE_11C_V1_GPRS_MMI/Tools/MinGW/include/c++/3.3.1/bits/stl_algobase.h **** 
 133:d:/MTK/MTK2503/MTK2503/11CW1418SP4_03_CORETEK03AE_11C_V1_GPRS_MMI/Tools/MinGW/include/c++/3.3.1/bits/stl_algobase.h ****   #undef min
 134:d:/MTK/MTK2503/MTK2503/11CW1418SP4_03_CORETEK03AE_11C_V1_GPRS_MMI/Tools/MinGW/include/c++/3.3.1/bits/stl_algobase.h ****   #undef max
 135:d:/MTK/MTK2503/MTK2503/11CW1418SP4_03_CORETEK03AE_11C_V1_GPRS_MMI/Tools/MinGW/include/c++/3.3.1/bits/stl_algobase.h **** 
 136:d:/MTK/MTK2503/MTK2503/11CW1418SP4_03_CORETEK03AE_11C_V1_GPRS_MMI/Tools/MinGW/include/c++/3.3.1/bits/stl_algobase.h ****   /**
 137:d:/MTK/MTK2503/MTK2503/11CW1418SP4_03_CORETEK03AE_11C_V1_GPRS_MMI/Tools/MinGW/include/c++/3.3.1/bits/stl_algobase.h ****    *  @brief This does what you think it does.
 138:d:/MTK/MTK2503/MTK2503/11CW1418SP4_03_CORETEK03AE_11C_V1_GPRS_MMI/Tools/MinGW/include/c++/3.3.1/bits/stl_algobase.h ****    *  @param  a  A thing of arbitrary type.
 139:d:/MTK/MTK2503/MTK2503/11CW1418SP4_03_CORETEK03AE_11C_V1_GPRS_MMI/Tools/MinGW/include/c++/3.3.1/bits/stl_algobase.h ****    *  @param  b  Another thing of arbitrary type.
 140:d:/MTK/MTK2503/MTK2503/11CW1418SP4_03_CORETEK03AE_11C_V1_GPRS_MMI/Tools/MinGW/include/c++/3.3.1/bits/stl_algobase.h ****    *  @return   The lesser of the parameters.
 141:d:/MTK/MTK2503/MTK2503/11CW1418SP4_03_CORETEK03AE_11C_V1_GPRS_MMI/Tools/MinGW/include/c++/3.3.1/bits/stl_algobase.h ****    *
 142:d:/MTK/MTK2503/MTK2503/11CW1418SP4_03_CORETEK03AE_11C_V1_GPRS_MMI/Tools/MinGW/include/c++/3.3.1/bits/stl_algobase.h ****    *  This is the simple classic generic implementation.  It will work on
 143:d:/MTK/MTK2503/MTK2503/11CW1418SP4_03_CORETEK03AE_11C_V1_GPRS_MMI/Tools/MinGW/include/c++/3.3.1/bits/stl_algobase.h ****    *  temporary expressions, since they are only evaluated once, unlike a
 144:d:/MTK/MTK2503/MTK2503/11CW1418SP4_03_CORETEK03AE_11C_V1_GPRS_MMI/Tools/MinGW/include/c++/3.3.1/bits/stl_algobase.h ****    *  preprocessor macro.
 145:d:/MTK/MTK2503/MTK2503/11CW1418SP4_03_CORETEK03AE_11C_V1_GPRS_MMI/Tools/MinGW/include/c++/3.3.1/bits/stl_algobase.h ****   */
 146:d:/MTK/MTK2503/MTK2503/11CW1418SP4_03_CORETEK03AE_11C_V1_GPRS_MMI/Tools/MinGW/include/c++/3.3.1/bits/stl_algobase.h ****   template<typename _Tp>
 147:d:/MTK/MTK2503/MTK2503/11CW1418SP4_03_CORETEK03AE_11C_V1_GPRS_MMI/Tools/MinGW/include/c++/3.3.1/bits/stl_algobase.h ****     inline const _Tp&
 148:d:/MTK/MTK2503/MTK2503/11CW1418SP4_03_CORETEK03AE_11C_V1_GPRS_MMI/Tools/MinGW/include/c++/3.3.1/bits/stl_algobase.h ****     min(const _Tp& __a, const _Tp& __b)
 149:d:/MTK/MTK2503/MTK2503/11CW1418SP4_03_CORETEK03AE_11C_V1_GPRS_MMI/Tools/MinGW/include/c++/3.3.1/bits/stl_algobase.h ****     {
 150:d:/MTK/MTK2503/MTK2503/11CW1418SP4_03_CORETEK03AE_11C_V1_GPRS_MMI/Tools/MinGW/include/c++/3.3.1/bits/stl_algobase.h ****       // concept requirements
 151:d:/MTK/MTK2503/MTK2503/11CW1418SP4_03_CORETEK03AE_11C_V1_GPRS_MMI/Tools/MinGW/include/c++/3.3.1/bits/stl_algobase.h ****       __glibcpp_function_requires(_LessThanComparableConcept<_Tp>)
 152:d:/MTK/MTK2503/MTK2503/11CW1418SP4_03_CORETEK03AE_11C_V1_GPRS_MMI/Tools/MinGW/include/c++/3.3.1/bits/stl_algobase.h ****       //return __b < __a ? __b : __a;
 153:d:/MTK/MTK2503/MTK2503/11CW1418SP4_03_CORETEK03AE_11C_V1_GPRS_MMI/Tools/MinGW/include/c++/3.3.1/bits/stl_algobase.h ****       if (__b < __a) return __b; return __a;
 154:d:/MTK/MTK2503/MTK2503/11CW1418SP4_03_CORETEK03AE_11C_V1_GPRS_MMI/Tools/MinGW/include/c++/3.3.1/bits/stl_algobase.h ****     }
 155:d:/MTK/MTK2503/MTK2503/11CW1418SP4_03_CORETEK03AE_11C_V1_GPRS_MMI/Tools/MinGW/include/c++/3.3.1/bits/stl_algobase.h **** 
 156:d:/MTK/MTK2503/MTK2503/11CW1418SP4_03_CORETEK03AE_11C_V1_GPRS_MMI/Tools/MinGW/include/c++/3.3.1/bits/stl_algobase.h ****   /**
 157:d:/MTK/MTK2503/MTK2503/11CW1418SP4_03_CORETEK03AE_11C_V1_GPRS_MMI/Tools/MinGW/include/c++/3.3.1/bits/stl_algobase.h ****    *  @brief This does what you think it does.
 158:d:/MTK/MTK2503/MTK2503/11CW1418SP4_03_CORETEK03AE_11C_V1_GPRS_MMI/Tools/MinGW/include/c++/3.3.1/bits/stl_algobase.h ****    *  @param  a  A thing of arbitrary type.
 159:d:/MTK/MTK2503/MTK2503/11CW1418SP4_03_CORETEK03AE_11C_V1_GPRS_MMI/Tools/MinGW/include/c++/3.3.1/bits/stl_algobase.h ****    *  @param  b  Another thing of arbitrary type.
 160:d:/MTK/MTK2503/MTK2503/11CW1418SP4_03_CORETEK03AE_11C_V1_GPRS_MMI/Tools/MinGW/include/c++/3.3.1/bits/stl_algobase.h ****    *  @return   The greater of the parameters.
 161:d:/MTK/MTK2503/MTK2503/11CW1418SP4_03_CORETEK03AE_11C_V1_GPRS_MMI/Tools/MinGW/include/c++/3.3.1/bits/stl_algobase.h ****    *
 162:d:/MTK/MTK2503/MTK2503/11CW1418SP4_03_CORETEK03AE_11C_V1_GPRS_MMI/Tools/MinGW/include/c++/3.3.1/bits/stl_algobase.h ****    *  This is the simple classic generic implementation.  It will work on
 163:d:/MTK/MTK2503/MTK2503/11CW1418SP4_03_CORETEK03AE_11C_V1_GPRS_MMI/Tools/MinGW/include/c++/3.3.1/bits/stl_algobase.h ****    *  temporary expressions, since they are only evaluated once, unlike a
 164:d:/MTK/MTK2503/MTK2503/11CW1418SP4_03_CORETEK03AE_11C_V1_GPRS_MMI/Tools/MinGW/include/c++/3.3.1/bits/stl_algobase.h ****    *  preprocessor macro.
 165:d:/MTK/MTK2503/MTK2503/11CW1418SP4_03_CORETEK03AE_11C_V1_GPRS_MMI/Tools/MinGW/include/c++/3.3.1/bits/stl_algobase.h ****   */
 166:d:/MTK/MTK2503/MTK2503/11CW1418SP4_03_CORETEK03AE_11C_V1_GPRS_MMI/Tools/MinGW/include/c++/3.3.1/bits/stl_algobase.h ****   template<typename _Tp>
 167:d:/MTK/MTK2503/MTK2503/11CW1418SP4_03_CORETEK03AE_11C_V1_GPRS_MMI/Tools/MinGW/include/c++/3.3.1/bits/stl_algobase.h ****     inline const _Tp&
 168:d:/MTK/MTK2503/MTK2503/11CW1418SP4_03_CORETEK03AE_11C_V1_GPRS_MMI/Tools/MinGW/include/c++/3.3.1/bits/stl_algobase.h ****     max(const _Tp& __a, const _Tp& __b) 
 169:d:/MTK/MTK2503/MTK2503/11CW1418SP4_03_CORETEK03AE_11C_V1_GPRS_MMI/Tools/MinGW/include/c++/3.3.1/bits/stl_algobase.h ****     {
 170:d:/MTK/MTK2503/MTK2503/11CW1418SP4_03_CORETEK03AE_11C_V1_GPRS_MMI/Tools/MinGW/include/c++/3.3.1/bits/stl_algobase.h ****       // concept requirements
 171:d:/MTK/MTK2503/MTK2503/11CW1418SP4_03_CORETEK03AE_11C_V1_GPRS_MMI/Tools/MinGW/include/c++/3.3.1/bits/stl_algobase.h ****       __glibcpp_function_requires(_LessThanComparableConcept<_Tp>)
 172:d:/MTK/MTK2503/MTK2503/11CW1418SP4_03_CORETEK03AE_11C_V1_GPRS_MMI/Tools/MinGW/include/c++/3.3.1/bits/stl_algobase.h ****       //return  __a < __b ? __b : __a;
 173:d:/MTK/MTK2503/MTK2503/11CW1418SP4_03_CORETEK03AE_11C_V1_GPRS_MMI/Tools/MinGW/include/c++/3.3.1/bits/stl_algobase.h ****       if (__a < __b) return __b; return __a;
 174:d:/MTK/MTK2503/MTK2503/11CW1418SP4_03_CORETEK03AE_11C_V1_GPRS_MMI/Tools/MinGW/include/c++/3.3.1/bits/stl_algobase.h ****     }
 175:d:/MTK/MTK2503/MTK2503/11CW1418SP4_03_CORETEK03AE_11C_V1_GPRS_MMI/Tools/MinGW/include/c++/3.3.1/bits/stl_algobase.h **** 
 176:d:/MTK/MTK2503/MTK2503/11CW1418SP4_03_CORETEK03AE_11C_V1_GPRS_MMI/Tools/MinGW/include/c++/3.3.1/bits/stl_algobase.h ****   /**
 177:d:/MTK/MTK2503/MTK2503/11CW1418SP4_03_CORETEK03AE_11C_V1_GPRS_MMI/Tools/MinGW/include/c++/3.3.1/bits/stl_algobase.h ****    *  @brief This does what you think it does.
 178:d:/MTK/MTK2503/MTK2503/11CW1418SP4_03_CORETEK03AE_11C_V1_GPRS_MMI/Tools/MinGW/include/c++/3.3.1/bits/stl_algobase.h ****    *  @param  a  A thing of arbitrary type.
 179:d:/MTK/MTK2503/MTK2503/11CW1418SP4_03_CORETEK03AE_11C_V1_GPRS_MMI/Tools/MinGW/include/c++/3.3.1/bits/stl_algobase.h ****    *  @param  b  Another thing of arbitrary type.
 180:d:/MTK/MTK2503/MTK2503/11CW1418SP4_03_CORETEK03AE_11C_V1_GPRS_MMI/Tools/MinGW/include/c++/3.3.1/bits/stl_algobase.h ****    *  @param  comp  A @link s20_3_3_comparisons comparison functor@endlink.
 181:d:/MTK/MTK2503/MTK2503/11CW1418SP4_03_CORETEK03AE_11C_V1_GPRS_MMI/Tools/MinGW/include/c++/3.3.1/bits/stl_algobase.h ****    *  @return   The lesser of the parameters.
 182:d:/MTK/MTK2503/MTK2503/11CW1418SP4_03_CORETEK03AE_11C_V1_GPRS_MMI/Tools/MinGW/include/c++/3.3.1/bits/stl_algobase.h ****    *
 183:d:/MTK/MTK2503/MTK2503/11CW1418SP4_03_CORETEK03AE_11C_V1_GPRS_MMI/Tools/MinGW/include/c++/3.3.1/bits/stl_algobase.h ****    *  This will work on temporary expressions, since they are only evaluated
 184:d:/MTK/MTK2503/MTK2503/11CW1418SP4_03_CORETEK03AE_11C_V1_GPRS_MMI/Tools/MinGW/include/c++/3.3.1/bits/stl_algobase.h ****    *  once, unlike a preprocessor macro.
GAS LISTING d:/MTK/MTK2503/MTK2503/11CW1418SP4_03_CORETEK03AE_11C_V1_GPRS_MMI/plutommi/Customer/ResGenerator/gcctmp/ccQHcaaa.s 			page 153


 185:d:/MTK/MTK2503/MTK2503/11CW1418SP4_03_CORETEK03AE_11C_V1_GPRS_MMI/Tools/MinGW/include/c++/3.3.1/bits/stl_algobase.h ****   */
 186:d:/MTK/MTK2503/MTK2503/11CW1418SP4_03_CORETEK03AE_11C_V1_GPRS_MMI/Tools/MinGW/include/c++/3.3.1/bits/stl_algobase.h ****   template<typename _Tp, typename _Compare>
 187:d:/MTK/MTK2503/MTK2503/11CW1418SP4_03_CORETEK03AE_11C_V1_GPRS_MMI/Tools/MinGW/include/c++/3.3.1/bits/stl_algobase.h ****     inline const _Tp&
 188:d:/MTK/MTK2503/MTK2503/11CW1418SP4_03_CORETEK03AE_11C_V1_GPRS_MMI/Tools/MinGW/include/c++/3.3.1/bits/stl_algobase.h ****     min(const _Tp& __a, const _Tp& __b, _Compare __comp)
 189:d:/MTK/MTK2503/MTK2503/11CW1418SP4_03_CORETEK03AE_11C_V1_GPRS_MMI/Tools/MinGW/include/c++/3.3.1/bits/stl_algobase.h ****     {
 190:d:/MTK/MTK2503/MTK2503/11CW1418SP4_03_CORETEK03AE_11C_V1_GPRS_MMI/Tools/MinGW/include/c++/3.3.1/bits/stl_algobase.h ****       //return __comp(__b, __a) ? __b : __a;
 191:d:/MTK/MTK2503/MTK2503/11CW1418SP4_03_CORETEK03AE_11C_V1_GPRS_MMI/Tools/MinGW/include/c++/3.3.1/bits/stl_algobase.h ****       if (__comp(__b, __a)) return __b; return __a;
 192:d:/MTK/MTK2503/MTK2503/11CW1418SP4_03_CORETEK03AE_11C_V1_GPRS_MMI/Tools/MinGW/include/c++/3.3.1/bits/stl_algobase.h ****     }
 193:d:/MTK/MTK2503/MTK2503/11CW1418SP4_03_CORETEK03AE_11C_V1_GPRS_MMI/Tools/MinGW/include/c++/3.3.1/bits/stl_algobase.h **** 
 194:d:/MTK/MTK2503/MTK2503/11CW1418SP4_03_CORETEK03AE_11C_V1_GPRS_MMI/Tools/MinGW/include/c++/3.3.1/bits/stl_algobase.h ****   /**
 195:d:/MTK/MTK2503/MTK2503/11CW1418SP4_03_CORETEK03AE_11C_V1_GPRS_MMI/Tools/MinGW/include/c++/3.3.1/bits/stl_algobase.h ****    *  @brief This does what you think it does.
 196:d:/MTK/MTK2503/MTK2503/11CW1418SP4_03_CORETEK03AE_11C_V1_GPRS_MMI/Tools/MinGW/include/c++/3.3.1/bits/stl_algobase.h ****    *  @param  a  A thing of arbitrary type.
 197:d:/MTK/MTK2503/MTK2503/11CW1418SP4_03_CORETEK03AE_11C_V1_GPRS_MMI/Tools/MinGW/include/c++/3.3.1/bits/stl_algobase.h ****    *  @param  b  Another thing of arbitrary type.
 198:d:/MTK/MTK2503/MTK2503/11CW1418SP4_03_CORETEK03AE_11C_V1_GPRS_MMI/Tools/MinGW/include/c++/3.3.1/bits/stl_algobase.h ****    *  @param  comp  A @link s20_3_3_comparisons comparison functor@endlink.
 199:d:/MTK/MTK2503/MTK2503/11CW1418SP4_03_CORETEK03AE_11C_V1_GPRS_MMI/Tools/MinGW/include/c++/3.3.1/bits/stl_algobase.h ****    *  @return   The greater of the parameters.
 200:d:/MTK/MTK2503/MTK2503/11CW1418SP4_03_CORETEK03AE_11C_V1_GPRS_MMI/Tools/MinGW/include/c++/3.3.1/bits/stl_algobase.h ****    *
 201:d:/MTK/MTK2503/MTK2503/11CW1418SP4_03_CORETEK03AE_11C_V1_GPRS_MMI/Tools/MinGW/include/c++/3.3.1/bits/stl_algobase.h ****    *  This will work on temporary expressions, since they are only evaluated
 202:d:/MTK/MTK2503/MTK2503/11CW1418SP4_03_CORETEK03AE_11C_V1_GPRS_MMI/Tools/MinGW/include/c++/3.3.1/bits/stl_algobase.h ****    *  once, unlike a preprocessor macro.
 203:d:/MTK/MTK2503/MTK2503/11CW1418SP4_03_CORETEK03AE_11C_V1_GPRS_MMI/Tools/MinGW/include/c++/3.3.1/bits/stl_algobase.h ****   */
 204:d:/MTK/MTK2503/MTK2503/11CW1418SP4_03_CORETEK03AE_11C_V1_GPRS_MMI/Tools/MinGW/include/c++/3.3.1/bits/stl_algobase.h ****   template<typename _Tp, typename _Compare>
 205:d:/MTK/MTK2503/MTK2503/11CW1418SP4_03_CORETEK03AE_11C_V1_GPRS_MMI/Tools/MinGW/include/c++/3.3.1/bits/stl_algobase.h ****     inline const _Tp&
 206:d:/MTK/MTK2503/MTK2503/11CW1418SP4_03_CORETEK03AE_11C_V1_GPRS_MMI/Tools/MinGW/include/c++/3.3.1/bits/stl_algobase.h ****     max(const _Tp& __a, const _Tp& __b, _Compare __comp)
 207:d:/MTK/MTK2503/MTK2503/11CW1418SP4_03_CORETEK03AE_11C_V1_GPRS_MMI/Tools/MinGW/include/c++/3.3.1/bits/stl_algobase.h ****     {
 208:d:/MTK/MTK2503/MTK2503/11CW1418SP4_03_CORETEK03AE_11C_V1_GPRS_MMI/Tools/MinGW/include/c++/3.3.1/bits/stl_algobase.h ****       //return __comp(__a, __b) ? __b : __a;
 209:d:/MTK/MTK2503/MTK2503/11CW1418SP4_03_CORETEK03AE_11C_V1_GPRS_MMI/Tools/MinGW/include/c++/3.3.1/bits/stl_algobase.h ****       if (__comp(__a, __b)) return __b; return __a;
 210:d:/MTK/MTK2503/MTK2503/11CW1418SP4_03_CORETEK03AE_11C_V1_GPRS_MMI/Tools/MinGW/include/c++/3.3.1/bits/stl_algobase.h ****     }
 211:d:/MTK/MTK2503/MTK2503/11CW1418SP4_03_CORETEK03AE_11C_V1_GPRS_MMI/Tools/MinGW/include/c++/3.3.1/bits/stl_algobase.h **** 
 212:d:/MTK/MTK2503/MTK2503/11CW1418SP4_03_CORETEK03AE_11C_V1_GPRS_MMI/Tools/MinGW/include/c++/3.3.1/bits/stl_algobase.h ****   //--------------------------------------------------
 213:d:/MTK/MTK2503/MTK2503/11CW1418SP4_03_CORETEK03AE_11C_V1_GPRS_MMI/Tools/MinGW/include/c++/3.3.1/bits/stl_algobase.h ****   // copy
 214:d:/MTK/MTK2503/MTK2503/11CW1418SP4_03_CORETEK03AE_11C_V1_GPRS_MMI/Tools/MinGW/include/c++/3.3.1/bits/stl_algobase.h **** 
 215:d:/MTK/MTK2503/MTK2503/11CW1418SP4_03_CORETEK03AE_11C_V1_GPRS_MMI/Tools/MinGW/include/c++/3.3.1/bits/stl_algobase.h ****   // All of these auxiliary functions serve two purposes.  (1) Replace
 216:d:/MTK/MTK2503/MTK2503/11CW1418SP4_03_CORETEK03AE_11C_V1_GPRS_MMI/Tools/MinGW/include/c++/3.3.1/bits/stl_algobase.h ****   // calls to copy with memmove whenever possible.  (Memmove, not memcpy,
 217:d:/MTK/MTK2503/MTK2503/11CW1418SP4_03_CORETEK03AE_11C_V1_GPRS_MMI/Tools/MinGW/include/c++/3.3.1/bits/stl_algobase.h ****   // because the input and output ranges are permitted to overlap.)
 218:d:/MTK/MTK2503/MTK2503/11CW1418SP4_03_CORETEK03AE_11C_V1_GPRS_MMI/Tools/MinGW/include/c++/3.3.1/bits/stl_algobase.h ****   // (2) If we're using random access iterators, then write the loop as
 219:d:/MTK/MTK2503/MTK2503/11CW1418SP4_03_CORETEK03AE_11C_V1_GPRS_MMI/Tools/MinGW/include/c++/3.3.1/bits/stl_algobase.h ****   // a for loop with an explicit count.
 220:d:/MTK/MTK2503/MTK2503/11CW1418SP4_03_CORETEK03AE_11C_V1_GPRS_MMI/Tools/MinGW/include/c++/3.3.1/bits/stl_algobase.h **** 
 221:d:/MTK/MTK2503/MTK2503/11CW1418SP4_03_CORETEK03AE_11C_V1_GPRS_MMI/Tools/MinGW/include/c++/3.3.1/bits/stl_algobase.h ****   template<typename _InputIter, typename _OutputIter>
 222:d:/MTK/MTK2503/MTK2503/11CW1418SP4_03_CORETEK03AE_11C_V1_GPRS_MMI/Tools/MinGW/include/c++/3.3.1/bits/stl_algobase.h ****     inline _OutputIter
 223:d:/MTK/MTK2503/MTK2503/11CW1418SP4_03_CORETEK03AE_11C_V1_GPRS_MMI/Tools/MinGW/include/c++/3.3.1/bits/stl_algobase.h ****     __copy(_InputIter __first, _InputIter __last,
 224:d:/MTK/MTK2503/MTK2503/11CW1418SP4_03_CORETEK03AE_11C_V1_GPRS_MMI/Tools/MinGW/include/c++/3.3.1/bits/stl_algobase.h **** 	   _OutputIter __result,
 225:d:/MTK/MTK2503/MTK2503/11CW1418SP4_03_CORETEK03AE_11C_V1_GPRS_MMI/Tools/MinGW/include/c++/3.3.1/bits/stl_algobase.h **** 	   input_iterator_tag)
 226:d:/MTK/MTK2503/MTK2503/11CW1418SP4_03_CORETEK03AE_11C_V1_GPRS_MMI/Tools/MinGW/include/c++/3.3.1/bits/stl_algobase.h ****     {
 227:d:/MTK/MTK2503/MTK2503/11CW1418SP4_03_CORETEK03AE_11C_V1_GPRS_MMI/Tools/MinGW/include/c++/3.3.1/bits/stl_algobase.h ****       for ( ; __first != __last; ++__result, ++__first)
 228:d:/MTK/MTK2503/MTK2503/11CW1418SP4_03_CORETEK03AE_11C_V1_GPRS_MMI/Tools/MinGW/include/c++/3.3.1/bits/stl_algobase.h **** 	*__result = *__first;
 229:d:/MTK/MTK2503/MTK2503/11CW1418SP4_03_CORETEK03AE_11C_V1_GPRS_MMI/Tools/MinGW/include/c++/3.3.1/bits/stl_algobase.h ****       return __result;
 230:d:/MTK/MTK2503/MTK2503/11CW1418SP4_03_CORETEK03AE_11C_V1_GPRS_MMI/Tools/MinGW/include/c++/3.3.1/bits/stl_algobase.h ****     }
 231:d:/MTK/MTK2503/MTK2503/11CW1418SP4_03_CORETEK03AE_11C_V1_GPRS_MMI/Tools/MinGW/include/c++/3.3.1/bits/stl_algobase.h **** 
 232:d:/MTK/MTK2503/MTK2503/11CW1418SP4_03_CORETEK03AE_11C_V1_GPRS_MMI/Tools/MinGW/include/c++/3.3.1/bits/stl_algobase.h ****   template<typename _RandomAccessIter, typename _OutputIter>
 233:d:/MTK/MTK2503/MTK2503/11CW1418SP4_03_CORETEK03AE_11C_V1_GPRS_MMI/Tools/MinGW/include/c++/3.3.1/bits/stl_algobase.h ****     inline _OutputIter
 234:d:/MTK/MTK2503/MTK2503/11CW1418SP4_03_CORETEK03AE_11C_V1_GPRS_MMI/Tools/MinGW/include/c++/3.3.1/bits/stl_algobase.h ****     __copy(_RandomAccessIter __first, _RandomAccessIter __last,
 235:d:/MTK/MTK2503/MTK2503/11CW1418SP4_03_CORETEK03AE_11C_V1_GPRS_MMI/Tools/MinGW/include/c++/3.3.1/bits/stl_algobase.h **** 	   _OutputIter __result,
 236:d:/MTK/MTK2503/MTK2503/11CW1418SP4_03_CORETEK03AE_11C_V1_GPRS_MMI/Tools/MinGW/include/c++/3.3.1/bits/stl_algobase.h **** 	   random_access_iterator_tag)
 237:d:/MTK/MTK2503/MTK2503/11CW1418SP4_03_CORETEK03AE_11C_V1_GPRS_MMI/Tools/MinGW/include/c++/3.3.1/bits/stl_algobase.h ****     {
 238:d:/MTK/MTK2503/MTK2503/11CW1418SP4_03_CORETEK03AE_11C_V1_GPRS_MMI/Tools/MinGW/include/c++/3.3.1/bits/stl_algobase.h ****       typedef typename iterator_traits<_RandomAccessIter>::difference_type
 239:d:/MTK/MTK2503/MTK2503/11CW1418SP4_03_CORETEK03AE_11C_V1_GPRS_MMI/Tools/MinGW/include/c++/3.3.1/bits/stl_algobase.h ****           _Distance;
 240:d:/MTK/MTK2503/MTK2503/11CW1418SP4_03_CORETEK03AE_11C_V1_GPRS_MMI/Tools/MinGW/include/c++/3.3.1/bits/stl_algobase.h ****       for (_Distance __n = __last - __first; __n > 0; --__n) {
 241:d:/MTK/MTK2503/MTK2503/11CW1418SP4_03_CORETEK03AE_11C_V1_GPRS_MMI/Tools/MinGW/include/c++/3.3.1/bits/stl_algobase.h **** 	*__result = *__first;
GAS LISTING d:/MTK/MTK2503/MTK2503/11CW1418SP4_03_CORETEK03AE_11C_V1_GPRS_MMI/plutommi/Customer/ResGenerator/gcctmp/ccQHcaaa.s 			page 154


 242:d:/MTK/MTK2503/MTK2503/11CW1418SP4_03_CORETEK03AE_11C_V1_GPRS_MMI/Tools/MinGW/include/c++/3.3.1/bits/stl_algobase.h **** 	++__first;
 243:d:/MTK/MTK2503/MTK2503/11CW1418SP4_03_CORETEK03AE_11C_V1_GPRS_MMI/Tools/MinGW/include/c++/3.3.1/bits/stl_algobase.h **** 	++__result;
 244:d:/MTK/MTK2503/MTK2503/11CW1418SP4_03_CORETEK03AE_11C_V1_GPRS_MMI/Tools/MinGW/include/c++/3.3.1/bits/stl_algobase.h ****       }
 245:d:/MTK/MTK2503/MTK2503/11CW1418SP4_03_CORETEK03AE_11C_V1_GPRS_MMI/Tools/MinGW/include/c++/3.3.1/bits/stl_algobase.h ****       return __result;
 246:d:/MTK/MTK2503/MTK2503/11CW1418SP4_03_CORETEK03AE_11C_V1_GPRS_MMI/Tools/MinGW/include/c++/3.3.1/bits/stl_algobase.h ****     }
 247:d:/MTK/MTK2503/MTK2503/11CW1418SP4_03_CORETEK03AE_11C_V1_GPRS_MMI/Tools/MinGW/include/c++/3.3.1/bits/stl_algobase.h **** 
 248:d:/MTK/MTK2503/MTK2503/11CW1418SP4_03_CORETEK03AE_11C_V1_GPRS_MMI/Tools/MinGW/include/c++/3.3.1/bits/stl_algobase.h ****   template<typename _Tp>
 249:d:/MTK/MTK2503/MTK2503/11CW1418SP4_03_CORETEK03AE_11C_V1_GPRS_MMI/Tools/MinGW/include/c++/3.3.1/bits/stl_algobase.h ****     inline _Tp*
 250:d:/MTK/MTK2503/MTK2503/11CW1418SP4_03_CORETEK03AE_11C_V1_GPRS_MMI/Tools/MinGW/include/c++/3.3.1/bits/stl_algobase.h ****     __copy_trivial(const _Tp* __first, const _Tp* __last, _Tp* __result)
 251:d:/MTK/MTK2503/MTK2503/11CW1418SP4_03_CORETEK03AE_11C_V1_GPRS_MMI/Tools/MinGW/include/c++/3.3.1/bits/stl_algobase.h ****     {
 252:d:/MTK/MTK2503/MTK2503/11CW1418SP4_03_CORETEK03AE_11C_V1_GPRS_MMI/Tools/MinGW/include/c++/3.3.1/bits/stl_algobase.h ****       memmove(__result, __first, sizeof(_Tp) * (__last - __first));
 253:d:/MTK/MTK2503/MTK2503/11CW1418SP4_03_CORETEK03AE_11C_V1_GPRS_MMI/Tools/MinGW/include/c++/3.3.1/bits/stl_algobase.h ****       return __result + (__last - __first);
 254:d:/MTK/MTK2503/MTK2503/11CW1418SP4_03_CORETEK03AE_11C_V1_GPRS_MMI/Tools/MinGW/include/c++/3.3.1/bits/stl_algobase.h ****     }
 255:d:/MTK/MTK2503/MTK2503/11CW1418SP4_03_CORETEK03AE_11C_V1_GPRS_MMI/Tools/MinGW/include/c++/3.3.1/bits/stl_algobase.h **** 
 256:d:/MTK/MTK2503/MTK2503/11CW1418SP4_03_CORETEK03AE_11C_V1_GPRS_MMI/Tools/MinGW/include/c++/3.3.1/bits/stl_algobase.h ****   template<typename _InputIter, typename _OutputIter>
 257:d:/MTK/MTK2503/MTK2503/11CW1418SP4_03_CORETEK03AE_11C_V1_GPRS_MMI/Tools/MinGW/include/c++/3.3.1/bits/stl_algobase.h ****     inline _OutputIter
 258:d:/MTK/MTK2503/MTK2503/11CW1418SP4_03_CORETEK03AE_11C_V1_GPRS_MMI/Tools/MinGW/include/c++/3.3.1/bits/stl_algobase.h ****     __copy_aux2(_InputIter __first, _InputIter __last,
 259:d:/MTK/MTK2503/MTK2503/11CW1418SP4_03_CORETEK03AE_11C_V1_GPRS_MMI/Tools/MinGW/include/c++/3.3.1/bits/stl_algobase.h **** 		_OutputIter __result, __false_type)
 260:d:/MTK/MTK2503/MTK2503/11CW1418SP4_03_CORETEK03AE_11C_V1_GPRS_MMI/Tools/MinGW/include/c++/3.3.1/bits/stl_algobase.h ****     { return __copy(__first, __last, __result, __iterator_category(__first)); }
 261:d:/MTK/MTK2503/MTK2503/11CW1418SP4_03_CORETEK03AE_11C_V1_GPRS_MMI/Tools/MinGW/include/c++/3.3.1/bits/stl_algobase.h **** 
 262:d:/MTK/MTK2503/MTK2503/11CW1418SP4_03_CORETEK03AE_11C_V1_GPRS_MMI/Tools/MinGW/include/c++/3.3.1/bits/stl_algobase.h ****   template<typename _InputIter, typename _OutputIter>
 263:d:/MTK/MTK2503/MTK2503/11CW1418SP4_03_CORETEK03AE_11C_V1_GPRS_MMI/Tools/MinGW/include/c++/3.3.1/bits/stl_algobase.h ****     inline _OutputIter
 264:d:/MTK/MTK2503/MTK2503/11CW1418SP4_03_CORETEK03AE_11C_V1_GPRS_MMI/Tools/MinGW/include/c++/3.3.1/bits/stl_algobase.h ****     __copy_aux2(_InputIter __first, _InputIter __last,
 265:d:/MTK/MTK2503/MTK2503/11CW1418SP4_03_CORETEK03AE_11C_V1_GPRS_MMI/Tools/MinGW/include/c++/3.3.1/bits/stl_algobase.h **** 		_OutputIter __result, __true_type)
 266:d:/MTK/MTK2503/MTK2503/11CW1418SP4_03_CORETEK03AE_11C_V1_GPRS_MMI/Tools/MinGW/include/c++/3.3.1/bits/stl_algobase.h ****     { return __copy(__first, __last, __result, __iterator_category(__first)); }
 267:d:/MTK/MTK2503/MTK2503/11CW1418SP4_03_CORETEK03AE_11C_V1_GPRS_MMI/Tools/MinGW/include/c++/3.3.1/bits/stl_algobase.h **** 
 268:d:/MTK/MTK2503/MTK2503/11CW1418SP4_03_CORETEK03AE_11C_V1_GPRS_MMI/Tools/MinGW/include/c++/3.3.1/bits/stl_algobase.h ****   template<typename _Tp>
 269:d:/MTK/MTK2503/MTK2503/11CW1418SP4_03_CORETEK03AE_11C_V1_GPRS_MMI/Tools/MinGW/include/c++/3.3.1/bits/stl_algobase.h ****     inline _Tp*
 270:d:/MTK/MTK2503/MTK2503/11CW1418SP4_03_CORETEK03AE_11C_V1_GPRS_MMI/Tools/MinGW/include/c++/3.3.1/bits/stl_algobase.h ****     __copy_aux2(_Tp* __first, _Tp* __last,
 271:d:/MTK/MTK2503/MTK2503/11CW1418SP4_03_CORETEK03AE_11C_V1_GPRS_MMI/Tools/MinGW/include/c++/3.3.1/bits/stl_algobase.h **** 		_Tp* __result, __true_type)
 272:d:/MTK/MTK2503/MTK2503/11CW1418SP4_03_CORETEK03AE_11C_V1_GPRS_MMI/Tools/MinGW/include/c++/3.3.1/bits/stl_algobase.h ****     { return __copy_trivial(__first, __last, __result); }
 273:d:/MTK/MTK2503/MTK2503/11CW1418SP4_03_CORETEK03AE_11C_V1_GPRS_MMI/Tools/MinGW/include/c++/3.3.1/bits/stl_algobase.h **** 
 274:d:/MTK/MTK2503/MTK2503/11CW1418SP4_03_CORETEK03AE_11C_V1_GPRS_MMI/Tools/MinGW/include/c++/3.3.1/bits/stl_algobase.h ****   template<typename _Tp>
 275:d:/MTK/MTK2503/MTK2503/11CW1418SP4_03_CORETEK03AE_11C_V1_GPRS_MMI/Tools/MinGW/include/c++/3.3.1/bits/stl_algobase.h ****     inline _Tp*
 276:d:/MTK/MTK2503/MTK2503/11CW1418SP4_03_CORETEK03AE_11C_V1_GPRS_MMI/Tools/MinGW/include/c++/3.3.1/bits/stl_algobase.h ****     __copy_aux2(const _Tp* __first, const _Tp* __last,
 277:d:/MTK/MTK2503/MTK2503/11CW1418SP4_03_CORETEK03AE_11C_V1_GPRS_MMI/Tools/MinGW/include/c++/3.3.1/bits/stl_algobase.h **** 		_Tp* __result, __true_type)
 278:d:/MTK/MTK2503/MTK2503/11CW1418SP4_03_CORETEK03AE_11C_V1_GPRS_MMI/Tools/MinGW/include/c++/3.3.1/bits/stl_algobase.h ****     { return __copy_trivial(__first, __last, __result); }
 279:d:/MTK/MTK2503/MTK2503/11CW1418SP4_03_CORETEK03AE_11C_V1_GPRS_MMI/Tools/MinGW/include/c++/3.3.1/bits/stl_algobase.h **** 
 280:d:/MTK/MTK2503/MTK2503/11CW1418SP4_03_CORETEK03AE_11C_V1_GPRS_MMI/Tools/MinGW/include/c++/3.3.1/bits/stl_algobase.h ****   template<typename _InputIter, typename _OutputIter>
 281:d:/MTK/MTK2503/MTK2503/11CW1418SP4_03_CORETEK03AE_11C_V1_GPRS_MMI/Tools/MinGW/include/c++/3.3.1/bits/stl_algobase.h ****     inline _OutputIter
 282:d:/MTK/MTK2503/MTK2503/11CW1418SP4_03_CORETEK03AE_11C_V1_GPRS_MMI/Tools/MinGW/include/c++/3.3.1/bits/stl_algobase.h ****     __copy_ni2(_InputIter __first, _InputIter __last,
 283:d:/MTK/MTK2503/MTK2503/11CW1418SP4_03_CORETEK03AE_11C_V1_GPRS_MMI/Tools/MinGW/include/c++/3.3.1/bits/stl_algobase.h **** 	       _OutputIter __result, __true_type)
 284:d:/MTK/MTK2503/MTK2503/11CW1418SP4_03_CORETEK03AE_11C_V1_GPRS_MMI/Tools/MinGW/include/c++/3.3.1/bits/stl_algobase.h ****     {
 285:d:/MTK/MTK2503/MTK2503/11CW1418SP4_03_CORETEK03AE_11C_V1_GPRS_MMI/Tools/MinGW/include/c++/3.3.1/bits/stl_algobase.h ****       typedef typename iterator_traits<_InputIter>::value_type
 286:d:/MTK/MTK2503/MTK2503/11CW1418SP4_03_CORETEK03AE_11C_V1_GPRS_MMI/Tools/MinGW/include/c++/3.3.1/bits/stl_algobase.h **** 	  _ValueType;
 287:d:/MTK/MTK2503/MTK2503/11CW1418SP4_03_CORETEK03AE_11C_V1_GPRS_MMI/Tools/MinGW/include/c++/3.3.1/bits/stl_algobase.h ****       typedef typename __type_traits<_ValueType>::has_trivial_assignment_operator
 288:d:/MTK/MTK2503/MTK2503/11CW1418SP4_03_CORETEK03AE_11C_V1_GPRS_MMI/Tools/MinGW/include/c++/3.3.1/bits/stl_algobase.h **** 	  _Trivial;
 289:d:/MTK/MTK2503/MTK2503/11CW1418SP4_03_CORETEK03AE_11C_V1_GPRS_MMI/Tools/MinGW/include/c++/3.3.1/bits/stl_algobase.h ****       return _OutputIter(__copy_aux2(__first, __last,
 290:d:/MTK/MTK2503/MTK2503/11CW1418SP4_03_CORETEK03AE_11C_V1_GPRS_MMI/Tools/MinGW/include/c++/3.3.1/bits/stl_algobase.h ****                                      __result.base(),
 291:d:/MTK/MTK2503/MTK2503/11CW1418SP4_03_CORETEK03AE_11C_V1_GPRS_MMI/Tools/MinGW/include/c++/3.3.1/bits/stl_algobase.h **** 				     _Trivial()));
 292:d:/MTK/MTK2503/MTK2503/11CW1418SP4_03_CORETEK03AE_11C_V1_GPRS_MMI/Tools/MinGW/include/c++/3.3.1/bits/stl_algobase.h ****     }
 293:d:/MTK/MTK2503/MTK2503/11CW1418SP4_03_CORETEK03AE_11C_V1_GPRS_MMI/Tools/MinGW/include/c++/3.3.1/bits/stl_algobase.h **** 
 294:d:/MTK/MTK2503/MTK2503/11CW1418SP4_03_CORETEK03AE_11C_V1_GPRS_MMI/Tools/MinGW/include/c++/3.3.1/bits/stl_algobase.h ****   template<typename _InputIter, typename _OutputIter>
 295:d:/MTK/MTK2503/MTK2503/11CW1418SP4_03_CORETEK03AE_11C_V1_GPRS_MMI/Tools/MinGW/include/c++/3.3.1/bits/stl_algobase.h ****     inline _OutputIter
 296:d:/MTK/MTK2503/MTK2503/11CW1418SP4_03_CORETEK03AE_11C_V1_GPRS_MMI/Tools/MinGW/include/c++/3.3.1/bits/stl_algobase.h ****     __copy_ni2(_InputIter __first, _InputIter __last,
 297:d:/MTK/MTK2503/MTK2503/11CW1418SP4_03_CORETEK03AE_11C_V1_GPRS_MMI/Tools/MinGW/include/c++/3.3.1/bits/stl_algobase.h **** 	       _OutputIter __result, __false_type)
 298:d:/MTK/MTK2503/MTK2503/11CW1418SP4_03_CORETEK03AE_11C_V1_GPRS_MMI/Tools/MinGW/include/c++/3.3.1/bits/stl_algobase.h ****     {
GAS LISTING d:/MTK/MTK2503/MTK2503/11CW1418SP4_03_CORETEK03AE_11C_V1_GPRS_MMI/plutommi/Customer/ResGenerator/gcctmp/ccQHcaaa.s 			page 155


 299:d:/MTK/MTK2503/MTK2503/11CW1418SP4_03_CORETEK03AE_11C_V1_GPRS_MMI/Tools/MinGW/include/c++/3.3.1/bits/stl_algobase.h ****       typedef typename iterator_traits<_InputIter>::value_type
 300:d:/MTK/MTK2503/MTK2503/11CW1418SP4_03_CORETEK03AE_11C_V1_GPRS_MMI/Tools/MinGW/include/c++/3.3.1/bits/stl_algobase.h ****           _ValueType;
 301:d:/MTK/MTK2503/MTK2503/11CW1418SP4_03_CORETEK03AE_11C_V1_GPRS_MMI/Tools/MinGW/include/c++/3.3.1/bits/stl_algobase.h ****       typedef typename __type_traits<_ValueType>::has_trivial_assignment_operator
 302:d:/MTK/MTK2503/MTK2503/11CW1418SP4_03_CORETEK03AE_11C_V1_GPRS_MMI/Tools/MinGW/include/c++/3.3.1/bits/stl_algobase.h ****           _Trivial;
 303:d:/MTK/MTK2503/MTK2503/11CW1418SP4_03_CORETEK03AE_11C_V1_GPRS_MMI/Tools/MinGW/include/c++/3.3.1/bits/stl_algobase.h ****       return __copy_aux2(__first, __last,
 304:d:/MTK/MTK2503/MTK2503/11CW1418SP4_03_CORETEK03AE_11C_V1_GPRS_MMI/Tools/MinGW/include/c++/3.3.1/bits/stl_algobase.h ****                          __result,
 305:d:/MTK/MTK2503/MTK2503/11CW1418SP4_03_CORETEK03AE_11C_V1_GPRS_MMI/Tools/MinGW/include/c++/3.3.1/bits/stl_algobase.h **** 			 _Trivial());
 306:d:/MTK/MTK2503/MTK2503/11CW1418SP4_03_CORETEK03AE_11C_V1_GPRS_MMI/Tools/MinGW/include/c++/3.3.1/bits/stl_algobase.h ****     }
 307:d:/MTK/MTK2503/MTK2503/11CW1418SP4_03_CORETEK03AE_11C_V1_GPRS_MMI/Tools/MinGW/include/c++/3.3.1/bits/stl_algobase.h **** 
 308:d:/MTK/MTK2503/MTK2503/11CW1418SP4_03_CORETEK03AE_11C_V1_GPRS_MMI/Tools/MinGW/include/c++/3.3.1/bits/stl_algobase.h ****   template<typename _InputIter, typename _OutputIter>
 309:d:/MTK/MTK2503/MTK2503/11CW1418SP4_03_CORETEK03AE_11C_V1_GPRS_MMI/Tools/MinGW/include/c++/3.3.1/bits/stl_algobase.h ****     inline _OutputIter
 310:d:/MTK/MTK2503/MTK2503/11CW1418SP4_03_CORETEK03AE_11C_V1_GPRS_MMI/Tools/MinGW/include/c++/3.3.1/bits/stl_algobase.h ****     __copy_ni1(_InputIter __first, _InputIter __last,
 311:d:/MTK/MTK2503/MTK2503/11CW1418SP4_03_CORETEK03AE_11C_V1_GPRS_MMI/Tools/MinGW/include/c++/3.3.1/bits/stl_algobase.h **** 	       _OutputIter __result, __true_type)
 312:d:/MTK/MTK2503/MTK2503/11CW1418SP4_03_CORETEK03AE_11C_V1_GPRS_MMI/Tools/MinGW/include/c++/3.3.1/bits/stl_algobase.h ****     {
 313:d:/MTK/MTK2503/MTK2503/11CW1418SP4_03_CORETEK03AE_11C_V1_GPRS_MMI/Tools/MinGW/include/c++/3.3.1/bits/stl_algobase.h ****       typedef typename _Is_normal_iterator<_OutputIter>::_Normal __Normal;
 314:d:/MTK/MTK2503/MTK2503/11CW1418SP4_03_CORETEK03AE_11C_V1_GPRS_MMI/Tools/MinGW/include/c++/3.3.1/bits/stl_algobase.h ****       return __copy_ni2(__first.base(), __last.base(), __result, __Normal());
 315:d:/MTK/MTK2503/MTK2503/11CW1418SP4_03_CORETEK03AE_11C_V1_GPRS_MMI/Tools/MinGW/include/c++/3.3.1/bits/stl_algobase.h ****     }
 316:d:/MTK/MTK2503/MTK2503/11CW1418SP4_03_CORETEK03AE_11C_V1_GPRS_MMI/Tools/MinGW/include/c++/3.3.1/bits/stl_algobase.h **** 
 317:d:/MTK/MTK2503/MTK2503/11CW1418SP4_03_CORETEK03AE_11C_V1_GPRS_MMI/Tools/MinGW/include/c++/3.3.1/bits/stl_algobase.h ****   template<typename _InputIter, typename _OutputIter>
 318:d:/MTK/MTK2503/MTK2503/11CW1418SP4_03_CORETEK03AE_11C_V1_GPRS_MMI/Tools/MinGW/include/c++/3.3.1/bits/stl_algobase.h ****     inline _OutputIter
 319:d:/MTK/MTK2503/MTK2503/11CW1418SP4_03_CORETEK03AE_11C_V1_GPRS_MMI/Tools/MinGW/include/c++/3.3.1/bits/stl_algobase.h ****     __copy_ni1(_InputIter __first, _InputIter __last,
 320:d:/MTK/MTK2503/MTK2503/11CW1418SP4_03_CORETEK03AE_11C_V1_GPRS_MMI/Tools/MinGW/include/c++/3.3.1/bits/stl_algobase.h **** 	       _OutputIter __result, __false_type)
 321:d:/MTK/MTK2503/MTK2503/11CW1418SP4_03_CORETEK03AE_11C_V1_GPRS_MMI/Tools/MinGW/include/c++/3.3.1/bits/stl_algobase.h ****     {
 322:d:/MTK/MTK2503/MTK2503/11CW1418SP4_03_CORETEK03AE_11C_V1_GPRS_MMI/Tools/MinGW/include/c++/3.3.1/bits/stl_algobase.h ****       typedef typename _Is_normal_iterator<_OutputIter>::_Normal __Normal;
 323:d:/MTK/MTK2503/MTK2503/11CW1418SP4_03_CORETEK03AE_11C_V1_GPRS_MMI/Tools/MinGW/include/c++/3.3.1/bits/stl_algobase.h ****       return __copy_ni2(__first, __last, __result, __Normal());
 324:d:/MTK/MTK2503/MTK2503/11CW1418SP4_03_CORETEK03AE_11C_V1_GPRS_MMI/Tools/MinGW/include/c++/3.3.1/bits/stl_algobase.h ****     }
 325:d:/MTK/MTK2503/MTK2503/11CW1418SP4_03_CORETEK03AE_11C_V1_GPRS_MMI/Tools/MinGW/include/c++/3.3.1/bits/stl_algobase.h **** 
 326:d:/MTK/MTK2503/MTK2503/11CW1418SP4_03_CORETEK03AE_11C_V1_GPRS_MMI/Tools/MinGW/include/c++/3.3.1/bits/stl_algobase.h ****   /**
 327:d:/MTK/MTK2503/MTK2503/11CW1418SP4_03_CORETEK03AE_11C_V1_GPRS_MMI/Tools/MinGW/include/c++/3.3.1/bits/stl_algobase.h ****    *  @brief Copies the range [first,last) into result.
 328:d:/MTK/MTK2503/MTK2503/11CW1418SP4_03_CORETEK03AE_11C_V1_GPRS_MMI/Tools/MinGW/include/c++/3.3.1/bits/stl_algobase.h ****    *  @param  first  An input iterator.
 329:d:/MTK/MTK2503/MTK2503/11CW1418SP4_03_CORETEK03AE_11C_V1_GPRS_MMI/Tools/MinGW/include/c++/3.3.1/bits/stl_algobase.h ****    *  @param  last   An input iterator.
 330:d:/MTK/MTK2503/MTK2503/11CW1418SP4_03_CORETEK03AE_11C_V1_GPRS_MMI/Tools/MinGW/include/c++/3.3.1/bits/stl_algobase.h ****    *  @param  result An output iterator.
 331:d:/MTK/MTK2503/MTK2503/11CW1418SP4_03_CORETEK03AE_11C_V1_GPRS_MMI/Tools/MinGW/include/c++/3.3.1/bits/stl_algobase.h ****    *  @return   result + (first - last)
 332:d:/MTK/MTK2503/MTK2503/11CW1418SP4_03_CORETEK03AE_11C_V1_GPRS_MMI/Tools/MinGW/include/c++/3.3.1/bits/stl_algobase.h ****    *
 333:d:/MTK/MTK2503/MTK2503/11CW1418SP4_03_CORETEK03AE_11C_V1_GPRS_MMI/Tools/MinGW/include/c++/3.3.1/bits/stl_algobase.h ****    *  This inline function will boil down to a call to @c memmove whenever
 334:d:/MTK/MTK2503/MTK2503/11CW1418SP4_03_CORETEK03AE_11C_V1_GPRS_MMI/Tools/MinGW/include/c++/3.3.1/bits/stl_algobase.h ****    *  possible.  Failing that, if random access iterators are passed, then the
 335:d:/MTK/MTK2503/MTK2503/11CW1418SP4_03_CORETEK03AE_11C_V1_GPRS_MMI/Tools/MinGW/include/c++/3.3.1/bits/stl_algobase.h ****    *  loop count will be known (and therefore a candidate for compiler
 336:d:/MTK/MTK2503/MTK2503/11CW1418SP4_03_CORETEK03AE_11C_V1_GPRS_MMI/Tools/MinGW/include/c++/3.3.1/bits/stl_algobase.h ****    *  optimizations such as unrolling).  If the input range and the output
 337:d:/MTK/MTK2503/MTK2503/11CW1418SP4_03_CORETEK03AE_11C_V1_GPRS_MMI/Tools/MinGW/include/c++/3.3.1/bits/stl_algobase.h ****    *  range overlap, then the copy_backward function should be used instead.
 338:d:/MTK/MTK2503/MTK2503/11CW1418SP4_03_CORETEK03AE_11C_V1_GPRS_MMI/Tools/MinGW/include/c++/3.3.1/bits/stl_algobase.h ****   */
 339:d:/MTK/MTK2503/MTK2503/11CW1418SP4_03_CORETEK03AE_11C_V1_GPRS_MMI/Tools/MinGW/include/c++/3.3.1/bits/stl_algobase.h ****   template<typename _InputIter, typename _OutputIter>
 340:d:/MTK/MTK2503/MTK2503/11CW1418SP4_03_CORETEK03AE_11C_V1_GPRS_MMI/Tools/MinGW/include/c++/3.3.1/bits/stl_algobase.h ****     inline _OutputIter
 341:d:/MTK/MTK2503/MTK2503/11CW1418SP4_03_CORETEK03AE_11C_V1_GPRS_MMI/Tools/MinGW/include/c++/3.3.1/bits/stl_algobase.h ****     copy(_InputIter __first, _InputIter __last, _OutputIter __result)
 342:d:/MTK/MTK2503/MTK2503/11CW1418SP4_03_CORETEK03AE_11C_V1_GPRS_MMI/Tools/MinGW/include/c++/3.3.1/bits/stl_algobase.h ****     {
 343:d:/MTK/MTK2503/MTK2503/11CW1418SP4_03_CORETEK03AE_11C_V1_GPRS_MMI/Tools/MinGW/include/c++/3.3.1/bits/stl_algobase.h ****       // concept requirements
 344:d:/MTK/MTK2503/MTK2503/11CW1418SP4_03_CORETEK03AE_11C_V1_GPRS_MMI/Tools/MinGW/include/c++/3.3.1/bits/stl_algobase.h ****       __glibcpp_function_requires(_InputIteratorConcept<_InputIter>)
 345:d:/MTK/MTK2503/MTK2503/11CW1418SP4_03_CORETEK03AE_11C_V1_GPRS_MMI/Tools/MinGW/include/c++/3.3.1/bits/stl_algobase.h ****       __glibcpp_function_requires(_OutputIteratorConcept<_OutputIter,
 346:d:/MTK/MTK2503/MTK2503/11CW1418SP4_03_CORETEK03AE_11C_V1_GPRS_MMI/Tools/MinGW/include/c++/3.3.1/bits/stl_algobase.h **** 	    typename iterator_traits<_InputIter>::value_type>)
 347:d:/MTK/MTK2503/MTK2503/11CW1418SP4_03_CORETEK03AE_11C_V1_GPRS_MMI/Tools/MinGW/include/c++/3.3.1/bits/stl_algobase.h **** 
 348:d:/MTK/MTK2503/MTK2503/11CW1418SP4_03_CORETEK03AE_11C_V1_GPRS_MMI/Tools/MinGW/include/c++/3.3.1/bits/stl_algobase.h ****        typedef typename _Is_normal_iterator<_InputIter>::_Normal __Normal;
 349:d:/MTK/MTK2503/MTK2503/11CW1418SP4_03_CORETEK03AE_11C_V1_GPRS_MMI/Tools/MinGW/include/c++/3.3.1/bits/stl_algobase.h ****        return __copy_ni1(__first, __last, __result, __Normal());
 350:d:/MTK/MTK2503/MTK2503/11CW1418SP4_03_CORETEK03AE_11C_V1_GPRS_MMI/Tools/MinGW/include/c++/3.3.1/bits/stl_algobase.h ****     }
 351:d:/MTK/MTK2503/MTK2503/11CW1418SP4_03_CORETEK03AE_11C_V1_GPRS_MMI/Tools/MinGW/include/c++/3.3.1/bits/stl_algobase.h **** 
 352:d:/MTK/MTK2503/MTK2503/11CW1418SP4_03_CORETEK03AE_11C_V1_GPRS_MMI/Tools/MinGW/include/c++/3.3.1/bits/stl_algobase.h ****   //--------------------------------------------------
 353:d:/MTK/MTK2503/MTK2503/11CW1418SP4_03_CORETEK03AE_11C_V1_GPRS_MMI/Tools/MinGW/include/c++/3.3.1/bits/stl_algobase.h ****   // copy_backward
 354:d:/MTK/MTK2503/MTK2503/11CW1418SP4_03_CORETEK03AE_11C_V1_GPRS_MMI/Tools/MinGW/include/c++/3.3.1/bits/stl_algobase.h **** 
 355:d:/MTK/MTK2503/MTK2503/11CW1418SP4_03_CORETEK03AE_11C_V1_GPRS_MMI/Tools/MinGW/include/c++/3.3.1/bits/stl_algobase.h ****   template<typename _BidirectionalIter1, typename _BidirectionalIter2>
GAS LISTING d:/MTK/MTK2503/MTK2503/11CW1418SP4_03_CORETEK03AE_11C_V1_GPRS_MMI/plutommi/Customer/ResGenerator/gcctmp/ccQHcaaa.s 			page 156


 356:d:/MTK/MTK2503/MTK2503/11CW1418SP4_03_CORETEK03AE_11C_V1_GPRS_MMI/Tools/MinGW/include/c++/3.3.1/bits/stl_algobase.h ****     inline _BidirectionalIter2
 357:d:/MTK/MTK2503/MTK2503/11CW1418SP4_03_CORETEK03AE_11C_V1_GPRS_MMI/Tools/MinGW/include/c++/3.3.1/bits/stl_algobase.h ****     __copy_backward(_BidirectionalIter1 __first, _BidirectionalIter1 __last, 
 358:d:/MTK/MTK2503/MTK2503/11CW1418SP4_03_CORETEK03AE_11C_V1_GPRS_MMI/Tools/MinGW/include/c++/3.3.1/bits/stl_algobase.h **** 		    _BidirectionalIter2 __result,
 359:d:/MTK/MTK2503/MTK2503/11CW1418SP4_03_CORETEK03AE_11C_V1_GPRS_MMI/Tools/MinGW/include/c++/3.3.1/bits/stl_algobase.h **** 		    bidirectional_iterator_tag)
 360:d:/MTK/MTK2503/MTK2503/11CW1418SP4_03_CORETEK03AE_11C_V1_GPRS_MMI/Tools/MinGW/include/c++/3.3.1/bits/stl_algobase.h ****     {
 361:d:/MTK/MTK2503/MTK2503/11CW1418SP4_03_CORETEK03AE_11C_V1_GPRS_MMI/Tools/MinGW/include/c++/3.3.1/bits/stl_algobase.h ****       while (__first != __last)
 362:d:/MTK/MTK2503/MTK2503/11CW1418SP4_03_CORETEK03AE_11C_V1_GPRS_MMI/Tools/MinGW/include/c++/3.3.1/bits/stl_algobase.h ****         *--__result = *--__last;
 363:d:/MTK/MTK2503/MTK2503/11CW1418SP4_03_CORETEK03AE_11C_V1_GPRS_MMI/Tools/MinGW/include/c++/3.3.1/bits/stl_algobase.h ****       return __result;
 364:d:/MTK/MTK2503/MTK2503/11CW1418SP4_03_CORETEK03AE_11C_V1_GPRS_MMI/Tools/MinGW/include/c++/3.3.1/bits/stl_algobase.h ****     }
 365:d:/MTK/MTK2503/MTK2503/11CW1418SP4_03_CORETEK03AE_11C_V1_GPRS_MMI/Tools/MinGW/include/c++/3.3.1/bits/stl_algobase.h **** 
 366:d:/MTK/MTK2503/MTK2503/11CW1418SP4_03_CORETEK03AE_11C_V1_GPRS_MMI/Tools/MinGW/include/c++/3.3.1/bits/stl_algobase.h ****   template<typename _RandomAccessIter, typename _BidirectionalIter>
 367:d:/MTK/MTK2503/MTK2503/11CW1418SP4_03_CORETEK03AE_11C_V1_GPRS_MMI/Tools/MinGW/include/c++/3.3.1/bits/stl_algobase.h ****     inline _BidirectionalIter
 368:d:/MTK/MTK2503/MTK2503/11CW1418SP4_03_CORETEK03AE_11C_V1_GPRS_MMI/Tools/MinGW/include/c++/3.3.1/bits/stl_algobase.h ****     __copy_backward(_RandomAccessIter __first, _RandomAccessIter __last, 
 369:d:/MTK/MTK2503/MTK2503/11CW1418SP4_03_CORETEK03AE_11C_V1_GPRS_MMI/Tools/MinGW/include/c++/3.3.1/bits/stl_algobase.h **** 		    _BidirectionalIter __result,
 370:d:/MTK/MTK2503/MTK2503/11CW1418SP4_03_CORETEK03AE_11C_V1_GPRS_MMI/Tools/MinGW/include/c++/3.3.1/bits/stl_algobase.h **** 		    random_access_iterator_tag)
 371:d:/MTK/MTK2503/MTK2503/11CW1418SP4_03_CORETEK03AE_11C_V1_GPRS_MMI/Tools/MinGW/include/c++/3.3.1/bits/stl_algobase.h ****     {
 372:d:/MTK/MTK2503/MTK2503/11CW1418SP4_03_CORETEK03AE_11C_V1_GPRS_MMI/Tools/MinGW/include/c++/3.3.1/bits/stl_algobase.h ****       typename iterator_traits<_RandomAccessIter>::difference_type __n;
 373:d:/MTK/MTK2503/MTK2503/11CW1418SP4_03_CORETEK03AE_11C_V1_GPRS_MMI/Tools/MinGW/include/c++/3.3.1/bits/stl_algobase.h ****       for (__n = __last - __first; __n > 0; --__n)
 374:d:/MTK/MTK2503/MTK2503/11CW1418SP4_03_CORETEK03AE_11C_V1_GPRS_MMI/Tools/MinGW/include/c++/3.3.1/bits/stl_algobase.h ****         *--__result = *--__last;
 375:d:/MTK/MTK2503/MTK2503/11CW1418SP4_03_CORETEK03AE_11C_V1_GPRS_MMI/Tools/MinGW/include/c++/3.3.1/bits/stl_algobase.h ****       return __result;
 376:d:/MTK/MTK2503/MTK2503/11CW1418SP4_03_CORETEK03AE_11C_V1_GPRS_MMI/Tools/MinGW/include/c++/3.3.1/bits/stl_algobase.h ****     }
 377:d:/MTK/MTK2503/MTK2503/11CW1418SP4_03_CORETEK03AE_11C_V1_GPRS_MMI/Tools/MinGW/include/c++/3.3.1/bits/stl_algobase.h **** 
 378:d:/MTK/MTK2503/MTK2503/11CW1418SP4_03_CORETEK03AE_11C_V1_GPRS_MMI/Tools/MinGW/include/c++/3.3.1/bits/stl_algobase.h **** 
 379:d:/MTK/MTK2503/MTK2503/11CW1418SP4_03_CORETEK03AE_11C_V1_GPRS_MMI/Tools/MinGW/include/c++/3.3.1/bits/stl_algobase.h ****   // This dispatch class is a workaround for compilers that do not 
 380:d:/MTK/MTK2503/MTK2503/11CW1418SP4_03_CORETEK03AE_11C_V1_GPRS_MMI/Tools/MinGW/include/c++/3.3.1/bits/stl_algobase.h ****   // have partial ordering of function templates.  All we're doing is
 381:d:/MTK/MTK2503/MTK2503/11CW1418SP4_03_CORETEK03AE_11C_V1_GPRS_MMI/Tools/MinGW/include/c++/3.3.1/bits/stl_algobase.h ****   // creating a specialization so that we can turn a call to copy_backward
 382:d:/MTK/MTK2503/MTK2503/11CW1418SP4_03_CORETEK03AE_11C_V1_GPRS_MMI/Tools/MinGW/include/c++/3.3.1/bits/stl_algobase.h ****   // into a memmove whenever possible.
 383:d:/MTK/MTK2503/MTK2503/11CW1418SP4_03_CORETEK03AE_11C_V1_GPRS_MMI/Tools/MinGW/include/c++/3.3.1/bits/stl_algobase.h **** 
 384:d:/MTK/MTK2503/MTK2503/11CW1418SP4_03_CORETEK03AE_11C_V1_GPRS_MMI/Tools/MinGW/include/c++/3.3.1/bits/stl_algobase.h ****   template<typename _BidirectionalIter1, typename _BidirectionalIter2,
 385:d:/MTK/MTK2503/MTK2503/11CW1418SP4_03_CORETEK03AE_11C_V1_GPRS_MMI/Tools/MinGW/include/c++/3.3.1/bits/stl_algobase.h ****            typename _BoolType>
 386:d:/MTK/MTK2503/MTK2503/11CW1418SP4_03_CORETEK03AE_11C_V1_GPRS_MMI/Tools/MinGW/include/c++/3.3.1/bits/stl_algobase.h ****     struct __copy_backward_dispatch
 387:d:/MTK/MTK2503/MTK2503/11CW1418SP4_03_CORETEK03AE_11C_V1_GPRS_MMI/Tools/MinGW/include/c++/3.3.1/bits/stl_algobase.h ****     {
 388:d:/MTK/MTK2503/MTK2503/11CW1418SP4_03_CORETEK03AE_11C_V1_GPRS_MMI/Tools/MinGW/include/c++/3.3.1/bits/stl_algobase.h ****       static _BidirectionalIter2
 389:d:/MTK/MTK2503/MTK2503/11CW1418SP4_03_CORETEK03AE_11C_V1_GPRS_MMI/Tools/MinGW/include/c++/3.3.1/bits/stl_algobase.h ****       copy(_BidirectionalIter1 __first, _BidirectionalIter1 __last, 
 390:d:/MTK/MTK2503/MTK2503/11CW1418SP4_03_CORETEK03AE_11C_V1_GPRS_MMI/Tools/MinGW/include/c++/3.3.1/bits/stl_algobase.h **** 	   _BidirectionalIter2 __result)
 391:d:/MTK/MTK2503/MTK2503/11CW1418SP4_03_CORETEK03AE_11C_V1_GPRS_MMI/Tools/MinGW/include/c++/3.3.1/bits/stl_algobase.h ****       {
 392:d:/MTK/MTK2503/MTK2503/11CW1418SP4_03_CORETEK03AE_11C_V1_GPRS_MMI/Tools/MinGW/include/c++/3.3.1/bits/stl_algobase.h ****         return __copy_backward(__first, __last,
 393:d:/MTK/MTK2503/MTK2503/11CW1418SP4_03_CORETEK03AE_11C_V1_GPRS_MMI/Tools/MinGW/include/c++/3.3.1/bits/stl_algobase.h **** 	                       __result,
 394:d:/MTK/MTK2503/MTK2503/11CW1418SP4_03_CORETEK03AE_11C_V1_GPRS_MMI/Tools/MinGW/include/c++/3.3.1/bits/stl_algobase.h **** 			       __iterator_category(__first));
 395:d:/MTK/MTK2503/MTK2503/11CW1418SP4_03_CORETEK03AE_11C_V1_GPRS_MMI/Tools/MinGW/include/c++/3.3.1/bits/stl_algobase.h ****       }
 396:d:/MTK/MTK2503/MTK2503/11CW1418SP4_03_CORETEK03AE_11C_V1_GPRS_MMI/Tools/MinGW/include/c++/3.3.1/bits/stl_algobase.h ****     };
 397:d:/MTK/MTK2503/MTK2503/11CW1418SP4_03_CORETEK03AE_11C_V1_GPRS_MMI/Tools/MinGW/include/c++/3.3.1/bits/stl_algobase.h **** 
 398:d:/MTK/MTK2503/MTK2503/11CW1418SP4_03_CORETEK03AE_11C_V1_GPRS_MMI/Tools/MinGW/include/c++/3.3.1/bits/stl_algobase.h ****   template<typename _Tp>
 399:d:/MTK/MTK2503/MTK2503/11CW1418SP4_03_CORETEK03AE_11C_V1_GPRS_MMI/Tools/MinGW/include/c++/3.3.1/bits/stl_algobase.h ****     struct __copy_backward_dispatch<_Tp*, _Tp*, __true_type>
 400:d:/MTK/MTK2503/MTK2503/11CW1418SP4_03_CORETEK03AE_11C_V1_GPRS_MMI/Tools/MinGW/include/c++/3.3.1/bits/stl_algobase.h ****     {
 401:d:/MTK/MTK2503/MTK2503/11CW1418SP4_03_CORETEK03AE_11C_V1_GPRS_MMI/Tools/MinGW/include/c++/3.3.1/bits/stl_algobase.h ****       static _Tp*
 402:d:/MTK/MTK2503/MTK2503/11CW1418SP4_03_CORETEK03AE_11C_V1_GPRS_MMI/Tools/MinGW/include/c++/3.3.1/bits/stl_algobase.h ****       copy(const _Tp* __first, const _Tp* __last, _Tp* __result)
 403:d:/MTK/MTK2503/MTK2503/11CW1418SP4_03_CORETEK03AE_11C_V1_GPRS_MMI/Tools/MinGW/include/c++/3.3.1/bits/stl_algobase.h ****       {
 404:d:/MTK/MTK2503/MTK2503/11CW1418SP4_03_CORETEK03AE_11C_V1_GPRS_MMI/Tools/MinGW/include/c++/3.3.1/bits/stl_algobase.h **** 	const ptrdiff_t _Num = __last - __first;
 405:d:/MTK/MTK2503/MTK2503/11CW1418SP4_03_CORETEK03AE_11C_V1_GPRS_MMI/Tools/MinGW/include/c++/3.3.1/bits/stl_algobase.h **** 	memmove(__result - _Num, __first, sizeof(_Tp) * _Num);
 406:d:/MTK/MTK2503/MTK2503/11CW1418SP4_03_CORETEK03AE_11C_V1_GPRS_MMI/Tools/MinGW/include/c++/3.3.1/bits/stl_algobase.h **** 	return __result - _Num;
 407:d:/MTK/MTK2503/MTK2503/11CW1418SP4_03_CORETEK03AE_11C_V1_GPRS_MMI/Tools/MinGW/include/c++/3.3.1/bits/stl_algobase.h ****       }
 408:d:/MTK/MTK2503/MTK2503/11CW1418SP4_03_CORETEK03AE_11C_V1_GPRS_MMI/Tools/MinGW/include/c++/3.3.1/bits/stl_algobase.h ****     };
 409:d:/MTK/MTK2503/MTK2503/11CW1418SP4_03_CORETEK03AE_11C_V1_GPRS_MMI/Tools/MinGW/include/c++/3.3.1/bits/stl_algobase.h **** 
 410:d:/MTK/MTK2503/MTK2503/11CW1418SP4_03_CORETEK03AE_11C_V1_GPRS_MMI/Tools/MinGW/include/c++/3.3.1/bits/stl_algobase.h ****   template<typename _Tp>
 411:d:/MTK/MTK2503/MTK2503/11CW1418SP4_03_CORETEK03AE_11C_V1_GPRS_MMI/Tools/MinGW/include/c++/3.3.1/bits/stl_algobase.h ****     struct __copy_backward_dispatch<const _Tp*, _Tp*, __true_type>
 412:d:/MTK/MTK2503/MTK2503/11CW1418SP4_03_CORETEK03AE_11C_V1_GPRS_MMI/Tools/MinGW/include/c++/3.3.1/bits/stl_algobase.h ****     {
GAS LISTING d:/MTK/MTK2503/MTK2503/11CW1418SP4_03_CORETEK03AE_11C_V1_GPRS_MMI/plutommi/Customer/ResGenerator/gcctmp/ccQHcaaa.s 			page 157


 413:d:/MTK/MTK2503/MTK2503/11CW1418SP4_03_CORETEK03AE_11C_V1_GPRS_MMI/Tools/MinGW/include/c++/3.3.1/bits/stl_algobase.h ****       static _Tp*
 414:d:/MTK/MTK2503/MTK2503/11CW1418SP4_03_CORETEK03AE_11C_V1_GPRS_MMI/Tools/MinGW/include/c++/3.3.1/bits/stl_algobase.h ****       copy(const _Tp* __first, const _Tp* __last, _Tp* __result)
 415:d:/MTK/MTK2503/MTK2503/11CW1418SP4_03_CORETEK03AE_11C_V1_GPRS_MMI/Tools/MinGW/include/c++/3.3.1/bits/stl_algobase.h ****       {
 416:d:/MTK/MTK2503/MTK2503/11CW1418SP4_03_CORETEK03AE_11C_V1_GPRS_MMI/Tools/MinGW/include/c++/3.3.1/bits/stl_algobase.h **** 	return  __copy_backward_dispatch<_Tp*, _Tp*, __true_type>
 417:d:/MTK/MTK2503/MTK2503/11CW1418SP4_03_CORETEK03AE_11C_V1_GPRS_MMI/Tools/MinGW/include/c++/3.3.1/bits/stl_algobase.h **** 	  ::copy(__first, __last, __result);
 418:d:/MTK/MTK2503/MTK2503/11CW1418SP4_03_CORETEK03AE_11C_V1_GPRS_MMI/Tools/MinGW/include/c++/3.3.1/bits/stl_algobase.h ****       }
 419:d:/MTK/MTK2503/MTK2503/11CW1418SP4_03_CORETEK03AE_11C_V1_GPRS_MMI/Tools/MinGW/include/c++/3.3.1/bits/stl_algobase.h ****     };
 420:d:/MTK/MTK2503/MTK2503/11CW1418SP4_03_CORETEK03AE_11C_V1_GPRS_MMI/Tools/MinGW/include/c++/3.3.1/bits/stl_algobase.h **** 
 421:d:/MTK/MTK2503/MTK2503/11CW1418SP4_03_CORETEK03AE_11C_V1_GPRS_MMI/Tools/MinGW/include/c++/3.3.1/bits/stl_algobase.h ****   template<typename _BI1, typename _BI2>
 422:d:/MTK/MTK2503/MTK2503/11CW1418SP4_03_CORETEK03AE_11C_V1_GPRS_MMI/Tools/MinGW/include/c++/3.3.1/bits/stl_algobase.h ****     inline _BI2
 423:d:/MTK/MTK2503/MTK2503/11CW1418SP4_03_CORETEK03AE_11C_V1_GPRS_MMI/Tools/MinGW/include/c++/3.3.1/bits/stl_algobase.h ****     __copy_backward_aux(_BI1 __first, _BI1 __last, _BI2 __result)
 424:d:/MTK/MTK2503/MTK2503/11CW1418SP4_03_CORETEK03AE_11C_V1_GPRS_MMI/Tools/MinGW/include/c++/3.3.1/bits/stl_algobase.h ****     {
 425:d:/MTK/MTK2503/MTK2503/11CW1418SP4_03_CORETEK03AE_11C_V1_GPRS_MMI/Tools/MinGW/include/c++/3.3.1/bits/stl_algobase.h ****       typedef typename __type_traits<typename iterator_traits<_BI2>::value_type>
 426:d:/MTK/MTK2503/MTK2503/11CW1418SP4_03_CORETEK03AE_11C_V1_GPRS_MMI/Tools/MinGW/include/c++/3.3.1/bits/stl_algobase.h **** 			    ::has_trivial_assignment_operator _Trivial;
 427:d:/MTK/MTK2503/MTK2503/11CW1418SP4_03_CORETEK03AE_11C_V1_GPRS_MMI/Tools/MinGW/include/c++/3.3.1/bits/stl_algobase.h ****       return __copy_backward_dispatch<_BI1, _BI2, _Trivial>
 428:d:/MTK/MTK2503/MTK2503/11CW1418SP4_03_CORETEK03AE_11C_V1_GPRS_MMI/Tools/MinGW/include/c++/3.3.1/bits/stl_algobase.h **** 		  ::copy(__first, __last, __result);
 429:d:/MTK/MTK2503/MTK2503/11CW1418SP4_03_CORETEK03AE_11C_V1_GPRS_MMI/Tools/MinGW/include/c++/3.3.1/bits/stl_algobase.h ****     }
 430:d:/MTK/MTK2503/MTK2503/11CW1418SP4_03_CORETEK03AE_11C_V1_GPRS_MMI/Tools/MinGW/include/c++/3.3.1/bits/stl_algobase.h **** 
 431:d:/MTK/MTK2503/MTK2503/11CW1418SP4_03_CORETEK03AE_11C_V1_GPRS_MMI/Tools/MinGW/include/c++/3.3.1/bits/stl_algobase.h ****   template <typename _BI1, typename _BI2>
 432:d:/MTK/MTK2503/MTK2503/11CW1418SP4_03_CORETEK03AE_11C_V1_GPRS_MMI/Tools/MinGW/include/c++/3.3.1/bits/stl_algobase.h ****     inline _BI2
 433:d:/MTK/MTK2503/MTK2503/11CW1418SP4_03_CORETEK03AE_11C_V1_GPRS_MMI/Tools/MinGW/include/c++/3.3.1/bits/stl_algobase.h ****     __copy_backward_output_normal_iterator(_BI1 __first, _BI1 __last,
 434:d:/MTK/MTK2503/MTK2503/11CW1418SP4_03_CORETEK03AE_11C_V1_GPRS_MMI/Tools/MinGW/include/c++/3.3.1/bits/stl_algobase.h **** 					   _BI2 __result, __true_type)
 435:d:/MTK/MTK2503/MTK2503/11CW1418SP4_03_CORETEK03AE_11C_V1_GPRS_MMI/Tools/MinGW/include/c++/3.3.1/bits/stl_algobase.h ****     { return _BI2(__copy_backward_aux(__first, __last, __result.base())); }
 436:d:/MTK/MTK2503/MTK2503/11CW1418SP4_03_CORETEK03AE_11C_V1_GPRS_MMI/Tools/MinGW/include/c++/3.3.1/bits/stl_algobase.h **** 
 437:d:/MTK/MTK2503/MTK2503/11CW1418SP4_03_CORETEK03AE_11C_V1_GPRS_MMI/Tools/MinGW/include/c++/3.3.1/bits/stl_algobase.h ****   template <typename _BI1, typename _BI2>
 438:d:/MTK/MTK2503/MTK2503/11CW1418SP4_03_CORETEK03AE_11C_V1_GPRS_MMI/Tools/MinGW/include/c++/3.3.1/bits/stl_algobase.h ****     inline _BI2
 439:d:/MTK/MTK2503/MTK2503/11CW1418SP4_03_CORETEK03AE_11C_V1_GPRS_MMI/Tools/MinGW/include/c++/3.3.1/bits/stl_algobase.h ****     __copy_backward_output_normal_iterator(_BI1 __first, _BI1 __last,
 440:d:/MTK/MTK2503/MTK2503/11CW1418SP4_03_CORETEK03AE_11C_V1_GPRS_MMI/Tools/MinGW/include/c++/3.3.1/bits/stl_algobase.h **** 					   _BI2 __result, __false_type)
 441:d:/MTK/MTK2503/MTK2503/11CW1418SP4_03_CORETEK03AE_11C_V1_GPRS_MMI/Tools/MinGW/include/c++/3.3.1/bits/stl_algobase.h ****     { return __copy_backward_aux(__first, __last, __result); }
 442:d:/MTK/MTK2503/MTK2503/11CW1418SP4_03_CORETEK03AE_11C_V1_GPRS_MMI/Tools/MinGW/include/c++/3.3.1/bits/stl_algobase.h **** 
 443:d:/MTK/MTK2503/MTK2503/11CW1418SP4_03_CORETEK03AE_11C_V1_GPRS_MMI/Tools/MinGW/include/c++/3.3.1/bits/stl_algobase.h ****   template <typename _BI1, typename _BI2>
 444:d:/MTK/MTK2503/MTK2503/11CW1418SP4_03_CORETEK03AE_11C_V1_GPRS_MMI/Tools/MinGW/include/c++/3.3.1/bits/stl_algobase.h ****     inline _BI2
 445:d:/MTK/MTK2503/MTK2503/11CW1418SP4_03_CORETEK03AE_11C_V1_GPRS_MMI/Tools/MinGW/include/c++/3.3.1/bits/stl_algobase.h ****     __copy_backward_input_normal_iterator(_BI1 __first, _BI1 __last,
 446:d:/MTK/MTK2503/MTK2503/11CW1418SP4_03_CORETEK03AE_11C_V1_GPRS_MMI/Tools/MinGW/include/c++/3.3.1/bits/stl_algobase.h **** 					  _BI2 __result, __true_type)
 447:d:/MTK/MTK2503/MTK2503/11CW1418SP4_03_CORETEK03AE_11C_V1_GPRS_MMI/Tools/MinGW/include/c++/3.3.1/bits/stl_algobase.h ****     {
 448:d:/MTK/MTK2503/MTK2503/11CW1418SP4_03_CORETEK03AE_11C_V1_GPRS_MMI/Tools/MinGW/include/c++/3.3.1/bits/stl_algobase.h ****       typedef typename _Is_normal_iterator<_BI2>::_Normal __Normal;
 449:d:/MTK/MTK2503/MTK2503/11CW1418SP4_03_CORETEK03AE_11C_V1_GPRS_MMI/Tools/MinGW/include/c++/3.3.1/bits/stl_algobase.h ****       return __copy_backward_output_normal_iterator(__first.base(), __last.base(),
 450:d:/MTK/MTK2503/MTK2503/11CW1418SP4_03_CORETEK03AE_11C_V1_GPRS_MMI/Tools/MinGW/include/c++/3.3.1/bits/stl_algobase.h **** 						    __result, __Normal());
 451:d:/MTK/MTK2503/MTK2503/11CW1418SP4_03_CORETEK03AE_11C_V1_GPRS_MMI/Tools/MinGW/include/c++/3.3.1/bits/stl_algobase.h ****     }
 452:d:/MTK/MTK2503/MTK2503/11CW1418SP4_03_CORETEK03AE_11C_V1_GPRS_MMI/Tools/MinGW/include/c++/3.3.1/bits/stl_algobase.h **** 
 453:d:/MTK/MTK2503/MTK2503/11CW1418SP4_03_CORETEK03AE_11C_V1_GPRS_MMI/Tools/MinGW/include/c++/3.3.1/bits/stl_algobase.h ****   template <typename _BI1, typename _BI2>
 454:d:/MTK/MTK2503/MTK2503/11CW1418SP4_03_CORETEK03AE_11C_V1_GPRS_MMI/Tools/MinGW/include/c++/3.3.1/bits/stl_algobase.h ****     inline _BI2
 455:d:/MTK/MTK2503/MTK2503/11CW1418SP4_03_CORETEK03AE_11C_V1_GPRS_MMI/Tools/MinGW/include/c++/3.3.1/bits/stl_algobase.h ****     __copy_backward_input_normal_iterator(_BI1 __first, _BI1 __last,
 456:d:/MTK/MTK2503/MTK2503/11CW1418SP4_03_CORETEK03AE_11C_V1_GPRS_MMI/Tools/MinGW/include/c++/3.3.1/bits/stl_algobase.h **** 					  _BI2 __result, __false_type)
 457:d:/MTK/MTK2503/MTK2503/11CW1418SP4_03_CORETEK03AE_11C_V1_GPRS_MMI/Tools/MinGW/include/c++/3.3.1/bits/stl_algobase.h ****     {
 458:d:/MTK/MTK2503/MTK2503/11CW1418SP4_03_CORETEK03AE_11C_V1_GPRS_MMI/Tools/MinGW/include/c++/3.3.1/bits/stl_algobase.h ****       typedef typename _Is_normal_iterator<_BI2>::_Normal __Normal;
 459:d:/MTK/MTK2503/MTK2503/11CW1418SP4_03_CORETEK03AE_11C_V1_GPRS_MMI/Tools/MinGW/include/c++/3.3.1/bits/stl_algobase.h ****       return __copy_backward_output_normal_iterator(__first, __last, __result,
 460:d:/MTK/MTK2503/MTK2503/11CW1418SP4_03_CORETEK03AE_11C_V1_GPRS_MMI/Tools/MinGW/include/c++/3.3.1/bits/stl_algobase.h **** 						    __Normal());
 461:d:/MTK/MTK2503/MTK2503/11CW1418SP4_03_CORETEK03AE_11C_V1_GPRS_MMI/Tools/MinGW/include/c++/3.3.1/bits/stl_algobase.h ****     }
 462:d:/MTK/MTK2503/MTK2503/11CW1418SP4_03_CORETEK03AE_11C_V1_GPRS_MMI/Tools/MinGW/include/c++/3.3.1/bits/stl_algobase.h **** 
 463:d:/MTK/MTK2503/MTK2503/11CW1418SP4_03_CORETEK03AE_11C_V1_GPRS_MMI/Tools/MinGW/include/c++/3.3.1/bits/stl_algobase.h ****   /**
 464:d:/MTK/MTK2503/MTK2503/11CW1418SP4_03_CORETEK03AE_11C_V1_GPRS_MMI/Tools/MinGW/include/c++/3.3.1/bits/stl_algobase.h ****    *  @brief Copies the range [first,last) into result.
 465:d:/MTK/MTK2503/MTK2503/11CW1418SP4_03_CORETEK03AE_11C_V1_GPRS_MMI/Tools/MinGW/include/c++/3.3.1/bits/stl_algobase.h ****    *  @param  first  An input iterator.
 466:d:/MTK/MTK2503/MTK2503/11CW1418SP4_03_CORETEK03AE_11C_V1_GPRS_MMI/Tools/MinGW/include/c++/3.3.1/bits/stl_algobase.h ****    *  @param  last   An input iterator.
 467:d:/MTK/MTK2503/MTK2503/11CW1418SP4_03_CORETEK03AE_11C_V1_GPRS_MMI/Tools/MinGW/include/c++/3.3.1/bits/stl_algobase.h ****    *  @param  result An output iterator.
 468:d:/MTK/MTK2503/MTK2503/11CW1418SP4_03_CORETEK03AE_11C_V1_GPRS_MMI/Tools/MinGW/include/c++/3.3.1/bits/stl_algobase.h ****    *  @return   result - (first - last)
 469:d:/MTK/MTK2503/MTK2503/11CW1418SP4_03_CORETEK03AE_11C_V1_GPRS_MMI/Tools/MinGW/include/c++/3.3.1/bits/stl_algobase.h ****    *
GAS LISTING d:/MTK/MTK2503/MTK2503/11CW1418SP4_03_CORETEK03AE_11C_V1_GPRS_MMI/plutommi/Customer/ResGenerator/gcctmp/ccQHcaaa.s 			page 158


 470:d:/MTK/MTK2503/MTK2503/11CW1418SP4_03_CORETEK03AE_11C_V1_GPRS_MMI/Tools/MinGW/include/c++/3.3.1/bits/stl_algobase.h ****    *  The function has the same effect as copy, but starts at the end of the
 471:d:/MTK/MTK2503/MTK2503/11CW1418SP4_03_CORETEK03AE_11C_V1_GPRS_MMI/Tools/MinGW/include/c++/3.3.1/bits/stl_algobase.h ****    *  range and works its way to the start, returning the start of the result.
 472:d:/MTK/MTK2503/MTK2503/11CW1418SP4_03_CORETEK03AE_11C_V1_GPRS_MMI/Tools/MinGW/include/c++/3.3.1/bits/stl_algobase.h ****    *  This inline function will boil down to a call to @c memmove whenever
 473:d:/MTK/MTK2503/MTK2503/11CW1418SP4_03_CORETEK03AE_11C_V1_GPRS_MMI/Tools/MinGW/include/c++/3.3.1/bits/stl_algobase.h ****    *  possible.  Failing that, if random access iterators are passed, then the
 474:d:/MTK/MTK2503/MTK2503/11CW1418SP4_03_CORETEK03AE_11C_V1_GPRS_MMI/Tools/MinGW/include/c++/3.3.1/bits/stl_algobase.h ****    *  loop count will be known (and therefore a candidate for compiler
 475:d:/MTK/MTK2503/MTK2503/11CW1418SP4_03_CORETEK03AE_11C_V1_GPRS_MMI/Tools/MinGW/include/c++/3.3.1/bits/stl_algobase.h ****    *  optimizations such as unrolling).
 476:d:/MTK/MTK2503/MTK2503/11CW1418SP4_03_CORETEK03AE_11C_V1_GPRS_MMI/Tools/MinGW/include/c++/3.3.1/bits/stl_algobase.h ****   */
 477:d:/MTK/MTK2503/MTK2503/11CW1418SP4_03_CORETEK03AE_11C_V1_GPRS_MMI/Tools/MinGW/include/c++/3.3.1/bits/stl_algobase.h ****   template <typename _BI1, typename _BI2>
 478:d:/MTK/MTK2503/MTK2503/11CW1418SP4_03_CORETEK03AE_11C_V1_GPRS_MMI/Tools/MinGW/include/c++/3.3.1/bits/stl_algobase.h ****     inline _BI2
 479:d:/MTK/MTK2503/MTK2503/11CW1418SP4_03_CORETEK03AE_11C_V1_GPRS_MMI/Tools/MinGW/include/c++/3.3.1/bits/stl_algobase.h ****     copy_backward(_BI1 __first, _BI1 __last, _BI2 __result)
 480:d:/MTK/MTK2503/MTK2503/11CW1418SP4_03_CORETEK03AE_11C_V1_GPRS_MMI/Tools/MinGW/include/c++/3.3.1/bits/stl_algobase.h ****     {
 7440              	LM350:
 7441 0000 55       		pushl	%ebp
 7442 0001 89E5     		movl	%esp, %ebp
 7443 0003 83EC18   		subl	$24, %esp
 481:d:/MTK/MTK2503/MTK2503/11CW1418SP4_03_CORETEK03AE_11C_V1_GPRS_MMI/Tools/MinGW/include/c++/3.3.1/bits/stl_algobase.h ****       // concept requirements
 482:d:/MTK/MTK2503/MTK2503/11CW1418SP4_03_CORETEK03AE_11C_V1_GPRS_MMI/Tools/MinGW/include/c++/3.3.1/bits/stl_algobase.h ****       __glibcpp_function_requires(_BidirectionalIteratorConcept<_BI1>)
 483:d:/MTK/MTK2503/MTK2503/11CW1418SP4_03_CORETEK03AE_11C_V1_GPRS_MMI/Tools/MinGW/include/c++/3.3.1/bits/stl_algobase.h ****       __glibcpp_function_requires(_Mutable_BidirectionalIteratorConcept<_BI2>)
 484:d:/MTK/MTK2503/MTK2503/11CW1418SP4_03_CORETEK03AE_11C_V1_GPRS_MMI/Tools/MinGW/include/c++/3.3.1/bits/stl_algobase.h ****       __glibcpp_function_requires(_ConvertibleConcept<
 485:d:/MTK/MTK2503/MTK2503/11CW1418SP4_03_CORETEK03AE_11C_V1_GPRS_MMI/Tools/MinGW/include/c++/3.3.1/bits/stl_algobase.h **** 	    typename iterator_traits<_BI1>::value_type,
 486:d:/MTK/MTK2503/MTK2503/11CW1418SP4_03_CORETEK03AE_11C_V1_GPRS_MMI/Tools/MinGW/include/c++/3.3.1/bits/stl_algobase.h **** 	    typename iterator_traits<_BI2>::value_type>)
 487:d:/MTK/MTK2503/MTK2503/11CW1418SP4_03_CORETEK03AE_11C_V1_GPRS_MMI/Tools/MinGW/include/c++/3.3.1/bits/stl_algobase.h **** 
 488:d:/MTK/MTK2503/MTK2503/11CW1418SP4_03_CORETEK03AE_11C_V1_GPRS_MMI/Tools/MinGW/include/c++/3.3.1/bits/stl_algobase.h ****       typedef typename _Is_normal_iterator<_BI1>::_Normal __Normal;
 489:d:/MTK/MTK2503/MTK2503/11CW1418SP4_03_CORETEK03AE_11C_V1_GPRS_MMI/Tools/MinGW/include/c++/3.3.1/bits/stl_algobase.h ****       return __copy_backward_input_normal_iterator(__first, __last, __result,
 7445              	LM351:
 7446              	LBB98:
 7447 0006 C644240C 		movb	$0, 12(%esp)
 7447      00
 7448 000b 8B4510   		movl	16(%ebp), %eax
 7449 000e 89442408 		movl	%eax, 8(%esp)
 7450 0012 8B450C   		movl	12(%ebp), %eax
 7451 0015 89442404 		movl	%eax, 4(%esp)
 7452 0019 8B4508   		movl	8(%ebp), %eax
 7453 001c 890424   		movl	%eax, (%esp)
 7454 001f E8000000 		call	__ZSt37__copy_backward_input_normal_iteratorIN9__gnu_cxx17__normal_iteratorIPN10ThreadPool10T
 7454      00
 7455 0024 8945FC   		movl	%eax, -4(%ebp)
 7456 0027 8B45FC   		movl	-4(%ebp), %eax
 7457 002a C9       		leave
 7458 002b C3       		ret
 7459              	LBE98:
 7460              	Lscope75:
 7462              		.section	.text$_ZSt37__copy_backward_input_normal_iteratorIN9__gnu_cxx17__normal_iteratorIPN10Thre
 7463              		.linkonce discard
 7464              		.align 2
 7469              	.globl __ZSt37__copy_backward_input_normal_iteratorIN9__gnu_cxx17__normal_iteratorIPN10ThreadPool10
 7471              	__ZSt37__copy_backward_input_normal_iteratorIN9__gnu_cxx17__normal_iteratorIPN10ThreadPool10ThreadD
 7473              	LM352:
 7474 0000 55       		pushl	%ebp
 7475 0001 89E5     		movl	%esp, %ebp
 7476 0003 53       		pushl	%ebx
 7477 0004 83EC24   		subl	$36, %esp
 7479              	LM353:
 7480              	LBB99:
 7481 0007 8D450C   		leal	12(%ebp), %eax
 7482 000a 890424   		movl	%eax, (%esp)
 7483 000d E8000000 		call	__ZNK9__gnu_cxx17__normal_iteratorIPN10ThreadPool10ThreadDataESt6vectorIS2_SaIS2_EEE4baseEv
GAS LISTING d:/MTK/MTK2503/MTK2503/11CW1418SP4_03_CORETEK03AE_11C_V1_GPRS_MMI/plutommi/Customer/ResGenerator/gcctmp/ccQHcaaa.s 			page 159


 7483      00
 7484 0012 89C3     		movl	%eax, %ebx
 7485 0014 8D4508   		leal	8(%ebp), %eax
 7486 0017 890424   		movl	%eax, (%esp)
 7487 001a E8000000 		call	__ZNK9__gnu_cxx17__normal_iteratorIPN10ThreadPool10ThreadDataESt6vectorIS2_SaIS2_EEE4baseEv
 7487      00
 7488 001f 89C2     		movl	%eax, %edx
 7489 0021 C644240C 		movb	$0, 12(%esp)
 7489      00
 7490 0026 8B4510   		movl	16(%ebp), %eax
 7491 0029 89442408 		movl	%eax, 8(%esp)
 7492 002d 8B03     		movl	(%ebx), %eax
 7493 002f 89442404 		movl	%eax, 4(%esp)
 7494 0033 8B02     		movl	(%edx), %eax
 7495 0035 890424   		movl	%eax, (%esp)
 7496 0038 E8000000 		call	__ZSt38__copy_backward_output_normal_iteratorIPN10ThreadPool10ThreadDataEN9__gnu_cxx17__norma
 7496      00
 7497 003d 8945F8   		movl	%eax, -8(%ebp)
 7498 0040 8B45F8   		movl	-8(%ebp), %eax
 7499 0043 83C424   		addl	$36, %esp
 7500 0046 5B       		popl	%ebx
 7501 0047 5D       		popl	%ebp
 7502 0048 C3       		ret
 7503              	LBE99:
 7504              	Lscope76:
 7506 0049 909090   		.section	.text$_ZSt38__copy_backward_output_normal_iteratorIPN10ThreadPool10ThreadDataEN9__gnu_cxx
 7507              		.linkonce discard
 7508              		.align 2
 7513              	.globl __ZSt38__copy_backward_output_normal_iteratorIPN10ThreadPool10ThreadDataEN9__gnu_cxx17__norm
 7515              	__ZSt38__copy_backward_output_normal_iteratorIPN10ThreadPool10ThreadDataEN9__gnu_cxx17__normal_iter
 7517              	LM354:
 7518 0000 55       		pushl	%ebp
 7519 0001 89E5     		movl	%esp, %ebp
 7520 0003 83EC18   		subl	$24, %esp
 7522              	LM355:
 7523              	LBB100:
 7524 0006 8D4510   		leal	16(%ebp), %eax
 7525 0009 890424   		movl	%eax, (%esp)
 7526 000c E8000000 		call	__ZNK9__gnu_cxx17__normal_iteratorIPN10ThreadPool10ThreadDataESt6vectorIS2_SaIS2_EEE4baseEv
 7526      00
 7527 0011 8B00     		movl	(%eax), %eax
 7528 0013 89442408 		movl	%eax, 8(%esp)
 7529 0017 8B450C   		movl	12(%ebp), %eax
 7530 001a 89442404 		movl	%eax, 4(%esp)
 7531 001e 8B4508   		movl	8(%ebp), %eax
 7532 0021 890424   		movl	%eax, (%esp)
 7533 0024 E8000000 		call	__ZSt19__copy_backward_auxIPN10ThreadPool10ThreadDataES2_ET0_T_S4_S3_
 7533      00
 7534 0029 8945F8   		movl	%eax, -8(%ebp)
 7535 002c 8D45F8   		leal	-8(%ebp), %eax
 7536 002f 89442404 		movl	%eax, 4(%esp)
 7537 0033 8D45FC   		leal	-4(%ebp), %eax
 7538 0036 890424   		movl	%eax, (%esp)
 7539 0039 E8000000 		call	__ZN9__gnu_cxx17__normal_iteratorIPN10ThreadPool10ThreadDataESt6vectorIS2_SaIS2_EEEC1ERKS3_
 7539      00
 7540 003e 8B45FC   		movl	-4(%ebp), %eax
 7541 0041 C9       		leave
GAS LISTING d:/MTK/MTK2503/MTK2503/11CW1418SP4_03_CORETEK03AE_11C_V1_GPRS_MMI/plutommi/Customer/ResGenerator/gcctmp/ccQHcaaa.s 			page 160


 7542 0042 C3       		ret
 7543              	LBE100:
 7544              	Lscope77:
 7546 0043 90       		.section	.text$_ZSt19__copy_backward_auxIPN10ThreadPool10ThreadDataES2_ET0_T_S4_S3_,"x"
 7547              		.linkonce discard
 7548              		.align 2
 7553              	.globl __ZSt19__copy_backward_auxIPN10ThreadPool10ThreadDataES2_ET0_T_S4_S3_
 7555              	__ZSt19__copy_backward_auxIPN10ThreadPool10ThreadDataES2_ET0_T_S4_S3_:
 7557              	LM356:
 7558 0000 55       		pushl	%ebp
 7559 0001 89E5     		movl	%esp, %ebp
 7560 0003 83EC18   		subl	$24, %esp
 7562              	LM357:
 7563              	LBB101:
 7564 0006 8B4510   		movl	16(%ebp), %eax
 7565 0009 89442408 		movl	%eax, 8(%esp)
 7566 000d 8B450C   		movl	12(%ebp), %eax
 7567 0010 89442404 		movl	%eax, 4(%esp)
 7568 0014 8B4508   		movl	8(%ebp), %eax
 7569 0017 890424   		movl	%eax, (%esp)
 7570 001a E8000000 		call	__ZNSt24__copy_backward_dispatchIPN10ThreadPool10ThreadDataES2_12__false_typeE4copyES2_S2_S2_
 7570      00
 7571 001f C9       		leave
 7572 0020 C3       		ret
 7573              	LBE101:
 7574              	Lscope78:
 7576 0021 909090   		.section	.text$_ZNSt24__copy_backward_dispatchIPN10ThreadPool10ThreadDataES2_12__false_typeE4copyE
 7577              		.linkonce discard
 7578              		.align 2
 7583              	.globl __ZNSt24__copy_backward_dispatchIPN10ThreadPool10ThreadDataES2_12__false_typeE4copyES2_S2_S2
 7585              	__ZNSt24__copy_backward_dispatchIPN10ThreadPool10ThreadDataES2_12__false_typeE4copyES2_S2_S2_:
 7587              	LM358:
 7588 0000 55       		pushl	%ebp
 7589 0001 89E5     		movl	%esp, %ebp
 7590 0003 83EC18   		subl	$24, %esp
 7592              	LM359:
 7593 0006 8D4508   		leal	8(%ebp), %eax
 7594              	LBB102:
 7595 0009 890424   		movl	%eax, (%esp)
 7596 000c E8000000 		call	__ZSt19__iterator_categoryIPN10ThreadPool10ThreadDataEENSt15iterator_traitsIT_E17iterator_cat
 7596      00
 7597 0011 8845FF   		movb	%al, -1(%ebp)
 7598 0014 C644240C 		movb	$0, 12(%esp)
 7598      00
 7599 0019 8B4510   		movl	16(%ebp), %eax
 7600 001c 89442408 		movl	%eax, 8(%esp)
 7601 0020 8B450C   		movl	12(%ebp), %eax
 7602 0023 89442404 		movl	%eax, 4(%esp)
 7603 0027 8B4508   		movl	8(%ebp), %eax
 7604 002a 890424   		movl	%eax, (%esp)
 7605 002d E8000000 		call	__ZSt15__copy_backwardIPN10ThreadPool10ThreadDataES2_ET0_T_S4_S3_St26random_access_iterator_t
 7605      00
 7606 0032 C9       		leave
 7607 0033 C3       		ret
 7608              	LBE102:
 7609              	Lscope79:
 7611              		.section	.text$_ZSt19__iterator_categoryIPN10ThreadPool10ThreadDataEENSt15iterator_traitsIT_E17ite
GAS LISTING d:/MTK/MTK2503/MTK2503/11CW1418SP4_03_CORETEK03AE_11C_V1_GPRS_MMI/plutommi/Customer/ResGenerator/gcctmp/ccQHcaaa.s 			page 161


 7612              		.linkonce discard
 7613              		.align 2
 7615              	.globl __ZSt19__iterator_categoryIPN10ThreadPool10ThreadDataEENSt15iterator_traitsIT_E17iterator_ca
 7617              	__ZSt19__iterator_categoryIPN10ThreadPool10ThreadDataEENSt15iterator_traitsIT_E17iterator_categoryE
 7619              	Ltext38:
   1:d:/MTK/MTK2503/MTK2503/11CW1418SP4_03_CORETEK03AE_11C_V1_GPRS_MMI/Tools/MinGW/include/c++/3.3.1/bits/stl_iterator_base_types.h **** // Types used in iterator implementation -*- C++ -*-
   2:d:/MTK/MTK2503/MTK2503/11CW1418SP4_03_CORETEK03AE_11C_V1_GPRS_MMI/Tools/MinGW/include/c++/3.3.1/bits/stl_iterator_base_types.h **** 
   3:d:/MTK/MTK2503/MTK2503/11CW1418SP4_03_CORETEK03AE_11C_V1_GPRS_MMI/Tools/MinGW/include/c++/3.3.1/bits/stl_iterator_base_types.h **** // Copyright (C) 2001, 2002 Free Software Foundation, Inc.
   4:d:/MTK/MTK2503/MTK2503/11CW1418SP4_03_CORETEK03AE_11C_V1_GPRS_MMI/Tools/MinGW/include/c++/3.3.1/bits/stl_iterator_base_types.h **** //
   5:d:/MTK/MTK2503/MTK2503/11CW1418SP4_03_CORETEK03AE_11C_V1_GPRS_MMI/Tools/MinGW/include/c++/3.3.1/bits/stl_iterator_base_types.h **** // This file is part of the GNU ISO C++ Library.  This library is free
   6:d:/MTK/MTK2503/MTK2503/11CW1418SP4_03_CORETEK03AE_11C_V1_GPRS_MMI/Tools/MinGW/include/c++/3.3.1/bits/stl_iterator_base_types.h **** // software; you can redistribute it and/or modify it under the
   7:d:/MTK/MTK2503/MTK2503/11CW1418SP4_03_CORETEK03AE_11C_V1_GPRS_MMI/Tools/MinGW/include/c++/3.3.1/bits/stl_iterator_base_types.h **** // terms of the GNU General Public License as published by the
   8:d:/MTK/MTK2503/MTK2503/11CW1418SP4_03_CORETEK03AE_11C_V1_GPRS_MMI/Tools/MinGW/include/c++/3.3.1/bits/stl_iterator_base_types.h **** // Free Software Foundation; either version 2, or (at your option)
   9:d:/MTK/MTK2503/MTK2503/11CW1418SP4_03_CORETEK03AE_11C_V1_GPRS_MMI/Tools/MinGW/include/c++/3.3.1/bits/stl_iterator_base_types.h **** // any later version.
  10:d:/MTK/MTK2503/MTK2503/11CW1418SP4_03_CORETEK03AE_11C_V1_GPRS_MMI/Tools/MinGW/include/c++/3.3.1/bits/stl_iterator_base_types.h **** 
  11:d:/MTK/MTK2503/MTK2503/11CW1418SP4_03_CORETEK03AE_11C_V1_GPRS_MMI/Tools/MinGW/include/c++/3.3.1/bits/stl_iterator_base_types.h **** // This library is distributed in the hope that it will be useful,
  12:d:/MTK/MTK2503/MTK2503/11CW1418SP4_03_CORETEK03AE_11C_V1_GPRS_MMI/Tools/MinGW/include/c++/3.3.1/bits/stl_iterator_base_types.h **** // but WITHOUT ANY WARRANTY; without even the implied warranty of
  13:d:/MTK/MTK2503/MTK2503/11CW1418SP4_03_CORETEK03AE_11C_V1_GPRS_MMI/Tools/MinGW/include/c++/3.3.1/bits/stl_iterator_base_types.h **** // MERCHANTABILITY or FITNESS FOR A PARTICULAR PURPOSE.  See the
  14:d:/MTK/MTK2503/MTK2503/11CW1418SP4_03_CORETEK03AE_11C_V1_GPRS_MMI/Tools/MinGW/include/c++/3.3.1/bits/stl_iterator_base_types.h **** // GNU General Public License for more details.
  15:d:/MTK/MTK2503/MTK2503/11CW1418SP4_03_CORETEK03AE_11C_V1_GPRS_MMI/Tools/MinGW/include/c++/3.3.1/bits/stl_iterator_base_types.h **** 
  16:d:/MTK/MTK2503/MTK2503/11CW1418SP4_03_CORETEK03AE_11C_V1_GPRS_MMI/Tools/MinGW/include/c++/3.3.1/bits/stl_iterator_base_types.h **** // You should have received a copy of the GNU General Public License along
  17:d:/MTK/MTK2503/MTK2503/11CW1418SP4_03_CORETEK03AE_11C_V1_GPRS_MMI/Tools/MinGW/include/c++/3.3.1/bits/stl_iterator_base_types.h **** // with this library; see the file COPYING.  If not, write to the Free
  18:d:/MTK/MTK2503/MTK2503/11CW1418SP4_03_CORETEK03AE_11C_V1_GPRS_MMI/Tools/MinGW/include/c++/3.3.1/bits/stl_iterator_base_types.h **** // Software Foundation, 59 Temple Place - Suite 330, Boston, MA 02111-1307,
  19:d:/MTK/MTK2503/MTK2503/11CW1418SP4_03_CORETEK03AE_11C_V1_GPRS_MMI/Tools/MinGW/include/c++/3.3.1/bits/stl_iterator_base_types.h **** // USA.
  20:d:/MTK/MTK2503/MTK2503/11CW1418SP4_03_CORETEK03AE_11C_V1_GPRS_MMI/Tools/MinGW/include/c++/3.3.1/bits/stl_iterator_base_types.h **** 
  21:d:/MTK/MTK2503/MTK2503/11CW1418SP4_03_CORETEK03AE_11C_V1_GPRS_MMI/Tools/MinGW/include/c++/3.3.1/bits/stl_iterator_base_types.h **** // As a special exception, you may use this file as part of a free software
  22:d:/MTK/MTK2503/MTK2503/11CW1418SP4_03_CORETEK03AE_11C_V1_GPRS_MMI/Tools/MinGW/include/c++/3.3.1/bits/stl_iterator_base_types.h **** // library without restriction.  Specifically, if other files instantiate
  23:d:/MTK/MTK2503/MTK2503/11CW1418SP4_03_CORETEK03AE_11C_V1_GPRS_MMI/Tools/MinGW/include/c++/3.3.1/bits/stl_iterator_base_types.h **** // templates or use macros or inline functions from this file, or you compile
  24:d:/MTK/MTK2503/MTK2503/11CW1418SP4_03_CORETEK03AE_11C_V1_GPRS_MMI/Tools/MinGW/include/c++/3.3.1/bits/stl_iterator_base_types.h **** // this file and link it with other files to produce an executable, this
  25:d:/MTK/MTK2503/MTK2503/11CW1418SP4_03_CORETEK03AE_11C_V1_GPRS_MMI/Tools/MinGW/include/c++/3.3.1/bits/stl_iterator_base_types.h **** // file does not by itself cause the resulting executable to be covered by
  26:d:/MTK/MTK2503/MTK2503/11CW1418SP4_03_CORETEK03AE_11C_V1_GPRS_MMI/Tools/MinGW/include/c++/3.3.1/bits/stl_iterator_base_types.h **** // the GNU General Public License.  This exception does not however
  27:d:/MTK/MTK2503/MTK2503/11CW1418SP4_03_CORETEK03AE_11C_V1_GPRS_MMI/Tools/MinGW/include/c++/3.3.1/bits/stl_iterator_base_types.h **** // invalidate any other reasons why the executable file might be covered by
  28:d:/MTK/MTK2503/MTK2503/11CW1418SP4_03_CORETEK03AE_11C_V1_GPRS_MMI/Tools/MinGW/include/c++/3.3.1/bits/stl_iterator_base_types.h **** // the GNU General Public License.
  29:d:/MTK/MTK2503/MTK2503/11CW1418SP4_03_CORETEK03AE_11C_V1_GPRS_MMI/Tools/MinGW/include/c++/3.3.1/bits/stl_iterator_base_types.h **** 
  30:d:/MTK/MTK2503/MTK2503/11CW1418SP4_03_CORETEK03AE_11C_V1_GPRS_MMI/Tools/MinGW/include/c++/3.3.1/bits/stl_iterator_base_types.h **** /*
  31:d:/MTK/MTK2503/MTK2503/11CW1418SP4_03_CORETEK03AE_11C_V1_GPRS_MMI/Tools/MinGW/include/c++/3.3.1/bits/stl_iterator_base_types.h ****  *
  32:d:/MTK/MTK2503/MTK2503/11CW1418SP4_03_CORETEK03AE_11C_V1_GPRS_MMI/Tools/MinGW/include/c++/3.3.1/bits/stl_iterator_base_types.h ****  * Copyright (c) 1994
  33:d:/MTK/MTK2503/MTK2503/11CW1418SP4_03_CORETEK03AE_11C_V1_GPRS_MMI/Tools/MinGW/include/c++/3.3.1/bits/stl_iterator_base_types.h ****  * Hewlett-Packard Company
  34:d:/MTK/MTK2503/MTK2503/11CW1418SP4_03_CORETEK03AE_11C_V1_GPRS_MMI/Tools/MinGW/include/c++/3.3.1/bits/stl_iterator_base_types.h ****  *
  35:d:/MTK/MTK2503/MTK2503/11CW1418SP4_03_CORETEK03AE_11C_V1_GPRS_MMI/Tools/MinGW/include/c++/3.3.1/bits/stl_iterator_base_types.h ****  * Permission to use, copy, modify, distribute and sell this software
  36:d:/MTK/MTK2503/MTK2503/11CW1418SP4_03_CORETEK03AE_11C_V1_GPRS_MMI/Tools/MinGW/include/c++/3.3.1/bits/stl_iterator_base_types.h ****  * and its documentation for any purpose is hereby granted without fee,
  37:d:/MTK/MTK2503/MTK2503/11CW1418SP4_03_CORETEK03AE_11C_V1_GPRS_MMI/Tools/MinGW/include/c++/3.3.1/bits/stl_iterator_base_types.h ****  * provided that the above copyright notice appear in all copies and
  38:d:/MTK/MTK2503/MTK2503/11CW1418SP4_03_CORETEK03AE_11C_V1_GPRS_MMI/Tools/MinGW/include/c++/3.3.1/bits/stl_iterator_base_types.h ****  * that both that copyright notice and this permission notice appear
  39:d:/MTK/MTK2503/MTK2503/11CW1418SP4_03_CORETEK03AE_11C_V1_GPRS_MMI/Tools/MinGW/include/c++/3.3.1/bits/stl_iterator_base_types.h ****  * in supporting documentation.  Hewlett-Packard Company makes no
  40:d:/MTK/MTK2503/MTK2503/11CW1418SP4_03_CORETEK03AE_11C_V1_GPRS_MMI/Tools/MinGW/include/c++/3.3.1/bits/stl_iterator_base_types.h ****  * representations about the suitability of this software for any
  41:d:/MTK/MTK2503/MTK2503/11CW1418SP4_03_CORETEK03AE_11C_V1_GPRS_MMI/Tools/MinGW/include/c++/3.3.1/bits/stl_iterator_base_types.h ****  * purpose.  It is provided "as is" without express or implied warranty.
  42:d:/MTK/MTK2503/MTK2503/11CW1418SP4_03_CORETEK03AE_11C_V1_GPRS_MMI/Tools/MinGW/include/c++/3.3.1/bits/stl_iterator_base_types.h ****  *
  43:d:/MTK/MTK2503/MTK2503/11CW1418SP4_03_CORETEK03AE_11C_V1_GPRS_MMI/Tools/MinGW/include/c++/3.3.1/bits/stl_iterator_base_types.h ****  *
  44:d:/MTK/MTK2503/MTK2503/11CW1418SP4_03_CORETEK03AE_11C_V1_GPRS_MMI/Tools/MinGW/include/c++/3.3.1/bits/stl_iterator_base_types.h ****  * Copyright (c) 1996-1998
  45:d:/MTK/MTK2503/MTK2503/11CW1418SP4_03_CORETEK03AE_11C_V1_GPRS_MMI/Tools/MinGW/include/c++/3.3.1/bits/stl_iterator_base_types.h ****  * Silicon Graphics Computer Systems, Inc.
  46:d:/MTK/MTK2503/MTK2503/11CW1418SP4_03_CORETEK03AE_11C_V1_GPRS_MMI/Tools/MinGW/include/c++/3.3.1/bits/stl_iterator_base_types.h ****  *
  47:d:/MTK/MTK2503/MTK2503/11CW1418SP4_03_CORETEK03AE_11C_V1_GPRS_MMI/Tools/MinGW/include/c++/3.3.1/bits/stl_iterator_base_types.h ****  * Permission to use, copy, modify, distribute and sell this software
  48:d:/MTK/MTK2503/MTK2503/11CW1418SP4_03_CORETEK03AE_11C_V1_GPRS_MMI/Tools/MinGW/include/c++/3.3.1/bits/stl_iterator_base_types.h ****  * and its documentation for any purpose is hereby granted without fee,
  49:d:/MTK/MTK2503/MTK2503/11CW1418SP4_03_CORETEK03AE_11C_V1_GPRS_MMI/Tools/MinGW/include/c++/3.3.1/bits/stl_iterator_base_types.h ****  * provided that the above copyright notice appear in all copies and
  50:d:/MTK/MTK2503/MTK2503/11CW1418SP4_03_CORETEK03AE_11C_V1_GPRS_MMI/Tools/MinGW/include/c++/3.3.1/bits/stl_iterator_base_types.h ****  * that both that copyright notice and this permission notice appear
  51:d:/MTK/MTK2503/MTK2503/11CW1418SP4_03_CORETEK03AE_11C_V1_GPRS_MMI/Tools/MinGW/include/c++/3.3.1/bits/stl_iterator_base_types.h ****  * in supporting documentation.  Silicon Graphics makes no
  52:d:/MTK/MTK2503/MTK2503/11CW1418SP4_03_CORETEK03AE_11C_V1_GPRS_MMI/Tools/MinGW/include/c++/3.3.1/bits/stl_iterator_base_types.h ****  * representations about the suitability of this software for any
GAS LISTING d:/MTK/MTK2503/MTK2503/11CW1418SP4_03_CORETEK03AE_11C_V1_GPRS_MMI/plutommi/Customer/ResGenerator/gcctmp/ccQHcaaa.s 			page 162


  53:d:/MTK/MTK2503/MTK2503/11CW1418SP4_03_CORETEK03AE_11C_V1_GPRS_MMI/Tools/MinGW/include/c++/3.3.1/bits/stl_iterator_base_types.h ****  * purpose.  It is provided "as is" without express or implied warranty.
  54:d:/MTK/MTK2503/MTK2503/11CW1418SP4_03_CORETEK03AE_11C_V1_GPRS_MMI/Tools/MinGW/include/c++/3.3.1/bits/stl_iterator_base_types.h ****  */
  55:d:/MTK/MTK2503/MTK2503/11CW1418SP4_03_CORETEK03AE_11C_V1_GPRS_MMI/Tools/MinGW/include/c++/3.3.1/bits/stl_iterator_base_types.h **** 
  56:d:/MTK/MTK2503/MTK2503/11CW1418SP4_03_CORETEK03AE_11C_V1_GPRS_MMI/Tools/MinGW/include/c++/3.3.1/bits/stl_iterator_base_types.h **** /** @file stl_iterator_base_types.h
  57:d:/MTK/MTK2503/MTK2503/11CW1418SP4_03_CORETEK03AE_11C_V1_GPRS_MMI/Tools/MinGW/include/c++/3.3.1/bits/stl_iterator_base_types.h ****  *  This is an internal header file, included by other library headers.
  58:d:/MTK/MTK2503/MTK2503/11CW1418SP4_03_CORETEK03AE_11C_V1_GPRS_MMI/Tools/MinGW/include/c++/3.3.1/bits/stl_iterator_base_types.h ****  *  You should not attempt to use it directly.
  59:d:/MTK/MTK2503/MTK2503/11CW1418SP4_03_CORETEK03AE_11C_V1_GPRS_MMI/Tools/MinGW/include/c++/3.3.1/bits/stl_iterator_base_types.h ****  *
  60:d:/MTK/MTK2503/MTK2503/11CW1418SP4_03_CORETEK03AE_11C_V1_GPRS_MMI/Tools/MinGW/include/c++/3.3.1/bits/stl_iterator_base_types.h ****  *  This file contains all of the general iterator-related utility types,
  61:d:/MTK/MTK2503/MTK2503/11CW1418SP4_03_CORETEK03AE_11C_V1_GPRS_MMI/Tools/MinGW/include/c++/3.3.1/bits/stl_iterator_base_types.h ****  *  such as iterator_traits and struct iterator.
  62:d:/MTK/MTK2503/MTK2503/11CW1418SP4_03_CORETEK03AE_11C_V1_GPRS_MMI/Tools/MinGW/include/c++/3.3.1/bits/stl_iterator_base_types.h ****  */
  63:d:/MTK/MTK2503/MTK2503/11CW1418SP4_03_CORETEK03AE_11C_V1_GPRS_MMI/Tools/MinGW/include/c++/3.3.1/bits/stl_iterator_base_types.h **** 
  64:d:/MTK/MTK2503/MTK2503/11CW1418SP4_03_CORETEK03AE_11C_V1_GPRS_MMI/Tools/MinGW/include/c++/3.3.1/bits/stl_iterator_base_types.h **** #ifndef __GLIBCPP_INTERNAL_ITERATOR_BASE_TYPES_H
  65:d:/MTK/MTK2503/MTK2503/11CW1418SP4_03_CORETEK03AE_11C_V1_GPRS_MMI/Tools/MinGW/include/c++/3.3.1/bits/stl_iterator_base_types.h **** #define __GLIBCPP_INTERNAL_ITERATOR_BASE_TYPES_H
  66:d:/MTK/MTK2503/MTK2503/11CW1418SP4_03_CORETEK03AE_11C_V1_GPRS_MMI/Tools/MinGW/include/c++/3.3.1/bits/stl_iterator_base_types.h **** 
  67:d:/MTK/MTK2503/MTK2503/11CW1418SP4_03_CORETEK03AE_11C_V1_GPRS_MMI/Tools/MinGW/include/c++/3.3.1/bits/stl_iterator_base_types.h **** #pragma GCC system_header
  68:d:/MTK/MTK2503/MTK2503/11CW1418SP4_03_CORETEK03AE_11C_V1_GPRS_MMI/Tools/MinGW/include/c++/3.3.1/bits/stl_iterator_base_types.h **** 
  69:d:/MTK/MTK2503/MTK2503/11CW1418SP4_03_CORETEK03AE_11C_V1_GPRS_MMI/Tools/MinGW/include/c++/3.3.1/bits/stl_iterator_base_types.h **** namespace std
  70:d:/MTK/MTK2503/MTK2503/11CW1418SP4_03_CORETEK03AE_11C_V1_GPRS_MMI/Tools/MinGW/include/c++/3.3.1/bits/stl_iterator_base_types.h **** {
  71:d:/MTK/MTK2503/MTK2503/11CW1418SP4_03_CORETEK03AE_11C_V1_GPRS_MMI/Tools/MinGW/include/c++/3.3.1/bits/stl_iterator_base_types.h ****   //@{
  72:d:/MTK/MTK2503/MTK2503/11CW1418SP4_03_CORETEK03AE_11C_V1_GPRS_MMI/Tools/MinGW/include/c++/3.3.1/bits/stl_iterator_base_types.h ****   /**
  73:d:/MTK/MTK2503/MTK2503/11CW1418SP4_03_CORETEK03AE_11C_V1_GPRS_MMI/Tools/MinGW/include/c++/3.3.1/bits/stl_iterator_base_types.h ****    *  @defgroup iterator_tags Iterator Tags
  74:d:/MTK/MTK2503/MTK2503/11CW1418SP4_03_CORETEK03AE_11C_V1_GPRS_MMI/Tools/MinGW/include/c++/3.3.1/bits/stl_iterator_base_types.h ****    *  These are empty types, used to distinguish different iterators.  The
  75:d:/MTK/MTK2503/MTK2503/11CW1418SP4_03_CORETEK03AE_11C_V1_GPRS_MMI/Tools/MinGW/include/c++/3.3.1/bits/stl_iterator_base_types.h ****    *  distinction is not made by what they contain, but simply by what they
  76:d:/MTK/MTK2503/MTK2503/11CW1418SP4_03_CORETEK03AE_11C_V1_GPRS_MMI/Tools/MinGW/include/c++/3.3.1/bits/stl_iterator_base_types.h ****    *  are.  Different underlying algorithms can then be used based on the
  77:d:/MTK/MTK2503/MTK2503/11CW1418SP4_03_CORETEK03AE_11C_V1_GPRS_MMI/Tools/MinGW/include/c++/3.3.1/bits/stl_iterator_base_types.h ****    *  different operations supporetd by different iterator types.
  78:d:/MTK/MTK2503/MTK2503/11CW1418SP4_03_CORETEK03AE_11C_V1_GPRS_MMI/Tools/MinGW/include/c++/3.3.1/bits/stl_iterator_base_types.h ****   */
  79:d:/MTK/MTK2503/MTK2503/11CW1418SP4_03_CORETEK03AE_11C_V1_GPRS_MMI/Tools/MinGW/include/c++/3.3.1/bits/stl_iterator_base_types.h ****   ///  Marking input iterators.
  80:d:/MTK/MTK2503/MTK2503/11CW1418SP4_03_CORETEK03AE_11C_V1_GPRS_MMI/Tools/MinGW/include/c++/3.3.1/bits/stl_iterator_base_types.h ****   struct input_iterator_tag {};
  81:d:/MTK/MTK2503/MTK2503/11CW1418SP4_03_CORETEK03AE_11C_V1_GPRS_MMI/Tools/MinGW/include/c++/3.3.1/bits/stl_iterator_base_types.h ****   ///  Marking output iterators.
  82:d:/MTK/MTK2503/MTK2503/11CW1418SP4_03_CORETEK03AE_11C_V1_GPRS_MMI/Tools/MinGW/include/c++/3.3.1/bits/stl_iterator_base_types.h ****   struct output_iterator_tag {};
  83:d:/MTK/MTK2503/MTK2503/11CW1418SP4_03_CORETEK03AE_11C_V1_GPRS_MMI/Tools/MinGW/include/c++/3.3.1/bits/stl_iterator_base_types.h ****   /// Forward iterators support a superset of input iterator operations.
  84:d:/MTK/MTK2503/MTK2503/11CW1418SP4_03_CORETEK03AE_11C_V1_GPRS_MMI/Tools/MinGW/include/c++/3.3.1/bits/stl_iterator_base_types.h ****   struct forward_iterator_tag : public input_iterator_tag {};
  85:d:/MTK/MTK2503/MTK2503/11CW1418SP4_03_CORETEK03AE_11C_V1_GPRS_MMI/Tools/MinGW/include/c++/3.3.1/bits/stl_iterator_base_types.h ****   /// Bidirectional iterators support a superset of forward iterator operations.
  86:d:/MTK/MTK2503/MTK2503/11CW1418SP4_03_CORETEK03AE_11C_V1_GPRS_MMI/Tools/MinGW/include/c++/3.3.1/bits/stl_iterator_base_types.h ****   struct bidirectional_iterator_tag : public forward_iterator_tag {};
  87:d:/MTK/MTK2503/MTK2503/11CW1418SP4_03_CORETEK03AE_11C_V1_GPRS_MMI/Tools/MinGW/include/c++/3.3.1/bits/stl_iterator_base_types.h ****   /// Random-access iterators support a superset of bidirectional iterator operations.
  88:d:/MTK/MTK2503/MTK2503/11CW1418SP4_03_CORETEK03AE_11C_V1_GPRS_MMI/Tools/MinGW/include/c++/3.3.1/bits/stl_iterator_base_types.h ****   struct random_access_iterator_tag : public bidirectional_iterator_tag {};
  89:d:/MTK/MTK2503/MTK2503/11CW1418SP4_03_CORETEK03AE_11C_V1_GPRS_MMI/Tools/MinGW/include/c++/3.3.1/bits/stl_iterator_base_types.h ****   //@}
  90:d:/MTK/MTK2503/MTK2503/11CW1418SP4_03_CORETEK03AE_11C_V1_GPRS_MMI/Tools/MinGW/include/c++/3.3.1/bits/stl_iterator_base_types.h **** 
  91:d:/MTK/MTK2503/MTK2503/11CW1418SP4_03_CORETEK03AE_11C_V1_GPRS_MMI/Tools/MinGW/include/c++/3.3.1/bits/stl_iterator_base_types.h **** 
  92:d:/MTK/MTK2503/MTK2503/11CW1418SP4_03_CORETEK03AE_11C_V1_GPRS_MMI/Tools/MinGW/include/c++/3.3.1/bits/stl_iterator_base_types.h ****   /**
  93:d:/MTK/MTK2503/MTK2503/11CW1418SP4_03_CORETEK03AE_11C_V1_GPRS_MMI/Tools/MinGW/include/c++/3.3.1/bits/stl_iterator_base_types.h ****    *  @brief  Common %iterator class.
  94:d:/MTK/MTK2503/MTK2503/11CW1418SP4_03_CORETEK03AE_11C_V1_GPRS_MMI/Tools/MinGW/include/c++/3.3.1/bits/stl_iterator_base_types.h ****    *
  95:d:/MTK/MTK2503/MTK2503/11CW1418SP4_03_CORETEK03AE_11C_V1_GPRS_MMI/Tools/MinGW/include/c++/3.3.1/bits/stl_iterator_base_types.h ****    *  This class does nothing but define nested typedefs.  %Iterator classes
  96:d:/MTK/MTK2503/MTK2503/11CW1418SP4_03_CORETEK03AE_11C_V1_GPRS_MMI/Tools/MinGW/include/c++/3.3.1/bits/stl_iterator_base_types.h ****    *  can inherit from this class to save some work.  The typedefs are then
  97:d:/MTK/MTK2503/MTK2503/11CW1418SP4_03_CORETEK03AE_11C_V1_GPRS_MMI/Tools/MinGW/include/c++/3.3.1/bits/stl_iterator_base_types.h ****    *  used in specializations and overloading.
  98:d:/MTK/MTK2503/MTK2503/11CW1418SP4_03_CORETEK03AE_11C_V1_GPRS_MMI/Tools/MinGW/include/c++/3.3.1/bits/stl_iterator_base_types.h ****    *
  99:d:/MTK/MTK2503/MTK2503/11CW1418SP4_03_CORETEK03AE_11C_V1_GPRS_MMI/Tools/MinGW/include/c++/3.3.1/bits/stl_iterator_base_types.h ****    *  In particular, there are no default implementations of requirements
 100:d:/MTK/MTK2503/MTK2503/11CW1418SP4_03_CORETEK03AE_11C_V1_GPRS_MMI/Tools/MinGW/include/c++/3.3.1/bits/stl_iterator_base_types.h ****    *  such as @c operator++ and the like.  (How could there be?)
 101:d:/MTK/MTK2503/MTK2503/11CW1418SP4_03_CORETEK03AE_11C_V1_GPRS_MMI/Tools/MinGW/include/c++/3.3.1/bits/stl_iterator_base_types.h ****   */
 102:d:/MTK/MTK2503/MTK2503/11CW1418SP4_03_CORETEK03AE_11C_V1_GPRS_MMI/Tools/MinGW/include/c++/3.3.1/bits/stl_iterator_base_types.h ****   template<typename _Category, typename _Tp, typename _Distance = ptrdiff_t,
 103:d:/MTK/MTK2503/MTK2503/11CW1418SP4_03_CORETEK03AE_11C_V1_GPRS_MMI/Tools/MinGW/include/c++/3.3.1/bits/stl_iterator_base_types.h ****            typename _Pointer = _Tp*, typename _Reference = _Tp&>
 104:d:/MTK/MTK2503/MTK2503/11CW1418SP4_03_CORETEK03AE_11C_V1_GPRS_MMI/Tools/MinGW/include/c++/3.3.1/bits/stl_iterator_base_types.h ****     struct iterator
 105:d:/MTK/MTK2503/MTK2503/11CW1418SP4_03_CORETEK03AE_11C_V1_GPRS_MMI/Tools/MinGW/include/c++/3.3.1/bits/stl_iterator_base_types.h ****     {
 106:d:/MTK/MTK2503/MTK2503/11CW1418SP4_03_CORETEK03AE_11C_V1_GPRS_MMI/Tools/MinGW/include/c++/3.3.1/bits/stl_iterator_base_types.h ****       /// One of the @link iterator_tags tag types@endlink.
 107:d:/MTK/MTK2503/MTK2503/11CW1418SP4_03_CORETEK03AE_11C_V1_GPRS_MMI/Tools/MinGW/include/c++/3.3.1/bits/stl_iterator_base_types.h ****       typedef _Category  iterator_category;
 108:d:/MTK/MTK2503/MTK2503/11CW1418SP4_03_CORETEK03AE_11C_V1_GPRS_MMI/Tools/MinGW/include/c++/3.3.1/bits/stl_iterator_base_types.h ****       /// The type "pointed to" by the iterator.
 109:d:/MTK/MTK2503/MTK2503/11CW1418SP4_03_CORETEK03AE_11C_V1_GPRS_MMI/Tools/MinGW/include/c++/3.3.1/bits/stl_iterator_base_types.h ****       typedef _Tp        value_type;
GAS LISTING d:/MTK/MTK2503/MTK2503/11CW1418SP4_03_CORETEK03AE_11C_V1_GPRS_MMI/plutommi/Customer/ResGenerator/gcctmp/ccQHcaaa.s 			page 163


 110:d:/MTK/MTK2503/MTK2503/11CW1418SP4_03_CORETEK03AE_11C_V1_GPRS_MMI/Tools/MinGW/include/c++/3.3.1/bits/stl_iterator_base_types.h ****       /// Distance between iterators is represented as this type.
 111:d:/MTK/MTK2503/MTK2503/11CW1418SP4_03_CORETEK03AE_11C_V1_GPRS_MMI/Tools/MinGW/include/c++/3.3.1/bits/stl_iterator_base_types.h ****       typedef _Distance  difference_type;
 112:d:/MTK/MTK2503/MTK2503/11CW1418SP4_03_CORETEK03AE_11C_V1_GPRS_MMI/Tools/MinGW/include/c++/3.3.1/bits/stl_iterator_base_types.h ****       /// This type represents a pointer-to-value_type.
 113:d:/MTK/MTK2503/MTK2503/11CW1418SP4_03_CORETEK03AE_11C_V1_GPRS_MMI/Tools/MinGW/include/c++/3.3.1/bits/stl_iterator_base_types.h ****       typedef _Pointer   pointer;
 114:d:/MTK/MTK2503/MTK2503/11CW1418SP4_03_CORETEK03AE_11C_V1_GPRS_MMI/Tools/MinGW/include/c++/3.3.1/bits/stl_iterator_base_types.h ****       /// This type represents a reference-to-value_type.
 115:d:/MTK/MTK2503/MTK2503/11CW1418SP4_03_CORETEK03AE_11C_V1_GPRS_MMI/Tools/MinGW/include/c++/3.3.1/bits/stl_iterator_base_types.h ****       typedef _Reference reference;
 116:d:/MTK/MTK2503/MTK2503/11CW1418SP4_03_CORETEK03AE_11C_V1_GPRS_MMI/Tools/MinGW/include/c++/3.3.1/bits/stl_iterator_base_types.h ****     };
 117:d:/MTK/MTK2503/MTK2503/11CW1418SP4_03_CORETEK03AE_11C_V1_GPRS_MMI/Tools/MinGW/include/c++/3.3.1/bits/stl_iterator_base_types.h **** 
 118:d:/MTK/MTK2503/MTK2503/11CW1418SP4_03_CORETEK03AE_11C_V1_GPRS_MMI/Tools/MinGW/include/c++/3.3.1/bits/stl_iterator_base_types.h ****   /**
 119:d:/MTK/MTK2503/MTK2503/11CW1418SP4_03_CORETEK03AE_11C_V1_GPRS_MMI/Tools/MinGW/include/c++/3.3.1/bits/stl_iterator_base_types.h ****    *  This class does nothing but define nested typedefs.  The general
 120:d:/MTK/MTK2503/MTK2503/11CW1418SP4_03_CORETEK03AE_11C_V1_GPRS_MMI/Tools/MinGW/include/c++/3.3.1/bits/stl_iterator_base_types.h ****    *  version simply "forwards" the nested typedefs from the Iterator
 121:d:/MTK/MTK2503/MTK2503/11CW1418SP4_03_CORETEK03AE_11C_V1_GPRS_MMI/Tools/MinGW/include/c++/3.3.1/bits/stl_iterator_base_types.h ****    *  argument.  Specialized versions for pointers and pointers-to-const
 122:d:/MTK/MTK2503/MTK2503/11CW1418SP4_03_CORETEK03AE_11C_V1_GPRS_MMI/Tools/MinGW/include/c++/3.3.1/bits/stl_iterator_base_types.h ****    *  provide tighter, more correct semantics.
 123:d:/MTK/MTK2503/MTK2503/11CW1418SP4_03_CORETEK03AE_11C_V1_GPRS_MMI/Tools/MinGW/include/c++/3.3.1/bits/stl_iterator_base_types.h ****   */
 124:d:/MTK/MTK2503/MTK2503/11CW1418SP4_03_CORETEK03AE_11C_V1_GPRS_MMI/Tools/MinGW/include/c++/3.3.1/bits/stl_iterator_base_types.h ****   template<typename _Iterator>
 125:d:/MTK/MTK2503/MTK2503/11CW1418SP4_03_CORETEK03AE_11C_V1_GPRS_MMI/Tools/MinGW/include/c++/3.3.1/bits/stl_iterator_base_types.h ****     struct iterator_traits {
 126:d:/MTK/MTK2503/MTK2503/11CW1418SP4_03_CORETEK03AE_11C_V1_GPRS_MMI/Tools/MinGW/include/c++/3.3.1/bits/stl_iterator_base_types.h ****       typedef typename _Iterator::iterator_category iterator_category;
 127:d:/MTK/MTK2503/MTK2503/11CW1418SP4_03_CORETEK03AE_11C_V1_GPRS_MMI/Tools/MinGW/include/c++/3.3.1/bits/stl_iterator_base_types.h ****       typedef typename _Iterator::value_type        value_type;
 128:d:/MTK/MTK2503/MTK2503/11CW1418SP4_03_CORETEK03AE_11C_V1_GPRS_MMI/Tools/MinGW/include/c++/3.3.1/bits/stl_iterator_base_types.h ****       typedef typename _Iterator::difference_type   difference_type;
 129:d:/MTK/MTK2503/MTK2503/11CW1418SP4_03_CORETEK03AE_11C_V1_GPRS_MMI/Tools/MinGW/include/c++/3.3.1/bits/stl_iterator_base_types.h ****       typedef typename _Iterator::pointer           pointer;
 130:d:/MTK/MTK2503/MTK2503/11CW1418SP4_03_CORETEK03AE_11C_V1_GPRS_MMI/Tools/MinGW/include/c++/3.3.1/bits/stl_iterator_base_types.h ****       typedef typename _Iterator::reference         reference;
 131:d:/MTK/MTK2503/MTK2503/11CW1418SP4_03_CORETEK03AE_11C_V1_GPRS_MMI/Tools/MinGW/include/c++/3.3.1/bits/stl_iterator_base_types.h ****     };
 132:d:/MTK/MTK2503/MTK2503/11CW1418SP4_03_CORETEK03AE_11C_V1_GPRS_MMI/Tools/MinGW/include/c++/3.3.1/bits/stl_iterator_base_types.h **** 
 133:d:/MTK/MTK2503/MTK2503/11CW1418SP4_03_CORETEK03AE_11C_V1_GPRS_MMI/Tools/MinGW/include/c++/3.3.1/bits/stl_iterator_base_types.h ****   template<typename _Tp>
 134:d:/MTK/MTK2503/MTK2503/11CW1418SP4_03_CORETEK03AE_11C_V1_GPRS_MMI/Tools/MinGW/include/c++/3.3.1/bits/stl_iterator_base_types.h ****     struct iterator_traits<_Tp*> {
 135:d:/MTK/MTK2503/MTK2503/11CW1418SP4_03_CORETEK03AE_11C_V1_GPRS_MMI/Tools/MinGW/include/c++/3.3.1/bits/stl_iterator_base_types.h ****       typedef random_access_iterator_tag iterator_category;
 136:d:/MTK/MTK2503/MTK2503/11CW1418SP4_03_CORETEK03AE_11C_V1_GPRS_MMI/Tools/MinGW/include/c++/3.3.1/bits/stl_iterator_base_types.h ****       typedef _Tp                         value_type;
 137:d:/MTK/MTK2503/MTK2503/11CW1418SP4_03_CORETEK03AE_11C_V1_GPRS_MMI/Tools/MinGW/include/c++/3.3.1/bits/stl_iterator_base_types.h ****       typedef ptrdiff_t                   difference_type;
 138:d:/MTK/MTK2503/MTK2503/11CW1418SP4_03_CORETEK03AE_11C_V1_GPRS_MMI/Tools/MinGW/include/c++/3.3.1/bits/stl_iterator_base_types.h ****       typedef _Tp*                        pointer;
 139:d:/MTK/MTK2503/MTK2503/11CW1418SP4_03_CORETEK03AE_11C_V1_GPRS_MMI/Tools/MinGW/include/c++/3.3.1/bits/stl_iterator_base_types.h ****       typedef _Tp&                        reference;
 140:d:/MTK/MTK2503/MTK2503/11CW1418SP4_03_CORETEK03AE_11C_V1_GPRS_MMI/Tools/MinGW/include/c++/3.3.1/bits/stl_iterator_base_types.h ****     };
 141:d:/MTK/MTK2503/MTK2503/11CW1418SP4_03_CORETEK03AE_11C_V1_GPRS_MMI/Tools/MinGW/include/c++/3.3.1/bits/stl_iterator_base_types.h **** 
 142:d:/MTK/MTK2503/MTK2503/11CW1418SP4_03_CORETEK03AE_11C_V1_GPRS_MMI/Tools/MinGW/include/c++/3.3.1/bits/stl_iterator_base_types.h ****   template<typename _Tp>
 143:d:/MTK/MTK2503/MTK2503/11CW1418SP4_03_CORETEK03AE_11C_V1_GPRS_MMI/Tools/MinGW/include/c++/3.3.1/bits/stl_iterator_base_types.h ****     struct iterator_traits<const _Tp*> {
 144:d:/MTK/MTK2503/MTK2503/11CW1418SP4_03_CORETEK03AE_11C_V1_GPRS_MMI/Tools/MinGW/include/c++/3.3.1/bits/stl_iterator_base_types.h ****       typedef random_access_iterator_tag iterator_category;
 145:d:/MTK/MTK2503/MTK2503/11CW1418SP4_03_CORETEK03AE_11C_V1_GPRS_MMI/Tools/MinGW/include/c++/3.3.1/bits/stl_iterator_base_types.h ****       typedef _Tp                         value_type;
 146:d:/MTK/MTK2503/MTK2503/11CW1418SP4_03_CORETEK03AE_11C_V1_GPRS_MMI/Tools/MinGW/include/c++/3.3.1/bits/stl_iterator_base_types.h ****       typedef ptrdiff_t                   difference_type;
 147:d:/MTK/MTK2503/MTK2503/11CW1418SP4_03_CORETEK03AE_11C_V1_GPRS_MMI/Tools/MinGW/include/c++/3.3.1/bits/stl_iterator_base_types.h ****       typedef const _Tp*                  pointer;
 148:d:/MTK/MTK2503/MTK2503/11CW1418SP4_03_CORETEK03AE_11C_V1_GPRS_MMI/Tools/MinGW/include/c++/3.3.1/bits/stl_iterator_base_types.h ****       typedef const _Tp&                  reference;
 149:d:/MTK/MTK2503/MTK2503/11CW1418SP4_03_CORETEK03AE_11C_V1_GPRS_MMI/Tools/MinGW/include/c++/3.3.1/bits/stl_iterator_base_types.h ****     };
 150:d:/MTK/MTK2503/MTK2503/11CW1418SP4_03_CORETEK03AE_11C_V1_GPRS_MMI/Tools/MinGW/include/c++/3.3.1/bits/stl_iterator_base_types.h **** 
 151:d:/MTK/MTK2503/MTK2503/11CW1418SP4_03_CORETEK03AE_11C_V1_GPRS_MMI/Tools/MinGW/include/c++/3.3.1/bits/stl_iterator_base_types.h ****   /**
 152:d:/MTK/MTK2503/MTK2503/11CW1418SP4_03_CORETEK03AE_11C_V1_GPRS_MMI/Tools/MinGW/include/c++/3.3.1/bits/stl_iterator_base_types.h ****    *  @if maint
 153:d:/MTK/MTK2503/MTK2503/11CW1418SP4_03_CORETEK03AE_11C_V1_GPRS_MMI/Tools/MinGW/include/c++/3.3.1/bits/stl_iterator_base_types.h ****    *  This function is not a part of the C++ standard but is syntactic
 154:d:/MTK/MTK2503/MTK2503/11CW1418SP4_03_CORETEK03AE_11C_V1_GPRS_MMI/Tools/MinGW/include/c++/3.3.1/bits/stl_iterator_base_types.h ****    *  sugar for internal library use only.
 155:d:/MTK/MTK2503/MTK2503/11CW1418SP4_03_CORETEK03AE_11C_V1_GPRS_MMI/Tools/MinGW/include/c++/3.3.1/bits/stl_iterator_base_types.h ****    *  @endif
 156:d:/MTK/MTK2503/MTK2503/11CW1418SP4_03_CORETEK03AE_11C_V1_GPRS_MMI/Tools/MinGW/include/c++/3.3.1/bits/stl_iterator_base_types.h ****   */
 157:d:/MTK/MTK2503/MTK2503/11CW1418SP4_03_CORETEK03AE_11C_V1_GPRS_MMI/Tools/MinGW/include/c++/3.3.1/bits/stl_iterator_base_types.h ****   template<typename _Iter>
 158:d:/MTK/MTK2503/MTK2503/11CW1418SP4_03_CORETEK03AE_11C_V1_GPRS_MMI/Tools/MinGW/include/c++/3.3.1/bits/stl_iterator_base_types.h ****     inline typename iterator_traits<_Iter>::iterator_category
 159:d:/MTK/MTK2503/MTK2503/11CW1418SP4_03_CORETEK03AE_11C_V1_GPRS_MMI/Tools/MinGW/include/c++/3.3.1/bits/stl_iterator_base_types.h ****     __iterator_category(const _Iter&)
 160:d:/MTK/MTK2503/MTK2503/11CW1418SP4_03_CORETEK03AE_11C_V1_GPRS_MMI/Tools/MinGW/include/c++/3.3.1/bits/stl_iterator_base_types.h ****     { return typename iterator_traits<_Iter>::iterator_category(); }
 7621              	LM360:
 7622 0000 55       		pushl	%ebp
 7623 0001 89E5     		movl	%esp, %ebp
 7624 0003 83EC04   		subl	$4, %esp
 7626              	LM361:
 7627              	LBB103:
GAS LISTING d:/MTK/MTK2503/MTK2503/11CW1418SP4_03_CORETEK03AE_11C_V1_GPRS_MMI/plutommi/Customer/ResGenerator/gcctmp/ccQHcaaa.s 			page 164


 7628 0006 0FB645FF 		movzbl	-1(%ebp), %eax
 7629 000a C9       		leave
 7630 000b C3       		ret
 7631              	LBE103:
 7632              	Lscope80:
 7634              		.section	.text$_ZSt15__copy_backwardIPN10ThreadPool10ThreadDataES2_ET0_T_S4_S3_St26random_access_i
 7635              		.linkonce discard
 7636              		.align 2
 7641              	.globl __ZSt15__copy_backwardIPN10ThreadPool10ThreadDataES2_ET0_T_S4_S3_St26random_access_iterator_
 7643              	__ZSt15__copy_backwardIPN10ThreadPool10ThreadDataES2_ET0_T_S4_S3_St26random_access_iterator_tag:
 7645              	Ltext39:
 7647              	LM362:
 7648 0000 55       		pushl	%ebp
 7649 0001 89E5     		movl	%esp, %ebp
 7650 0003 83EC04   		subl	$4, %esp
 7652              	LM363:
 7653              	LBB104:
 7654 0006 8B5508   		movl	8(%ebp), %edx
 7655 0009 8B450C   		movl	12(%ebp), %eax
 7656 000c 29D0     		subl	%edx, %eax
 7657 000e C1F802   		sarl	$2, %eax
 7658 0011 69C0ABAA 		imull	$-1431655765, %eax, %eax
 7658      AAAA
 7659 0017 8945FC   		movl	%eax, -4(%ebp)
 7660              	L293:
 7661 001a 837DFC00 		cmpl	$0, -4(%ebp)
 7662 001e 7F02     		jg	L296
 7663 0020 EB29     		jmp	L294
 7664              	L296:
 7666              	LM364:
 7667 0022 8D4510   		leal	16(%ebp), %eax
 7668 0025 83280C   		subl	$12, (%eax)
 7669 0028 8B4D10   		movl	16(%ebp), %ecx
 7670 002b 8D450C   		leal	12(%ebp), %eax
 7671 002e 83280C   		subl	$12, (%eax)
 7672 0031 8B550C   		movl	12(%ebp), %edx
 7673 0034 8B02     		movl	(%edx), %eax
 7674 0036 8901     		movl	%eax, (%ecx)
 7675 0038 8B4204   		movl	4(%edx), %eax
 7676 003b 894104   		movl	%eax, 4(%ecx)
 7677 003e 8B4208   		movl	8(%edx), %eax
 7678 0041 894108   		movl	%eax, 8(%ecx)
 7680              	LM365:
 7681 0044 8D45FC   		leal	-4(%ebp), %eax
 7682 0047 FF08     		decl	(%eax)
 7683 0049 EBCF     		jmp	L293
 7684              	L294:
 7686              	LM366:
 7687 004b 8B4510   		movl	16(%ebp), %eax
 7688 004e C9       		leave
 7689 004f C3       		ret
 7690              	LBE104:
 7694              	Lscope81:
 7696              		.section	.text$_ZNK9__gnu_cxx17__normal_iteratorIPN10ThreadPool10ThreadDataESt6vectorIS2_SaIS2_EEE
 7697              		.linkonce discard
 7698              		.align 2
 7701              	.globl __ZNK9__gnu_cxx17__normal_iteratorIPN10ThreadPool10ThreadDataESt6vectorIS2_SaIS2_EEEdeEv
GAS LISTING d:/MTK/MTK2503/MTK2503/11CW1418SP4_03_CORETEK03AE_11C_V1_GPRS_MMI/plutommi/Customer/ResGenerator/gcctmp/ccQHcaaa.s 			page 165


 7703              	__ZNK9__gnu_cxx17__normal_iteratorIPN10ThreadPool10ThreadDataESt6vectorIS2_SaIS2_EEEdeEv:
 7705              	Ltext40:
 7707              	LM367:
 7708 0000 55       		pushl	%ebp
 7709 0001 89E5     		movl	%esp, %ebp
 7711              	LM368:
 7712              	LBB105:
 7713 0003 8B4508   		movl	8(%ebp), %eax
 7714 0006 8B00     		movl	(%eax), %eax
 7715 0008 5D       		popl	%ebp
 7716 0009 C3       		ret
 7717              	LBE105:
 7718              	Lscope82:
 7720 000a 9090     		.section	.text$_ZNSt18_Vector_alloc_baseIN10ThreadPool10ThreadDataESaIS1_ELb1EE11_M_allocateEj,"x"
 7721              		.linkonce discard
 7722              		.align 2
 7726              	.globl __ZNSt18_Vector_alloc_baseIN10ThreadPool10ThreadDataESaIS1_ELb1EE11_M_allocateEj
 7728              	__ZNSt18_Vector_alloc_baseIN10ThreadPool10ThreadDataESaIS1_ELb1EE11_M_allocateEj:
 7730              	Ltext41:
 7732              	LM369:
 7733 0000 55       		pushl	%ebp
 7734 0001 89E5     		movl	%esp, %ebp
 7735 0003 83EC08   		subl	$8, %esp
 7737              	LM370:
 7738              	LBB106:
 7739 0006 8B450C   		movl	12(%ebp), %eax
 7740 0009 890424   		movl	%eax, (%esp)
 7741 000c E8000000 		call	__ZNSt14__simple_allocIN10ThreadPool10ThreadDataESt24__default_alloc_templateILb1ELi0EEE8allo
 7741      00
 7742 0011 C9       		leave
 7743 0012 C3       		ret
 7744              	LBE106:
 7745              	Lscope83:
 7747 0013 90       		.section	.text$_ZNSt14__simple_allocIN10ThreadPool10ThreadDataESt24__default_alloc_templateILb1ELi
 7748              		.linkonce discard
 7749              		.align 2
 7752              	.globl __ZNSt14__simple_allocIN10ThreadPool10ThreadDataESt24__default_alloc_templateILb1ELi0EEE8all
 7754              	__ZNSt14__simple_allocIN10ThreadPool10ThreadDataESt24__default_alloc_templateILb1ELi0EEE8allocateEj
 7756              	Ltext42:
 7758              	LM371:
 7759 0000 55       		pushl	%ebp
 7760 0001 89E5     		movl	%esp, %ebp
 7761 0003 83EC08   		subl	$8, %esp
 7763              	LM372:
 7764              	LBB107:
 7765 0006 C745FC00 		movl	$0, -4(%ebp)
 7765      000000
 7767              	LM373:
 7768 000d 837D0800 		cmpl	$0, 8(%ebp)
 7769 0011 741B     		je	L300
 7771              	LM374:
 7772 0013 8B4508   		movl	8(%ebp), %eax
 7773 0016 89C2     		movl	%eax, %edx
 7774 0018 01D2     		addl	%edx, %edx
 7775 001a 01C2     		addl	%eax, %edx
 7776 001c 8D049500 		leal	0(,%edx,4), %eax
 7776      000000
GAS LISTING d:/MTK/MTK2503/MTK2503/11CW1418SP4_03_CORETEK03AE_11C_V1_GPRS_MMI/plutommi/Customer/ResGenerator/gcctmp/ccQHcaaa.s 			page 166


 7777 0023 890424   		movl	%eax, (%esp)
 7778 0026 E8000000 		call	__ZNSt24__default_alloc_templateILb1ELi0EE8allocateEj
 7778      00
 7779 002b 8945FC   		movl	%eax, -4(%ebp)
 7780              	L300:
 7782              	LM375:
 7783 002e 8B45FC   		movl	-4(%ebp), %eax
 7784 0031 C9       		leave
 7785 0032 C3       		ret
 7786              	LBE107:
 7790              	Lscope84:
 7792 0033 90       		.section	.text$_ZSt4copyIN9__gnu_cxx17__normal_iteratorIPN10ThreadPool10ThreadDataESt6vectorIS3_Sa
 7793              		.linkonce discard
 7794              		.align 2
 7799              	.globl __ZSt4copyIN9__gnu_cxx17__normal_iteratorIPN10ThreadPool10ThreadDataESt6vectorIS3_SaIS3_EEEE
 7801              	__ZSt4copyIN9__gnu_cxx17__normal_iteratorIPN10ThreadPool10ThreadDataESt6vectorIS3_SaIS3_EEEES8_ET0_
 7803              	Ltext43:
 7805              	LM376:
 7806 0000 55       		pushl	%ebp
 7807 0001 89E5     		movl	%esp, %ebp
 7808 0003 83EC18   		subl	$24, %esp
 7810              	LM377:
 7811              	LBB108:
 7812 0006 C644240C 		movb	$0, 12(%esp)
 7812      00
 7813 000b 8B4510   		movl	16(%ebp), %eax
 7814 000e 89442408 		movl	%eax, 8(%esp)
 7815 0012 8B450C   		movl	12(%ebp), %eax
 7816 0015 89442404 		movl	%eax, 4(%esp)
 7817 0019 8B4508   		movl	8(%ebp), %eax
 7818 001c 890424   		movl	%eax, (%esp)
 7819 001f E8000000 		call	__ZSt10__copy_ni1IN9__gnu_cxx17__normal_iteratorIPN10ThreadPool10ThreadDataESt6vectorIS3_SaIS
 7819      00
 7820 0024 8945FC   		movl	%eax, -4(%ebp)
 7821 0027 8B45FC   		movl	-4(%ebp), %eax
 7822 002a C9       		leave
 7823 002b C3       		ret
 7824              	LBE108:
 7825              	Lscope85:
 7827              		.section	.text$_ZSt10__copy_ni1IN9__gnu_cxx17__normal_iteratorIPN10ThreadPool10ThreadDataESt6vecto
 7828              		.linkonce discard
 7829              		.align 2
 7834              	.globl __ZSt10__copy_ni1IN9__gnu_cxx17__normal_iteratorIPN10ThreadPool10ThreadDataESt6vectorIS3_SaI
 7836              	__ZSt10__copy_ni1IN9__gnu_cxx17__normal_iteratorIPN10ThreadPool10ThreadDataESt6vectorIS3_SaIS3_EEEE
 7838              	LM378:
 7839 0000 55       		pushl	%ebp
 7840 0001 89E5     		movl	%esp, %ebp
 7841 0003 53       		pushl	%ebx
 7842 0004 83EC24   		subl	$36, %esp
 7844              	LM379:
 7845              	LBB109:
 7846 0007 8D450C   		leal	12(%ebp), %eax
 7847 000a 890424   		movl	%eax, (%esp)
 7848 000d E8000000 		call	__ZNK9__gnu_cxx17__normal_iteratorIPN10ThreadPool10ThreadDataESt6vectorIS2_SaIS2_EEE4baseEv
 7848      00
 7849 0012 89C3     		movl	%eax, %ebx
 7850 0014 8D4508   		leal	8(%ebp), %eax
GAS LISTING d:/MTK/MTK2503/MTK2503/11CW1418SP4_03_CORETEK03AE_11C_V1_GPRS_MMI/plutommi/Customer/ResGenerator/gcctmp/ccQHcaaa.s 			page 167


 7851 0017 890424   		movl	%eax, (%esp)
 7852 001a E8000000 		call	__ZNK9__gnu_cxx17__normal_iteratorIPN10ThreadPool10ThreadDataESt6vectorIS2_SaIS2_EEE4baseEv
 7852      00
 7853 001f 89C2     		movl	%eax, %edx
 7854 0021 C644240C 		movb	$0, 12(%esp)
 7854      00
 7855 0026 8B4510   		movl	16(%ebp), %eax
 7856 0029 89442408 		movl	%eax, 8(%esp)
 7857 002d 8B03     		movl	(%ebx), %eax
 7858 002f 89442404 		movl	%eax, 4(%esp)
 7859 0033 8B02     		movl	(%edx), %eax
 7860 0035 890424   		movl	%eax, (%esp)
 7861 0038 E8000000 		call	__ZSt10__copy_ni2IPN10ThreadPool10ThreadDataEN9__gnu_cxx17__normal_iteratorIS2_St6vectorIS1_S
 7861      00
 7862 003d 8945F8   		movl	%eax, -8(%ebp)
 7863 0040 8B45F8   		movl	-8(%ebp), %eax
 7864 0043 83C424   		addl	$36, %esp
 7865 0046 5B       		popl	%ebx
 7866 0047 5D       		popl	%ebp
 7867 0048 C3       		ret
 7868              	LBE109:
 7869              	Lscope86:
 7871 0049 909090   		.section	.text$_ZSt10__copy_ni2IPN10ThreadPool10ThreadDataEN9__gnu_cxx17__normal_iteratorIS2_St6ve
 7872              		.linkonce discard
 7873              		.align 2
 7878              	.globl __ZSt10__copy_ni2IPN10ThreadPool10ThreadDataEN9__gnu_cxx17__normal_iteratorIS2_St6vectorIS1_
 7880              	__ZSt10__copy_ni2IPN10ThreadPool10ThreadDataEN9__gnu_cxx17__normal_iteratorIS2_St6vectorIS1_SaIS1_E
 7882              	LM380:
 7883 0000 55       		pushl	%ebp
 7884 0001 89E5     		movl	%esp, %ebp
 7885 0003 83EC28   		subl	$40, %esp
 7887              	LM381:
 7888              	LBB110:
 7889 0006 8D4510   		leal	16(%ebp), %eax
 7890 0009 890424   		movl	%eax, (%esp)
 7891 000c E8000000 		call	__ZNK9__gnu_cxx17__normal_iteratorIPN10ThreadPool10ThreadDataESt6vectorIS2_SaIS2_EEE4baseEv
 7891      00
 7892 0011 C644240C 		movb	$0, 12(%esp)
 7892      00
 7893 0016 8B00     		movl	(%eax), %eax
 7894 0018 89442408 		movl	%eax, 8(%esp)
 7895 001c 8B450C   		movl	12(%ebp), %eax
 7896 001f 89442404 		movl	%eax, 4(%esp)
 7897 0023 8B4508   		movl	8(%ebp), %eax
 7898 0026 890424   		movl	%eax, (%esp)
 7899 0029 E8000000 		call	__ZSt11__copy_aux2IPN10ThreadPool10ThreadDataES2_ET0_T_S4_S3_12__false_type
 7899      00
 7900 002e 8945F8   		movl	%eax, -8(%ebp)
 7901 0031 8D45F8   		leal	-8(%ebp), %eax
 7902 0034 89442404 		movl	%eax, 4(%esp)
 7903 0038 8D45FC   		leal	-4(%ebp), %eax
 7904 003b 890424   		movl	%eax, (%esp)
 7905 003e E8000000 		call	__ZN9__gnu_cxx17__normal_iteratorIPN10ThreadPool10ThreadDataESt6vectorIS2_SaIS2_EEEC1ERKS3_
 7905      00
 7906 0043 8B45FC   		movl	-4(%ebp), %eax
 7907 0046 C9       		leave
 7908 0047 C3       		ret
GAS LISTING d:/MTK/MTK2503/MTK2503/11CW1418SP4_03_CORETEK03AE_11C_V1_GPRS_MMI/plutommi/Customer/ResGenerator/gcctmp/ccQHcaaa.s 			page 168


 7909              	LBE110:
 7910              	Lscope87:
 7912              		.section	.text$_ZSt11__copy_aux2IPN10ThreadPool10ThreadDataES2_ET0_T_S4_S3_12__false_type,"x"
 7913              		.linkonce discard
 7914              		.align 2
 7919              	.globl __ZSt11__copy_aux2IPN10ThreadPool10ThreadDataES2_ET0_T_S4_S3_12__false_type
 7921              	__ZSt11__copy_aux2IPN10ThreadPool10ThreadDataES2_ET0_T_S4_S3_12__false_type:
 7923              	LM382:
 7924 0000 55       		pushl	%ebp
 7925 0001 89E5     		movl	%esp, %ebp
 7926 0003 83EC18   		subl	$24, %esp
 7928              	LM383:
 7929 0006 8D4508   		leal	8(%ebp), %eax
 7930              	LBB111:
 7931 0009 890424   		movl	%eax, (%esp)
 7932 000c E8000000 		call	__ZSt19__iterator_categoryIPN10ThreadPool10ThreadDataEENSt15iterator_traitsIT_E17iterator_cat
 7932      00
 7933 0011 8845FF   		movb	%al, -1(%ebp)
 7934 0014 C644240C 		movb	$0, 12(%esp)
 7934      00
 7935 0019 8B4510   		movl	16(%ebp), %eax
 7936 001c 89442408 		movl	%eax, 8(%esp)
 7937 0020 8B450C   		movl	12(%ebp), %eax
 7938 0023 89442404 		movl	%eax, 4(%esp)
 7939 0027 8B4508   		movl	8(%ebp), %eax
 7940 002a 890424   		movl	%eax, (%esp)
 7941 002d E8000000 		call	__ZSt6__copyIPN10ThreadPool10ThreadDataES2_ET0_T_S4_S3_St26random_access_iterator_tag
 7941      00
 7942 0032 C9       		leave
 7943 0033 C3       		ret
 7944              	LBE111:
 7945              	Lscope88:
 7947              		.section	.text$_ZSt6__copyIPN10ThreadPool10ThreadDataES2_ET0_T_S4_S3_St26random_access_iterator_ta
 7948              		.linkonce discard
 7949              		.align 2
 7954              	.globl __ZSt6__copyIPN10ThreadPool10ThreadDataES2_ET0_T_S4_S3_St26random_access_iterator_tag
 7956              	__ZSt6__copyIPN10ThreadPool10ThreadDataES2_ET0_T_S4_S3_St26random_access_iterator_tag:
 7958              	LM384:
 7959 0000 55       		pushl	%ebp
 7960 0001 89E5     		movl	%esp, %ebp
 7961 0003 83EC04   		subl	$4, %esp
 7963              	LM385:
 7964              	LBB112:
 7965              	LBB113:
 7966 0006 8B5508   		movl	8(%ebp), %edx
 7967 0009 8B450C   		movl	12(%ebp), %eax
 7968 000c 29D0     		subl	%edx, %eax
 7969 000e C1F802   		sarl	$2, %eax
 7970 0011 69C0ABAA 		imull	$-1431655765, %eax, %eax
 7970      AAAA
 7971 0017 8945FC   		movl	%eax, -4(%ebp)
 7972              	L306:
 7973 001a 837DFC00 		cmpl	$0, -4(%ebp)
 7974 001e 7F02     		jg	L309
 7975 0020 EB27     		jmp	L307
 7976              	L309:
 7978              	LM386:
GAS LISTING d:/MTK/MTK2503/MTK2503/11CW1418SP4_03_CORETEK03AE_11C_V1_GPRS_MMI/plutommi/Customer/ResGenerator/gcctmp/ccQHcaaa.s 			page 169


 7979 0022 8B4D10   		movl	16(%ebp), %ecx
 7980 0025 8B5508   		movl	8(%ebp), %edx
 7981 0028 8B02     		movl	(%edx), %eax
 7982 002a 8901     		movl	%eax, (%ecx)
 7983 002c 8B4204   		movl	4(%edx), %eax
 7984 002f 894104   		movl	%eax, 4(%ecx)
 7985 0032 8B4208   		movl	8(%edx), %eax
 7986 0035 894108   		movl	%eax, 8(%ecx)
 7988              	LM387:
 7989 0038 8345080C 		addl	$12, 8(%ebp)
 7991              	LM388:
 7992 003c 8D4510   		leal	16(%ebp), %eax
 7993 003f 83000C   		addl	$12, (%eax)
 7995              	LM389:
 7996 0042 8D45FC   		leal	-4(%ebp), %eax
 7997 0045 FF08     		decl	(%eax)
 7998 0047 EBD1     		jmp	L306
 7999              	L307:
 8001              	LM390:
 8002              	LBE113:
 8003 0049 8B4510   		movl	16(%ebp), %eax
 8004 004c C9       		leave
 8005 004d C3       		ret
 8006              	LBE112:
 8010              	Lscope89:
 8012 004e 9090     		.section	.text$_ZSt13__destroy_auxIN9__gnu_cxx17__normal_iteratorIPN10ThreadPool10ThreadDataESt6ve
 8013              		.linkonce discard
 8014              		.align 2
 8018              	.globl __ZSt13__destroy_auxIN9__gnu_cxx17__normal_iteratorIPN10ThreadPool10ThreadDataESt6vectorIS3_
 8020              	__ZSt13__destroy_auxIN9__gnu_cxx17__normal_iteratorIPN10ThreadPool10ThreadDataESt6vectorIS3_SaIS3_E
 8022              	Ltext44:
 8024              	LM391:
 8025 0000 55       		pushl	%ebp
 8026 0001 89E5     		movl	%esp, %ebp
 8027 0003 83EC08   		subl	$8, %esp
 8029              	LM392:
 8030              	LBB114:
 8031 0006 90       		nop
 8032              	L311:
 8033 0007 8D450C   		leal	12(%ebp), %eax
 8034 000a 89442404 		movl	%eax, 4(%esp)
 8035 000e 8D4508   		leal	8(%ebp), %eax
 8036 0011 890424   		movl	%eax, (%esp)
 8037 0014 E8000000 		call	__ZN9__gnu_cxxneIPN10ThreadPool10ThreadDataESt6vectorIS2_SaIS2_EEEEbRKNS_17__normal_iteratorI
 8037      00
 8038 0019 84C0     		testb	%al, %al
 8039 001b 7502     		jne	L314
 8040 001d EB20     		jmp	L310
 8041              	L314:
 8042 001f 8D4508   		leal	8(%ebp), %eax
 8043 0022 890424   		movl	%eax, (%esp)
 8044 0025 E8000000 		call	__ZNK9__gnu_cxx17__normal_iteratorIPN10ThreadPool10ThreadDataESt6vectorIS2_SaIS2_EEEdeEv
 8044      00
 8045 002a 890424   		movl	%eax, (%esp)
 8046 002d E8000000 		call	__ZSt8_DestroyIN10ThreadPool10ThreadDataEEvPT_
 8046      00
 8047 0032 8D4508   		leal	8(%ebp), %eax
GAS LISTING d:/MTK/MTK2503/MTK2503/11CW1418SP4_03_CORETEK03AE_11C_V1_GPRS_MMI/plutommi/Customer/ResGenerator/gcctmp/ccQHcaaa.s 			page 170


 8048 0035 890424   		movl	%eax, (%esp)
 8049 0038 E8000000 		call	__ZN9__gnu_cxx17__normal_iteratorIPN10ThreadPool10ThreadDataESt6vectorIS2_SaIS2_EEEppEv
 8049      00
 8050 003d EBC8     		jmp	L311
 8051              	L310:
 8052 003f C9       		leave
 8053 0040 C3       		ret
 8054              	LBE114:
 8055              	Lscope90:
 8057 0041 909090   		.section	.text$_ZSt8_DestroyIN10ThreadPool10ThreadDataEEvPT_,"x"
 8058              		.linkonce discard
 8059              		.align 2
 8062              	.globl __ZSt8_DestroyIN10ThreadPool10ThreadDataEEvPT_
 8064              	__ZSt8_DestroyIN10ThreadPool10ThreadDataEEvPT_:
 8066              	LM393:
 8067 0000 55       		pushl	%ebp
 8068 0001 89E5     		movl	%esp, %ebp
 8070              	LM394:
 8071 0003 5D       		popl	%ebp
 8072 0004 C3       		ret
 8073              	Lscope91:
 8075 0005 909090   		.section	.text$_ZN9__gnu_cxxmiIPN10ThreadPool10ThreadDataES3_St6vectorIS2_SaIS2_EEEENS_17__normal_
 8076              		.linkonce discard
 8077              		.align 2
 8081              	.globl __ZN9__gnu_cxxmiIPN10ThreadPool10ThreadDataES3_St6vectorIS2_SaIS2_EEEENS_17__normal_iterator
 8083              	__ZN9__gnu_cxxmiIPN10ThreadPool10ThreadDataES3_St6vectorIS2_SaIS2_EEEENS_17__normal_iteratorIT_T1_E
 8085              	Ltext45:
 8087              	LM395:
 8088 0000 55       		pushl	%ebp
 8089 0001 89E5     		movl	%esp, %ebp
 8090 0003 53       		pushl	%ebx
 8091 0004 83EC04   		subl	$4, %esp
 8093              	LM396:
 8094              	LBB115:
 8095 0007 8B4508   		movl	8(%ebp), %eax
 8096 000a 890424   		movl	%eax, (%esp)
 8097 000d E8000000 		call	__ZNK9__gnu_cxx17__normal_iteratorIPN10ThreadPool10ThreadDataESt6vectorIS2_SaIS2_EEE4baseEv
 8097      00
 8098 0012 89C3     		movl	%eax, %ebx
 8099 0014 8B450C   		movl	12(%ebp), %eax
 8100 0017 890424   		movl	%eax, (%esp)
 8101 001a E8000000 		call	__ZNK9__gnu_cxx17__normal_iteratorIPN10ThreadPool10ThreadDataESt6vectorIS2_SaIS2_EEE4baseEv
 8101      00
 8102 001f 8B10     		movl	(%eax), %edx
 8103 0021 8B03     		movl	(%ebx), %eax
 8104 0023 29D0     		subl	%edx, %eax
 8105 0025 C1F802   		sarl	$2, %eax
 8106 0028 69C0ABAA 		imull	$-1431655765, %eax, %eax
 8106      AAAA
 8107 002e 83C404   		addl	$4, %esp
 8108 0031 5B       		popl	%ebx
 8109 0032 5D       		popl	%ebp
 8110 0033 C3       		ret
 8111              	LBE115:
 8112              	Lscope92:
 8114              		.section	.text$_ZNSt4listIN10ThreadPool7JobDataESaIS1_EE14_M_create_nodeERKS1_,"x"
 8115              		.linkonce discard
GAS LISTING d:/MTK/MTK2503/MTK2503/11CW1418SP4_03_CORETEK03AE_11C_V1_GPRS_MMI/plutommi/Customer/ResGenerator/gcctmp/ccQHcaaa.s 			page 171


 8116              		.align 2
 8120              	.globl __ZNSt4listIN10ThreadPool7JobDataESaIS1_EE14_M_create_nodeERKS1_
 8122              	__ZNSt4listIN10ThreadPool7JobDataESaIS1_EE14_M_create_nodeERKS1_:
 8124              	Ltext46:
 8126              	LM397:
 8127 0000 55       		pushl	%ebp
 8128 0001 89E5     		movl	%esp, %ebp
 8129 0003 83EC18   		subl	$24, %esp
 8131              	LM398:
 8132              	LBB116:
 8133 0006 8B4508   		movl	8(%ebp), %eax
 8134 0009 890424   		movl	%eax, (%esp)
 8135 000c E8000000 		call	__ZNSt16_List_alloc_baseIN10ThreadPool7JobDataESaIS1_ELb1EE11_M_get_nodeEv
 8135      00
 8136 0011 8945FC   		movl	%eax, -4(%ebp)
 8138              	LM399:
 8139 0014 8B450C   		movl	12(%ebp), %eax
 8140 0017 89442404 		movl	%eax, 4(%esp)
 8141 001b 8B45FC   		movl	-4(%ebp), %eax
 8142 001e 83C008   		addl	$8, %eax
 8143 0021 890424   		movl	%eax, (%esp)
 8144 0024 E8000000 		call	__ZSt10_ConstructIN10ThreadPool7JobDataES1_EvPT_RKT0_
 8144      00
 8145              	L319:
 8146              	L320:
 8147              	L322:
 8149              	LM400:
 8150 0029 8B45FC   		movl	-4(%ebp), %eax
 8151              	L317:
 8152 002c C9       		leave
 8153 002d C3       		ret
 8154              	LBE116:
 8158              	Lscope93:
 8160 002e 9090     		.section	.text$_ZSt10_ConstructIN10ThreadPool7JobDataES1_EvPT_RKT0_,"x"
 8161              		.linkonce discard
 8162              		.align 2
 8166              	.globl __ZSt10_ConstructIN10ThreadPool7JobDataES1_EvPT_RKT0_
 8168              	__ZSt10_ConstructIN10ThreadPool7JobDataES1_EvPT_RKT0_:
 8170              	Ltext47:
 8172              	LM401:
 8173 0000 55       		pushl	%ebp
 8174 0001 89E5     		movl	%esp, %ebp
 8175 0003 83EC18   		subl	$24, %esp
 8177              	LM402:
 8178              	LBB117:
 8179 0006 8B4508   		movl	8(%ebp), %eax
 8180 0009 89442404 		movl	%eax, 4(%esp)
 8181 000d C704240C 		movl	$12, (%esp)
 8181      000000
 8182 0014 E8000000 		call	__ZnwjPv
 8182      00
 8183 0019 8945FC   		movl	%eax, -4(%ebp)
 8184 001c 837DFC00 		cmpl	$0, -4(%ebp)
 8185 0020 741C     		je	L324
 8186 0022 8B550C   		movl	12(%ebp), %edx
 8187 0025 8B02     		movl	(%edx), %eax
 8188 0027 8B4DFC   		movl	-4(%ebp), %ecx
GAS LISTING d:/MTK/MTK2503/MTK2503/11CW1418SP4_03_CORETEK03AE_11C_V1_GPRS_MMI/plutommi/Customer/ResGenerator/gcctmp/ccQHcaaa.s 			page 172


 8189 002a 8901     		movl	%eax, (%ecx)
 8190 002c 8B4204   		movl	4(%edx), %eax
 8191 002f 8B4DFC   		movl	-4(%ebp), %ecx
 8192 0032 894104   		movl	%eax, 4(%ecx)
 8193 0035 8B4208   		movl	8(%edx), %eax
 8194 0038 8B55FC   		movl	-4(%ebp), %edx
 8195 003b 894208   		movl	%eax, 8(%edx)
 8196              	L327:
 8197              	L324:
 8198 003e C9       		leave
 8199 003f C3       		ret
 8200              	LBE117:
 8201              	Lscope94:
 8203              		.section	.text$_ZSt24__uninitialized_copy_auxIN9__gnu_cxx17__normal_iteratorIPN10ThreadPool10Threa
 8204              		.linkonce discard
 8205              		.align 2
 8210              	.globl __ZSt24__uninitialized_copy_auxIN9__gnu_cxx17__normal_iteratorIPN10ThreadPool10ThreadDataESt
 8212              	__ZSt24__uninitialized_copy_auxIN9__gnu_cxx17__normal_iteratorIPN10ThreadPool10ThreadDataESt6vector
 8214              	Ltext48:
 8216              	LM403:
 8217 0000 55       		pushl	%ebp
 8218 0001 89E5     		movl	%esp, %ebp
 8219 0003 53       		pushl	%ebx
 8220 0004 83EC14   		subl	$20, %esp
 8222              	LM404:
 8223              	LBB118:
 8224 0007 8B4510   		movl	16(%ebp), %eax
 8225 000a 8945F8   		movl	%eax, -8(%ebp)
 8227              	LM405:
 8228              	L330:
 8229 000d 8D450C   		leal	12(%ebp), %eax
 8230 0010 89442404 		movl	%eax, 4(%esp)
 8231 0014 8D4508   		leal	8(%ebp), %eax
 8232 0017 890424   		movl	%eax, (%esp)
 8233 001a E8000000 		call	__ZN9__gnu_cxxneIPN10ThreadPool10ThreadDataESt6vectorIS2_SaIS2_EEEEbRKNS_17__normal_iteratorI
 8233      00
 8234 001f 84C0     		testb	%al, %al
 8235 0021 7502     		jne	L333
 8236 0023 EB3C     		jmp	L331
 8237              	L333:
 8239              	LM406:
 8240 0025 8D4508   		leal	8(%ebp), %eax
 8241 0028 890424   		movl	%eax, (%esp)
 8242 002b E8000000 		call	__ZNK9__gnu_cxx17__normal_iteratorIPN10ThreadPool10ThreadDataESt6vectorIS2_SaIS2_EEEdeEv
 8242      00
 8243 0030 89C3     		movl	%eax, %ebx
 8244 0032 8D45F8   		leal	-8(%ebp), %eax
 8245 0035 890424   		movl	%eax, (%esp)
 8246 0038 E8000000 		call	__ZNK9__gnu_cxx17__normal_iteratorIPN10ThreadPool10ThreadDataESt6vectorIS2_SaIS2_EEEdeEv
 8246      00
 8247 003d 895C2404 		movl	%ebx, 4(%esp)
 8248 0041 890424   		movl	%eax, (%esp)
 8249 0044 E8000000 		call	__ZSt10_ConstructIN10ThreadPool10ThreadDataES1_EvPT_RKT0_
 8249      00
 8251              	LM407:
 8252 0049 8D4508   		leal	8(%ebp), %eax
 8253 004c 890424   		movl	%eax, (%esp)
GAS LISTING d:/MTK/MTK2503/MTK2503/11CW1418SP4_03_CORETEK03AE_11C_V1_GPRS_MMI/plutommi/Customer/ResGenerator/gcctmp/ccQHcaaa.s 			page 173


 8254 004f E8000000 		call	__ZN9__gnu_cxx17__normal_iteratorIPN10ThreadPool10ThreadDataESt6vectorIS2_SaIS2_EEEppEv
 8254      00
 8255 0054 8D45F8   		leal	-8(%ebp), %eax
 8256 0057 890424   		movl	%eax, (%esp)
 8257 005a E8000000 		call	__ZN9__gnu_cxx17__normal_iteratorIPN10ThreadPool10ThreadDataESt6vectorIS2_SaIS2_EEEppEv
 8257      00
 8258 005f EBAC     		jmp	L330
 8259              	L331:
 8261              	LM408:
 8262 0061 8B45F8   		movl	-8(%ebp), %eax
 8263              	L335:
 8265              	LM409:
 8266              	L336:
 8267              	L338:
 8268              	L329:
 8269 0064 83C414   		addl	$20, %esp
 8270 0067 5B       		popl	%ebx
 8271 0068 5D       		popl	%ebp
 8272 0069 C3       		ret
 8273              	LBE118:
 8277              	Lscope95:
 8279 006a 9090     		.section	.text$_ZNSt8iteratorISt26random_access_iterator_tagN10ThreadPool10ThreadDataEiPKS2_RS3_EC
 8280              		.linkonce discard
 8281              		.align 2
 8284              	.globl __ZNSt8iteratorISt26random_access_iterator_tagN10ThreadPool10ThreadDataEiPKS2_RS3_EC2Ev
 8286              	__ZNSt8iteratorISt26random_access_iterator_tagN10ThreadPool10ThreadDataEiPKS2_RS3_EC2Ev:
 8288              	Ltext49:
 8290              	LM410:
 8291              	L341:
 8292              	L340:
 8293 0000 55       		pushl	%ebp
 8294 0001 89E5     		movl	%esp, %ebp
 8296              	LM411:
 8297 0003 5D       		popl	%ebp
 8298 0004 C3       		ret
 8299              	Lscope96:
 8303 0005 909090   		.text
 8305              	Letext:
GAS LISTING d:/MTK/MTK2503/MTK2503/11CW1418SP4_03_CORETEK03AE_11C_V1_GPRS_MMI/plutommi/Customer/ResGenerator/gcctmp/ccQHcaaa.s 			page 174


DEFINED SYMBOLS
                            *ABS*:00000000 ThreadPool.cpp
d:/MTK/MTK2503/MTK2503/11CW1418SP4_03_CORETEK03AE_11C_V1_GPRS_MMI/plutommi/Customer/ResGenerator/gcctmp/ccQHcaaa.s:2867   .text:00000092 __ZN10ThreadPoolC2Eii
d:/MTK/MTK2503/MTK2503/11CW1418SP4_03_CORETEK03AE_11C_V1_GPRS_MMI/plutommi/Customer/ResGenerator/gcctmp/ccQHcaaa.s:5643   .rdata$_ZTV10ThreadPool:00000000 __ZTV10ThreadPool
d:/MTK/MTK2503/MTK2503/11CW1418SP4_03_CORETEK03AE_11C_V1_GPRS_MMI/plutommi/Customer/ResGenerator/gcctmp/ccQHcaaa.s:3076   .text:000002dc __ZN10ThreadPoolC1Eii
d:/MTK/MTK2503/MTK2503/11CW1418SP4_03_CORETEK03AE_11C_V1_GPRS_MMI/plutommi/Customer/ResGenerator/gcctmp/ccQHcaaa.s:3313   .text:00000526 __ZN10ThreadPoolD2Ev
d:/MTK/MTK2503/MTK2503/11CW1418SP4_03_CORETEK03AE_11C_V1_GPRS_MMI/plutommi/Customer/ResGenerator/gcctmp/ccQHcaaa.s:3441   .text:00000646 __ZN10ThreadPoolD1Ev
d:/MTK/MTK2503/MTK2503/11CW1418SP4_03_CORETEK03AE_11C_V1_GPRS_MMI/plutommi/Customer/ResGenerator/gcctmp/ccQHcaaa.s:3567   .text:00000766 __ZN10ThreadPoolD0Ev
d:/MTK/MTK2503/MTK2503/11CW1418SP4_03_CORETEK03AE_11C_V1_GPRS_MMI/plutommi/Customer/ResGenerator/gcctmp/ccQHcaaa.s:4490   .text:000011c2 __ZN10ThreadPool13GetWaitHandleEm
d:/MTK/MTK2503/MTK2503/11CW1418SP4_03_CORETEK03AE_11C_V1_GPRS_MMI/plutommi/Customer/ResGenerator/gcctmp/ccQHcaaa.s:4588   .text:00001280 __ZN10ThreadPool10ThreadProcEPv@4
d:/MTK/MTK2503/MTK2503/11CW1418SP4_03_CORETEK03AE_11C_V1_GPRS_MMI/plutommi/Customer/ResGenerator/gcctmp/ccQHcaaa.s:7134   .rdata$_ZTI10ThreadPool:00000000 __ZTI10ThreadPool
d:/MTK/MTK2503/MTK2503/11CW1418SP4_03_CORETEK03AE_11C_V1_GPRS_MMI/plutommi/Customer/ResGenerator/gcctmp/ccQHcaaa.s:7140   .rdata$_ZTS10ThreadPool:00000000 __ZTS10ThreadPool
d:/MTK/MTK2503/MTK2503/11CW1418SP4_03_CORETEK03AE_11C_V1_GPRS_MMI/plutommi/Customer/ResGenerator/gcctmp/ccQHcaaa.s:8212   .text$_ZSt24__uninitialized_copy_auxIN9__gnu_cxx17__normal_iteratorIPN10ThreadPool10ThreadDataESt6vectorIS3_SaIS3_EEEES8_ET0_T_SA_S9_12__false_type:00000000 __ZSt24__uninitialized_copy_auxIN9__gnu_cxx17__normal_iteratorIPN10ThreadPool10ThreadDataESt6vectorIS3_SaIS3_EEEES8_ET0_T_SA_S9_12__false_type
d:/MTK/MTK2503/MTK2503/11CW1418SP4_03_CORETEK03AE_11C_V1_GPRS_MMI/plutommi/Customer/ResGenerator/gcctmp/ccQHcaaa.s:7066   .text$_ZSt13__destroy_auxIPN10ThreadPool10ThreadDataEEvT_S3_12__false_type:00000000 __ZSt13__destroy_auxIPN10ThreadPool10ThreadDataEEvT_S3_12__false_type
d:/MTK/MTK2503/MTK2503/11CW1418SP4_03_CORETEK03AE_11C_V1_GPRS_MMI/plutommi/Customer/ResGenerator/gcctmp/ccQHcaaa.s:6991   .text$_ZNSt4listIN10ThreadPool7JobDataESaIS1_EE5eraseESt14_List_iteratorIS1_RS1_PS1_E:00000000 __ZNSt4listIN10ThreadPool7JobDataESaIS1_EE5eraseESt14_List_iteratorIS1_RS1_PS1_E
d:/MTK/MTK2503/MTK2503/11CW1418SP4_03_CORETEK03AE_11C_V1_GPRS_MMI/plutommi/Customer/ResGenerator/gcctmp/ccQHcaaa.s:8168   .text$_ZSt10_ConstructIN10ThreadPool7JobDataES1_EvPT_RKT0_:00000000 __ZSt10_ConstructIN10ThreadPool7JobDataES1_EvPT_RKT0_
d:/MTK/MTK2503/MTK2503/11CW1418SP4_03_CORETEK03AE_11C_V1_GPRS_MMI/plutommi/Customer/ResGenerator/gcctmp/ccQHcaaa.s:8122   .text$_ZNSt4listIN10ThreadPool7JobDataESaIS1_EE14_M_create_nodeERKS1_:00000000 __ZNSt4listIN10ThreadPool7JobDataESaIS1_EE14_M_create_nodeERKS1_
d:/MTK/MTK2503/MTK2503/11CW1418SP4_03_CORETEK03AE_11C_V1_GPRS_MMI/plutommi/Customer/ResGenerator/gcctmp/ccQHcaaa.s:6921   .text$_ZNSt4listIN10ThreadPool7JobDataESaIS1_EE6insertESt14_List_iteratorIS1_RS1_PS1_ERKS1_:00000000 __ZNSt4listIN10ThreadPool7JobDataESaIS1_EE6insertESt14_List_iteratorIS1_RS1_PS1_ERKS1_
d:/MTK/MTK2503/MTK2503/11CW1418SP4_03_CORETEK03AE_11C_V1_GPRS_MMI/plutommi/Customer/ResGenerator/gcctmp/ccQHcaaa.s:8083   .text$_ZN9__gnu_cxxmiIPN10ThreadPool10ThreadDataES3_St6vectorIS2_SaIS2_EEEENS_17__normal_iteratorIT_T1_E15difference_typeERKSA_RKNS7_IT0_S9_EE:00000000 __ZN9__gnu_cxxmiIPN10ThreadPool10ThreadDataES3_St6vectorIS2_SaIS2_EEEENS_17__normal_iteratorIT_T1_E15difference_typeERKSA_RKNS7_IT0_S9_EE
d:/MTK/MTK2503/MTK2503/11CW1418SP4_03_CORETEK03AE_11C_V1_GPRS_MMI/plutommi/Customer/ResGenerator/gcctmp/ccQHcaaa.s:8064   .text$_ZSt8_DestroyIN10ThreadPool10ThreadDataEEvPT_:00000000 __ZSt8_DestroyIN10ThreadPool10ThreadDataEEvPT_
d:/MTK/MTK2503/MTK2503/11CW1418SP4_03_CORETEK03AE_11C_V1_GPRS_MMI/plutommi/Customer/ResGenerator/gcctmp/ccQHcaaa.s:8020   .text$_ZSt13__destroy_auxIN9__gnu_cxx17__normal_iteratorIPN10ThreadPool10ThreadDataESt6vectorIS3_SaIS3_EEEEEvT_S9_12__false_type:00000000 __ZSt13__destroy_auxIN9__gnu_cxx17__normal_iteratorIPN10ThreadPool10ThreadDataESt6vectorIS3_SaIS3_EEEEEvT_S9_12__false_type
d:/MTK/MTK2503/MTK2503/11CW1418SP4_03_CORETEK03AE_11C_V1_GPRS_MMI/plutommi/Customer/ResGenerator/gcctmp/ccQHcaaa.s:7956   .text$_ZSt6__copyIPN10ThreadPool10ThreadDataES2_ET0_T_S4_S3_St26random_access_iterator_tag:00000000 __ZSt6__copyIPN10ThreadPool10ThreadDataES2_ET0_T_S4_S3_St26random_access_iterator_tag
d:/MTK/MTK2503/MTK2503/11CW1418SP4_03_CORETEK03AE_11C_V1_GPRS_MMI/plutommi/Customer/ResGenerator/gcctmp/ccQHcaaa.s:7921   .text$_ZSt11__copy_aux2IPN10ThreadPool10ThreadDataES2_ET0_T_S4_S3_12__false_type:00000000 __ZSt11__copy_aux2IPN10ThreadPool10ThreadDataES2_ET0_T_S4_S3_12__false_type
d:/MTK/MTK2503/MTK2503/11CW1418SP4_03_CORETEK03AE_11C_V1_GPRS_MMI/plutommi/Customer/ResGenerator/gcctmp/ccQHcaaa.s:7880   .text$_ZSt10__copy_ni2IPN10ThreadPool10ThreadDataEN9__gnu_cxx17__normal_iteratorIS2_St6vectorIS1_SaIS1_EEEEET0_T_SA_S9_11__true_type:00000000 __ZSt10__copy_ni2IPN10ThreadPool10ThreadDataEN9__gnu_cxx17__normal_iteratorIS2_St6vectorIS1_SaIS1_EEEEET0_T_SA_S9_11__true_type
d:/MTK/MTK2503/MTK2503/11CW1418SP4_03_CORETEK03AE_11C_V1_GPRS_MMI/plutommi/Customer/ResGenerator/gcctmp/ccQHcaaa.s:7836   .text$_ZSt10__copy_ni1IN9__gnu_cxx17__normal_iteratorIPN10ThreadPool10ThreadDataESt6vectorIS3_SaIS3_EEEES8_ET0_T_SA_S9_11__true_type:00000000 __ZSt10__copy_ni1IN9__gnu_cxx17__normal_iteratorIPN10ThreadPool10ThreadDataESt6vectorIS3_SaIS3_EEEES8_ET0_T_SA_S9_11__true_type
d:/MTK/MTK2503/MTK2503/11CW1418SP4_03_CORETEK03AE_11C_V1_GPRS_MMI/plutommi/Customer/ResGenerator/gcctmp/ccQHcaaa.s:7801   .text$_ZSt4copyIN9__gnu_cxx17__normal_iteratorIPN10ThreadPool10ThreadDataESt6vectorIS3_SaIS3_EEEES8_ET0_T_SA_S9_:00000000 __ZSt4copyIN9__gnu_cxx17__normal_iteratorIPN10ThreadPool10ThreadDataESt6vectorIS3_SaIS3_EEEES8_ET0_T_SA_S9_
d:/MTK/MTK2503/MTK2503/11CW1418SP4_03_CORETEK03AE_11C_V1_GPRS_MMI/plutommi/Customer/ResGenerator/gcctmp/ccQHcaaa.s:6845   .text$_ZNSt6vectorIN10ThreadPool10ThreadDataESaIS1_EE5eraseEN9__gnu_cxx17__normal_iteratorIPS1_S3_EES7_:00000000 __ZNSt6vectorIN10ThreadPool10ThreadDataESaIS1_EE5eraseEN9__gnu_cxx17__normal_iteratorIPS1_S3_EES7_
d:/MTK/MTK2503/MTK2503/11CW1418SP4_03_CORETEK03AE_11C_V1_GPRS_MMI/plutommi/Customer/ResGenerator/gcctmp/ccQHcaaa.s:6790   .text$_ZNKSt14_List_iteratorIN10ThreadPool7JobDataERS1_PS1_EdeEv:00000000 __ZNKSt14_List_iteratorIN10ThreadPool7JobDataERS1_PS1_EdeEv
d:/MTK/MTK2503/MTK2503/11CW1418SP4_03_CORETEK03AE_11C_V1_GPRS_MMI/plutommi/Customer/ResGenerator/gcctmp/ccQHcaaa.s:5656   .text$_ZNSt19_List_iterator_base7_M_incrEv:00000000 __ZNSt19_List_iterator_base7_M_incrEv
d:/MTK/MTK2503/MTK2503/11CW1418SP4_03_CORETEK03AE_11C_V1_GPRS_MMI/plutommi/Customer/ResGenerator/gcctmp/ccQHcaaa.s:7175   .text$_ZNSt19_List_iterator_baseC2EPSt15_List_node_base:00000000 __ZNSt19_List_iterator_baseC2EPSt15_List_node_base
d:/MTK/MTK2503/MTK2503/11CW1418SP4_03_CORETEK03AE_11C_V1_GPRS_MMI/plutommi/Customer/ResGenerator/gcctmp/ccQHcaaa.s:6762   .text$_ZNSt14_List_iteratorIN10ThreadPool7JobDataERS1_PS1_EC1EPSt10_List_nodeIS1_E:00000000 __ZNSt14_List_iteratorIN10ThreadPool7JobDataERS1_PS1_EC1EPSt10_List_nodeIS1_E
d:/MTK/MTK2503/MTK2503/11CW1418SP4_03_CORETEK03AE_11C_V1_GPRS_MMI/plutommi/Customer/ResGenerator/gcctmp/ccQHcaaa.s:6814   .text$_ZSt8_DestroyIN9__gnu_cxx17__normal_iteratorIPN10ThreadPool10ThreadDataESt6vectorIS3_SaIS3_EEEEEvT_S9_:00000000 __ZSt8_DestroyIN9__gnu_cxx17__normal_iteratorIPN10ThreadPool10ThreadDataESt6vectorIS3_SaIS3_EEEEEvT_S9_
d:/MTK/MTK2503/MTK2503/11CW1418SP4_03_CORETEK03AE_11C_V1_GPRS_MMI/plutommi/Customer/ResGenerator/gcctmp/ccQHcaaa.s:7104   .text$_ZSt18uninitialized_copyIN9__gnu_cxx17__normal_iteratorIPN10ThreadPool10ThreadDataESt6vectorIS3_SaIS3_EEEES8_ET0_T_SA_S9_:00000000 __ZSt18uninitialized_copyIN9__gnu_cxx17__normal_iteratorIPN10ThreadPool10ThreadDataESt6vectorIS3_SaIS3_EEEES8_ET0_T_SA_S9_
d:/MTK/MTK2503/MTK2503/11CW1418SP4_03_CORETEK03AE_11C_V1_GPRS_MMI/plutommi/Customer/ResGenerator/gcctmp/ccQHcaaa.s:7754   .text$_ZNSt14__simple_allocIN10ThreadPool10ThreadDataESt24__default_alloc_templateILb1ELi0EEE8allocateEj:00000000 __ZNSt14__simple_allocIN10ThreadPool10ThreadDataESt24__default_alloc_templateILb1ELi0EEE8allocateEj
d:/MTK/MTK2503/MTK2503/11CW1418SP4_03_CORETEK03AE_11C_V1_GPRS_MMI/plutommi/Customer/ResGenerator/gcctmp/ccQHcaaa.s:7728   .text$_ZNSt18_Vector_alloc_baseIN10ThreadPool10ThreadDataESaIS1_ELb1EE11_M_allocateEj:00000000 __ZNSt18_Vector_alloc_baseIN10ThreadPool10ThreadDataESaIS1_ELb1EE11_M_allocateEj
d:/MTK/MTK2503/MTK2503/11CW1418SP4_03_CORETEK03AE_11C_V1_GPRS_MMI/plutommi/Customer/ResGenerator/gcctmp/ccQHcaaa.s:7703   .text$_ZNK9__gnu_cxx17__normal_iteratorIPN10ThreadPool10ThreadDataESt6vectorIS2_SaIS2_EEEdeEv:00000000 __ZNK9__gnu_cxx17__normal_iteratorIPN10ThreadPool10ThreadDataESt6vectorIS2_SaIS2_EEEdeEv
d:/MTK/MTK2503/MTK2503/11CW1418SP4_03_CORETEK03AE_11C_V1_GPRS_MMI/plutommi/Customer/ResGenerator/gcctmp/ccQHcaaa.s:7643   .text$_ZSt15__copy_backwardIPN10ThreadPool10ThreadDataES2_ET0_T_S4_S3_St26random_access_iterator_tag:00000000 __ZSt15__copy_backwardIPN10ThreadPool10ThreadDataES2_ET0_T_S4_S3_St26random_access_iterator_tag
d:/MTK/MTK2503/MTK2503/11CW1418SP4_03_CORETEK03AE_11C_V1_GPRS_MMI/plutommi/Customer/ResGenerator/gcctmp/ccQHcaaa.s:7617   .text$_ZSt19__iterator_categoryIPN10ThreadPool10ThreadDataEENSt15iterator_traitsIT_E17iterator_categoryERKS4_:00000000 __ZSt19__iterator_categoryIPN10ThreadPool10ThreadDataEENSt15iterator_traitsIT_E17iterator_categoryERKS4_
d:/MTK/MTK2503/MTK2503/11CW1418SP4_03_CORETEK03AE_11C_V1_GPRS_MMI/plutommi/Customer/ResGenerator/gcctmp/ccQHcaaa.s:7585   .text$_ZNSt24__copy_backward_dispatchIPN10ThreadPool10ThreadDataES2_12__false_typeE4copyES2_S2_S2_:00000000 __ZNSt24__copy_backward_dispatchIPN10ThreadPool10ThreadDataES2_12__false_typeE4copyES2_S2_S2_
d:/MTK/MTK2503/MTK2503/11CW1418SP4_03_CORETEK03AE_11C_V1_GPRS_MMI/plutommi/Customer/ResGenerator/gcctmp/ccQHcaaa.s:7555   .text$_ZSt19__copy_backward_auxIPN10ThreadPool10ThreadDataES2_ET0_T_S4_S3_:00000000 __ZSt19__copy_backward_auxIPN10ThreadPool10ThreadDataES2_ET0_T_S4_S3_
d:/MTK/MTK2503/MTK2503/11CW1418SP4_03_CORETEK03AE_11C_V1_GPRS_MMI/plutommi/Customer/ResGenerator/gcctmp/ccQHcaaa.s:7515   .text$_ZSt38__copy_backward_output_normal_iteratorIPN10ThreadPool10ThreadDataEN9__gnu_cxx17__normal_iteratorIS2_St6vectorIS1_SaIS1_EEEEET0_T_SA_S9_11__true_type:00000000 __ZSt38__copy_backward_output_normal_iteratorIPN10ThreadPool10ThreadDataEN9__gnu_cxx17__normal_iteratorIS2_St6vectorIS1_SaIS1_EEEEET0_T_SA_S9_11__true_type
d:/MTK/MTK2503/MTK2503/11CW1418SP4_03_CORETEK03AE_11C_V1_GPRS_MMI/plutommi/Customer/ResGenerator/gcctmp/ccQHcaaa.s:6378   .text$_ZNK9__gnu_cxx17__normal_iteratorIPN10ThreadPool10ThreadDataESt6vectorIS2_SaIS2_EEE4baseEv:00000000 __ZNK9__gnu_cxx17__normal_iteratorIPN10ThreadPool10ThreadDataESt6vectorIS2_SaIS2_EEE4baseEv
d:/MTK/MTK2503/MTK2503/11CW1418SP4_03_CORETEK03AE_11C_V1_GPRS_MMI/plutommi/Customer/ResGenerator/gcctmp/ccQHcaaa.s:7471   .text$_ZSt37__copy_backward_input_normal_iteratorIN9__gnu_cxx17__normal_iteratorIPN10ThreadPool10ThreadDataESt6vectorIS3_SaIS3_EEEES8_ET0_T_SA_S9_11__true_type:00000000 __ZSt37__copy_backward_input_normal_iteratorIN9__gnu_cxx17__normal_iteratorIPN10ThreadPool10ThreadDataESt6vectorIS3_SaIS3_EEEES8_ET0_T_SA_S9_11__true_type
d:/MTK/MTK2503/MTK2503/11CW1418SP4_03_CORETEK03AE_11C_V1_GPRS_MMI/plutommi/Customer/ResGenerator/gcctmp/ccQHcaaa.s:7436   .text$_ZSt13copy_backwardIN9__gnu_cxx17__normal_iteratorIPN10ThreadPool10ThreadDataESt6vectorIS3_SaIS3_EEEES8_ET0_T_SA_S9_:00000000 __ZSt13copy_backwardIN9__gnu_cxx17__normal_iteratorIPN10ThreadPool10ThreadDataESt6vectorIS3_SaIS3_EEEES8_ET0_T_SA_S9_
d:/MTK/MTK2503/MTK2503/11CW1418SP4_03_CORETEK03AE_11C_V1_GPRS_MMI/plutommi/Customer/ResGenerator/gcctmp/ccQHcaaa.s:6401   .text$_ZNSt6vectorIN10ThreadPool10ThreadDataESaIS1_EE13_M_insert_auxEN9__gnu_cxx17__normal_iteratorIPS1_S3_EERKS1_:00000000 __ZNSt6vectorIN10ThreadPool10ThreadDataESaIS1_EE13_M_insert_auxEN9__gnu_cxx17__normal_iteratorIPS1_S3_EERKS1_
d:/MTK/MTK2503/MTK2503/11CW1418SP4_03_CORETEK03AE_11C_V1_GPRS_MMI/plutommi/Customer/ResGenerator/gcctmp/ccQHcaaa.s:7412   .text$_ZNSt8iteratorISt26random_access_iterator_tagN10ThreadPool10ThreadDataEiPS2_RS2_EC2Ev:00000000 __ZNSt8iteratorISt26random_access_iterator_tagN10ThreadPool10ThreadDataEiPS2_RS2_EC2Ev
d:/MTK/MTK2503/MTK2503/11CW1418SP4_03_CORETEK03AE_11C_V1_GPRS_MMI/plutommi/Customer/ResGenerator/gcctmp/ccQHcaaa.s:6348   .text$_ZN9__gnu_cxx17__normal_iteratorIPN10ThreadPool10ThreadDataESt6vectorIS2_SaIS2_EEEC1ERKS3_:00000000 __ZN9__gnu_cxx17__normal_iteratorIPN10ThreadPool10ThreadDataESt6vectorIS2_SaIS2_EEEC1ERKS3_
d:/MTK/MTK2503/MTK2503/11CW1418SP4_03_CORETEK03AE_11C_V1_GPRS_MMI/plutommi/Customer/ResGenerator/gcctmp/ccQHcaaa.s:7149   .text$_ZnwjPv:00000000 __ZnwjPv
d:/MTK/MTK2503/MTK2503/11CW1418SP4_03_CORETEK03AE_11C_V1_GPRS_MMI/plutommi/Customer/ResGenerator/gcctmp/ccQHcaaa.s:6305   .text$_ZSt10_ConstructIN10ThreadPool10ThreadDataES1_EvPT_RKT0_:00000000 __ZSt10_ConstructIN10ThreadPool10ThreadDataES1_EvPT_RKT0_
d:/MTK/MTK2503/MTK2503/11CW1418SP4_03_CORETEK03AE_11C_V1_GPRS_MMI/plutommi/Customer/ResGenerator/gcctmp/ccQHcaaa.s:5615   .text$_ZSt8_DestroyIPN10ThreadPool10ThreadDataEEvT_S3_:00000000 __ZSt8_DestroyIPN10ThreadPool10ThreadDataEEvT_S3_
d:/MTK/MTK2503/MTK2503/11CW1418SP4_03_CORETEK03AE_11C_V1_GPRS_MMI/plutommi/Customer/ResGenerator/gcctmp/ccQHcaaa.s:6269   .text$_ZNSt14__simple_allocIN10ThreadPool10ThreadDataESt24__default_alloc_templateILb1ELi0EEE10deallocateEPS1_j:00000000 __ZNSt14__simple_allocIN10ThreadPool10ThreadDataESt24__default_alloc_templateILb1ELi0EEE10deallocateEPS1_j
d:/MTK/MTK2503/MTK2503/11CW1418SP4_03_CORETEK03AE_11C_V1_GPRS_MMI/plutommi/Customer/ResGenerator/gcctmp/ccQHcaaa.s:6242   .text$_ZNSt18_Vector_alloc_baseIN10ThreadPool10ThreadDataESaIS1_ELb1EE13_M_deallocateEPS1_j:00000000 __ZNSt18_Vector_alloc_baseIN10ThreadPool10ThreadDataESaIS1_ELb1EE13_M_deallocateEPS1_j
d:/MTK/MTK2503/MTK2503/11CW1418SP4_03_CORETEK03AE_11C_V1_GPRS_MMI/plutommi/Customer/ResGenerator/gcctmp/ccQHcaaa.s:6205   .text$_ZNSt12_Vector_baseIN10ThreadPool10ThreadDataESaIS1_EED2Ev:00000000 __ZNSt12_Vector_baseIN10ThreadPool10ThreadDataESaIS1_EED2Ev
d:/MTK/MTK2503/MTK2503/11CW1418SP4_03_CORETEK03AE_11C_V1_GPRS_MMI/plutommi/Customer/ResGenerator/gcctmp/ccQHcaaa.s:6179   .text$_ZNSt18_Vector_alloc_baseIN10ThreadPool10ThreadDataESaIS1_ELb1EEC2ERKS2_:00000000 __ZNSt18_Vector_alloc_baseIN10ThreadPool10ThreadDataESaIS1_ELb1EEC2ERKS2_
d:/MTK/MTK2503/MTK2503/11CW1418SP4_03_CORETEK03AE_11C_V1_GPRS_MMI/plutommi/Customer/ResGenerator/gcctmp/ccQHcaaa.s:6151   .text$_ZNSt12_Vector_baseIN10ThreadPool10ThreadDataESaIS1_EEC2ERKS2_:00000000 __ZNSt12_Vector_baseIN10ThreadPool10ThreadDataESaIS1_EEC2ERKS2_
d:/MTK/MTK2503/MTK2503/11CW1418SP4_03_CORETEK03AE_11C_V1_GPRS_MMI/plutommi/Customer/ResGenerator/gcctmp/ccQHcaaa.s:5575   .text$_ZNSt4listIN10ThreadPool7JobDataESaIS1_EE9pop_frontEv:00000000 __ZNSt4listIN10ThreadPool7JobDataESaIS1_EE9pop_frontEv
d:/MTK/MTK2503/MTK2503/11CW1418SP4_03_CORETEK03AE_11C_V1_GPRS_MMI/plutommi/Customer/ResGenerator/gcctmp/ccQHcaaa.s:5684   .text$_ZNKSt19_List_iterator_baseeqERKS_:00000000 __ZNKSt19_List_iterator_baseeqERKS_
GAS LISTING d:/MTK/MTK2503/MTK2503/11CW1418SP4_03_CORETEK03AE_11C_V1_GPRS_MMI/plutommi/Customer/ResGenerator/gcctmp/ccQHcaaa.s 			page 175


d:/MTK/MTK2503/MTK2503/11CW1418SP4_03_CORETEK03AE_11C_V1_GPRS_MMI/plutommi/Customer/ResGenerator/gcctmp/ccQHcaaa.s:5737   .text$_ZN10ThreadPool15CheckThreadStopEv:00000000 __ZN10ThreadPool15CheckThreadStopEv
d:/MTK/MTK2503/MTK2503/11CW1418SP4_03_CORETEK03AE_11C_V1_GPRS_MMI/plutommi/Customer/ResGenerator/gcctmp/ccQHcaaa.s:5536   .text$_ZNSt4listIN10ThreadPool7JobDataESaIS1_EE10push_frontERKS1_:00000000 __ZNSt4listIN10ThreadPool7JobDataESaIS1_EE10push_frontERKS1_
d:/MTK/MTK2503/MTK2503/11CW1418SP4_03_CORETEK03AE_11C_V1_GPRS_MMI/plutommi/Customer/ResGenerator/gcctmp/ccQHcaaa.s:5494   .text$_ZNSt4listIN10ThreadPool7JobDataESaIS1_EE9push_backERKS1_:00000000 __ZNSt4listIN10ThreadPool7JobDataESaIS1_EE9push_backERKS1_
d:/MTK/MTK2503/MTK2503/11CW1418SP4_03_CORETEK03AE_11C_V1_GPRS_MMI/plutommi/Customer/ResGenerator/gcctmp/ccQHcaaa.s:5455   .text$_ZNSt6vectorIN10ThreadPool10ThreadDataESaIS1_EE5clearEv:00000000 __ZNSt6vectorIN10ThreadPool10ThreadDataESaIS1_EE5clearEv
d:/MTK/MTK2503/MTK2503/11CW1418SP4_03_CORETEK03AE_11C_V1_GPRS_MMI/plutommi/Customer/ResGenerator/gcctmp/ccQHcaaa.s:5423   .text$_ZNSt4listIN10ThreadPool7JobDataESaIS1_EE5clearEv:00000000 __ZNSt4listIN10ThreadPool7JobDataESaIS1_EE5clearEv
d:/MTK/MTK2503/MTK2503/11CW1418SP4_03_CORETEK03AE_11C_V1_GPRS_MMI/plutommi/Customer/ResGenerator/gcctmp/ccQHcaaa.s:5399   .text$_ZNKSt14_List_iteratorIN10ThreadPool7JobDataERS1_PS1_EptEv:00000000 __ZNKSt14_List_iteratorIN10ThreadPool7JobDataERS1_PS1_EptEv
d:/MTK/MTK2503/MTK2503/11CW1418SP4_03_CORETEK03AE_11C_V1_GPRS_MMI/plutommi/Customer/ResGenerator/gcctmp/ccQHcaaa.s:5359   .text$_ZNSt14_List_iteratorIN10ThreadPool7JobDataERS1_PS1_EppEi:00000000 __ZNSt14_List_iteratorIN10ThreadPool7JobDataERS1_PS1_EppEi
d:/MTK/MTK2503/MTK2503/11CW1418SP4_03_CORETEK03AE_11C_V1_GPRS_MMI/plutommi/Customer/ResGenerator/gcctmp/ccQHcaaa.s:5711   .text$_ZNKSt19_List_iterator_baseneERKS_:00000000 __ZNKSt19_List_iterator_baseneERKS_
d:/MTK/MTK2503/MTK2503/11CW1418SP4_03_CORETEK03AE_11C_V1_GPRS_MMI/plutommi/Customer/ResGenerator/gcctmp/ccQHcaaa.s:5328   .text$_ZNSt4listIN10ThreadPool7JobDataESaIS1_EE3endEv:00000000 __ZNSt4listIN10ThreadPool7JobDataESaIS1_EE3endEv
d:/MTK/MTK2503/MTK2503/11CW1418SP4_03_CORETEK03AE_11C_V1_GPRS_MMI/plutommi/Customer/ResGenerator/gcctmp/ccQHcaaa.s:6121   .text$_ZNSt14_List_iteratorIN10ThreadPool7JobDataERS1_PS1_EC1ERKS4_:00000000 __ZNSt14_List_iteratorIN10ThreadPool7JobDataERS1_PS1_EC1ERKS4_
d:/MTK/MTK2503/MTK2503/11CW1418SP4_03_CORETEK03AE_11C_V1_GPRS_MMI/plutommi/Customer/ResGenerator/gcctmp/ccQHcaaa.s:5294   .text$_ZNSt4listIN10ThreadPool7JobDataESaIS1_EE5beginEv:00000000 __ZNSt4listIN10ThreadPool7JobDataESaIS1_EE5beginEv
d:/MTK/MTK2503/MTK2503/11CW1418SP4_03_CORETEK03AE_11C_V1_GPRS_MMI/plutommi/Customer/ResGenerator/gcctmp/ccQHcaaa.s:5272   .text$_ZNK9__gnu_cxx17__normal_iteratorIPN10ThreadPool10ThreadDataESt6vectorIS2_SaIS2_EEEptEv:00000000 __ZNK9__gnu_cxx17__normal_iteratorIPN10ThreadPool10ThreadDataESt6vectorIS2_SaIS2_EEEptEv
d:/MTK/MTK2503/MTK2503/11CW1418SP4_03_CORETEK03AE_11C_V1_GPRS_MMI/plutommi/Customer/ResGenerator/gcctmp/ccQHcaaa.s:5249   .text$_ZN9__gnu_cxx17__normal_iteratorIPN10ThreadPool10ThreadDataESt6vectorIS2_SaIS2_EEEppEv:00000000 __ZN9__gnu_cxx17__normal_iteratorIPN10ThreadPool10ThreadDataESt6vectorIS2_SaIS2_EEEppEv
d:/MTK/MTK2503/MTK2503/11CW1418SP4_03_CORETEK03AE_11C_V1_GPRS_MMI/plutommi/Customer/ResGenerator/gcctmp/ccQHcaaa.s:5211   .text$_ZN9__gnu_cxxneIPN10ThreadPool10ThreadDataESt6vectorIS2_SaIS2_EEEEbRKNS_17__normal_iteratorIT_T0_EESC_:00000000 __ZN9__gnu_cxxneIPN10ThreadPool10ThreadDataESt6vectorIS2_SaIS2_EEEEbRKNS_17__normal_iteratorIT_T0_EESC_
d:/MTK/MTK2503/MTK2503/11CW1418SP4_03_CORETEK03AE_11C_V1_GPRS_MMI/plutommi/Customer/ResGenerator/gcctmp/ccQHcaaa.s:5094   .text$_ZNSt6vectorIN10ThreadPool10ThreadDataESaIS1_EE3endEv:00000000 __ZNSt6vectorIN10ThreadPool10ThreadDataESaIS1_EE3endEv
d:/MTK/MTK2503/MTK2503/11CW1418SP4_03_CORETEK03AE_11C_V1_GPRS_MMI/plutommi/Customer/ResGenerator/gcctmp/ccQHcaaa.s:5183   .text$_ZNSt6vectorIN10ThreadPool10ThreadDataESaIS1_EE5beginEv:00000000 __ZNSt6vectorIN10ThreadPool10ThreadDataESaIS1_EE5beginEv
d:/MTK/MTK2503/MTK2503/11CW1418SP4_03_CORETEK03AE_11C_V1_GPRS_MMI/plutommi/Customer/ResGenerator/gcctmp/ccQHcaaa.s:4246   .text:00000fc2 __ZN10ThreadPool21GetWorkingThreadCountEv
d:/MTK/MTK2503/MTK2503/11CW1418SP4_03_CORETEK03AE_11C_V1_GPRS_MMI/plutommi/Customer/ResGenerator/gcctmp/ccQHcaaa.s:5129   .text$_ZNSt6vectorIN10ThreadPool10ThreadDataESaIS1_EE9push_backERKS1_:00000000 __ZNSt6vectorIN10ThreadPool10ThreadDataESaIS1_EE9push_backERKS1_
d:/MTK/MTK2503/MTK2503/11CW1418SP4_03_CORETEK03AE_11C_V1_GPRS_MMI/plutommi/Customer/ResGenerator/gcctmp/ccQHcaaa.s:3967   .text:00000d0c __ZN10ThreadPool7DestroyEv
d:/MTK/MTK2503/MTK2503/11CW1418SP4_03_CORETEK03AE_11C_V1_GPRS_MMI/plutommi/Customer/ResGenerator/gcctmp/ccQHcaaa.s:6001   .text$_ZNSt14__simple_allocISt10_List_nodeIN10ThreadPool7JobDataEESt24__default_alloc_templateILb1ELi0EEE10deallocateEPS3_j:00000000 __ZNSt14__simple_allocISt10_List_nodeIN10ThreadPool7JobDataEESt24__default_alloc_templateILb1ELi0EEE10deallocateEPS3_j
d:/MTK/MTK2503/MTK2503/11CW1418SP4_03_CORETEK03AE_11C_V1_GPRS_MMI/plutommi/Customer/ResGenerator/gcctmp/ccQHcaaa.s:5975   .text$_ZNSt16_List_alloc_baseIN10ThreadPool7JobDataESaIS1_ELb1EE11_M_put_nodeEPSt10_List_nodeIS1_E:00000000 __ZNSt16_List_alloc_baseIN10ThreadPool7JobDataESaIS1_ELb1EE11_M_put_nodeEPSt10_List_nodeIS1_E
d:/MTK/MTK2503/MTK2503/11CW1418SP4_03_CORETEK03AE_11C_V1_GPRS_MMI/plutommi/Customer/ResGenerator/gcctmp/ccQHcaaa.s:7392   .text$_ZSt8_DestroyIN10ThreadPool7JobDataEEvPT_:00000000 __ZSt8_DestroyIN10ThreadPool7JobDataEEvPT_
d:/MTK/MTK2503/MTK2503/11CW1418SP4_03_CORETEK03AE_11C_V1_GPRS_MMI/plutommi/Customer/ResGenerator/gcctmp/ccQHcaaa.s:6036   .text$_ZNSt10_List_baseIN10ThreadPool7JobDataESaIS1_EE7__clearEv:00000000 __ZNSt10_List_baseIN10ThreadPool7JobDataESaIS1_EE7__clearEv
d:/MTK/MTK2503/MTK2503/11CW1418SP4_03_CORETEK03AE_11C_V1_GPRS_MMI/plutommi/Customer/ResGenerator/gcctmp/ccQHcaaa.s:3715   .text:000009ca __ZN10ThreadPool6CreateEi
d:/MTK/MTK2503/MTK2503/11CW1418SP4_03_CORETEK03AE_11C_V1_GPRS_MMI/plutommi/Customer/ResGenerator/gcctmp/ccQHcaaa.s:5007   .text$_ZNSt6vectorIN10ThreadPool10ThreadDataESaIS1_EED1Ev:00000000 __ZNSt6vectorIN10ThreadPool10ThreadDataESaIS1_EED1Ev
d:/MTK/MTK2503/MTK2503/11CW1418SP4_03_CORETEK03AE_11C_V1_GPRS_MMI/plutommi/Customer/ResGenerator/gcctmp/ccQHcaaa.s:4977   .text$_ZNSt6vectorIN10ThreadPool10ThreadDataESaIS1_EEC1ERKS2_:00000000 __ZNSt6vectorIN10ThreadPool10ThreadDataESaIS1_EEC1ERKS2_
d:/MTK/MTK2503/MTK2503/11CW1418SP4_03_CORETEK03AE_11C_V1_GPRS_MMI/plutommi/Customer/ResGenerator/gcctmp/ccQHcaaa.s:4955   .text$_ZNSaIN10ThreadPool10ThreadDataEED1Ev:00000000 __ZNSaIN10ThreadPool10ThreadDataEED1Ev
d:/MTK/MTK2503/MTK2503/11CW1418SP4_03_CORETEK03AE_11C_V1_GPRS_MMI/plutommi/Customer/ResGenerator/gcctmp/ccQHcaaa.s:4935   .text$_ZNSaIN10ThreadPool10ThreadDataEEC1Ev:00000000 __ZNSaIN10ThreadPool10ThreadDataEEC1Ev
d:/MTK/MTK2503/MTK2503/11CW1418SP4_03_CORETEK03AE_11C_V1_GPRS_MMI/plutommi/Customer/ResGenerator/gcctmp/ccQHcaaa.s:3286   .text$_ZNSt4listIN10ThreadPool7JobDataESaIS1_EED1Ev:00000000 __ZNSt4listIN10ThreadPool7JobDataESaIS1_EED1Ev
d:/MTK/MTK2503/MTK2503/11CW1418SP4_03_CORETEK03AE_11C_V1_GPRS_MMI/plutommi/Customer/ResGenerator/gcctmp/ccQHcaaa.s:5940   .text$_ZNSt10_List_baseIN10ThreadPool7JobDataESaIS1_EED2Ev:00000000 __ZNSt10_List_baseIN10ThreadPool7JobDataESaIS1_EED2Ev
d:/MTK/MTK2503/MTK2503/11CW1418SP4_03_CORETEK03AE_11C_V1_GPRS_MMI/plutommi/Customer/ResGenerator/gcctmp/ccQHcaaa.s:5895   .text$_ZNSt14__simple_allocISt10_List_nodeIN10ThreadPool7JobDataEESt24__default_alloc_templateILb1ELi0EEE8allocateEj:00000000 __ZNSt14__simple_allocISt10_List_nodeIN10ThreadPool7JobDataEESt24__default_alloc_templateILb1ELi0EEE8allocateEj
d:/MTK/MTK2503/MTK2503/11CW1418SP4_03_CORETEK03AE_11C_V1_GPRS_MMI/plutommi/Customer/ResGenerator/gcctmp/ccQHcaaa.s:5872   .text$_ZNSt16_List_alloc_baseIN10ThreadPool7JobDataESaIS1_ELb1EE11_M_get_nodeEv:00000000 __ZNSt16_List_alloc_baseIN10ThreadPool7JobDataESaIS1_ELb1EE11_M_get_nodeEv
d:/MTK/MTK2503/MTK2503/11CW1418SP4_03_CORETEK03AE_11C_V1_GPRS_MMI/plutommi/Customer/ResGenerator/gcctmp/ccQHcaaa.s:5854   .text$_ZNSt16_List_alloc_baseIN10ThreadPool7JobDataESaIS1_ELb1EEC2ERKS2_:00000000 __ZNSt16_List_alloc_baseIN10ThreadPool7JobDataESaIS1_ELb1EEC2ERKS2_
d:/MTK/MTK2503/MTK2503/11CW1418SP4_03_CORETEK03AE_11C_V1_GPRS_MMI/plutommi/Customer/ResGenerator/gcctmp/ccQHcaaa.s:5804   .text$_ZNSt10_List_baseIN10ThreadPool7JobDataESaIS1_EEC2ERKS2_:00000000 __ZNSt10_List_baseIN10ThreadPool7JobDataESaIS1_EEC2ERKS2_
d:/MTK/MTK2503/MTK2503/11CW1418SP4_03_CORETEK03AE_11C_V1_GPRS_MMI/plutommi/Customer/ResGenerator/gcctmp/ccQHcaaa.s:5773   .text$_ZNSt4listIN10ThreadPool7JobDataESaIS1_EEC1ERKS2_:00000000 __ZNSt4listIN10ThreadPool7JobDataESaIS1_EEC1ERKS2_
d:/MTK/MTK2503/MTK2503/11CW1418SP4_03_CORETEK03AE_11C_V1_GPRS_MMI/plutommi/Customer/ResGenerator/gcctmp/ccQHcaaa.s:4915   .text$_ZNSaIN10ThreadPool7JobDataEED1Ev:00000000 __ZNSaIN10ThreadPool7JobDataEED1Ev
d:/MTK/MTK2503/MTK2503/11CW1418SP4_03_CORETEK03AE_11C_V1_GPRS_MMI/plutommi/Customer/ResGenerator/gcctmp/ccQHcaaa.s:4893   .text$_ZNSaIN10ThreadPool7JobDataEEC1Ev:00000000 __ZNSaIN10ThreadPool7JobDataEEC1Ev
d:/MTK/MTK2503/MTK2503/11CW1418SP4_03_CORETEK03AE_11C_V1_GPRS_MMI/plutommi/Customer/ResGenerator/gcctmp/ccQHcaaa.s:4346   .text:000010a4 __ZN10ThreadPool13AddJobToQueueEPFmPvES0_PNS_10IRunObjectENS_14ThreadPriorityE
d:/MTK/MTK2503/MTK2503/11CW1418SP4_03_CORETEK03AE_11C_V1_GPRS_MMI/plutommi/Customer/ResGenerator/gcctmp/ccQHcaaa.s:7371   .text$_ZNK9__gnu_cxx17__normal_iteratorIPKN10ThreadPool10ThreadDataESt6vectorIS2_SaIS2_EEE4baseEv:00000000 __ZNK9__gnu_cxx17__normal_iteratorIPKN10ThreadPool10ThreadDataESt6vectorIS2_SaIS2_EEE4baseEv
d:/MTK/MTK2503/MTK2503/11CW1418SP4_03_CORETEK03AE_11C_V1_GPRS_MMI/plutommi/Customer/ResGenerator/gcctmp/ccQHcaaa.s:7333   .text$_ZN9__gnu_cxxmiIPKN10ThreadPool10ThreadDataES4_St6vectorIS2_SaIS2_EEEENS_17__normal_iteratorIT_T1_E15difference_typeERKSB_RKNS8_IT0_SA_EE:00000000 __ZN9__gnu_cxxmiIPKN10ThreadPool10ThreadDataES4_St6vectorIS2_SaIS2_EEEENS_17__normal_iteratorIT_T1_E15difference_typeERKSB_RKNS8_IT0_SA_EE
d:/MTK/MTK2503/MTK2503/11CW1418SP4_03_CORETEK03AE_11C_V1_GPRS_MMI/plutommi/Customer/ResGenerator/gcctmp/ccQHcaaa.s:7300   .text$_ZNKSt6vectorIN10ThreadPool10ThreadDataESaIS1_EE3endEv:00000000 __ZNKSt6vectorIN10ThreadPool10ThreadDataESaIS1_EE3endEv
d:/MTK/MTK2503/MTK2503/11CW1418SP4_03_CORETEK03AE_11C_V1_GPRS_MMI/plutommi/Customer/ResGenerator/gcctmp/ccQHcaaa.s:8286   .text$_ZNSt8iteratorISt26random_access_iterator_tagN10ThreadPool10ThreadDataEiPKS2_RS3_EC2Ev:00000000 __ZNSt8iteratorISt26random_access_iterator_tagN10ThreadPool10ThreadDataEiPKS2_RS3_EC2Ev
d:/MTK/MTK2503/MTK2503/11CW1418SP4_03_CORETEK03AE_11C_V1_GPRS_MMI/plutommi/Customer/ResGenerator/gcctmp/ccQHcaaa.s:7270   .text$_ZN9__gnu_cxx17__normal_iteratorIPKN10ThreadPool10ThreadDataESt6vectorIS2_SaIS2_EEEC1ERKS4_:00000000 __ZN9__gnu_cxx17__normal_iteratorIPKN10ThreadPool10ThreadDataESt6vectorIS2_SaIS2_EEEC1ERKS4_
d:/MTK/MTK2503/MTK2503/11CW1418SP4_03_CORETEK03AE_11C_V1_GPRS_MMI/plutommi/Customer/ResGenerator/gcctmp/ccQHcaaa.s:7239   .text$_ZNKSt6vectorIN10ThreadPool10ThreadDataESaIS1_EE5beginEv:00000000 __ZNKSt6vectorIN10ThreadPool10ThreadDataESaIS1_EE5beginEv
d:/MTK/MTK2503/MTK2503/11CW1418SP4_03_CORETEK03AE_11C_V1_GPRS_MMI/plutommi/Customer/ResGenerator/gcctmp/ccQHcaaa.s:7200   .text$_ZNKSt6vectorIN10ThreadPool10ThreadDataESaIS1_EE4sizeEv:00000000 __ZNKSt6vectorIN10ThreadPool10ThreadDataESaIS1_EE4sizeEv

UNDEFINED SYMBOLS
__Unwind_SjLj_Resume
___gxx_personality_sj0
__Unwind_SjLj_Register
__Unwind_SjLj_Unregister
_InitializeCriticalSection@4
__ZTIPKc
_DeleteCriticalSection@4
_CreateEventA@16
_GetLastError@0
_ResumeThread@4
GAS LISTING d:/MTK/MTK2503/MTK2503/11CW1418SP4_03_CORETEK03AE_11C_V1_GPRS_MMI/plutommi/Customer/ResGenerator/gcctmp/ccQHcaaa.s 			page 176


_SetEvent@4
_Sleep@4
_CloseHandle@4
_EnterCriticalSection@4
_WaitForSingleObject@8
_LeaveCriticalSection@4
_GetCurrentThreadId@0
_WaitForMultipleObjects@16
_ResetEvent@4
__ZTVN10__cxxabiv117__class_type_infoE
___cxa_rethrow
___cxa_end_catch
___cxa_begin_catch
__beginthreadex
__assert
__ZNSt24__default_alloc_templateILb1ELi0EE10deallocateEPvj
___cxa_throw
___cxa_allocate_exception
_reslog_adaptor_log
__ZNSt24__default_alloc_templateILb1ELi0EE8allocateEj
__ZdlPv
