GAS LISTING d:/MTK/MTK2503/MTK2503/11CW1418SP4_03_CORETEK03AE_11C_V1_GPRS_MMI/plutommi/Customer/ResGenerator/gcctmp/ccaodaaa.s 			page 1


   1              		.file	"WriteImgRes.c"
   4              		.text
   5              	Ltext0:
 2435              	LC0:
 2436 0000 424D5000 		.ascii "BMP\0"
 2437              	LC1:
 2438 0004 50424D00 		.ascii "PBM\0"
 2439              	LC2:
 2440 0008 4A504700 		.ascii "JPG\0"
 2441              	LC3:
 2442 000c 47494600 		.ascii "GIF\0"
 2443              	LC4:
 2444 0010 41424D00 		.ascii "ABM\0"
 2445              	LC5:
 2446 0014 41564900 		.ascii "AVI\0"
 2447              	LC6:
 2448 0018 33475000 		.ascii "3GP\0"
 2449              	LC7:
 2450 001c 4D503400 		.ascii "MP4\0"
 2451              	LC8:
 2452 0020 525600   		.ascii "RV\0"
 2453              	LC9:
 2454 0023 524D00   		.ascii "RM\0"
 2455              	LC10:
 2456 0026 524D5642 		.ascii "RMVB\0"
 2456      00
 2457              	LC11:
 2458 002b 504E4700 		.ascii "PNG\0"
 2459              	LC12:
 2460 002f 50504E00 		.ascii "PPN\0"
 2461              	LC13:
 2462 0033 4D334400 		.ascii "M3D\0"
 2463              	LC14:
 2464 0037 434D5000 		.ascii "CMP\0"
 2465              	LC15:
 2466 003b 56495300 		.ascii "VIS\0"
 2467              	LC16:
 2468 003f 53564700 		.ascii "SVG\0"
 2469              	LC17:
 2470 0043 54544600 		.ascii "TTF\0"
 2471              	LC18:
 2472 0047 53544600 		.ascii "STF\0"
 2473              	LC19:
 2474 004b 43434300 		.ascii "CCC\0"
 2475              	LC20:
 2476 004f 4B545800 		.ascii "KTX\0"
 2477 0053 8DB60000 		.align 32
 2477      00008DBC 
 2477      27000000 
 2477      00
 2478              	_image_resource_info:
 2479 0060 00000000 		.long	LC0
 2480 0064 01       		.byte	1
 2481 0065 000000   		.space 3
 2482 0068 04000000 		.long	LC1
 2483 006c 04       		.byte	4
 2484 006d 000000   		.space 3
GAS LISTING d:/MTK/MTK2503/MTK2503/11CW1418SP4_03_CORETEK03AE_11C_V1_GPRS_MMI/plutommi/Customer/ResGenerator/gcctmp/ccaodaaa.s 			page 2


 2485 0070 08000000 		.long	LC2
 2486 0074 09       		.byte	9
 2487 0075 000000   		.space 3
 2488 0078 0C000000 		.long	LC3
 2489 007c 03       		.byte	3
 2490 007d 000000   		.space 3
 2491 0080 10000000 		.long	LC4
 2492 0084 28       		.byte	40
 2493 0085 000000   		.space 3
 2494 0088 14000000 		.long	LC5
 2495 008c 0C       		.byte	12
 2496 008d 000000   		.space 3
 2497 0090 18000000 		.long	LC6
 2498 0094 0E       		.byte	14
 2499 0095 000000   		.space 3
 2500 0098 1C000000 		.long	LC7
 2501 009c 10       		.byte	16
 2502 009d 000000   		.space 3
 2503 00a0 20000000 		.long	LC8
 2504 00a4 4A       		.byte	74
 2505 00a5 000000   		.space 3
 2506 00a8 23000000 		.long	LC9
 2507 00ac 4C       		.byte	76
 2508 00ad 000000   		.space 3
 2509 00b0 26000000 		.long	LC10
 2510 00b4 4E       		.byte	78
 2511 00b5 000000   		.space 3
 2512 00b8 2B000000 		.long	LC11
 2513 00bc 13       		.byte	19
 2514 00bd 000000   		.space 3
 2515 00c0 2F000000 		.long	LC12
 2516 00c4 48       		.byte	72
 2517 00c5 000000   		.space 3
 2518 00c8 33000000 		.long	LC13
 2519 00cc 19       		.byte	25
 2520 00cd 000000   		.space 3
 2521 00d0 37000000 		.long	LC14
 2522 00d4 1D       		.byte	29
 2523 00d5 000000   		.space 3
 2524 00d8 3B000000 		.long	LC15
 2525 00dc 31       		.byte	49
 2526 00dd 000000   		.space 3
 2527 00e0 3F000000 		.long	LC16
 2528 00e4 1B       		.byte	27
 2529 00e5 000000   		.space 3
 2530 00e8 43000000 		.long	LC17
 2531 00ec 49       		.byte	73
 2532 00ed 000000   		.space 3
 2533 00f0 47000000 		.long	LC18
 2534 00f4 49       		.byte	73
 2535 00f5 000000   		.space 3
 2536 00f8 4B000000 		.long	LC19
 2537 00fc 49       		.byte	73
 2538 00fd 000000   		.space 3
 2539 0100 4F000000 		.long	LC20
 2540 0104 43       		.byte	67
 2541 0105 000000   		.space 3
GAS LISTING d:/MTK/MTK2503/MTK2503/11CW1418SP4_03_CORETEK03AE_11C_V1_GPRS_MMI/plutommi/Customer/ResGenerator/gcctmp/ccaodaaa.s 			page 3


 2558              	.globl _image_idx
 2559              		.data
 2560              		.align 4
 2561              	_image_idx:
 2562 0000 01000000 		.long	1
 2563              	.globl _g_resimg_count
 2564 0004 00000000 		.bss
 2564      00000000 
 2564      00000000 
 2565              		.align 4
 2566              	_g_resimg_count:
 2567 0000 00000000 		.space 4
 2568              	.lcomm _g_mmi_res_font_id,16
 2569              	.globl _g_mmi_res_font_flags
 2570              		.align 4
 2571              	_g_mmi_res_font_flags:
 2572 0004 00000000 		.space 4
 2573              	.lcomm _g_mmi_res_font_userdata,16
 2574              	.lcomm _g_font_size,16
 2575              	.globl _g_mmi_res_nfb_used
 2576              		.align 4
 2577              	_g_mmi_res_nfb_used:
 2578 0008 00000000 		.space 4
 2579              		.text
 2580              	LC21:
 2581 0108 556E6B6E 		.ascii "Unknown Id\0"
 2581      6F776E20 
 2581      496400
 2582 0113 00000000 		.space 245
 2582      00000000 
 2582      00000000 
 2582      00000000 
 2582      00000000 
 2583              	LC22:
 2584 0208 556E6B6E 		.ascii "Unknown File\0"
 2584      6F776E20 
 2584      46696C65 
 2584      00
 2585 0215 00000000 		.space 243
 2585      00000000 
 2585      00000000 
 2585      00000000 
 2585      00000000 
 2586              	LC23:
 2587 0308 2E5C5C64 		.ascii ".\\\\debug\\\\image_load_fail.txt\0"
 2587      65627567 
 2587      5C5C696D 
 2587      6167655F 
 2587      6C6F6164 
 2588              	LC24:
 2589 0326 6100     		.ascii "a\0"
 2590              	LC25:
 2591 0328 7700     		.ascii "w\0"
 2592 032a 90909090 		.align 32
 2592      90909090 
 2592      90909090 
 2592      90909090 
GAS LISTING d:/MTK/MTK2503/MTK2503/11CW1418SP4_03_CORETEK03AE_11C_V1_GPRS_MMI/plutommi/Customer/ResGenerator/gcctmp/ccaodaaa.s 			page 4


 2592      90909090 
 2593              	LC26:
 2594 0340 23232323 		.ascii "###############################################\12\0"
 2594      23232323 
 2594      23232323 
 2594      23232323 
 2594      23232323 
 2595 0371 EB0D9090 		.align 32
 2595      90909090 
 2595      90909090 
 2595      909090
 2596              	LC27:
 2597 0380 23202020 		.ascii "#       Resgen Failed Image Loading Log       #\12\0"
 2597      20202020 
 2597      52657367 
 2597      656E2046 
 2597      61696C65 
 2598 03b1 EB0D9090 		.align 32
 2598      90909090 
 2598      90909090 
 2598      909090
 2599              	LC28:
 2600 03c0 49445F4E 		.ascii "ID_NAME \11ID\11FILE_PATH\11FORCE_TYPE\12\0"
 2600      414D4520 
 2600      09494409 
 2600      46494C45 
 2600      5F504154 
 2601              	LC29:
 2602 03e2 25730925 		.ascii "%s\11%d\11%s\11%d\12\0"
 2602      64092573 
 2602      0925640A 
 2602      00
 2609              	_LogILoadFail:
   1:../../MMI/Resource/WriteImgRes.c **** #include "mmi_features.h"
   2:../../MMI/Resource/WriteImgRes.c **** #include "MMIDataType.h"
   3:../../MMI/Resource/WriteImgRes.c **** #include "CustDataRes.h"
   4:../../MMI/Resource/WriteImgRes.c **** #include "CustDataProts.h" // for FORCE_BMP
   5:../../MMI/Resource/WriteImgRes.c **** #include <string.h>
   6:../../MMI/Resource/WriteImgRes.c **** #include <stdio.h>
   7:../../MMI/Resource/WriteImgRes.c **** //#include <stdarg.h>
   8:../../MMI/Resource/WriteImgRes.c **** #include <assert.h>
   9:../../MMI/Resource/WriteImgRes.c **** 
  10:../../MMI/Resource/WriteImgRes.c **** #define WIN32_LEAN_AND_MEAN
  11:../../MMI/Resource/WriteImgRes.c **** #include "windows.h"
  12:../../MMI/Resource/WriteImgRes.c **** 
  13:../../MMI/Resource/WriteImgRes.c **** #include "gui_resource_type.h" // for IMAGE_TYPE_BMP
  14:../../MMI/Resource/WriteImgRes.c **** #include "ABMLoader.h" // for ABM_ENC_OPTION_FLAG_ABM...
  15:../../MMI/Resource/WriteImgRes.c **** #include "WriteResUtil.h"
  16:../../MMI/Resource/WriteImgRes.c **** 
  17:../../MMI/Resource/WriteImgRes.c **** #include "ImageGetDimension.h" // for Image_Get_Dimensions
  18:../../MMI/Resource/WriteImgRes.c **** 
  19:../../MMI/Resource/WriteImgRes.c **** #include "ResgenLogCAPI.h"
  20:../../MMI/Resource/WriteImgRes.c **** 
  21:../../MMI/Resource/WriteImgRes.c **** #define RESIMG_TAG "WRITEIMGRES"
  22:../../MMI/Resource/WriteImgRes.c **** 
  23:../../MMI/Resource/WriteImgRes.c **** #define RESIMG_LOG_D(format, args...) RES_LOG_D((RESIMG_TAG), (format) , ##args)
  24:../../MMI/Resource/WriteImgRes.c **** #define RESIMG_LOG_V(format, args...) RES_LOG_V((RESIMG_TAG), (format) , ##args)
GAS LISTING d:/MTK/MTK2503/MTK2503/11CW1418SP4_03_CORETEK03AE_11C_V1_GPRS_MMI/plutommi/Customer/ResGenerator/gcctmp/ccaodaaa.s 			page 5


  25:../../MMI/Resource/WriteImgRes.c **** #define RESIMG_LOG_W(format, args...) RES_LOG_W((RESIMG_TAG), (format) , ##args)
  26:../../MMI/Resource/WriteImgRes.c **** #define RESIMG_LOG_E(format, args...) RES_LOG_E((RESIMG_TAG), (format) , ##args)
  27:../../MMI/Resource/WriteImgRes.c **** 
  28:../../MMI/Resource/WriteImgRes.c **** 
  29:../../MMI/Resource/WriteImgRes.c **** #define MAX_SEQUENTIAL_IMAGE_FRAME      512
  30:../../MMI/Resource/WriteImgRes.c **** 
  31:../../MMI/Resource/WriteImgRes.c **** #define FILE_IMAGE_LOAD_FAILED_LOG      ".\\\\debug\\\\image_load_fail.txt"
  32:../../MMI/Resource/WriteImgRes.c **** 
  33:../../MMI/Resource/WriteImgRes.c **** #define NOIMAGE_FILENAMEBUFFER      "..\\\\..\\\\Customer\\\\IMAGES\\\\EmptyImage.bmp"
  34:../../MMI/Resource/WriteImgRes.c **** 
  35:../../MMI/Resource/WriteImgRes.c **** #define DEFAULT_FILEBUFFER          "________CUSTOMER__IMAGES__DEFAULT_BMP"
  36:../../MMI/Resource/WriteImgRes.c **** 
  37:../../MMI/Resource/WriteImgRes.c **** #define OUTPUT_IMAGE_NAMES_END      "[] =\n{"
  38:../../MMI/Resource/WriteImgRes.c **** 
  39:../../MMI/Resource/WriteImgRes.c **** #define ASSERT(expr) {if(!(expr)) {while(1);}else {}}
  40:../../MMI/Resource/WriteImgRes.c **** 
  41:../../MMI/Resource/WriteImgRes.c **** 
  42:../../MMI/Resource/WriteImgRes.c **** #ifdef __MMI_RESOURCE_IMAGE_COMPRESS__
  43:../../MMI/Resource/WriteImgRes.c **** 
  44:../../MMI/Resource/WriteImgRes.c **** #include "Zlib.h"
  45:../../MMI/Resource/WriteImgRes.c **** 
  46:../../MMI/Resource/WriteImgRes.c **** res_compress_struct g_res_compress_data_image[MAX_COMPRESSED_ITEM];
  47:../../MMI/Resource/WriteImgRes.c **** U32 g_res_compress_count_image = 0;
  48:../../MMI/Resource/WriteImgRes.c **** 
  49:../../MMI/Resource/WriteImgRes.c **** static BOOL g_is_compress = FALSE;
  50:../../MMI/Resource/WriteImgRes.c **** static BOOL g_is_compressed = FALSE;
  51:../../MMI/Resource/WriteImgRes.c **** 
  52:../../MMI/Resource/WriteImgRes.c **** U8* mmi_rg_compress_image(U8 *buffer, S32 org_size, S32 *dest_size, S32 image_type, U32 width_heigh
  53:../../MMI/Resource/WriteImgRes.c **** 
  54:../../MMI/Resource/WriteImgRes.c **** U8* mmi_rg_output_compressed_image(U8 *dest_buf, S32 dest_size, ResgenImageOutStream * outstream); 
  55:../../MMI/Resource/WriteImgRes.c **** 
  56:../../MMI/Resource/WriteImgRes.c **** #define RG_SET_CPZ(x) mmi_rg_set_compress(x)
  57:../../MMI/Resource/WriteImgRes.c **** 
  58:../../MMI/Resource/WriteImgRes.c **** #else // __MMI_RESOURCE_IMAGE_COMPRESS__
  59:../../MMI/Resource/WriteImgRes.c **** 
  60:../../MMI/Resource/WriteImgRes.c **** #define RG_SET_CPZ(x)
  61:../../MMI/Resource/WriteImgRes.c **** 
  62:../../MMI/Resource/WriteImgRes.c **** #endif // __MMI_RESOURCE_IMAGE_COMPRESS__
  63:../../MMI/Resource/WriteImgRes.c **** 
  64:../../MMI/Resource/WriteImgRes.c **** extern int toolFlag;
  65:../../MMI/Resource/WriteImgRes.c **** extern int resultFailFlag;
  66:../../MMI/Resource/WriteImgRes.c **** extern FILE *dest_file;
  67:../../MMI/Resource/WriteImgRes.c **** 
  68:../../MMI/Resource/WriteImgRes.c **** 
  69:../../MMI/Resource/WriteImgRes.c **** 
  70:../../MMI/Resource/WriteImgRes.c **** // extern data
  71:../../MMI/Resource/WriteImgRes.c **** extern U16 CurrMaxFontNumEXT;
  72:../../MMI/Resource/WriteImgRes.c **** extern U16 CurrMaxFontIdEXT;
  73:../../MMI/Resource/WriteImgRes.c **** 
  74:../../MMI/Resource/WriteImgRes.c **** extern U16 CurrMaxImageId; // also used in WriteRes.c
  75:../../MMI/Resource/WriteImgRes.c **** extern U16 CurrMaxImageNum; // also used in WriteRes.c
  76:../../MMI/Resource/WriteImgRes.c **** extern CUSTOM_IMAGE_MAP ImageIdMap[]; // defined in CustResDeclare.c
  77:../../MMI/Resource/WriteImgRes.c **** extern FILE *OutputImgIDFile; // defined in PopulateRes.c
  78:../../MMI/Resource/WriteImgRes.c **** extern FILE *RepeatIDListFile; // also used in WriteRes.c
  79:../../MMI/Resource/WriteImgRes.c **** extern FILE *fpImageResourceUsage; // defined in PopulateRes.c
  80:../../MMI/Resource/WriteImgRes.c **** 
  81:../../MMI/Resource/WriteImgRes.c **** U32 image_idx = 1; // XXX
GAS LISTING d:/MTK/MTK2503/MTK2503/11CW1418SP4_03_CORETEK03AE_11C_V1_GPRS_MMI/plutommi/Customer/ResGenerator/gcctmp/ccaodaaa.s 			page 6


  82:../../MMI/Resource/WriteImgRes.c **** U32 g_resimg_count = 0; // XXX
  83:../../MMI/Resource/WriteImgRes.c **** CUSTOM_RESOURCE_SIZE g_resimg_table[MAX_IMAGE_IDS_SIZE]; // XXX
  84:../../MMI/Resource/WriteImgRes.c **** 
  85:../../MMI/Resource/WriteImgRes.c **** extern mmi_resource_base_struct g_mmi_resource_base_table[]; // for RESPRTONERECORD()
  86:../../MMI/Resource/WriteImgRes.c **** 
  87:../../MMI/Resource/WriteImgRes.c **** // font
  88:../../MMI/Resource/WriteImgRes.c **** #define FONT_OUTPUT_DATA_FILENAME		"..\\..\\Customer\\CustResource\\CustFontDataHW.h"
  89:../../MMI/Resource/WriteImgRes.c **** 
  90:../../MMI/Resource/WriteImgRes.c **** static U16 g_mmi_res_font_id = 0;
  91:../../MMI/Resource/WriteImgRes.c **** S32 g_mmi_res_font_flags = 0; // used in ImageGetDimension.c in ENFB mode
  92:../../MMI/Resource/WriteImgRes.c **** static U32 g_mmi_res_font_userdata = 0;
  93:../../MMI/Resource/WriteImgRes.c **** 
  94:../../MMI/Resource/WriteImgRes.c **** MMI_BOOL Fload(S8 *string);
  95:../../MMI/Resource/WriteImgRes.c **** 
  96:../../MMI/Resource/WriteImgRes.c **** extern FILE *font_data_file;
  97:../../MMI/Resource/WriteImgRes.c **** extern FONTNAME_LIST FontNameListEXT[];
  98:../../MMI/Resource/WriteImgRes.c **** extern CUSTOM_FONT_MAP FontIdMapEXT[];
  99:../../MMI/Resource/WriteImgRes.c **** extern FILE *font_data_lis;
 100:../../MMI/Resource/WriteImgRes.c **** extern FILE *font_data_modis_lis;
 101:../../MMI/Resource/WriteImgRes.c **** extern FILE *font_ttf_lis;
 102:../../MMI/Resource/WriteImgRes.c **** 
 103:../../MMI/Resource/WriteImgRes.c **** 
 104:../../MMI/Resource/WriteImgRes.c **** static S32 g_font_size = 0;
 105:../../MMI/Resource/WriteImgRes.c **** 
 106:../../MMI/Resource/WriteImgRes.c **** extern U32 GetOffsetFromResourceBase(U16 ImageID, U8* enum_value); // in WriteRes.c
 107:../../MMI/Resource/WriteImgRes.c **** 
 108:../../MMI/Resource/WriteImgRes.c **** #ifdef __MMI_RESOURCE_ENFB_SUPPORT__
 109:../../MMI/Resource/WriteImgRes.c **** int disableENFB = 0;    /* we will only disable E-NFB image only for NFB image or from CustPack too
 110:../../MMI/Resource/WriteImgRes.c **** U32 enfb_offset = 0; // also used in ABMLoader.c ...
 111:../../MMI/Resource/WriteImgRes.c **** U32 enfb_size = 0; // also used in ABMLoader.c ...
 112:../../MMI/Resource/WriteImgRes.c **** 
 113:../../MMI/Resource/WriteImgRes.c **** extern FILE *enfb_img_data_file;
 114:../../MMI/Resource/WriteImgRes.c **** MMI_BOOL ENFBAssociatedIDFlag;
 115:../../MMI/Resource/WriteImgRes.c **** MMI_BOOL ENFBAssociatedIDAdded;
 116:../../MMI/Resource/WriteImgRes.c **** extern CUSTOM_ENFB_STR ENFBAssociatedIDList[];
 117:../../MMI/Resource/WriteImgRes.c **** extern unsigned short CurrMaxENFBAssociatedIDNum;
 118:../../MMI/Resource/WriteImgRes.c **** 
 119:../../MMI/Resource/WriteImgRes.c **** extern MMI_BOOL AddENFBAssociatedIDItem(U16 ImageID, S8 *filename, image_type_enum ExtImageFlag);
 120:../../MMI/Resource/WriteImgRes.c **** extern MMI_BOOL IfItemExistENFBAssociatedID(S8 *filename, image_type_enum ExtImageFlag);
 121:../../MMI/Resource/WriteImgRes.c **** #endif // __MMI_RESOURCE_ENFB_SUPPORT__
 122:../../MMI/Resource/WriteImgRes.c **** 
 123:../../MMI/Resource/WriteImgRes.c **** #ifdef __MMI_FONT_THIRD_ROM_SUPPORT__
 124:../../MMI/Resource/WriteImgRes.c **** extern FILE *enfb_font_data_file;
 125:../../MMI/Resource/WriteImgRes.c **** extern ENFB_Font_Res_Info ENFBFontResInfo[];
 126:../../MMI/Resource/WriteImgRes.c **** #endif
 127:../../MMI/Resource/WriteImgRes.c **** 
 128:../../MMI/Resource/WriteImgRes.c **** // exported function
 129:../../MMI/Resource/WriteImgRes.c **** 
 130:../../MMI/Resource/WriteImgRes.c **** // exported global variable
 131:../../MMI/Resource/WriteImgRes.c **** 
 132:../../MMI/Resource/WriteImgRes.c **** // can only be set from FALSE to TRUE, shall be thread safe
 133:../../MMI/Resource/WriteImgRes.c **** MMI_BOOL g_mmi_res_nfb_used = FALSE;
 134:../../MMI/Resource/WriteImgRes.c **** 
 135:../../MMI/Resource/WriteImgRes.c **** // local function
 136:../../MMI/Resource/WriteImgRes.c **** static U8 isEmsImage(S8 *path);
 137:../../MMI/Resource/WriteImgRes.c **** 
 138:../../MMI/Resource/WriteImgRes.c **** static void mmi_rg_set_compress(BOOL is_compress);
GAS LISTING d:/MTK/MTK2503/MTK2503/11CW1418SP4_03_CORETEK03AE_11C_V1_GPRS_MMI/plutommi/Customer/ResGenerator/gcctmp/ccaodaaa.s 			page 7


 139:../../MMI/Resource/WriteImgRes.c **** 
 140:../../MMI/Resource/WriteImgRes.c **** static S32 Load_Image_Data(
 141:../../MMI/Resource/WriteImgRes.c ****         ResgenImageOutStream * outstream,
 142:../../MMI/Resource/WriteImgRes.c ****         FILE *input_file,
 143:../../MMI/Resource/WriteImgRes.c ****         U8 image_identifier,
 144:../../MMI/Resource/WriteImgRes.c ****         S32 n_frames,
 145:../../MMI/Resource/WriteImgRes.c ****         U32 width,
 146:../../MMI/Resource/WriteImgRes.c ****         U32 height,
 147:../../MMI/Resource/WriteImgRes.c ****         MMI_BOOL is9slice,
 148:../../MMI/Resource/WriteImgRes.c ****         U8* _9slice_filename,
 149:../../MMI/Resource/WriteImgRes.c ****         SetImageProcessData * processData);
 150:../../MMI/Resource/WriteImgRes.c **** static void Write_Sequential_Image_Header(
 151:../../MMI/Resource/WriteImgRes.c ****         ResgenImageOutStream * outstream,
 152:../../MMI/Resource/WriteImgRes.c ****         U8 image_identifier,
 153:../../MMI/Resource/WriteImgRes.c ****         S32 n_frames,
 154:../../MMI/Resource/WriteImgRes.c ****         U8 play_count,
 155:../../MMI/Resource/WriteImgRes.c ****         S32 *seq_filesize,
 156:../../MMI/Resource/WriteImgRes.c ****         S32 *seq_offset,
 157:../../MMI/Resource/WriteImgRes.c ****         U32 width,
 158:../../MMI/Resource/WriteImgRes.c ****         U32 height,
 159:../../MMI/Resource/WriteImgRes.c ****         S32 sequential_interval[MAX_SEQUENTIAL_IMAGE_FRAME],
 160:../../MMI/Resource/WriteImgRes.c ****         SetImageProcessData * processData);
 161:../../MMI/Resource/WriteImgRes.c **** static void Write_Sequential_Image_File(
 162:../../MMI/Resource/WriteImgRes.c ****         ResgenImageOutStream * outstream,
 163:../../MMI/Resource/WriteImgRes.c ****         FILE *input_file,
 164:../../MMI/Resource/WriteImgRes.c ****         S32 filesize,
 165:../../MMI/Resource/WriteImgRes.c ****         SetImageProcessData * processData);
 166:../../MMI/Resource/WriteImgRes.c **** static MMI_BOOL Write_Sequential_Image(
 167:../../MMI/Resource/WriteImgRes.c ****         char *pathname,
 168:../../MMI/Resource/WriteImgRes.c ****         char *output_name,
 169:../../MMI/Resource/WriteImgRes.c ****         ResgenImageOutStream * outstream,
 170:../../MMI/Resource/WriteImgRes.c ****         MMI_BOOL is9slice,
 171:../../MMI/Resource/WriteImgRes.c ****         S32 force_type,
 172:../../MMI/Resource/WriteImgRes.c ****         SetImageProcessData * processData);
 173:../../MMI/Resource/WriteImgRes.c **** static MMI_BOOL Write_Processed_Data(
 174:../../MMI/Resource/WriteImgRes.c ****         char *filename,
 175:../../MMI/Resource/WriteImgRes.c ****         U8 type,
 176:../../MMI/Resource/WriteImgRes.c ****         char *output_name,
 177:../../MMI/Resource/WriteImgRes.c ****         ResgenImageOutStream *outstream,
 178:../../MMI/Resource/WriteImgRes.c ****         image_type_enum extImageFlag,
 179:../../MMI/Resource/WriteImgRes.c ****         MMI_BOOL is9slice,
 180:../../MMI/Resource/WriteImgRes.c ****         S32 force_type,
 181:../../MMI/Resource/WriteImgRes.c ****         FILE *nfb_img_res_file,
 182:../../MMI/Resource/WriteImgRes.c ****         U8 *_9slice_filename,
 183:../../MMI/Resource/WriteImgRes.c ****         SetImageProcessData * processData, S32 * error_code);
 184:../../MMI/Resource/WriteImgRes.c **** static MMI_BOOL Write_Unprocessed_Data(
 185:../../MMI/Resource/WriteImgRes.c ****         char *filename,
 186:../../MMI/Resource/WriteImgRes.c ****         FILE *image_file,
 187:../../MMI/Resource/WriteImgRes.c ****         S32 nImageSize,
 188:../../MMI/Resource/WriteImgRes.c ****         char *output_name,
 189:../../MMI/Resource/WriteImgRes.c ****         ResgenImageOutStream * outstream,
 190:../../MMI/Resource/WriteImgRes.c ****         image_type_enum extImageFlag,
 191:../../MMI/Resource/WriteImgRes.c ****         MMI_BOOL is9slice,
 192:../../MMI/Resource/WriteImgRes.c ****         U8* _9slice_filename,
 193:../../MMI/Resource/WriteImgRes.c ****         FILE *nfb_img_res_file,
 194:../../MMI/Resource/WriteImgRes.c ****         SetImageProcessData * processData);
 195:../../MMI/Resource/WriteImgRes.c **** static U8 isSubmenuImage(S8 *path);
GAS LISTING d:/MTK/MTK2503/MTK2503/11CW1418SP4_03_CORETEK03AE_11C_V1_GPRS_MMI/plutommi/Customer/ResGenerator/gcctmp/ccaodaaa.s 			page 8


 196:../../MMI/Resource/WriteImgRes.c **** 
 197:../../MMI/Resource/WriteImgRes.c **** static void LogILoadFail(int img_id, const char * img_id_enum, const char * img_filename, int force
 198:../../MMI/Resource/WriteImgRes.c **** static void LogNFBILoadFail(const char * img_filename, int forceType);
 199:../../MMI/Resource/WriteImgRes.c **** 
 200:../../MMI/Resource/WriteImgRes.c **** /*****************************************************************************
 201:../../MMI/Resource/WriteImgRes.c ****  * FUNCTION
 202:../../MMI/Resource/WriteImgRes.c ****  *  LogILoadFail
 203:../../MMI/Resource/WriteImgRes.c ****  * DESCRIPTION
 204:../../MMI/Resource/WriteImgRes.c ****  *  This function save the Iload failed log to the file. The log file is defined
 205:../../MMI/Resource/WriteImgRes.c ****  *  with FILE_IMAGE_LOAD_FAILED_LOG.
 206:../../MMI/Resource/WriteImgRes.c ****  * PARAMETERS
 207:../../MMI/Resource/WriteImgRes.c ****  *  img_id             id value of the image resource. if there is no id such as 
 208:../../MMI/Resource/WriteImgRes.c ****  *                     NFB image, it must be a native value
 209:../../MMI/Resource/WriteImgRes.c ****  *  img_id_enum        enum string of the image id
 210:../../MMI/Resource/WriteImgRes.c ****  *  img_filename       file name of the image content
 211:../../MMI/Resource/WriteImgRes.c ****  *  forceType          the target type of the image resource
 212:../../MMI/Resource/WriteImgRes.c ****  * RETURNS
 213:../../MMI/Resource/WriteImgRes.c ****  *  void
 214:../../MMI/Resource/WriteImgRes.c ****  *****************************************************************************/
 215:../../MMI/Resource/WriteImgRes.c **** static void LogILoadFail(int img_id, const char * img_id_enum, const char * img_filename, int force
 216:../../MMI/Resource/WriteImgRes.c **** {
 2611              	LM1:
 2612 03ef 55       		pushl	%ebp
 2613 03f0 89E5     		movl	%esp, %ebp
 2614 03f2 57       		pushl	%edi
 2615 03f3 81EC3402 		subl	$564, %esp
 2615      0000
 217:../../MMI/Resource/WriteImgRes.c ****     FILE * imgFailLogFile = NULL;
 2617              	LM2:
 2618              	LBB2:
 2619 03f9 C745F400 		movl	$0, -12(%ebp)
 2619      000000
 218:../../MMI/Resource/WriteImgRes.c ****     char img_id_enum_out[256] = "Unknown Id";
 2621              	LM3:
 2622 0400 A1080100 		movl	LC21, %eax
 2622      00
 2623 0405 8985E8FE 		movl	%eax, -280(%ebp)
 2623      FFFF
 2624 040b A10C0100 		movl	LC21+4, %eax
 2624      00
 2625 0410 8985ECFE 		movl	%eax, -276(%ebp)
 2625      FFFF
 2626 0416 0FB70510 		movzwl	LC21+8, %eax
 2626      010000
 2627 041d 668985F0 		movw	%ax, -272(%ebp)
 2627      FEFFFF
 2628 0424 0FB60512 		movzbl	LC21+10, %eax
 2628      010000
 2629 042b 8885F2FE 		movb	%al, -270(%ebp)
 2629      FFFF
 2630 0431 8DBDF3FE 		leal	-269(%ebp), %edi
 2630      FFFF
 2631 0437 FC       		cld
 2632 0438 B9F50000 		movl	$245, %ecx
 2632      00
 2633 043d B000     		movb	$0, %al
 2634 043f F3       		rep
GAS LISTING d:/MTK/MTK2503/MTK2503/11CW1418SP4_03_CORETEK03AE_11C_V1_GPRS_MMI/plutommi/Customer/ResGenerator/gcctmp/ccaodaaa.s 			page 9


 2635 0440 AA       		stosb
 219:../../MMI/Resource/WriteImgRes.c ****     char img_filename_out[256] = "Unknown File";
 2637              	LM4:
 2638 0441 A1080200 		movl	LC22, %eax
 2638      00
 2639 0446 8985E8FD 		movl	%eax, -536(%ebp)
 2639      FFFF
 2640 044c A10C0200 		movl	LC22+4, %eax
 2640      00
 2641 0451 8985ECFD 		movl	%eax, -532(%ebp)
 2641      FFFF
 2642 0457 A1100200 		movl	LC22+8, %eax
 2642      00
 2643 045c 8985F0FD 		movl	%eax, -528(%ebp)
 2643      FFFF
 2644 0462 0FB60514 		movzbl	LC22+12, %eax
 2644      020000
 2645 0469 8885F4FD 		movb	%al, -524(%ebp)
 2645      FFFF
 2646 046f 8DBDF5FD 		leal	-523(%ebp), %edi
 2646      FFFF
 2647 0475 FC       		cld
 2648 0476 B9F30000 		movl	$243, %ecx
 2648      00
 2649 047b B000     		movb	$0, %al
 2650 047d F3       		rep
 2651 047e AA       		stosb
 220:../../MMI/Resource/WriteImgRes.c **** 
 221:../../MMI/Resource/WriteImgRes.c ****     if(file_exist(FILE_IMAGE_LOAD_FAILED_LOG) == MMI_TRUE)
 2653              	LM5:
 2654 047f C7042408 		movl	$LC23, (%esp)
 2654      030000
 2655 0486 E8000000 		call	_file_exist
 2655      00
 2656 048b 83F801   		cmpl	$1, %eax
 2657 048e 7519     		jne	L34
 222:../../MMI/Resource/WriteImgRes.c ****     {
 223:../../MMI/Resource/WriteImgRes.c ****         imgFailLogFile = fopen(FILE_IMAGE_LOAD_FAILED_LOG,"a");
 2659              	LM6:
 2660 0490 C7442404 		movl	$LC24, 4(%esp)
 2660      26030000 
 2661 0498 C7042408 		movl	$LC23, (%esp)
 2661      030000
 2662 049f E8000000 		call	_fopen
 2662      00
 2663 04a4 8945F4   		movl	%eax, -12(%ebp)
 2664 04a7 EB63     		jmp	L35
 2665              	L34:
 224:../../MMI/Resource/WriteImgRes.c ****     }
 225:../../MMI/Resource/WriteImgRes.c ****     else
 226:../../MMI/Resource/WriteImgRes.c ****     {
 227:../../MMI/Resource/WriteImgRes.c ****         imgFailLogFile = fopen(FILE_IMAGE_LOAD_FAILED_LOG,"w");
 2667              	LM7:
 2668 04a9 C7442404 		movl	$LC25, 4(%esp)
 2668      28030000 
 2669 04b1 C7042408 		movl	$LC23, (%esp)
 2669      030000
GAS LISTING d:/MTK/MTK2503/MTK2503/11CW1418SP4_03_CORETEK03AE_11C_V1_GPRS_MMI/plutommi/Customer/ResGenerator/gcctmp/ccaodaaa.s 			page 10


 2670 04b8 E8000000 		call	_fopen
 2670      00
 2671 04bd 8945F4   		movl	%eax, -12(%ebp)
 228:../../MMI/Resource/WriteImgRes.c ****         // Write log header if the file is first created
 229:../../MMI/Resource/WriteImgRes.c ****         fprintf(imgFailLogFile,"###############################################\n");
 2673              	LM8:
 2674 04c0 C7442404 		movl	$LC26, 4(%esp)
 2674      40030000 
 2675 04c8 8B45F4   		movl	-12(%ebp), %eax
 2676 04cb 890424   		movl	%eax, (%esp)
 2677 04ce E8000000 		call	_fprintf
 2677      00
 230:../../MMI/Resource/WriteImgRes.c ****         fprintf(imgFailLogFile,"#       Resgen Failed Image Loading Log       #\n");
 2679              	LM9:
 2680 04d3 C7442404 		movl	$LC27, 4(%esp)
 2680      80030000 
 2681 04db 8B45F4   		movl	-12(%ebp), %eax
 2682 04de 890424   		movl	%eax, (%esp)
 2683 04e1 E8000000 		call	_fprintf
 2683      00
 231:../../MMI/Resource/WriteImgRes.c ****         fprintf(imgFailLogFile,"###############################################\n");
 2685              	LM10:
 2686 04e6 C7442404 		movl	$LC26, 4(%esp)
 2686      40030000 
 2687 04ee 8B45F4   		movl	-12(%ebp), %eax
 2688 04f1 890424   		movl	%eax, (%esp)
 2689 04f4 E8000000 		call	_fprintf
 2689      00
 232:../../MMI/Resource/WriteImgRes.c ****         fprintf(imgFailLogFile,"ID_NAME \tID\tFILE_PATH\tFORCE_TYPE\n");
 2691              	LM11:
 2692 04f9 C7442404 		movl	$LC28, 4(%esp)
 2692      C0030000 
 2693 0501 8B45F4   		movl	-12(%ebp), %eax
 2694 0504 890424   		movl	%eax, (%esp)
 2695 0507 E8000000 		call	_fprintf
 2695      00
 2696              	L35:
 233:../../MMI/Resource/WriteImgRes.c **** 
 234:../../MMI/Resource/WriteImgRes.c ****     }
 235:../../MMI/Resource/WriteImgRes.c **** 
 236:../../MMI/Resource/WriteImgRes.c ****     //Use number limited string function to ensure the code secrity
 237:../../MMI/Resource/WriteImgRes.c ****     if(img_id_enum!=NULL)
 2698              	LM12:
 2699 050c 837D0C00 		cmpl	$0, 12(%ebp)
 2700 0510 743B     		je	L36
 238:../../MMI/Resource/WriteImgRes.c ****     {
 239:../../MMI/Resource/WriteImgRes.c ****         memset(img_id_enum_out,0, sizeof(img_id_enum_out));
 2702              	LM13:
 2703 0512 C7442408 		movl	$256, 8(%esp)
 2703      00010000 
 2704 051a C7442404 		movl	$0, 4(%esp)
 2704      00000000 
 2705 0522 8D85E8FE 		leal	-280(%ebp), %eax
 2705      FFFF
 2706 0528 890424   		movl	%eax, (%esp)
 2707 052b E8000000 		call	_memset
 2707      00
GAS LISTING d:/MTK/MTK2503/MTK2503/11CW1418SP4_03_CORETEK03AE_11C_V1_GPRS_MMI/plutommi/Customer/ResGenerator/gcctmp/ccaodaaa.s 			page 11


 240:../../MMI/Resource/WriteImgRes.c ****         strncpy(img_id_enum_out, img_id_enum, sizeof(img_id_enum_out)-1 );
 2709              	LM14:
 2710 0530 C7442408 		movl	$255, 8(%esp)
 2710      FF000000 
 2711 0538 8B450C   		movl	12(%ebp), %eax
 2712 053b 89442404 		movl	%eax, 4(%esp)
 2713 053f 8D85E8FE 		leal	-280(%ebp), %eax
 2713      FFFF
 2714 0545 890424   		movl	%eax, (%esp)
 2715 0548 E8000000 		call	_strncpy
 2715      00
 2716              	L36:
 241:../../MMI/Resource/WriteImgRes.c ****     }
 242:../../MMI/Resource/WriteImgRes.c **** 
 243:../../MMI/Resource/WriteImgRes.c ****     if(img_filename!=NULL)
 2718              	LM15:
 2719 054d 837D1000 		cmpl	$0, 16(%ebp)
 2720 0551 743B     		je	L37
 244:../../MMI/Resource/WriteImgRes.c ****     {
 245:../../MMI/Resource/WriteImgRes.c ****         memset(img_filename_out,0, sizeof(img_filename_out));
 2722              	LM16:
 2723 0553 C7442408 		movl	$256, 8(%esp)
 2723      00010000 
 2724 055b C7442404 		movl	$0, 4(%esp)
 2724      00000000 
 2725 0563 8D85E8FD 		leal	-536(%ebp), %eax
 2725      FFFF
 2726 0569 890424   		movl	%eax, (%esp)
 2727 056c E8000000 		call	_memset
 2727      00
 246:../../MMI/Resource/WriteImgRes.c ****         strncpy(img_filename_out, img_filename, sizeof(img_filename_out)-1);
 2729              	LM17:
 2730 0571 C7442408 		movl	$255, 8(%esp)
 2730      FF000000 
 2731 0579 8B4510   		movl	16(%ebp), %eax
 2732 057c 89442404 		movl	%eax, 4(%esp)
 2733 0580 8D85E8FD 		leal	-536(%ebp), %eax
 2733      FFFF
 2734 0586 890424   		movl	%eax, (%esp)
 2735 0589 E8000000 		call	_strncpy
 2735      00
 2736              	L37:
 247:../../MMI/Resource/WriteImgRes.c ****     }
 248:../../MMI/Resource/WriteImgRes.c **** 
 249:../../MMI/Resource/WriteImgRes.c ****     if (imgFailLogFile != NULL)
 2738              	LM18:
 2739 058e 837DF400 		cmpl	$0, -12(%ebp)
 2740 0592 7440     		je	L33
 250:../../MMI/Resource/WriteImgRes.c ****     {
 251:../../MMI/Resource/WriteImgRes.c ****         fprintf(imgFailLogFile, "%s\t%d\t%s\t%d\n", img_id_enum_out, img_id, img_filename_out, forc
 2742              	LM19:
 2743 0594 8B4514   		movl	20(%ebp), %eax
 2744 0597 89442414 		movl	%eax, 20(%esp)
 2745 059b 8D85E8FD 		leal	-536(%ebp), %eax
 2745      FFFF
 2746 05a1 89442410 		movl	%eax, 16(%esp)
 2747 05a5 8B4508   		movl	8(%ebp), %eax
GAS LISTING d:/MTK/MTK2503/MTK2503/11CW1418SP4_03_CORETEK03AE_11C_V1_GPRS_MMI/plutommi/Customer/ResGenerator/gcctmp/ccaodaaa.s 			page 12


 2748 05a8 8944240C 		movl	%eax, 12(%esp)
 2749 05ac 8D85E8FE 		leal	-280(%ebp), %eax
 2749      FFFF
 2750 05b2 89442408 		movl	%eax, 8(%esp)
 2751 05b6 C7442404 		movl	$LC29, 4(%esp)
 2751      E2030000 
 2752 05be 8B45F4   		movl	-12(%ebp), %eax
 2753 05c1 890424   		movl	%eax, (%esp)
 2754 05c4 E8000000 		call	_fprintf
 2754      00
 252:../../MMI/Resource/WriteImgRes.c ****         fclose(imgFailLogFile);
 2756              	LM20:
 2757 05c9 8B45F4   		movl	-12(%ebp), %eax
 2758 05cc 890424   		movl	%eax, (%esp)
 2759 05cf E8000000 		call	_fclose
 2759      00
 253:../../MMI/Resource/WriteImgRes.c ****     }
 254:../../MMI/Resource/WriteImgRes.c **** }
 2761              	LM21:
 2762              	L33:
 2763 05d4 81C43402 		addl	$564, %esp
 2763      0000
 2764 05da 5F       		popl	%edi
 2765 05db 5D       		popl	%ebp
 2766 05dc C3       		ret
 2767              	LBE2:
 2773              	Lscope0:
 2775              	LC30:
 2776 05dd 4E6F2D49 		.ascii "No-Id(NFB)\0"
 2776      64284E46 
 2776      422900
 2781              	_LogNFBILoadFail:
 255:../../MMI/Resource/WriteImgRes.c **** 
 256:../../MMI/Resource/WriteImgRes.c **** /*****************************************************************************
 257:../../MMI/Resource/WriteImgRes.c ****  * FUNCTION
 258:../../MMI/Resource/WriteImgRes.c ****  *  LogNFBILoadFail
 259:../../MMI/Resource/WriteImgRes.c ****  * DESCRIPTION
 260:../../MMI/Resource/WriteImgRes.c ****  *  This function save the Iload failed log to the file. The log file is defined
 261:../../MMI/Resource/WriteImgRes.c ****  *  with FILE_IMAGE_LOAD_FAILED_LOG.
 262:../../MMI/Resource/WriteImgRes.c ****  * PARAMETERS
 263:../../MMI/Resource/WriteImgRes.c ****  *  img_id             id value of the image resource. if there is no id such as 
 264:../../MMI/Resource/WriteImgRes.c ****  *                     NFB image, it must be a native value
 265:../../MMI/Resource/WriteImgRes.c ****  *  img_id_enum        enum string of the image id
 266:../../MMI/Resource/WriteImgRes.c ****  *  img_filename       file name of the image content
 267:../../MMI/Resource/WriteImgRes.c ****  *  forceType          the target type of the image resource
 268:../../MMI/Resource/WriteImgRes.c ****  * RETURNS
 269:../../MMI/Resource/WriteImgRes.c ****  *  void
 270:../../MMI/Resource/WriteImgRes.c ****  *****************************************************************************/
 271:../../MMI/Resource/WriteImgRes.c **** static void LogNFBILoadFail(const char * img_filename, int forceType)
 272:../../MMI/Resource/WriteImgRes.c **** {
 2783              	LM22:
 2784 05e8 55       		pushl	%ebp
 2785 05e9 89E5     		movl	%esp, %ebp
 2786 05eb 83EC18   		subl	$24, %esp
 273:../../MMI/Resource/WriteImgRes.c ****     LogILoadFail(-1,"No-Id(NFB)",img_filename,forceType);
 2788              	LM23:
 2789 05ee 8B450C   		movl	12(%ebp), %eax
GAS LISTING d:/MTK/MTK2503/MTK2503/11CW1418SP4_03_CORETEK03AE_11C_V1_GPRS_MMI/plutommi/Customer/ResGenerator/gcctmp/ccaodaaa.s 			page 13


 2790 05f1 8944240C 		movl	%eax, 12(%esp)
 2791 05f5 8B4508   		movl	8(%ebp), %eax
 2792 05f8 89442408 		movl	%eax, 8(%esp)
 2793 05fc C7442404 		movl	$LC30, 4(%esp)
 2793      DD050000 
 2794 0604 C70424FF 		movl	$-1, (%esp)
 2794      FFFFFF
 2795 060b E8DFFDFF 		call	_LogILoadFail
 2795      FF
 274:../../MMI/Resource/WriteImgRes.c **** }
 2797              	LM24:
 2798 0610 C9       		leave
 2799 0611 C3       		ret
 2800              	Lscope1:
 2802              	LC31:
 2803 0612 00       		.ascii "\0"
 2804 0613 8DB60000 		.align 32
 2804      00008DBC 
 2804      27000000 
 2804      00
 2805              	LC32:
 2806 0620 2E2E5C5C 		.ascii "..\\\\..\\\\Customer\\\\IMAGES\\\\EmptyImage.bmp\0"
 2806      2E2E5C5C 
 2806      43757374 
 2806      6F6D6572 
 2806      5C5C494D 
 2807              	LC33:
 2808 0649 5365744E 		.ascii "SetNFBImage: str too long\12\0"
 2808      4642496D 
 2808      6167653A 
 2808      20737472 
 2808      20746F6F 
 2809              	LC34:
 2810 0664 57524954 		.ascii "WRITEIMGRES\0"
 2810      45494D47 
 2810      52455300 
 2811 0670 90909090 		.align 32
 2811      90909090 
 2811      90909090 
 2811      90909090 
 2812              	LC35:
 2813 0680 2E2E2F2E 		.ascii "../../MMI/Resource/WriteImgRes.c\0"
 2813      2E2F4D4D 
 2813      492F5265 
 2813      736F7572 
 2813      63652F57 
 2814              	LC36:
 2815 06a1 3000     		.ascii "0\0"
 2819              	.globl _SetNFBImageImp
 2821              	_SetNFBImageImp:
 275:../../MMI/Resource/WriteImgRes.c **** 
 276:../../MMI/Resource/WriteImgRes.c **** 
 277:../../MMI/Resource/WriteImgRes.c **** /*****************************************************************************
 278:../../MMI/Resource/WriteImgRes.c ****  * FUNCTION
 279:../../MMI/Resource/WriteImgRes.c ****  *  SetNFBImageImp
 280:../../MMI/Resource/WriteImgRes.c ****  * DESCRIPTION
 281:../../MMI/Resource/WriteImgRes.c ****  *
GAS LISTING d:/MTK/MTK2503/MTK2503/11CW1418SP4_03_CORETEK03AE_11C_V1_GPRS_MMI/plutommi/Customer/ResGenerator/gcctmp/ccaodaaa.s 			page 14


 282:../../MMI/Resource/WriteImgRes.c ****  * PARAMETERS
 283:../../MMI/Resource/WriteImgRes.c ****  *  filename        [?]
 284:../../MMI/Resource/WriteImgRes.c ****  * RETURNS
 285:../../MMI/Resource/WriteImgRes.c ****  *  void
 286:../../MMI/Resource/WriteImgRes.c ****  *****************************************************************************/
 287:../../MMI/Resource/WriteImgRes.c **** void SetNFBImageImp(S8 *filename, SetImageProcessData * processData)
 288:../../MMI/Resource/WriteImgRes.c **** {
 2823              	LM25:
 2824 06a3 55       		pushl	%ebp
 2825 06a4 89E5     		movl	%esp, %ebp
 2826 06a6 B8281200 		movl	$4648, %eax
 2826      00
 2827 06ab E8000000 		call	__alloca
 2827      00
 289:../../MMI/Resource/WriteImgRes.c ****     int XXX;
 290:../../MMI/Resource/WriteImgRes.c ****     /*----------------------------------------------------------------*/
 291:../../MMI/Resource/WriteImgRes.c ****     /* Local Variables                                                */
 292:../../MMI/Resource/WriteImgRes.c ****     /*----------------------------------------------------------------*/
 293:../../MMI/Resource/WriteImgRes.c ****     S16 nStrlen;
 294:../../MMI/Resource/WriteImgRes.c ****     S8 upperFileName[MAX_FILENAME_LEN];
 295:../../MMI/Resource/WriteImgRes.c ****     S8 filename_buffer[BUFFER_SIZE];
 296:../../MMI/Resource/WriteImgRes.c **** 
 297:../../MMI/Resource/WriteImgRes.c ****     /*----------------------------------------------------------------*/
 298:../../MMI/Resource/WriteImgRes.c ****     /* Code Body                                                      */
 299:../../MMI/Resource/WriteImgRes.c ****     /*----------------------------------------------------------------*/
 300:../../MMI/Resource/WriteImgRes.c ****     ASSERT(MAX_FILENAME_LEN > strlen(filename));
 2829              	LM26:
 2830              	LBB3:
 2831 06b0 8B4508   		movl	8(%ebp), %eax
 2832 06b3 890424   		movl	%eax, (%esp)
 2833 06b6 E8000000 		call	_strlen
 2833      00
 2834 06bb 3DFF0100 		cmpl	$511, %eax
 2834      00
 2835 06c0 7602     		jbe	L45
 2836              	L42:
 2837 06c2 EBFE     		jmp	L42
 2838              	L45:
 301:../../MMI/Resource/WriteImgRes.c ****     strcpy(filename_buffer, filename);
 2840              	LM27:
 2841 06c4 8B4508   		movl	8(%ebp), %eax
 2842 06c7 89442404 		movl	%eax, 4(%esp)
 2843 06cb 8D85E8ED 		leal	-4632(%ebp), %eax
 2843      FFFF
 2844 06d1 890424   		movl	%eax, (%esp)
 2845 06d4 E8000000 		call	_strcpy
 2845      00
 302:../../MMI/Resource/WriteImgRes.c **** 
 303:../../MMI/Resource/WriteImgRes.c ****     if (strlen(filename_buffer) >= MAX_FILENAME_LEN)
 2847              	LM28:
 2848 06d9 8D85E8ED 		leal	-4632(%ebp), %eax
 2848      FFFF
 2849 06df 890424   		movl	%eax, (%esp)
 2850 06e2 E8000000 		call	_strlen
 2850      00
 2851 06e7 3DFF0100 		cmpl	$511, %eax
 2851      00
GAS LISTING d:/MTK/MTK2503/MTK2503/11CW1418SP4_03_CORETEK03AE_11C_V1_GPRS_MMI/plutommi/Customer/ResGenerator/gcctmp/ccaodaaa.s 			page 15


 2852 06ec 7607     		jbe	L46
 304:../../MMI/Resource/WriteImgRes.c ****     {
 305:../../MMI/Resource/WriteImgRes.c ****         filename_buffer[MAX_FILENAME_LEN - 1] = '\0';
 2854              	LM29:
 2855 06ee C685E7EF 		movb	$0, -4121(%ebp)
 2855      FFFF00
 2856              	L46:
 306:../../MMI/Resource/WriteImgRes.c ****     }
 307:../../MMI/Resource/WriteImgRes.c ****     if (!(strcmp(filename_buffer, "")))
 2858              	LM30:
 2859 06f5 C7442404 		movl	$LC31, 4(%esp)
 2859      12060000 
 2860 06fd 8D85E8ED 		leal	-4632(%ebp), %eax
 2860      FFFF
 2861 0703 890424   		movl	%eax, (%esp)
 2862 0706 E8000000 		call	_strcmp
 2862      00
 2863 070b 85C0     		testl	%eax, %eax
 2864 070d 7516     		jne	L47
 308:../../MMI/Resource/WriteImgRes.c ****     {
 309:../../MMI/Resource/WriteImgRes.c ****         strcpy(filename_buffer, NOIMAGE_FILENAMEBUFFER);
 2866              	LM31:
 2867 070f C7442404 		movl	$LC32, 4(%esp)
 2867      20060000 
 2868 0717 8D85E8ED 		leal	-4632(%ebp), %eax
 2868      FFFF
 2869 071d 890424   		movl	%eax, (%esp)
 2870 0720 E8000000 		call	_strcpy
 2870      00
 2871              	L47:
 310:../../MMI/Resource/WriteImgRes.c **** 
 311:../../MMI/Resource/WriteImgRes.c ****     }
 312:../../MMI/Resource/WriteImgRes.c ****     nStrlen = strlen(filename_buffer);
 2873              	LM32:
 2874 0725 8D85E8ED 		leal	-4632(%ebp), %eax
 2874      FFFF
 2875 072b 890424   		movl	%eax, (%esp)
 2876 072e E8000000 		call	_strlen
 2876      00
 2877 0733 668945F2 		movw	%ax, -14(%ebp)
 313:../../MMI/Resource/WriteImgRes.c ****     if (nStrlen > MAX_FILENAME_LEN)
 2879              	LM33:
 2880 0737 66817DF2 		cmpw	$512, -14(%ebp)
 2880      0002
 2881 073d 7E38     		jle	L48
 314:../../MMI/Resource/WriteImgRes.c ****     {
 315:../../MMI/Resource/WriteImgRes.c ****         RESIMG_LOG_E("SetNFBImage: str too long\n");
 2883              	LM34:
 2884 073f C7442408 		movl	$LC33, 8(%esp)
 2884      49060000 
 2885 0747 C7442404 		movl	$LC34, 4(%esp)
 2885      64060000 
 2886 074f C7042403 		movl	$3, (%esp)
 2886      000000
 2887 0756 E8000000 		call	_reslog_adaptor_log
 2887      00
 316:../../MMI/Resource/WriteImgRes.c ****         assert(0);
GAS LISTING d:/MTK/MTK2503/MTK2503/11CW1418SP4_03_CORETEK03AE_11C_V1_GPRS_MMI/plutommi/Customer/ResGenerator/gcctmp/ccaodaaa.s 			page 16


 2889              	LM35:
 2890 075b C7442408 		movl	$316, 8(%esp)
 2890      3C010000 
 2891 0763 C7442404 		movl	$LC35, 4(%esp)
 2891      80060000 
 2892 076b C70424A1 		movl	$LC36, (%esp)
 2892      060000
 2893 0772 E8000000 		call	__assert
 2893      00
 2894              	L48:
 317:../../MMI/Resource/WriteImgRes.c ****         exit(2);
 318:../../MMI/Resource/WriteImgRes.c ****     }
 319:../../MMI/Resource/WriteImgRes.c **** 
 320:../../MMI/Resource/WriteImgRes.c ****     strncpy(upperFileName, filename_buffer, MAX_FILENAME_LEN);
 2896              	LM36:
 2897 0777 C7442408 		movl	$512, 8(%esp)
 2897      00020000 
 2898 077f 8D85E8ED 		leal	-4632(%ebp), %eax
 2898      FFFF
 2899 0785 89442404 		movl	%eax, 4(%esp)
 2900 0789 8D85E8FD 		leal	-536(%ebp), %eax
 2900      FFFF
 2901 078f 890424   		movl	%eax, (%esp)
 2902 0792 E8000000 		call	_strncpy
 2902      00
 321:../../MMI/Resource/WriteImgRes.c ****     str_upper(upperFileName, MAX_FILENAME_LEN);
 2904              	LM37:
 2905 0797 C7442404 		movl	$512, 4(%esp)
 2905      00020000 
 2906 079f 8D85E8FD 		leal	-536(%ebp), %eax
 2906      FFFF
 2907 07a5 890424   		movl	%eax, (%esp)
 2908 07a8 E8000000 		call	_str_upper
 2908      00
 322:../../MMI/Resource/WriteImgRes.c **** 
 323:../../MMI/Resource/WriteImgRes.c ****     if( Iload(upperFileName, NFB_PROGRESS_IMAGE, AUTO_TYPE, processData)!= MMI_TRUE)
 2910              	LM38:
 2911 07ad 8B450C   		movl	12(%ebp), %eax
 2912 07b0 8944240C 		movl	%eax, 12(%esp)
 2913 07b4 C7442408 		movl	$0, 8(%esp)
 2913      00000000 
 2914 07bc C7442404 		movl	$2, 4(%esp)
 2914      02000000 
 2915 07c4 8D85E8FD 		leal	-536(%ebp), %eax
 2915      FFFF
 2916 07ca 890424   		movl	%eax, (%esp)
 2917 07cd E8440500 		call	_Iload
 2917      00
 2918 07d2 83F801   		cmpl	$1, %eax
 2919 07d5 7416     		je	L49
 324:../../MMI/Resource/WriteImgRes.c ****     {
 325:../../MMI/Resource/WriteImgRes.c ****         LogNFBILoadFail(upperFileName, AUTO_TYPE);
 2921              	LM39:
 2922 07d7 C7442404 		movl	$0, 4(%esp)
 2922      00000000 
 2923 07df 8D85E8FD 		leal	-536(%ebp), %eax
 2923      FFFF
GAS LISTING d:/MTK/MTK2503/MTK2503/11CW1418SP4_03_CORETEK03AE_11C_V1_GPRS_MMI/plutommi/Customer/ResGenerator/gcctmp/ccaodaaa.s 			page 17


 2924 07e5 890424   		movl	%eax, (%esp)
 2925 07e8 E8FBFDFF 		call	_LogNFBILoadFail
 2925      FF
 2926              	L49:
 326:../../MMI/Resource/WriteImgRes.c ****     }
 327:../../MMI/Resource/WriteImgRes.c **** 
 328:../../MMI/Resource/WriteImgRes.c ****     // can only be set from FALSE to TRUE, shall be thread safe
 329:../../MMI/Resource/WriteImgRes.c ****     g_mmi_res_nfb_used = TRUE;
 2928              	LM40:
 2929 07ed C7050800 		movl	$1, _g_mmi_res_nfb_used
 2929      00000100 
 2929      0000
 330:../../MMI/Resource/WriteImgRes.c **** }
 2931              	LM41:
 2932 07f7 C9       		leave
 2933 07f8 C3       		ret
 2934              	LBE3:
 2941              	Lscope2:
 2943 07f9 8DB42600 		.align 32
 2943      000000
 2944              	LC37:
 2945 0800 2E2E5C5C 		.ascii "..\\\\..\\\\CUSTOMER\\\\IMAGES\\\\COSMOS480X800\\\\MAINLCD\\\\DEFAULT\\\\BOOTUPSHUTDOWN\\\
 2945      2E2E5C5C 
 2945      43555354 
 2945      4F4D4552 
 2945      5C5C494D 
 2946 0868 90909090 		.align 32
 2946      90909090 
 2946      90909090 
 2946      90909090 
 2946      90909090 
 2947              	LC38:
 2948 0880 496C6F61 		.ascii "Iload failed: %s(%d), PATH=%s, TYEP=%d\0"
 2948      64206661 
 2948      696C6564 
 2948      3A202573 
 2948      28256429 
 2956              	.globl _SetImageWithBufferExImp
 2958              	_SetImageWithBufferExImp:
 331:../../MMI/Resource/WriteImgRes.c **** 
 332:../../MMI/Resource/WriteImgRes.c **** 
 333:../../MMI/Resource/WriteImgRes.c **** /*****************************************************************************
 334:../../MMI/Resource/WriteImgRes.c ****  * FUNCTION
 335:../../MMI/Resource/WriteImgRes.c ****  *  SetImageWithBufferExImp
 336:../../MMI/Resource/WriteImgRes.c ****  * DESCRIPTION
 337:../../MMI/Resource/WriteImgRes.c ****  *  Function to copy the image file to buffer
 338:../../MMI/Resource/WriteImgRes.c ****  * PARAMETERS
 339:../../MMI/Resource/WriteImgRes.c ****  *  nImgId              [IN]
 340:../../MMI/Resource/WriteImgRes.c ****  *  filename            [?]
 341:../../MMI/Resource/WriteImgRes.c ****  *  enum_value          [?]
 342:../../MMI/Resource/WriteImgRes.c ****  *  res_type            [IN]
 343:../../MMI/Resource/WriteImgRes.c ****  *  imgFlag             [IN]
 344:../../MMI/Resource/WriteImgRes.c ****  *  S8(?)               [OUT]       -> filename of the image to be displayed.
 345:../../MMI/Resource/WriteImgRes.c ****  *  U16(?)              [IN]        -> ImageId
 346:../../MMI/Resource/WriteImgRes.c ****  * RETURNS
 347:../../MMI/Resource/WriteImgRes.c ****  *  void
 348:../../MMI/Resource/WriteImgRes.c ****  *****************************************************************************/
GAS LISTING d:/MTK/MTK2503/MTK2503/11CW1418SP4_03_CORETEK03AE_11C_V1_GPRS_MMI/plutommi/Customer/ResGenerator/gcctmp/ccaodaaa.s 			page 18


 349:../../MMI/Resource/WriteImgRes.c **** void SetImageWithBufferExImp(U16 nImgId, S8 *upperFileName, S8 *enum_value, BOOL imgFlag, S32 force
 350:../../MMI/Resource/WriteImgRes.c **** {
 2960              	LM42:
 2961 08a7 55       		pushl	%ebp
 2962 08a8 89E5     		movl	%esp, %ebp
 2963 08aa 83EC28   		subl	$40, %esp
 2964 08ad 8B4508   		movl	8(%ebp), %eax
 2965 08b0 668945FE 		movw	%ax, -2(%ebp)
 351:../../MMI/Resource/WriteImgRes.c ****     /*----------------------------------------------------------------*/
 352:../../MMI/Resource/WriteImgRes.c ****     /* Local Variables                                                */
 353:../../MMI/Resource/WriteImgRes.c ****     /*----------------------------------------------------------------*/
 354:../../MMI/Resource/WriteImgRes.c ****     image_type_enum extImageFlag = SYSTEM_IMAGE;
 2967              	LM43:
 2968              	LBB4:
 2969 08b4 C745F800 		movl	$0, -8(%ebp)
 2969      000000
 355:../../MMI/Resource/WriteImgRes.c **** 
 356:../../MMI/Resource/WriteImgRes.c ****     /*----------------------------------------------------------------*/
 357:../../MMI/Resource/WriteImgRes.c ****     /* Code Body                                                      */
 358:../../MMI/Resource/WriteImgRes.c ****     /*----------------------------------------------------------------*/
 359:../../MMI/Resource/WriteImgRes.c **** #if defined(__MMI_RESOURCE_IMAGE_COMPRESS__)
 360:../../MMI/Resource/WriteImgRes.c ****     g_is_compressed = FALSE;
 361:../../MMI/Resource/WriteImgRes.c **** #endif
 362:../../MMI/Resource/WriteImgRes.c **** 
 363:../../MMI/Resource/WriteImgRes.c ****     if (imgFlag == TRUE)
 2971              	LM44:
 2972 08bb 837D1401 		cmpl	$1, 20(%ebp)
 2973 08bf 7509     		jne	L51
 364:../../MMI/Resource/WriteImgRes.c ****     {
 365:../../MMI/Resource/WriteImgRes.c ****         extImageFlag = EXT_IMAGE;
 2975              	LM45:
 2976 08c1 C745F801 		movl	$1, -8(%ebp)
 2976      000000
 2977 08c8 EB07     		jmp	L52
 2978              	L51:
 366:../../MMI/Resource/WriteImgRes.c ****     }
 367:../../MMI/Resource/WriteImgRes.c ****     else
 368:../../MMI/Resource/WriteImgRes.c ****     {
 369:../../MMI/Resource/WriteImgRes.c ****         extImageFlag = SYSTEM_IMAGE;
 2980              	LM46:
 2981 08ca C745F800 		movl	$0, -8(%ebp)
 2981      000000
 2982              	L52:
 370:../../MMI/Resource/WriteImgRes.c ****     }
 371:../../MMI/Resource/WriteImgRes.c **** 
 372:../../MMI/Resource/WriteImgRes.c ****     /*
 373:../../MMI/Resource/WriteImgRes.c ****     if (*pCurrMaxImageId >= MAX_IMAGE_IDS_SIZE)
 374:../../MMI/Resource/WriteImgRes.c ****     {
 375:../../MMI/Resource/WriteImgRes.c ****         return; // Can't add more than max number of image ids allowed
 376:../../MMI/Resource/WriteImgRes.c ****     }
 377:../../MMI/Resource/WriteImgRes.c ****     */
 378:../../MMI/Resource/WriteImgRes.c **** 
 379:../../MMI/Resource/WriteImgRes.c ****     if (strcmp(upperFileName, "..\\\\..\\\\CUSTOMER\\\\IMAGES\\\\COSMOS480X800\\\\MAINLCD\\\\DEFAUL
 2984              	LM47:
 2985 08d1 C7442404 		movl	$LC37, 4(%esp)
 2985      00080000 
 2986 08d9 8B450C   		movl	12(%ebp), %eax
GAS LISTING d:/MTK/MTK2503/MTK2503/11CW1418SP4_03_CORETEK03AE_11C_V1_GPRS_MMI/plutommi/Customer/ResGenerator/gcctmp/ccaodaaa.s 			page 19


 2987 08dc 890424   		movl	%eax, (%esp)
 2988 08df E8000000 		call	_strcmp
 2988      00
 2989 08e4 85C0     		testl	%eax, %eax
 2990 08e6 7507     		jne	L53
 380:../../MMI/Resource/WriteImgRes.c ****     {
 381:../../MMI/Resource/WriteImgRes.c ****         int i = 0;
 2992              	LM48:
 2993              	LBB5:
 2994 08e8 C745F400 		movl	$0, -12(%ebp)
 2994      000000
 2995              	L53:
 382:../../MMI/Resource/WriteImgRes.c ****     }
 383:../../MMI/Resource/WriteImgRes.c ****     if (processData->duplicated == MMI_FALSE)
 2997              	LM49:
 2998              	LBE5:
 2999 08ef 8B451C   		movl	28(%ebp), %eax
 3000 08f2 83B80C02 		cmpl	$0, 524(%eax)
 3000      000000
 3001 08f9 0F85A900 		jne	L50
 3001      0000
 384:../../MMI/Resource/WriteImgRes.c ****     {
 385:../../MMI/Resource/WriteImgRes.c ****         if ( Iload(upperFileName, extImageFlag, force_type, processData)!= MMI_TRUE )
 3003              	LM50:
 3004 08ff 8B451C   		movl	28(%ebp), %eax
 3005 0902 8944240C 		movl	%eax, 12(%esp)
 3006 0906 8B4518   		movl	24(%ebp), %eax
 3007 0909 89442408 		movl	%eax, 8(%esp)
 3008 090d 8B45F8   		movl	-8(%ebp), %eax
 3009 0910 89442404 		movl	%eax, 4(%esp)
 3010 0914 8B450C   		movl	12(%ebp), %eax
 3011 0917 890424   		movl	%eax, (%esp)
 3012 091a E8F70300 		call	_Iload
 3012      00
 3013 091f 83F801   		cmpl	$1, %eax
 3014 0922 0F848000 		je	L50
 3014      0000
 386:../../MMI/Resource/WriteImgRes.c ****         {
 387:../../MMI/Resource/WriteImgRes.c ****             RESIMG_LOG_E("Iload failed: %s(%d), PATH=%s, TYEP=%d", enum_value, nImgId, upperFileNam
 3016              	LM51:
 3017 0928 8B4518   		movl	24(%ebp), %eax
 3018 092b 89442418 		movl	%eax, 24(%esp)
 3019 092f 8B450C   		movl	12(%ebp), %eax
 3020 0932 89442414 		movl	%eax, 20(%esp)
 3021 0936 0FB745FE 		movzwl	-2(%ebp), %eax
 3022 093a 89442410 		movl	%eax, 16(%esp)
 3023 093e 8B4510   		movl	16(%ebp), %eax
 3024 0941 8944240C 		movl	%eax, 12(%esp)
 3025 0945 C7442408 		movl	$LC38, 8(%esp)
 3025      80080000 
 3026 094d C7442404 		movl	$LC34, 4(%esp)
 3026      64060000 
 3027 0955 C7042403 		movl	$3, (%esp)
 3027      000000
 3028 095c E8000000 		call	_reslog_adaptor_log
 3028      00
 388:../../MMI/Resource/WriteImgRes.c ****             fflush(stdout);
GAS LISTING d:/MTK/MTK2503/MTK2503/11CW1418SP4_03_CORETEK03AE_11C_V1_GPRS_MMI/plutommi/Customer/ResGenerator/gcctmp/ccaodaaa.s 			page 20


 3030              	LM52:
 3031 0961 A1000000 		movl	__imp___iob, %eax
 3031      00
 3032 0966 83C020   		addl	$32, %eax
 3033 0969 890424   		movl	%eax, (%esp)
 3034 096c E8000000 		call	_fflush
 3034      00
 389:../../MMI/Resource/WriteImgRes.c ****             if(!toolFlag)
 3036              	LM53:
 3037 0971 833D0000 		cmpl	$0, _toolFlag
 3037      000000
 3038 0978 7521     		jne	L56
 390:../../MMI/Resource/WriteImgRes.c ****             {
 391:../../MMI/Resource/WriteImgRes.c ****                 LogILoadFail(nImgId, enum_value, upperFileName, force_type);
 3040              	LM54:
 3041 097a 8B4518   		movl	24(%ebp), %eax
 3042 097d 8944240C 		movl	%eax, 12(%esp)
 3043 0981 8B450C   		movl	12(%ebp), %eax
 3044 0984 89442408 		movl	%eax, 8(%esp)
 3045 0988 8B4510   		movl	16(%ebp), %eax
 3046 098b 89442404 		movl	%eax, 4(%esp)
 3047 098f 0FB745FE 		movzwl	-2(%ebp), %eax
 3048 0993 890424   		movl	%eax, (%esp)
 3049 0996 E854FAFF 		call	_LogILoadFail
 3049      FF
 3050              	L56:
 392:../../MMI/Resource/WriteImgRes.c ****             }
 393:../../MMI/Resource/WriteImgRes.c ****             /* CustPack: let new set of images share the same resource of default image */
 394:../../MMI/Resource/WriteImgRes.c ****             processData->failed = MMI_TRUE;
 3052              	LM55:
 3053 099b 8B451C   		movl	28(%ebp), %eax
 3054 099e C7800802 		movl	$1, 520(%eax)
 3054      00000100 
 3054      0000
 395:../../MMI/Resource/WriteImgRes.c ****         }
 396:../../MMI/Resource/WriteImgRes.c ****     }
 397:../../MMI/Resource/WriteImgRes.c **** 
 398:../../MMI/Resource/WriteImgRes.c **** #ifdef __MMI_RESOURCE_ENFB_SUPPORT__//100206 ENFB support
 399:../../MMI/Resource/WriteImgRes.c ****     if (processData->failed)
 400:../../MMI/Resource/WriteImgRes.c ****     {
 401:../../MMI/Resource/WriteImgRes.c ****     }
 402:../../MMI/Resource/WriteImgRes.c ****     else if (processData->duplicated)
 403:../../MMI/Resource/WriteImgRes.c ****     {
 404:../../MMI/Resource/WriteImgRes.c ****         if (ENFBAssociatedIDFlag == MMI_TRUE)
 405:../../MMI/Resource/WriteImgRes.c ****         {
 406:../../MMI/Resource/WriteImgRes.c ****             if (IfItemExistENFBAssociatedID(upperFileName, extImageFlag))//already in other associa
 407:../../MMI/Resource/WriteImgRes.c ****             {
 408:../../MMI/Resource/WriteImgRes.c ****                 AddENFBAssociatedIDItem(nImgId, upperFileName, extImageFlag);
 409:../../MMI/Resource/WriteImgRes.c ****             }
 410:../../MMI/Resource/WriteImgRes.c ****             else
 411:../../MMI/Resource/WriteImgRes.c ****             {
 412:../../MMI/Resource/WriteImgRes.c ****                 fprintf(RepeatIDListFile, "\n\n!!!!!!!!!!!!%d\t%s\t\t%s!!!!!!!!!!!!!\n\n", nImgId, 
 413:../../MMI/Resource/WriteImgRes.c ****             }
 414:../../MMI/Resource/WriteImgRes.c ****         }
 415:../../MMI/Resource/WriteImgRes.c ****     }
 416:../../MMI/Resource/WriteImgRes.c ****     else
 417:../../MMI/Resource/WriteImgRes.c ****     {
GAS LISTING d:/MTK/MTK2503/MTK2503/11CW1418SP4_03_CORETEK03AE_11C_V1_GPRS_MMI/plutommi/Customer/ResGenerator/gcctmp/ccaodaaa.s 			page 21


 418:../../MMI/Resource/WriteImgRes.c ****         if (ENFBAssociatedIDFlag == MMI_TRUE)
 419:../../MMI/Resource/WriteImgRes.c ****         {
 420:../../MMI/Resource/WriteImgRes.c ****             if (ENFBAssociatedIDAdded == MMI_TRUE)//already in other associated group
 421:../../MMI/Resource/WriteImgRes.c ****             {
 422:../../MMI/Resource/WriteImgRes.c ****                 AddENFBAssociatedIDItem(nImgId, upperFileName, extImageFlag);
 423:../../MMI/Resource/WriteImgRes.c ****                 ENFBAssociatedIDAdded = MMI_FALSE;
 424:../../MMI/Resource/WriteImgRes.c ****             }
 425:../../MMI/Resource/WriteImgRes.c ****         }
 426:../../MMI/Resource/WriteImgRes.c ****     }
 427:../../MMI/Resource/WriteImgRes.c **** #endif // __MMI_RESOURCE_ENFB_SUPPORT__
 428:../../MMI/Resource/WriteImgRes.c **** }
 3056              	LM56:
 3057              	L50:
 3058 09a8 C9       		leave
 3059 09a9 C3       		ret
 3060              	LBE4:
 3068              	Lscope3:
 3070 09aa 90909090 		.align 32
 3070      90909090 
 3070      90909090 
 3070      90909090 
 3070      90909090 
 3071              	LC39:
 3072 09c0 2E2E5C2E 		.ascii "..\\..\\Customer\\CustResource\\CustNFBProgressImg.c\0"
 3072      2E5C4375 
 3072      73746F6D 
 3072      65725C43 
 3072      75737452 
 3073 09f1 EB0D9090 		.align 32
 3073      90909090 
 3073      90909090 
 3073      909090
 3074              	LC40:
 3075 0a00 496C6F61 		.ascii "Iload - open CustNFBProgressImg.c for NFB population\0"
 3075      64202D20 
 3075      6F70656E 
 3075      20437573 
 3075      744E4642 
 3076              	LC41:
 3077 0a35 2E39534C 		.ascii ".9SLICE\0"
 3077      49434500 
 3078              	LC42:
 3079 0a3d 2E545854 		.ascii ".TXT\0"
 3079      00
 3080              	LC43:
 3081 0a42 466F756E 		.ascii "Found 9slice image [%s]\0"
 3081      64203973 
 3081      6C696365 
 3081      20696D61 
 3081      6765205B 
 3082 0a5a 8DB60000 		.align 32
 3082      0000
 3083              	LC44:
 3084 0a60 44696420 		.ascii "Did not find 9slice txt files [%s]\0"
 3084      6E6F7420 
 3084      66696E64 
 3084      2039736C 
GAS LISTING d:/MTK/MTK2503/MTK2503/11CW1418SP4_03_CORETEK03AE_11C_V1_GPRS_MMI/plutommi/Customer/ResGenerator/gcctmp/ccaodaaa.s 			page 22


 3084      69636520 
 3085 0a83 90909090 		.align 32
 3085      90909090 
 3085      90909090 
 3085      90909090 
 3085      90909090 
 3086              	LC45:
 3087 0aa0 4E46425F 		.ascii "NFB_PROGRESS_IMAGE is set - Close CustNFBProgressImg.c before Iload return\0"
 3087      50524F47 
 3087      52455353 
 3087      5F494D41 
 3087      47452069 
 3088 0aeb 90909090 		.align 32
 3088      90909090 
 3088      90909090 
 3088      90909090 
 3088      90909090 
 3089              	LC46:
 3090 0b00 5B41424D 		.ascii "[ABM] %s\11cannot open file for all supported formats!!!\12\0"
 3090      5D202573 
 3090      0963616E 
 3090      6E6F7420 
 3090      6F70656E 
 3091 0b38 908DB426 		.align 32
 3091      00000000 
 3092              	LC47:
 3093 0b40 496C6F61 		.ascii "Iload: strlen(filename_buffer) >  BUFFER_SIZE\12\0"
 3093      643A2073 
 3093      74726C65 
 3093      6E286669 
 3093      6C656E61 
 3094 0b6f 90909090 		.align 32
 3094      90909090 
 3094      90909090 
 3094      90909090 
 3094      90
 3095              	LC48:
 3096 0b80 496C6F61 		.ascii "Iload: (strlen(filename_buffer)+strlen(tempBMPFile)) >  MAX_FILENAME_LEN\12\0"
 3096      643A2028 
 3096      7374726C 
 3096      656E2866 
 3096      696C656E 
 3097              	LC49:
 3098 0bca 4100     		.ascii "A\0"
 3099              	LC50:
 3100 0bcc 5B25735D 		.ascii "[%s] no need convert 01\12\0"
 3100      206E6F20 
 3100      6E656564 
 3100      20636F6E 
 3100      76657274 
 3101 0be5 90909090 		.align 32
 3101      90909090 
 3101      90909090 
 3101      90909090 
 3101      90909090 
 3102              	LC51:
 3103 0c00 2E5C5C63 		.ascii ".\\\\convert.exe -channel Alpha -negate -compress none png:%s bmp:%s > NUL\0"
GAS LISTING d:/MTK/MTK2503/MTK2503/11CW1418SP4_03_CORETEK03AE_11C_V1_GPRS_MMI/plutommi/Customer/ResGenerator/gcctmp/ccaodaaa.s 			page 23


 3103      6F6E7665 
 3103      72742E65 
 3103      7865202D 
 3103      6368616E 
 3104              	LC52:
 3105 0c49 25730A00 		.ascii "%s\12\0"
 3106              	LC53:
 3107 0c4d 2E5C5C63 		.ascii ".\\\\convert.exe %s %s > NUL\0"
 3107      6F6E7665 
 3107      72742E65 
 3107      78652025 
 3107      73202573 
 3108 0c68 90909090 		.align 32
 3108      90909090 
 3108      90909090 
 3108      90909090 
 3108      90909090 
 3109              	LC54:
 3110 0c80 496C6F61 		.ascii "Iload: filename_buffer too short\0"
 3110      643A2066 
 3110      696C656E 
 3110      616D655F 
 3110      62756666 
 3111              	LC55:
 3112 0ca1 636F6E73 		.ascii "const U8 %s[] = \0"
 3112      74205538 
 3112      2025735B 
 3112      5D203D20 
 3112      00
 3113              	LC56:
 3114 0cb2 612B00   		.ascii "a+\0"
 3115              	LC57:
 3116 0cb5 2E5C5C64 		.ascii ".\\\\debug\\\\fail.txt\0"
 3116      65627567 
 3116      5C5C6661 
 3116      696C2E74 
 3116      787400
 3117 0cc8 90909090 		.align 32
 3117      90909090 
 3117      90909090 
 3117      90909090 
 3117      90909090 
 3118              	LC58:
 3119 0ce0 46696C65 		.ascii "File %s not exist, trying to load sequential image\0"
 3119      20257320 
 3119      6E6F7420 
 3119      65786973 
 3119      742C2074 
 3120              	LC59:
 3121 0d13 726200   		.ascii "rb\0"
 3127              	.globl _Iload
 3129              	_Iload:
 429:../../MMI/Resource/WriteImgRes.c **** 
 430:../../MMI/Resource/WriteImgRes.c **** /*****************************************************************************
 431:../../MMI/Resource/WriteImgRes.c ****  * FUNCTION
 432:../../MMI/Resource/WriteImgRes.c ****  *  Iload
 433:../../MMI/Resource/WriteImgRes.c ****  * DESCRIPTION
GAS LISTING d:/MTK/MTK2503/MTK2503/11CW1418SP4_03_CORETEK03AE_11C_V1_GPRS_MMI/plutommi/Customer/ResGenerator/gcctmp/ccaodaaa.s 			page 24


 434:../../MMI/Resource/WriteImgRes.c ****  *  load the file image to buffer and writes to CustImgRes.c, etc.
 435:../../MMI/Resource/WriteImgRes.c ****  * PARAMETERS
 436:../../MMI/Resource/WriteImgRes.c ****  *  string      [IN]        string containing file name and path
 437:../../MMI/Resource/WriteImgRes.c ****  * RETURNS
 438:../../MMI/Resource/WriteImgRes.c ****  *  MMI_BOOL
 439:../../MMI/Resource/WriteImgRes.c ****  *****************************************************************************/
 440:../../MMI/Resource/WriteImgRes.c **** MMI_BOOL Iload(S8 *string, image_type_enum extImageFlag, S32 force_type, SetImageProcessData * proc
 441:../../MMI/Resource/WriteImgRes.c **** {
 3131              	LM57:
 3132 0d16 55       		pushl	%ebp
 3133 0d17 89E5     		movl	%esp, %ebp
 3134 0d19 53       		pushl	%ebx
 3135 0d1a B8642700 		movl	$10084, %eax
 3135      00
 3136 0d1f E8000000 		call	__alloca
 3136      00
 442:../../MMI/Resource/WriteImgRes.c ****     /*----------------------------------------------------------------*/
 443:../../MMI/Resource/WriteImgRes.c ****     /* Local Variables                                                */
 444:../../MMI/Resource/WriteImgRes.c ****     /*----------------------------------------------------------------*/
 445:../../MMI/Resource/WriteImgRes.c ****     MMI_BOOL failure_flag;
 446:../../MMI/Resource/WriteImgRes.c ****     MMI_BOOL flag_file_exist = MMI_TRUE;
 3138              	LM58:
 3139              	LBB6:
 3140 0d24 C745F001 		movl	$1, -16(%ebp)
 3140      000000
 447:../../MMI/Resource/WriteImgRes.c ****     S8 * output_image_names = NULL;
 3142              	LM59:
 3143 0d2b C745EC00 		movl	$0, -20(%ebp)
 3143      000000
 448:../../MMI/Resource/WriteImgRes.c ****     S8 filename_buffer[BUFFER_SIZE];
 449:../../MMI/Resource/WriteImgRes.c ****     MMI_BOOL is9slice = MMI_FALSE;
 3145              	LM60:
 3146 0d32 C785E4EF 		movl	$0, -4124(%ebp)
 3146      FFFF0000 
 3146      0000
 450:../../MMI/Resource/WriteImgRes.c ****     U8 _9slice_filename[MAX_FILENAME_LEN];
 451:../../MMI/Resource/WriteImgRes.c ****     FILE *nfb_img_res_file = NULL;
 3148              	LM61:
 3149 0d3c C785D4ED 		movl	$0, -4652(%ebp)
 3149      FFFF0000 
 3149      0000
 452:../../MMI/Resource/WriteImgRes.c ****     S32 proc_img_err_code = 0;
 3151              	LM62:
 3152 0d46 C785D0ED 		movl	$0, -4656(%ebp)
 3152      FFFF0000 
 3152      0000
 453:../../MMI/Resource/WriteImgRes.c **** 
 454:../../MMI/Resource/WriteImgRes.c ****     /*----------------------------------------------------------------*/
 455:../../MMI/Resource/WriteImgRes.c ****     /* Code Body                                                      */
 456:../../MMI/Resource/WriteImgRes.c ****     /*----------------------------------------------------------------*/
 457:../../MMI/Resource/WriteImgRes.c ****     /* reset res_size, size of the resource for usage manitor */
 458:../../MMI/Resource/WriteImgRes.c ****     processData->res_size = 0;
 3154              	LM63:
 3155 0d50 8B4514   		movl	20(%ebp), %eax
 3156 0d53 C7800002 		movl	$0, 512(%eax)
 3156      00000000 
 3156      0000
GAS LISTING d:/MTK/MTK2503/MTK2503/11CW1418SP4_03_CORETEK03AE_11C_V1_GPRS_MMI/plutommi/Customer/ResGenerator/gcctmp/ccaodaaa.s 			page 25


 459:../../MMI/Resource/WriteImgRes.c **** 
 460:../../MMI/Resource/WriteImgRes.c ****     if (extImageFlag == NFB_PROGRESS_IMAGE)
 3158              	LM64:
 3159 0d5d 837D0C02 		cmpl	$2, 12(%ebp)
 3160 0d61 7536     		jne	L58
 461:../../MMI/Resource/WriteImgRes.c ****     {
 462:../../MMI/Resource/WriteImgRes.c ****         nfb_img_res_file = fopen(NFB_IMAGE_RES_FILENAME, "a");
 3162              	LM65:
 3163 0d63 C7442404 		movl	$LC24, 4(%esp)
 3163      26030000 
 3164 0d6b C70424C0 		movl	$LC39, (%esp)
 3164      090000
 3165 0d72 E8000000 		call	_fopen
 3165      00
 3166 0d77 8985D4ED 		movl	%eax, -4652(%ebp)
 3166      FFFF
 463:../../MMI/Resource/WriteImgRes.c ****         RESIMG_LOG_V("Iload - open CustNFBProgressImg.c for NFB population");
 3168              	LM66:
 3169 0d7d C7442408 		movl	$LC40, 8(%esp)
 3169      000A0000 
 3170 0d85 C7442404 		movl	$LC34, 4(%esp)
 3170      64060000 
 3171 0d8d C7042401 		movl	$1, (%esp)
 3171      000000
 3172 0d94 E8000000 		call	_reslog_adaptor_log
 3172      00
 3173              	L58:
 464:../../MMI/Resource/WriteImgRes.c ****     }
 465:../../MMI/Resource/WriteImgRes.c **** 
 466:../../MMI/Resource/WriteImgRes.c ****     /* set output variable name of the resource */
 467:../../MMI/Resource/WriteImgRes.c ****     output_image_names = (S8*) malloc(MAX_FILENAME_LEN);
 3175              	LM67:
 3176 0d99 C7042400 		movl	$512, (%esp)
 3176      020000
 3177 0da0 E8000000 		call	_malloc
 3177      00
 3178 0da5 8945EC   		movl	%eax, -20(%ebp)
 468:../../MMI/Resource/WriteImgRes.c ****     strcpy(filename_buffer, string);
 3180              	LM68:
 3181 0da8 8B4508   		movl	8(%ebp), %eax
 3182 0dab 89442404 		movl	%eax, 4(%esp)
 3183 0daf 8D85E8EF 		leal	-4120(%ebp), %eax
 3183      FFFF
 3184 0db5 890424   		movl	%eax, (%esp)
 3185 0db8 E8000000 		call	_strcpy
 3185      00
 469:../../MMI/Resource/WriteImgRes.c ****     if (!(strcmp(filename_buffer, "")))
 3187              	LM69:
 3188 0dbd C7442404 		movl	$LC31, 4(%esp)
 3188      12060000 
 3189 0dc5 8D85E8EF 		leal	-4120(%ebp), %eax
 3189      FFFF
 3190 0dcb 890424   		movl	%eax, (%esp)
 3191 0dce E8000000 		call	_strcmp
 3191      00
 3192 0dd3 85C0     		testl	%eax, %eax
 3193 0dd5 7516     		jne	L59
GAS LISTING d:/MTK/MTK2503/MTK2503/11CW1418SP4_03_CORETEK03AE_11C_V1_GPRS_MMI/plutommi/Customer/ResGenerator/gcctmp/ccaodaaa.s 			page 26


 470:../../MMI/Resource/WriteImgRes.c ****     {
 471:../../MMI/Resource/WriteImgRes.c ****         strcpy(filename_buffer, NOIMAGE_FILENAMEBUFFER);
 3195              	LM70:
 3196 0dd7 C7442404 		movl	$LC32, 4(%esp)
 3196      20060000 
 3197 0ddf 8D85E8EF 		leal	-4120(%ebp), %eax
 3197      FFFF
 3198 0de5 890424   		movl	%eax, (%esp)
 3199 0de8 E8000000 		call	_strcpy
 3199      00
 3200              	L59:
 472:../../MMI/Resource/WriteImgRes.c ****     }
 473:../../MMI/Resource/WriteImgRes.c ****     Extract_Name(output_image_names, filename_buffer, extImageFlag);
 3202              	LM71:
 3203 0ded 8B450C   		movl	12(%ebp), %eax
 3204 0df0 89442408 		movl	%eax, 8(%esp)
 3205 0df4 8D85E8EF 		leal	-4120(%ebp), %eax
 3205      FFFF
 3206 0dfa 89442404 		movl	%eax, 4(%esp)
 3207 0dfe 8B45EC   		movl	-20(%ebp), %eax
 3208 0e01 890424   		movl	%eax, (%esp)
 3209 0e04 E8000000 		call	_Extract_Name
 3209      00
 474:../../MMI/Resource/WriteImgRes.c **** 
 475:../../MMI/Resource/WriteImgRes.c ****     if (strstr(filename_buffer, ".9SLICE") != NULL)
 3211              	LM72:
 3212 0e09 C7442404 		movl	$LC41, 4(%esp)
 3212      350A0000 
 3213 0e11 8D85E8EF 		leal	-4120(%ebp), %eax
 3213      FFFF
 3214 0e17 890424   		movl	%eax, (%esp)
 3215 0e1a E8000000 		call	_strstr
 3215      00
 3216 0e1f 85C0     		testl	%eax, %eax
 3217 0e21 0F841101 		je	L60
 3217      0000
 476:../../MMI/Resource/WriteImgRes.c ****     {
 477:../../MMI/Resource/WriteImgRes.c ****         is9slice = MMI_TRUE;
 3219              	LM73:
 3220 0e27 C785E4EF 		movl	$1, -4124(%ebp)
 3220      FFFF0100 
 3220      0000
 478:../../MMI/Resource/WriteImgRes.c ****         ASSERT(MAX_FILENAME_LEN > (strlen(filename_buffer)+4));
 3222              	LM74:
 3223 0e31 8D85E8EF 		leal	-4120(%ebp), %eax
 3223      FFFF
 3224 0e37 890424   		movl	%eax, (%esp)
 3225 0e3a E8000000 		call	_strlen
 3225      00
 3226 0e3f 83C004   		addl	$4, %eax
 3227 0e42 3DFF0100 		cmpl	$511, %eax
 3227      00
 3228 0e47 7602     		jbe	L65
 3229              	L62:
 3230 0e49 EBFE     		jmp	L62
 3231              	L65:
 479:../../MMI/Resource/WriteImgRes.c ****         strcpy(_9slice_filename, filename_buffer);
GAS LISTING d:/MTK/MTK2503/MTK2503/11CW1418SP4_03_CORETEK03AE_11C_V1_GPRS_MMI/plutommi/Customer/ResGenerator/gcctmp/ccaodaaa.s 			page 27


 3233              	LM75:
 3234 0e4b 8D85E8EF 		leal	-4120(%ebp), %eax
 3234      FFFF
 3235 0e51 89442404 		movl	%eax, 4(%esp)
 3236 0e55 8D85D8ED 		leal	-4648(%ebp), %eax
 3236      FFFF
 3237 0e5b 890424   		movl	%eax, (%esp)
 3238 0e5e E8000000 		call	_strcpy
 3238      00
 480:../../MMI/Resource/WriteImgRes.c ****         strcat(_9slice_filename, ".TXT");
 3240              	LM76:
 3241 0e63 C7442404 		movl	$LC42, 4(%esp)
 3241      3D0A0000 
 3242 0e6b 8D85D8ED 		leal	-4648(%ebp), %eax
 3242      FFFF
 3243 0e71 890424   		movl	%eax, (%esp)
 3244 0e74 E8000000 		call	_strcat
 3244      00
 481:../../MMI/Resource/WriteImgRes.c ****         RESIMG_LOG_D("Found 9slice image [%s]", filename_buffer);
 3246              	LM77:
 3247 0e79 8D85E8EF 		leal	-4120(%ebp), %eax
 3247      FFFF
 3248 0e7f 8944240C 		movl	%eax, 12(%esp)
 3249 0e83 C7442408 		movl	$LC43, 8(%esp)
 3249      420A0000 
 3250 0e8b C7442404 		movl	$LC34, 4(%esp)
 3250      64060000 
 3251 0e93 C7042400 		movl	$0, (%esp)
 3251      000000
 3252 0e9a E8000000 		call	_reslog_adaptor_log
 3252      00
 482:../../MMI/Resource/WriteImgRes.c ****         if (file_exist(_9slice_filename) == MMI_FALSE)
 3254              	LM78:
 3255 0e9f 8D85D8ED 		leal	-4648(%ebp), %eax
 3255      FFFF
 3256 0ea5 890424   		movl	%eax, (%esp)
 3257 0ea8 E8000000 		call	_file_exist
 3257      00
 3258 0ead 85C0     		testl	%eax, %eax
 3259 0eaf 0F858300 		jne	L60
 3259      0000
 483:../../MMI/Resource/WriteImgRes.c ****         {
 484:../../MMI/Resource/WriteImgRes.c ****             RESIMG_LOG_W("Did not find 9slice txt files [%s]", filename_buffer);
 3261              	LM79:
 3262 0eb5 8D85E8EF 		leal	-4120(%ebp), %eax
 3262      FFFF
 3263 0ebb 8944240C 		movl	%eax, 12(%esp)
 3264 0ebf C7442408 		movl	$LC44, 8(%esp)
 3264      600A0000 
 3265 0ec7 C7442404 		movl	$LC34, 4(%esp)
 3265      64060000 
 3266 0ecf C7042402 		movl	$2, (%esp)
 3266      000000
 3267 0ed6 E8000000 		call	_reslog_adaptor_log
 3267      00
 485:../../MMI/Resource/WriteImgRes.c **** 
 486:../../MMI/Resource/WriteImgRes.c **** 			// Release resource before return
GAS LISTING d:/MTK/MTK2503/MTK2503/11CW1418SP4_03_CORETEK03AE_11C_V1_GPRS_MMI/plutommi/Customer/ResGenerator/gcctmp/ccaodaaa.s 			page 28


 487:../../MMI/Resource/WriteImgRes.c **** 			if (extImageFlag == NFB_PROGRESS_IMAGE){
 3269              	LM80:
 3270 0edb 837D0C02 		cmpl	$2, 12(%ebp)
 3271 0edf 753D     		jne	L67
 488:../../MMI/Resource/WriteImgRes.c ****                 MYFCLOSE(nfb_img_res_file);
 3273              	LM81:
 3274 0ee1 83BDD4ED 		cmpl	$0, -4652(%ebp)
 3274      FFFF00
 3275 0ee8 7418     		je	L68
 3276 0eea 8B85D4ED 		movl	-4652(%ebp), %eax
 3276      FFFF
 3277 0ef0 890424   		movl	%eax, (%esp)
 3278 0ef3 E8000000 		call	_fclose
 3278      00
 3279 0ef8 C785D4ED 		movl	$0, -4652(%ebp)
 3279      FFFF0000 
 3279      0000
 3280              	L68:
 489:../../MMI/Resource/WriteImgRes.c ****                 RESIMG_LOG_V("NFB_PROGRESS_IMAGE is set - Close CustNFBProgressImg.c before Iload r
 3282              	LM82:
 3283 0f02 C7442408 		movl	$LC45, 8(%esp)
 3283      A00A0000 
 3284 0f0a C7442404 		movl	$LC34, 4(%esp)
 3284      64060000 
 3285 0f12 C7042401 		movl	$1, (%esp)
 3285      000000
 3286 0f19 E8000000 		call	_reslog_adaptor_log
 3286      00
 3287              	L67:
 490:../../MMI/Resource/WriteImgRes.c ****             }
 491:../../MMI/Resource/WriteImgRes.c ****             free(output_image_names);
 3289              	LM83:
 3290 0f1e 8B45EC   		movl	-20(%ebp), %eax
 3291 0f21 890424   		movl	%eax, (%esp)
 3292 0f24 E8000000 		call	_free
 3292      00
 492:../../MMI/Resource/WriteImgRes.c ****             return MMI_FALSE;
 3294              	LM84:
 3295 0f29 C785C8D8 		movl	$0, -10040(%ebp)
 3295      FFFF0000 
 3295      0000
 3296 0f33 E9650D00 		jmp	L57
 3296      00
 3297              	L60:
 493:../../MMI/Resource/WriteImgRes.c ****         }
 494:../../MMI/Resource/WriteImgRes.c ****     }
 495:../../MMI/Resource/WriteImgRes.c **** 
 496:../../MMI/Resource/WriteImgRes.c **** #ifdef __MMI_SLIM_LISTMENU_NUMBER__
 497:../../MMI/Resource/WriteImgRes.c ****     /* set sub-menu list icon image to default 1, 2, 3, ... */
 498:../../MMI/Resource/WriteImgRes.c ****     if (isSubmenuImage(filename_buffer))
 3299              	LM85:
 3300 0f38 8D85E8EF 		leal	-4120(%ebp), %eax
 3300      FFFF
 3301 0f3e 890424   		movl	%eax, (%esp)
 3302 0f41 E8A65600 		call	_isSubmenuImage
 3302      00
 3303 0f46 84C0     		testb	%al, %al
GAS LISTING d:/MTK/MTK2503/MTK2503/11CW1418SP4_03_CORETEK03AE_11C_V1_GPRS_MMI/plutommi/Customer/ResGenerator/gcctmp/ccaodaaa.s 			page 29


 3304 0f48 0F840A01 		je	L70
 3304      0000
 499:../../MMI/Resource/WriteImgRes.c ****     {
 500:../../MMI/Resource/WriteImgRes.c ****         int i, len;
 501:../../MMI/Resource/WriteImgRes.c **** 
 502:../../MMI/Resource/WriteImgRes.c ****         len = strlen(filename_buffer);
 3306              	LM86:
 3307              	LBB7:
 3308 0f4e 8D85E8EF 		leal	-4120(%ebp), %eax
 3308      FFFF
 3309 0f54 890424   		movl	%eax, (%esp)
 3310 0f57 E8000000 		call	_strlen
 3310      00
 3311 0f5c 8985C8ED 		movl	%eax, -4664(%ebp)
 3311      FFFF
 503:../../MMI/Resource/WriteImgRes.c **** 
 504:../../MMI/Resource/WriteImgRes.c ****         for (i = len; i > 0; i--)
 3313              	LM87:
 3314 0f62 8B85C8ED 		movl	-4664(%ebp), %eax
 3314      FFFF
 3315 0f68 8985CCED 		movl	%eax, -4660(%ebp)
 3315      FFFF
 3316              	L71:
 3317 0f6e 83BDCCED 		cmpl	$0, -4660(%ebp)
 3317      FFFF00
 3318 0f75 7F05     		jg	L74
 3319 0f77 E9CB0000 		jmp	L72
 3319      00
 3320              	L74:
 505:../../MMI/Resource/WriteImgRes.c ****         {
 506:../../MMI/Resource/WriteImgRes.c ****             if (filename_buffer[i - 0] == 'U' && filename_buffer[i - 1] == 'N' && filename_buffer[i
 3322              	LM88:
 3323 0f7c 8D45F8   		leal	-8(%ebp), %eax
 3324 0f7f 0385CCED 		addl	-4660(%ebp), %eax
 3324      FFFF
 3325 0f85 2D101000 		subl	$4112, %eax
 3325      00
 3326 0f8a 803855   		cmpb	$85, (%eax)
 3327 0f8d 0F858500 		jne	L75
 3327      0000
 3328 0f93 8D45F8   		leal	-8(%ebp), %eax
 3329 0f96 0385CCED 		addl	-4660(%ebp), %eax
 3329      FFFF
 3330 0f9c 2D111000 		subl	$4113, %eax
 3330      00
 3331 0fa1 80384E   		cmpb	$78, (%eax)
 3332 0fa4 7572     		jne	L75
 3333 0fa6 8D45F8   		leal	-8(%ebp), %eax
 3334 0fa9 0385CCED 		addl	-4660(%ebp), %eax
 3334      FFFF
 3335 0faf 2D121000 		subl	$4114, %eax
 3335      00
 3336 0fb4 803845   		cmpb	$69, (%eax)
 3337 0fb7 755F     		jne	L75
 3338 0fb9 8D45F8   		leal	-8(%ebp), %eax
 3339 0fbc 0385CCED 		addl	-4660(%ebp), %eax
 3339      FFFF
GAS LISTING d:/MTK/MTK2503/MTK2503/11CW1418SP4_03_CORETEK03AE_11C_V1_GPRS_MMI/plutommi/Customer/ResGenerator/gcctmp/ccaodaaa.s 			page 30


 3340 0fc2 2D131000 		subl	$4115, %eax
 3340      00
 3341 0fc7 80384D   		cmpb	$77, (%eax)
 3342 0fca 754C     		jne	L75
 3343 0fcc 8D45F8   		leal	-8(%ebp), %eax
 3344 0fcf 0385CCED 		addl	-4660(%ebp), %eax
 3344      FFFF
 3345 0fd5 2D141000 		subl	$4116, %eax
 3345      00
 3346 0fda 803842   		cmpb	$66, (%eax)
 3347 0fdd 7539     		jne	L75
 3348 0fdf 8D45F8   		leal	-8(%ebp), %eax
 3349 0fe2 0385CCED 		addl	-4660(%ebp), %eax
 3349      FFFF
 3350 0fe8 2D151000 		subl	$4117, %eax
 3350      00
 3351 0fed 803855   		cmpb	$85, (%eax)
 3352 0ff0 7526     		jne	L75
 3353 0ff2 8D45F8   		leal	-8(%ebp), %eax
 3354 0ff5 0385CCED 		addl	-4660(%ebp), %eax
 3354      FFFF
 3355 0ffb 2D161000 		subl	$4118, %eax
 3355      00
 3356 1000 803853   		cmpb	$83, (%eax)
 3357 1003 7513     		jne	L75
 507:../../MMI/Resource/WriteImgRes.c ****                 filename_buffer[i - 3] == 'M' && filename_buffer[i - 4] == 'B' && filename_buffer[i
 508:../../MMI/Resource/WriteImgRes.c ****                 filename_buffer[i - 6] == 'S')
 509:../../MMI/Resource/WriteImgRes.c ****             {
 510:../../MMI/Resource/WriteImgRes.c ****                 filename_buffer[i + 1] = '2';
 3359              	LM89:
 3360 1005 8D45F8   		leal	-8(%ebp), %eax
 3361 1008 0385CCED 		addl	-4660(%ebp), %eax
 3361      FFFF
 3362 100e 2D0F1000 		subl	$4111, %eax
 3362      00
 3363 1013 C60032   		movb	$50, (%eax)
 511:../../MMI/Resource/WriteImgRes.c ****                 break;
 3365              	LM90:
 3366 1016 EB2F     		jmp	L72
 3367              	L75:
 512:../../MMI/Resource/WriteImgRes.c ****             }
 513:../../MMI/Resource/WriteImgRes.c ****             else
 514:../../MMI/Resource/WriteImgRes.c ****             {
 515:../../MMI/Resource/WriteImgRes.c ****                 filename_buffer[i + 1] = filename_buffer[i];
 3369              	LM91:
 3370 1018 8D45F8   		leal	-8(%ebp), %eax
 3371 101b 0385CCED 		addl	-4660(%ebp), %eax
 3371      FFFF
 3372 1021 8D90F1EF 		leal	-4111(%eax), %edx
 3372      FFFF
 3373 1027 8D45F8   		leal	-8(%ebp), %eax
 3374 102a 0385CCED 		addl	-4660(%ebp), %eax
 3374      FFFF
 3375 1030 2D101000 		subl	$4112, %eax
 3375      00
 3376 1035 0FB600   		movzbl	(%eax), %eax
 3377 1038 8802     		movb	%al, (%edx)
GAS LISTING d:/MTK/MTK2503/MTK2503/11CW1418SP4_03_CORETEK03AE_11C_V1_GPRS_MMI/plutommi/Customer/ResGenerator/gcctmp/ccaodaaa.s 			page 31


 3379              	LM92:
 3380 103a 8D85CCED 		leal	-4660(%ebp), %eax
 3380      FFFF
 3381 1040 FF08     		decl	(%eax)
 3382 1042 E927FFFF 		jmp	L71
 3382      FF
 3383              	L72:
 516:../../MMI/Resource/WriteImgRes.c ****             }
 517:../../MMI/Resource/WriteImgRes.c **** 
 518:../../MMI/Resource/WriteImgRes.c ****         }
 519:../../MMI/Resource/WriteImgRes.c ****         filename_buffer[len + 1] = '\0';
 3385              	LM93:
 3386 1047 8D45F8   		leal	-8(%ebp), %eax
 3387 104a 0385C8ED 		addl	-4664(%ebp), %eax
 3387      FFFF
 3388 1050 2D0F1000 		subl	$4111, %eax
 3388      00
 3389 1055 C60000   		movb	$0, (%eax)
 3390              	L70:
 520:../../MMI/Resource/WriteImgRes.c ****     }
 521:../../MMI/Resource/WriteImgRes.c **** #endif /* __MMI_SLIM_LISTMENU_NUMBER__ */
 522:../../MMI/Resource/WriteImgRes.c **** 
 523:../../MMI/Resource/WriteImgRes.c ****     failure_flag = MMI_FALSE;
 3392              	LM94:
 3393              	LBE7:
 3394 1058 C745F400 		movl	$0, -12(%ebp)
 3394      000000
 524:../../MMI/Resource/WriteImgRes.c **** 
 525:../../MMI/Resource/WriteImgRes.c ****     /* For 128x128, it does not support ABM.
 526:../../MMI/Resource/WriteImgRes.c ****      * In order not to modify res_xxx.c, we have to
 527:../../MMI/Resource/WriteImgRes.c ****      * find the correct filename automatically */
 528:../../MMI/Resource/WriteImgRes.c ****     /* This rule, renaming PNG -> other format, will apply for all */
 529:../../MMI/Resource/WriteImgRes.c ****     if (file_exist(filename_buffer) == MMI_FALSE)
 3396              	LM95:
 3397 105f 8D85E8EF 		leal	-4120(%ebp), %eax
 3397      FFFF
 3398 1065 890424   		movl	%eax, (%esp)
 3399 1068 E8000000 		call	_file_exist
 3399      00
 3400 106d 85C0     		testl	%eax, %eax
 3401 106f 0F85FF00 		jne	L77
 3401      0000
 530:../../MMI/Resource/WriteImgRes.c ****     {
 531:../../MMI/Resource/WriteImgRes.c ****         S32 ext_type_1 = -1;
 3403              	LM96:
 3404              	LBB8:
 3405 1075 C785C8ED 		movl	$-1, -4664(%ebp)
 3405      FFFFFFFF 
 3405      FFFF
 532:../../MMI/Resource/WriteImgRes.c ****         ext_type_1 = ExtractExtension(filename_buffer, RES_IMAGE);
 3407              	LM97:
 3408 107f C7442404 		movl	$0, 4(%esp)
 3408      00000000 
 3409 1087 8D85E8EF 		leal	-4120(%ebp), %eax
 3409      FFFF
 3410 108d 890424   		movl	%eax, (%esp)
 3411 1090 E8000000 		call	_ExtractExtension
GAS LISTING d:/MTK/MTK2503/MTK2503/11CW1418SP4_03_CORETEK03AE_11C_V1_GPRS_MMI/plutommi/Customer/ResGenerator/gcctmp/ccaodaaa.s 			page 32


 3411      00
 3412 1095 0FB6C0   		movzbl	%al, %eax
 3413 1098 8985C8ED 		movl	%eax, -4664(%ebp)
 3413      FFFF
 533:../../MMI/Resource/WriteImgRes.c ****         if (ext_type_1 == IMAGE_TYPE_PNG)
 3415              	LM98:
 3416 109e 83BDC8ED 		cmpl	$19, -4664(%ebp)
 3416      FFFF13
 3417 10a5 0F85C900 		jne	L77
 3417      0000
 534:../../MMI/Resource/WriteImgRes.c ****         {
 535:../../MMI/Resource/WriteImgRes.c ****             S32 i, count;
 536:../../MMI/Resource/WriteImgRes.c **** 
 537:../../MMI/Resource/WriteImgRes.c ****             count = sizeof(image_resource_info)/sizeof(RESOURCE_INFO);
 3419              	LM99:
 3420              	LBB9:
 3421 10ab C785C0ED 		movl	$21, -4672(%ebp)
 3421      FFFF1500 
 3421      0000
 538:../../MMI/Resource/WriteImgRes.c ****             for (i = 0; i < count; i++)
 3423              	LM100:
 3424 10b5 C785C4ED 		movl	$0, -4668(%ebp)
 3424      FFFF0000 
 3424      0000
 3425              	L79:
 3426 10bf 8B85C4ED 		movl	-4668(%ebp), %eax
 3426      FFFF
 3427 10c5 3B85C0ED 		cmpl	-4672(%ebp), %eax
 3427      FFFF
 3428 10cb 7C02     		jl	L82
 3429 10cd EB5C     		jmp	L80
 3430              	L82:
 539:../../MMI/Resource/WriteImgRes.c ****             {
 540:../../MMI/Resource/WriteImgRes.c ****                 ChangeExtension(filename_buffer, RES_IMAGE, image_resource_info[i].file_type);
 3432              	LM101:
 3433 10cf 8B85C4ED 		movl	-4668(%ebp), %eax
 3433      FFFF
 3434 10d5 0FB604C5 		movzbl	_image_resource_info+4(,%eax,8), %eax
 3434      64000000 
 3435 10dd 89442408 		movl	%eax, 8(%esp)
 3436 10e1 C7442404 		movl	$0, 4(%esp)
 3436      00000000 
 3437 10e9 8D85E8EF 		leal	-4120(%ebp), %eax
 3437      FFFF
 3438 10ef 890424   		movl	%eax, (%esp)
 3439 10f2 E8000000 		call	_ChangeExtension
 3439      00
 541:../../MMI/Resource/WriteImgRes.c ****                 if (file_exist(filename_buffer) == MMI_TRUE)
 3441              	LM102:
 3442 10f7 8D85E8EF 		leal	-4120(%ebp), %eax
 3442      FFFF
 3443 10fd 890424   		movl	%eax, (%esp)
 3444 1100 E8000000 		call	_file_exist
 3444      00
 3445 1105 83F801   		cmpl	$1, %eax
 3446 1108 7517     		jne	L81
 542:../../MMI/Resource/WriteImgRes.c ****                 {
GAS LISTING d:/MTK/MTK2503/MTK2503/11CW1418SP4_03_CORETEK03AE_11C_V1_GPRS_MMI/plutommi/Customer/ResGenerator/gcctmp/ccaodaaa.s 			page 33


 543:../../MMI/Resource/WriteImgRes.c ****                     strcpy(processData->real_filename, filename_buffer);
 3448              	LM103:
 3449 110a 8D85E8EF 		leal	-4120(%ebp), %eax
 3449      FFFF
 3450 1110 89442404 		movl	%eax, 4(%esp)
 3451 1114 8B4514   		movl	20(%ebp), %eax
 3452 1117 890424   		movl	%eax, (%esp)
 3453 111a E8000000 		call	_strcpy
 3453      00
 544:../../MMI/Resource/WriteImgRes.c ****                     break;
 3455              	LM104:
 3456 111f EB0A     		jmp	L80
 3458              	LM105:
 3459              	L81:
 3460 1121 8D85C4ED 		leal	-4668(%ebp), %eax
 3460      FFFF
 3461 1127 FF00     		incl	(%eax)
 3462 1129 EB94     		jmp	L79
 3463              	L80:
 545:../../MMI/Resource/WriteImgRes.c ****                 }
 546:../../MMI/Resource/WriteImgRes.c ****             }
 547:../../MMI/Resource/WriteImgRes.c ****             if (i == count)
 3465              	LM106:
 3466 112b 8B85C4ED 		movl	-4668(%ebp), %eax
 3466      FFFF
 3467 1131 3B85C0ED 		cmpl	-4672(%ebp), %eax
 3467      FFFF
 3468 1137 753B     		jne	L77
 548:../../MMI/Resource/WriteImgRes.c ****             {
 549:../../MMI/Resource/WriteImgRes.c ****                 ChangeExtension(filename_buffer, RES_IMAGE, IMAGE_TYPE_PNG);
 3470              	LM107:
 3471 1139 C7442408 		movl	$19, 8(%esp)
 3471      13000000 
 3472 1141 C7442404 		movl	$0, 4(%esp)
 3472      00000000 
 3473 1149 8D85E8EF 		leal	-4120(%ebp), %eax
 3473      FFFF
 3474 114f 890424   		movl	%eax, (%esp)
 3475 1152 E8000000 		call	_ChangeExtension
 3475      00
 550:../../MMI/Resource/WriteImgRes.c ****                 RES_PRINT_INFO("[ABM] %s\tcannot open file for all supported formats!!!\n", filenam
 3477              	LM108:
 3478 1157 8D85E8EF 		leal	-4120(%ebp), %eax
 3478      FFFF
 3479 115d 89442404 		movl	%eax, 4(%esp)
 3480 1161 C7042400 		movl	$LC46, (%esp)
 3480      0B0000
 3481 1168 E8000000 		call	_MtkResgenTrace
 3481      00
 551:../../MMI/Resource/WriteImgRes.c ****                 flag_file_exist = MMI_FALSE;
 3483              	LM109:
 3484 116d C745F000 		movl	$0, -16(%ebp)
 3484      000000
 3485              	L77:
 552:../../MMI/Resource/WriteImgRes.c ****             }
 553:../../MMI/Resource/WriteImgRes.c ****         }
 554:../../MMI/Resource/WriteImgRes.c ****     }
GAS LISTING d:/MTK/MTK2503/MTK2503/11CW1418SP4_03_CORETEK03AE_11C_V1_GPRS_MMI/plutommi/Customer/ResGenerator/gcctmp/ccaodaaa.s 			page 34


 555:../../MMI/Resource/WriteImgRes.c **** 
 556:../../MMI/Resource/WriteImgRes.c ****     /* ABM encoding */
 557:../../MMI/Resource/WriteImgRes.c ****     if ((failure_flag == MMI_FALSE) &&
 3487              	LM110:
 3488              	LBE9:
 3489              	LBE8:
 3490 1174 837DF400 		cmpl	$0, -12(%ebp)
 3491 1178 0F85FE03 		jne	L85
 3491      0000
 3492 117e 8D85E8EF 		leal	-4120(%ebp), %eax
 3492      FFFF
 3493 1184 890424   		movl	%eax, (%esp)
 3494 1187 E8320B00 		call	_isEmsImage
 3494      00
 3495 118c 84C0     		testb	%al, %al
 3496 118e 0F85E803 		jne	L85
 3496      0000
 558:../../MMI/Resource/WriteImgRes.c ****         !isEmsImage(filename_buffer))
 559:../../MMI/Resource/WriteImgRes.c ****     {
 560:../../MMI/Resource/WriteImgRes.c ****         S32 ext_type_2 = -1;
 3498              	LM111:
 3499              	LBB10:
 3500 1194 C785C0ED 		movl	$-1, -4672(%ebp)
 3500      FFFFFFFF 
 3500      FFFF
 561:../../MMI/Resource/WriteImgRes.c ****         ext_type_2 = ExtractExtension(filename_buffer, RES_IMAGE);
 3502              	LM112:
 3503 119e C7442404 		movl	$0, 4(%esp)
 3503      00000000 
 3504 11a6 8D85E8EF 		leal	-4120(%ebp), %eax
 3504      FFFF
 3505 11ac 890424   		movl	%eax, (%esp)
 3506 11af E8000000 		call	_ExtractExtension
 3506      00
 3507 11b4 0FB6C0   		movzbl	%al, %eax
 3508 11b7 8985C0ED 		movl	%eax, -4672(%ebp)
 3508      FFFF
 562:../../MMI/Resource/WriteImgRes.c **** 
 563:../../MMI/Resource/WriteImgRes.c **** #if defined(__MMI_ALPHA_BLENDING__)
 564:../../MMI/Resource/WriteImgRes.c ****         /* If PNG, we will convert it to ABM conditionally */
 565:../../MMI/Resource/WriteImgRes.c ****         if (ext_type_2 == IMAGE_TYPE_PNG)
 3510              	LM113:
 3511 11bd 83BDC0ED 		cmpl	$19, -4672(%ebp)
 3511      FFFF13
 3512 11c4 0F85AB02 		jne	L86
 3512      0000
 566:../../MMI/Resource/WriteImgRes.c ****         {
 567:../../MMI/Resource/WriteImgRes.c ****             BOOL is_need_convert = TRUE;
 3514              	LM114:
 3515              	LBB11:
 3516 11ca C785C4ED 		movl	$1, -4668(%ebp)
 3516      FFFF0100 
 3516      0000
 568:../../MMI/Resource/WriteImgRes.c ****             S8 tempBMPFile[BUFFER_SIZE];
 569:../../MMI/Resource/WriteImgRes.c **** 
 570:../../MMI/Resource/WriteImgRes.c ****             /* convert PNG to 32-bits BMP */
 571:../../MMI/Resource/WriteImgRes.c ****             if (strlen(filename_buffer) >  BUFFER_SIZE)
GAS LISTING d:/MTK/MTK2503/MTK2503/11CW1418SP4_03_CORETEK03AE_11C_V1_GPRS_MMI/plutommi/Customer/ResGenerator/gcctmp/ccaodaaa.s 			page 35


 3518              	LM115:
 3519 11d4 8D85E8EF 		leal	-4120(%ebp), %eax
 3519      FFFF
 3520 11da 890424   		movl	%eax, (%esp)
 3521 11dd E8000000 		call	_strlen
 3521      00
 3522 11e2 3D001000 		cmpl	$4096, %eax
 3522      00
 3523 11e7 7638     		jbe	L87
 572:../../MMI/Resource/WriteImgRes.c ****             {
 573:../../MMI/Resource/WriteImgRes.c ****                 RESIMG_LOG_E("Iload: strlen(filename_buffer) >  BUFFER_SIZE\n");
 3525              	LM116:
 3526 11e9 C7442408 		movl	$LC47, 8(%esp)
 3526      400B0000 
 3527 11f1 C7442404 		movl	$LC34, 4(%esp)
 3527      64060000 
 3528 11f9 C7042403 		movl	$3, (%esp)
 3528      000000
 3529 1200 E8000000 		call	_reslog_adaptor_log
 3529      00
 574:../../MMI/Resource/WriteImgRes.c ****                 assert(0);
 3531              	LM117:
 3532 1205 C7442408 		movl	$574, 8(%esp)
 3532      3E020000 
 3533 120d C7442404 		movl	$LC35, 4(%esp)
 3533      80060000 
 3534 1215 C70424A1 		movl	$LC36, (%esp)
 3534      060000
 3535 121c E8000000 		call	__assert
 3535      00
 3536              	L87:
 575:../../MMI/Resource/WriteImgRes.c ****                 exit(2);
 576:../../MMI/Resource/WriteImgRes.c ****             }
 577:../../MMI/Resource/WriteImgRes.c ****             strcpy((char*)tempBMPFile, (const char*)filename_buffer);
 3538              	LM118:
 3539 1221 8D85E8EF 		leal	-4120(%ebp), %eax
 3539      FFFF
 3540 1227 89442404 		movl	%eax, 4(%esp)
 3541 122b 8D85B8DD 		leal	-8776(%ebp), %eax
 3541      FFFF
 3542 1231 890424   		movl	%eax, (%esp)
 3543 1234 E8000000 		call	_strcpy
 3543      00
 578:../../MMI/Resource/WriteImgRes.c **** 
 579:../../MMI/Resource/WriteImgRes.c ****             if ((strlen(filename_buffer)+strlen(tempBMPFile)) >  MAX_FILENAME_LEN)
 3545              	LM119:
 3546 1239 8D85E8EF 		leal	-4120(%ebp), %eax
 3546      FFFF
 3547 123f 890424   		movl	%eax, (%esp)
 3548 1242 E8000000 		call	_strlen
 3548      00
 3549 1247 89C3     		movl	%eax, %ebx
 3550 1249 8D85B8DD 		leal	-8776(%ebp), %eax
 3550      FFFF
 3551 124f 890424   		movl	%eax, (%esp)
 3552 1252 E8000000 		call	_strlen
 3552      00
GAS LISTING d:/MTK/MTK2503/MTK2503/11CW1418SP4_03_CORETEK03AE_11C_V1_GPRS_MMI/plutommi/Customer/ResGenerator/gcctmp/ccaodaaa.s 			page 36


 3553 1257 8D0418   		leal	(%eax,%ebx), %eax
 3554 125a 3D000200 		cmpl	$512, %eax
 3554      00
 3555 125f 7638     		jbe	L88
 580:../../MMI/Resource/WriteImgRes.c ****             {
 581:../../MMI/Resource/WriteImgRes.c ****                 RESIMG_LOG_E("Iload: (strlen(filename_buffer)+strlen(tempBMPFile)) >  MAX_FILENAME_
 3557              	LM120:
 3558 1261 C7442408 		movl	$LC48, 8(%esp)
 3558      800B0000 
 3559 1269 C7442404 		movl	$LC34, 4(%esp)
 3559      64060000 
 3560 1271 C7042403 		movl	$3, (%esp)
 3560      000000
 3561 1278 E8000000 		call	_reslog_adaptor_log
 3561      00
 582:../../MMI/Resource/WriteImgRes.c ****                 assert(0);
 3563              	LM121:
 3564 127d C7442408 		movl	$582, 8(%esp)
 3564      46020000 
 3565 1285 C7442404 		movl	$LC35, 4(%esp)
 3565      80060000 
 3566 128d C70424A1 		movl	$LC36, (%esp)
 3566      060000
 3567 1294 E8000000 		call	__assert
 3567      00
 3568              	L88:
 583:../../MMI/Resource/WriteImgRes.c ****                 exit(2);
 584:../../MMI/Resource/WriteImgRes.c ****             }
 585:../../MMI/Resource/WriteImgRes.c **** 
 586:../../MMI/Resource/WriteImgRes.c ****             ChangeExtension(tempBMPFile, RES_IMAGE, IMAGE_TYPE_BMP);
 3570              	LM122:
 3571 1299 C7442408 		movl	$1, 8(%esp)
 3571      01000000 
 3572 12a1 C7442404 		movl	$0, 4(%esp)
 3572      00000000 
 3573 12a9 8D85B8DD 		leal	-8776(%ebp), %eax
 3573      FFFF
 3574 12af 890424   		movl	%eax, (%esp)
 3575 12b2 E8000000 		call	_ChangeExtension
 3575      00
 587:../../MMI/Resource/WriteImgRes.c ****             strcat(tempBMPFile, "A");
 3577              	LM123:
 3578 12b7 C7442404 		movl	$LC49, 4(%esp)
 3578      CA0B0000 
 3579 12bf 8D85B8DD 		leal	-8776(%ebp), %eax
 3579      FFFF
 3580 12c5 890424   		movl	%eax, (%esp)
 3581 12c8 E8000000 		call	_strcat
 3581      00
 588:../../MMI/Resource/WriteImgRes.c **** 
 589:../../MMI/Resource/WriteImgRes.c ****             if (toolFlag != 1)
 3583              	LM124:
 3584 12cd 833D0000 		cmpl	$1, _toolFlag
 3584      000001
 3585 12d4 743D     		je	L89
 590:../../MMI/Resource/WriteImgRes.c ****             {
 591:../../MMI/Resource/WriteImgRes.c ****                 if (resgen_compare_file_time(tempBMPFile, filename_buffer) == -1)
GAS LISTING d:/MTK/MTK2503/MTK2503/11CW1418SP4_03_CORETEK03AE_11C_V1_GPRS_MMI/plutommi/Customer/ResGenerator/gcctmp/ccaodaaa.s 			page 37


 3587              	LM125:
 3588 12d6 8D85E8EF 		leal	-4120(%ebp), %eax
 3588      FFFF
 3589 12dc 89442404 		movl	%eax, 4(%esp)
 3590 12e0 8D85B8DD 		leal	-8776(%ebp), %eax
 3590      FFFF
 3591 12e6 890424   		movl	%eax, (%esp)
 3592 12e9 E8000000 		call	_resgen_compare_file_time
 3592      00
 3593 12ee 83F8FF   		cmpl	$-1, %eax
 3594 12f1 7520     		jne	L89
 592:../../MMI/Resource/WriteImgRes.c ****                 {
 593:../../MMI/Resource/WriteImgRes.c ****                     is_need_convert = FALSE;
 3596              	LM126:
 3597 12f3 C785C4ED 		movl	$0, -4668(%ebp)
 3597      FFFF0000 
 3597      0000
 594:../../MMI/Resource/WriteImgRes.c ****                     RES_PRINT_INFO("[%s] no need convert 01\n", filename_buffer);
 3599              	LM127:
 3600 12fd 8D85E8EF 		leal	-4120(%ebp), %eax
 3600      FFFF
 3601 1303 89442404 		movl	%eax, 4(%esp)
 3602 1307 C70424CC 		movl	$LC50, (%esp)
 3602      0B0000
 3603 130e E8000000 		call	_MtkResgenTrace
 3603      00
 3604              	L89:
 595:../../MMI/Resource/WriteImgRes.c ****                 }
 596:../../MMI/Resource/WriteImgRes.c ****             }
 597:../../MMI/Resource/WriteImgRes.c **** 
 598:../../MMI/Resource/WriteImgRes.c ****             if (is_need_convert && flag_file_exist)
 3606              	LM128:
 3607 1313 83BDC4ED 		cmpl	$0, -4668(%ebp)
 3607      FFFF00
 3608 131a 746B     		je	L91
 3609 131c 837DF000 		cmpl	$0, -16(%ebp)
 3610 1320 7465     		je	L91
 599:../../MMI/Resource/WriteImgRes.c ****             {
 600:../../MMI/Resource/WriteImgRes.c ****                 S8 tempCommand[SHELL_CMD_BUFLEN];
 601:../../MMI/Resource/WriteImgRes.c ****                 //sprintf(tempCommand, ".\\\\convert.exe -channel Alpha -negate -compress none png:
 602:../../MMI/Resource/WriteImgRes.c ****                 sprintf(tempCommand, ".\\\\convert.exe -channel Alpha -negate -compress none png:%s
 3612              	LM129:
 3613              	LBB12:
 3614 1322 8D85B8DD 		leal	-8776(%ebp), %eax
 3614      FFFF
 3615 1328 8944240C 		movl	%eax, 12(%esp)
 3616 132c 8D85E8EF 		leal	-4120(%ebp), %eax
 3616      FFFF
 3617 1332 89442408 		movl	%eax, 8(%esp)
 3618 1336 C7442404 		movl	$LC51, 4(%esp)
 3618      000C0000 
 3619 133e 8D8548DB 		leal	-9400(%ebp), %eax
 3619      FFFF
 3620 1344 890424   		movl	%eax, (%esp)
 3621 1347 E8000000 		call	_sprintf
 3621      00
 603:../../MMI/Resource/WriteImgRes.c ****                 RES_PRINT_INFO("%s\n", tempCommand);
GAS LISTING d:/MTK/MTK2503/MTK2503/11CW1418SP4_03_CORETEK03AE_11C_V1_GPRS_MMI/plutommi/Customer/ResGenerator/gcctmp/ccaodaaa.s 			page 38


 3623              	LM130:
 3624 134c 8D8548DB 		leal	-9400(%ebp), %eax
 3624      FFFF
 3625 1352 89442404 		movl	%eax, 4(%esp)
 3626 1356 C7042449 		movl	$LC52, (%esp)
 3626      0C0000
 3627 135d E8000000 		call	_MtkResgenTrace
 3627      00
 604:../../MMI/Resource/WriteImgRes.c ****                 ASSERT(SHELL_CMD_BUFLEN > strlen(tempCommand));
 3629              	LM131:
 3630 1362 8D8548DB 		leal	-9400(%ebp), %eax
 3630      FFFF
 3631 1368 890424   		movl	%eax, (%esp)
 3632 136b E8000000 		call	_strlen
 3632      00
 3633 1370 3D630200 		cmpl	$611, %eax
 3633      00
 3634 1375 7602     		jbe	L96
 3635              	L93:
 3636 1377 EBFE     		jmp	L93
 3637              	L96:
 605:../../MMI/Resource/WriteImgRes.c **** 
 606:../../MMI/Resource/WriteImgRes.c ****                 system(tempCommand);
 3639              	LM132:
 3640 1379 8D8548DB 		leal	-9400(%ebp), %eax
 3640      FFFF
 3641 137f 890424   		movl	%eax, (%esp)
 3642 1382 E8000000 		call	_system
 3642      00
 3643              	L91:
 607:../../MMI/Resource/WriteImgRes.c ****             }
 608:../../MMI/Resource/WriteImgRes.c **** 
 609:../../MMI/Resource/WriteImgRes.c ****             /* convert 32-bits BMP to ABM */
 610:../../MMI/Resource/WriteImgRes.c ****             failure_flag = Write_Processed_Data(tempBMPFile, IMAGE_TYPE_ABM, output_image_names, pr
 3645              	LM133:
 3646              	LBE12:
 3647 1387 8D85D0ED 		leal	-4656(%ebp), %eax
 3647      FFFF
 3648 138d 89442428 		movl	%eax, 40(%esp)
 3649 1391 8B4514   		movl	20(%ebp), %eax
 3650 1394 89442424 		movl	%eax, 36(%esp)
 3651 1398 8D85D8ED 		leal	-4648(%ebp), %eax
 3651      FFFF
 3652 139e 89442420 		movl	%eax, 32(%esp)
 3653 13a2 8B85D4ED 		movl	-4652(%ebp), %eax
 3653      FFFF
 3654 13a8 8944241C 		movl	%eax, 28(%esp)
 3655 13ac 8B4510   		movl	16(%ebp), %eax
 3656 13af 89442418 		movl	%eax, 24(%esp)
 3657 13b3 8B85E4EF 		movl	-4124(%ebp), %eax
 3657      FFFF
 3658 13b9 89442414 		movl	%eax, 20(%esp)
 3659 13bd 8B450C   		movl	12(%ebp), %eax
 3660 13c0 89442410 		movl	%eax, 16(%esp)
 3661 13c4 8B4514   		movl	20(%ebp), %eax
 3662 13c7 8B800402 		movl	516(%eax), %eax
 3662      0000
GAS LISTING d:/MTK/MTK2503/MTK2503/11CW1418SP4_03_CORETEK03AE_11C_V1_GPRS_MMI/plutommi/Customer/ResGenerator/gcctmp/ccaodaaa.s 			page 39


 3663 13cd 8944240C 		movl	%eax, 12(%esp)
 3664 13d1 8B45EC   		movl	-20(%ebp), %eax
 3665 13d4 89442408 		movl	%eax, 8(%esp)
 3666 13d8 C7442404 		movl	$40, 4(%esp)
 3666      28000000 
 3667 13e0 8D85B8DD 		leal	-8776(%ebp), %eax
 3667      FFFF
 3668 13e6 890424   		movl	%eax, (%esp)
 3669 13e9 E8100B00 		call	_Write_Processed_Data
 3669      00
 3670 13ee 8945F4   		movl	%eax, -12(%ebp)
 611:../../MMI/Resource/WriteImgRes.c ****             if(failure_flag == MMI_FALSE && proc_img_err_code ==  ABM_ENC_INPUT_BITMAP_ERROR)
 3672              	LM134:
 3673 13f1 837DF400 		cmpl	$0, -12(%ebp)
 3674 13f5 0F858101 		jne	L85
 3674      0000
 3675 13fb 83BDD0ED 		cmpl	$-2, -4656(%ebp)
 3675      FFFFFE
 3676 1402 0F857401 		jne	L85
 3676      0000
 612:../../MMI/Resource/WriteImgRes.c ****             {
 613:../../MMI/Resource/WriteImgRes.c ****                   // Release resoruce before return
 614:../../MMI/Resource/WriteImgRes.c ****             	    if (extImageFlag == NFB_PROGRESS_IMAGE)
 3678              	LM135:
 3679 1408 837D0C02 		cmpl	$2, 12(%ebp)
 3680 140c 754D     		jne	L98
 615:../../MMI/Resource/WriteImgRes.c ****             	    {
 616:../../MMI/Resource/WriteImgRes.c ****             	        RESIMG_LOG_V("NFB_PROGRESS_IMAGE is set - Close CustNFBProgressImg.c before Il
 3682              	LM136:
 3683 140e C7442408 		movl	$LC45, 8(%esp)
 3683      A00A0000 
 3684 1416 C7442404 		movl	$LC34, 4(%esp)
 3684      64060000 
 3685 141e C7042401 		movl	$1, (%esp)
 3685      000000
 3686 1425 E8000000 		call	_reslog_adaptor_log
 3686      00
 617:../../MMI/Resource/WriteImgRes.c ****                       fflush(stdout);
 3688              	LM137:
 3689 142a A1000000 		movl	__imp___iob, %eax
 3689      00
 3690 142f 83C020   		addl	$32, %eax
 3691 1432 890424   		movl	%eax, (%esp)
 3692 1435 E8000000 		call	_fflush
 3692      00
 618:../../MMI/Resource/WriteImgRes.c ****                       MYFCLOSE(nfb_img_res_file);
 3694              	LM138:
 3695 143a 83BDD4ED 		cmpl	$0, -4652(%ebp)
 3695      FFFF00
 3696 1441 7418     		je	L98
 3697 1443 8B85D4ED 		movl	-4652(%ebp), %eax
 3697      FFFF
 3698 1449 890424   		movl	%eax, (%esp)
 3699 144c E8000000 		call	_fclose
 3699      00
 3700 1451 C785D4ED 		movl	$0, -4652(%ebp)
 3700      FFFF0000 
GAS LISTING d:/MTK/MTK2503/MTK2503/11CW1418SP4_03_CORETEK03AE_11C_V1_GPRS_MMI/plutommi/Customer/ResGenerator/gcctmp/ccaodaaa.s 			page 40


 3700      0000
 3701              	L98:
 619:../../MMI/Resource/WriteImgRes.c ****                   }
 620:../../MMI/Resource/WriteImgRes.c ****                   free(output_image_names);
 3703              	LM139:
 3704 145b 8B45EC   		movl	-20(%ebp), %eax
 3705 145e 890424   		movl	%eax, (%esp)
 3706 1461 E8000000 		call	_free
 3706      00
 621:../../MMI/Resource/WriteImgRes.c ****                   return MMI_FALSE;
 3708              	LM140:
 3709 1466 C785C8D8 		movl	$0, -10040(%ebp)
 3709      FFFF0000 
 3709      0000
 3710 1470 E9280800 		jmp	L57
 3710      00
 3711              	L86:
 622:../../MMI/Resource/WriteImgRes.c ****             }
 623:../../MMI/Resource/WriteImgRes.c ****         }
 624:../../MMI/Resource/WriteImgRes.c ****         else
 625:../../MMI/Resource/WriteImgRes.c **** #endif /* defined(__MMI_ALPHA_BLENDING__) */
 626:../../MMI/Resource/WriteImgRes.c **** 
 627:../../MMI/Resource/WriteImgRes.c ****         /* If BMP/PBM, we will convert it to ABM conditionally */
 628:../../MMI/Resource/WriteImgRes.c ****         if ((ext_type_2 == IMAGE_TYPE_BMP) ||
 3713              	LM141:
 3714              	LBE11:
 3715 1475 83BDC0ED 		cmpl	$1, -4672(%ebp)
 3715      FFFF01
 3716 147c 740E     		je	L103
 3717 147e 83BDC0ED 		cmpl	$4, -4672(%ebp)
 3717      FFFF04
 3718 1485 7405     		je	L103
 3719 1487 E9F00000 		jmp	L85
 3719      00
 3720              	L103:
 629:../../MMI/Resource/WriteImgRes.c ****             (ext_type_2 == IMAGE_TYPE_DEVICE_BITMAP))
 630:../../MMI/Resource/WriteImgRes.c ****         {
 631:../../MMI/Resource/WriteImgRes.c ****             if (ext_type_2 == IMAGE_TYPE_BMP)
 3722              	LM142:
 3723 148c 83BDC0ED 		cmpl	$1, -4672(%ebp)
 3723      FFFF01
 3724 1493 7577     		jne	L104
 632:../../MMI/Resource/WriteImgRes.c ****             {                
 633:../../MMI/Resource/WriteImgRes.c ****                 if (is16BitBMP(filename_buffer))
 3726              	LM143:
 3727 1495 8D85E8EF 		leal	-4120(%ebp), %eax
 3727      FFFF
 3728 149b 890424   		movl	%eax, (%esp)
 3729 149e E8000000 		call	_is16BitBMP
 3729      00
 3730 14a3 85C0     		testl	%eax, %eax
 3731 14a5 7465     		je	L104
 634:../../MMI/Resource/WriteImgRes.c ****                 {
 635:../../MMI/Resource/WriteImgRes.c ****                 	S8 tempCommand[SHELL_CMD_BUFLEN];
 636:../../MMI/Resource/WriteImgRes.c ****                     sprintf(tempCommand, ".\\\\convert.exe %s %s > NUL", filename_buffer, filename_
 3733              	LM144:
 3734              	LBB13:
GAS LISTING d:/MTK/MTK2503/MTK2503/11CW1418SP4_03_CORETEK03AE_11C_V1_GPRS_MMI/plutommi/Customer/ResGenerator/gcctmp/ccaodaaa.s 			page 41


 3735 14a7 8D85E8EF 		leal	-4120(%ebp), %eax
 3735      FFFF
 3736 14ad 8944240C 		movl	%eax, 12(%esp)
 3737 14b1 8D85E8EF 		leal	-4120(%ebp), %eax
 3737      FFFF
 3738 14b7 89442408 		movl	%eax, 8(%esp)
 3739 14bb C7442404 		movl	$LC53, 4(%esp)
 3739      4D0C0000 
 3740 14c3 8D85D8D8 		leal	-10024(%ebp), %eax
 3740      FFFF
 3741 14c9 890424   		movl	%eax, (%esp)
 3742 14cc E8000000 		call	_sprintf
 3742      00
 637:../../MMI/Resource/WriteImgRes.c **** 					RES_PRINT_INFO("%s\n", tempCommand);
 3744              	LM145:
 3745 14d1 8D85D8D8 		leal	-10024(%ebp), %eax
 3745      FFFF
 3746 14d7 89442404 		movl	%eax, 4(%esp)
 3747 14db C7042449 		movl	$LC52, (%esp)
 3747      0C0000
 3748 14e2 E8000000 		call	_MtkResgenTrace
 3748      00
 638:../../MMI/Resource/WriteImgRes.c **** 					ASSERT(SHELL_CMD_BUFLEN > strlen(tempCommand));
 3750              	LM146:
 3751 14e7 8D85D8D8 		leal	-10024(%ebp), %eax
 3751      FFFF
 3752 14ed 890424   		movl	%eax, (%esp)
 3753 14f0 E8000000 		call	_strlen
 3753      00
 3754 14f5 3D630200 		cmpl	$611, %eax
 3754      00
 3755 14fa 7602     		jbe	L110
 3756              	L107:
 3757 14fc EBFE     		jmp	L107
 3758              	L110:
 639:../../MMI/Resource/WriteImgRes.c **** 					system(tempCommand);
 3760              	LM147:
 3761 14fe 8D85D8D8 		leal	-10024(%ebp), %eax
 3761      FFFF
 3762 1504 890424   		movl	%eax, (%esp)
 3763 1507 E8000000 		call	_system
 3763      00
 3764              	L104:
 640:../../MMI/Resource/WriteImgRes.c ****                 }
 641:../../MMI/Resource/WriteImgRes.c ****             }
 642:../../MMI/Resource/WriteImgRes.c ****         
 643:../../MMI/Resource/WriteImgRes.c ****             if (force_type != FORCE_BMP)
 3766              	LM148:
 3767              	LBE13:
 3768 150c 837D1003 		cmpl	$3, 16(%ebp)
 3769 1510 746A     		je	L85
 644:../../MMI/Resource/WriteImgRes.c ****             {
 645:../../MMI/Resource/WriteImgRes.c ****                 failure_flag = Write_Processed_Data(filename_buffer, IMAGE_TYPE_ABM, output_image_n
 3771              	LM149:
 3772 1512 8D85D0ED 		leal	-4656(%ebp), %eax
 3772      FFFF
 3773 1518 89442428 		movl	%eax, 40(%esp)
GAS LISTING d:/MTK/MTK2503/MTK2503/11CW1418SP4_03_CORETEK03AE_11C_V1_GPRS_MMI/plutommi/Customer/ResGenerator/gcctmp/ccaodaaa.s 			page 42


 3774 151c 8B4514   		movl	20(%ebp), %eax
 3775 151f 89442424 		movl	%eax, 36(%esp)
 3776 1523 8D85D8ED 		leal	-4648(%ebp), %eax
 3776      FFFF
 3777 1529 89442420 		movl	%eax, 32(%esp)
 3778 152d 8B85D4ED 		movl	-4652(%ebp), %eax
 3778      FFFF
 3779 1533 8944241C 		movl	%eax, 28(%esp)
 3780 1537 8B4510   		movl	16(%ebp), %eax
 3781 153a 89442418 		movl	%eax, 24(%esp)
 3782 153e 8B85E4EF 		movl	-4124(%ebp), %eax
 3782      FFFF
 3783 1544 89442414 		movl	%eax, 20(%esp)
 3784 1548 8B450C   		movl	12(%ebp), %eax
 3785 154b 89442410 		movl	%eax, 16(%esp)
 3786 154f 8B4514   		movl	20(%ebp), %eax
 3787 1552 8B800402 		movl	516(%eax), %eax
 3787      0000
 3788 1558 8944240C 		movl	%eax, 12(%esp)
 3789 155c 8B45EC   		movl	-20(%ebp), %eax
 3790 155f 89442408 		movl	%eax, 8(%esp)
 3791 1563 C7442404 		movl	$40, 4(%esp)
 3791      28000000 
 3792 156b 8D85E8EF 		leal	-4120(%ebp), %eax
 3792      FFFF
 3793 1571 890424   		movl	%eax, (%esp)
 3794 1574 E8850900 		call	_Write_Processed_Data
 3794      00
 3795 1579 8945F4   		movl	%eax, -12(%ebp)
 3796              	L85:
 646:../../MMI/Resource/WriteImgRes.c ****             }
 647:../../MMI/Resource/WriteImgRes.c ****         }
 648:../../MMI/Resource/WriteImgRes.c **** 
 649:../../MMI/Resource/WriteImgRes.c ****         /* all of the resource above may not be converted to ABM certainly
 650:../../MMI/Resource/WriteImgRes.c ****          * if not, it will be populated as usual */
 651:../../MMI/Resource/WriteImgRes.c ****     }
 652:../../MMI/Resource/WriteImgRes.c **** 
 653:../../MMI/Resource/WriteImgRes.c ****     if (failure_flag == MMI_FALSE)
 3798              	LM150:
 3799              	LBE10:
 3800 157c 837DF400 		cmpl	$0, -12(%ebp)
 3801 1580 0F85D404 		jne	L112
 3801      0000
 654:../../MMI/Resource/WriteImgRes.c ****     {
 655:../../MMI/Resource/WriteImgRes.c ****         S16 filenameLen_1;
 656:../../MMI/Resource/WriteImgRes.c **** #ifdef __MMI_ALPHA_LAYER_SUPPORT__
 657:../../MMI/Resource/WriteImgRes.c ****         /* fetch PNG by GIF or BMP,
 658:../../MMI/Resource/WriteImgRes.c ****          * application can add PNG file directly without modifying Res_XXX.c */
 659:../../MMI/Resource/WriteImgRes.c ****         S32 ext_type_3 = -1;
 660:../../MMI/Resource/WriteImgRes.c ****         ext_type_3 = ExtractExtension(filename_buffer, RES_IMAGE);
 661:../../MMI/Resource/WriteImgRes.c ****         if (ext_type_3 == IMAGE_TYPE_GIF || ext_type_3 == IMAGE_TYPE_BMP)
 662:../../MMI/Resource/WriteImgRes.c ****         {
 663:../../MMI/Resource/WriteImgRes.c ****             ChangeExtension(filename_buffer, RES_IMAGE, IMAGE_TYPE_PNG);
 664:../../MMI/Resource/WriteImgRes.c ****         }
 665:../../MMI/Resource/WriteImgRes.c **** 
 666:../../MMI/Resource/WriteImgRes.c ****         if (file_exist(filename_buffer))
 667:../../MMI/Resource/WriteImgRes.c ****         {
GAS LISTING d:/MTK/MTK2503/MTK2503/11CW1418SP4_03_CORETEK03AE_11C_V1_GPRS_MMI/plutommi/Customer/ResGenerator/gcctmp/ccaodaaa.s 			page 43


 668:../../MMI/Resource/WriteImgRes.c ****             strcpy(processData->real_filename, filename_buffer);
 669:../../MMI/Resource/WriteImgRes.c ****         }
 670:../../MMI/Resource/WriteImgRes.c ****         else
 671:../../MMI/Resource/WriteImgRes.c ****         {
 672:../../MMI/Resource/WriteImgRes.c ****             ChangeExtension(filename_buffer, RES_IMAGE, ext_type_3);
 673:../../MMI/Resource/WriteImgRes.c ****         }
 674:../../MMI/Resource/WriteImgRes.c **** #endif
 675:../../MMI/Resource/WriteImgRes.c **** 
 676:../../MMI/Resource/WriteImgRes.c ****         filenameLen_1 = strlen(filename_buffer);
 3803              	LM151:
 3804              	LBB14:
 3805 1586 8D85E8EF 		leal	-4120(%ebp), %eax
 3805      FFFF
 3806 158c 890424   		movl	%eax, (%esp)
 3807 158f E8000000 		call	_strlen
 3807      00
 3808 1594 668985D6 		movw	%ax, -10026(%ebp)
 3808      D8FFFF
 677:../../MMI/Resource/WriteImgRes.c ****         if (filenameLen_1 <= 3)
 3810              	LM152:
 3811 159b 6683BDD6 		cmpw	$3, -10026(%ebp)
 3811      D8FFFF03 
 3812 15a3 7F38     		jg	L113
 678:../../MMI/Resource/WriteImgRes.c ****         {
 679:../../MMI/Resource/WriteImgRes.c ****             RESIMG_LOG_E("Iload: filename_buffer too short");
 3814              	LM153:
 3815 15a5 C7442408 		movl	$LC54, 8(%esp)
 3815      800C0000 
 3816 15ad C7442404 		movl	$LC34, 4(%esp)
 3816      64060000 
 3817 15b5 C7042403 		movl	$3, (%esp)
 3817      000000
 3818 15bc E8000000 		call	_reslog_adaptor_log
 3818      00
 680:../../MMI/Resource/WriteImgRes.c ****             assert(0);
 3820              	LM154:
 3821 15c1 C7442408 		movl	$680, 8(%esp)
 3821      A8020000 
 3822 15c9 C7442404 		movl	$LC35, 4(%esp)
 3822      80060000 
 3823 15d1 C70424A1 		movl	$LC36, (%esp)
 3823      060000
 3824 15d8 E8000000 		call	__assert
 3824      00
 3825              	L113:
 681:../../MMI/Resource/WriteImgRes.c ****             exit(2);
 682:../../MMI/Resource/WriteImgRes.c ****         }
 683:../../MMI/Resource/WriteImgRes.c **** 
 684:../../MMI/Resource/WriteImgRes.c ****         /* process EMS image */
 685:../../MMI/Resource/WriteImgRes.c ****         if (isEmsImage(filename_buffer))
 3827              	LM155:
 3828 15dd 8D85E8EF 		leal	-4120(%ebp), %eax
 3828      FFFF
 3829 15e3 890424   		movl	%eax, (%esp)
 3830 15e6 E8D30600 		call	_isEmsImage
 3830      00
 3831 15eb 84C0     		testb	%al, %al
GAS LISTING d:/MTK/MTK2503/MTK2503/11CW1418SP4_03_CORETEK03AE_11C_V1_GPRS_MMI/plutommi/Customer/ResGenerator/gcctmp/ccaodaaa.s 			page 44


 3832 15ed 0F84C100 		je	L114
 3832      0000
 686:../../MMI/Resource/WriteImgRes.c ****         {
 687:../../MMI/Resource/WriteImgRes.c ****             if (file_exist(filename_buffer) )
 3834              	LM156:
 3835 15f3 8D85E8EF 		leal	-4120(%ebp), %eax
 3835      FFFF
 3836 15f9 890424   		movl	%eax, (%esp)
 3837 15fc E8000000 		call	_file_exist
 3837      00
 3838 1601 85C0     		testl	%eax, %eax
 3839 1603 0F849F00 		je	L115
 3839      0000
 688:../../MMI/Resource/WriteImgRes.c ****             {
 689:../../MMI/Resource/WriteImgRes.c ****                 int ret = 1;
 3841              	LM157:
 3842              	LBB15:
 3843 1609 C785C0ED 		movl	$1, -4672(%ebp)
 3843      FFFF0100 
 3843      0000
 690:../../MMI/Resource/WriteImgRes.c **** 
 691:../../MMI/Resource/WriteImgRes.c ****                 if (toolFlag == 0)
 3845              	LM158:
 3846 1613 833D0000 		cmpl	$0, _toolFlag
 3846      000000
 3847 161a 7520     		jne	L116
 692:../../MMI/Resource/WriteImgRes.c ****                 {
 693:../../MMI/Resource/WriteImgRes.c ****                     ImageOutStreamPrintf(processData->outstream, "const U8 %s[] = ", output_image_n
 3849              	LM159:
 3850 161c 8B45EC   		movl	-20(%ebp), %eax
 3851 161f 89442408 		movl	%eax, 8(%esp)
 3852 1623 C7442404 		movl	$LC55, 4(%esp)
 3852      A10C0000 
 3853 162b 8B4514   		movl	20(%ebp), %eax
 3854 162e 8B800402 		movl	516(%eax), %eax
 3854      0000
 3855 1634 890424   		movl	%eax, (%esp)
 3856 1637 E8000000 		call	_ImageOutStreamPrintf
 3856      00
 3857              	L116:
 694:../../MMI/Resource/WriteImgRes.c ****                 }
 695:../../MMI/Resource/WriteImgRes.c ****                 ret = bmp2ems(filename_buffer, processData->outstream, 1, 0, processData);
 3859              	LM160:
 3860 163c 8B4514   		movl	20(%ebp), %eax
 3861 163f 89442410 		movl	%eax, 16(%esp)
 3862 1643 C744240C 		movl	$0, 12(%esp)
 3862      00000000 
 3863 164b C7442408 		movl	$1, 8(%esp)
 3863      01000000 
 3864 1653 8B4514   		movl	20(%ebp), %eax
 3865 1656 8B800402 		movl	516(%eax), %eax
 3865      0000
 3866 165c 89442404 		movl	%eax, 4(%esp)
 3867 1660 8D85E8EF 		leal	-4120(%ebp), %eax
 3867      FFFF
 3868 1666 890424   		movl	%eax, (%esp)
 3869 1669 E8000000 		call	_bmp2ems
GAS LISTING d:/MTK/MTK2503/MTK2503/11CW1418SP4_03_CORETEK03AE_11C_V1_GPRS_MMI/plutommi/Customer/ResGenerator/gcctmp/ccaodaaa.s 			page 45


 3869      00
 3870 166e 8985C0ED 		movl	%eax, -4672(%ebp)
 3870      FFFF
 696:../../MMI/Resource/WriteImgRes.c ****                 if (toolFlag)
 3872              	LM161:
 3873 1674 833D0000 		cmpl	$0, _toolFlag
 3873      000000
 3874 167b 741F     		je	L117
 697:../../MMI/Resource/WriteImgRes.c ****                 {
 698:../../MMI/Resource/WriteImgRes.c ****                     if (ret == 0)
 3876              	LM162:
 3877 167d 83BDC0ED 		cmpl	$0, -4672(%ebp)
 3877      FFFF00
 3878 1684 750C     		jne	L118
 699:../../MMI/Resource/WriteImgRes.c ****                     {
 700:../../MMI/Resource/WriteImgRes.c ****                         resultFailFlag = 1;
 3880              	LM163:
 3881 1686 C7050000 		movl	$1, _resultFailFlag
 3881      00000100 
 3881      0000
 3882 1690 EB0A     		jmp	L117
 3883              	L118:
 701:../../MMI/Resource/WriteImgRes.c ****                     }
 702:../../MMI/Resource/WriteImgRes.c ****                     else
 703:../../MMI/Resource/WriteImgRes.c ****                     {
 704:../../MMI/Resource/WriteImgRes.c ****                         resultFailFlag = 0;
 3885              	LM164:
 3886 1692 C7050000 		movl	$0, _resultFailFlag
 3886      00000000 
 3886      0000
 3887              	L117:
 705:../../MMI/Resource/WriteImgRes.c ****                     }
 706:../../MMI/Resource/WriteImgRes.c ****                 }
 707:../../MMI/Resource/WriteImgRes.c **** 
 708:../../MMI/Resource/WriteImgRes.c ****                 failure_flag = MMI_TRUE;
 3889              	LM165:
 3890 169c C745F401 		movl	$1, -12(%ebp)
 3890      000000
 3891              	LBE15:
 3892 16a3 E9B20300 		jmp	L112
 3892      00
 3893              	L115:
 709:../../MMI/Resource/WriteImgRes.c ****             }
 710:../../MMI/Resource/WriteImgRes.c ****             else
 711:../../MMI/Resource/WriteImgRes.c ****             {
 712:../../MMI/Resource/WriteImgRes.c ****                 failure_flag = MMI_FALSE;
 3895              	LM166:
 3896 16a8 C745F400 		movl	$0, -12(%ebp)
 3896      000000
 3897 16af E9A60300 		jmp	L112
 3897      00
 3898              	L114:
 713:../../MMI/Resource/WriteImgRes.c ****             }
 714:../../MMI/Resource/WriteImgRes.c ****         }
 715:../../MMI/Resource/WriteImgRes.c ****         /* process PBM */
 716:../../MMI/Resource/WriteImgRes.c ****         else if ((filename_buffer[filenameLen_1 - 1] == 'M') &&
 3900              	LM167:
GAS LISTING d:/MTK/MTK2503/MTK2503/11CW1418SP4_03_CORETEK03AE_11C_V1_GPRS_MMI/plutommi/Customer/ResGenerator/gcctmp/ccaodaaa.s 			page 46


 3901 16b4 0FBF85D6 		movswl	-10026(%ebp),%eax
 3901      D8FFFF
 3902 16bb 80BC05E7 		cmpb	$77, -4121(%ebp,%eax)
 3902      EFFFFF4D 
 3903 16c3 0F859500 		jne	L122
 3903      0000
 3904 16c9 0FBF85D6 		movswl	-10026(%ebp),%eax
 3904      D8FFFF
 3905 16d0 80BC05E6 		cmpb	$66, -4122(%ebp,%eax)
 3905      EFFFFF42 
 3906 16d8 0F858000 		jne	L122
 3906      0000
 3907 16de 0FBF85D6 		movswl	-10026(%ebp),%eax
 3907      D8FFFF
 3908 16e5 80BC05E5 		cmpb	$80, -4123(%ebp,%eax)
 3908      EFFFFF50 
 3909 16ed 756F     		jne	L122
 717:../../MMI/Resource/WriteImgRes.c ****                  (filename_buffer[filenameLen_1 - 2] == 'B') &&
 718:../../MMI/Resource/WriteImgRes.c ****                  (filename_buffer[filenameLen_1 - 3] == 'P'))
 719:../../MMI/Resource/WriteImgRes.c ****         {
 720:../../MMI/Resource/WriteImgRes.c ****             failure_flag = Write_Processed_Data(filename_buffer, IMAGE_TYPE_DEVICE_BITMAP, output_i
 3911              	LM168:
 3912 16ef 8D85D0ED 		leal	-4656(%ebp), %eax
 3912      FFFF
 3913 16f5 89442428 		movl	%eax, 40(%esp)
 3914 16f9 8B4514   		movl	20(%ebp), %eax
 3915 16fc 89442424 		movl	%eax, 36(%esp)
 3916 1700 8D85D8ED 		leal	-4648(%ebp), %eax
 3916      FFFF
 3917 1706 89442420 		movl	%eax, 32(%esp)
 3918 170a 8B85D4ED 		movl	-4652(%ebp), %eax
 3918      FFFF
 3919 1710 8944241C 		movl	%eax, 28(%esp)
 3920 1714 8B4510   		movl	16(%ebp), %eax
 3921 1717 89442418 		movl	%eax, 24(%esp)
 3922 171b 8B85E4EF 		movl	-4124(%ebp), %eax
 3922      FFFF
 3923 1721 89442414 		movl	%eax, 20(%esp)
 3924 1725 8B450C   		movl	12(%ebp), %eax
 3925 1728 89442410 		movl	%eax, 16(%esp)
 3926 172c 8B4514   		movl	20(%ebp), %eax
 3927 172f 8B800402 		movl	516(%eax), %eax
 3927      0000
 3928 1735 8944240C 		movl	%eax, 12(%esp)
 3929 1739 8B45EC   		movl	-20(%ebp), %eax
 3930 173c 89442408 		movl	%eax, 8(%esp)
 3931 1740 C7442404 		movl	$4, 4(%esp)
 3931      04000000 
 3932 1748 8D85E8EF 		leal	-4120(%ebp), %eax
 3932      FFFF
 3933 174e 890424   		movl	%eax, (%esp)
 3934 1751 E8A80700 		call	_Write_Processed_Data
 3934      00
 3935 1756 8945F4   		movl	%eax, -12(%ebp)
 3936 1759 E9FC0200 		jmp	L112
 3936      00
 3937              	L122:
GAS LISTING d:/MTK/MTK2503/MTK2503/11CW1418SP4_03_CORETEK03AE_11C_V1_GPRS_MMI/plutommi/Customer/ResGenerator/gcctmp/ccaodaaa.s 			page 47


 721:../../MMI/Resource/WriteImgRes.c ****         }
 722:../../MMI/Resource/WriteImgRes.c ****         else
 723:../../MMI/Resource/WriteImgRes.c ****         {
 724:../../MMI/Resource/WriteImgRes.c ****             U8 staticFlag = 1;  /* Non animated image */
 3939              	LM169:
 3940              	LBB16:
 3941 175e C685D5D8 		movb	$1, -10027(%ebp)
 3941      FFFF01
 725:../../MMI/Resource/WriteImgRes.c ****             /* MTK Leo add, for read images with same filename but different in ".bmp" and ".gif" *
 726:../../MMI/Resource/WriteImgRes.c ****             if (!file_exist(filename_buffer) )
 3943              	LM170:
 3944 1765 8D85E8EF 		leal	-4120(%ebp), %eax
 3944      FFFF
 3945 176b 890424   		movl	%eax, (%esp)
 3946 176e E8000000 		call	_file_exist
 3946      00
 3947 1773 85C0     		testl	%eax, %eax
 3948 1775 0F85C200 		jne	L124
 3948      0000
 727:../../MMI/Resource/WriteImgRes.c ****             {
 728:../../MMI/Resource/WriteImgRes.c ****                 if (filename_buffer[filenameLen_1 - 1] == 'P' &&
 3950              	LM171:
 3951 177b 0FBF85D6 		movswl	-10026(%ebp),%eax
 3951      D8FFFF
 3952 1782 80BC05E7 		cmpb	$80, -4121(%ebp,%eax)
 3952      EFFFFF50 
 3953 178a 7551     		jne	L125
 3954 178c 0FBF85D6 		movswl	-10026(%ebp),%eax
 3954      D8FFFF
 3955 1793 80BC05E6 		cmpb	$77, -4122(%ebp,%eax)
 3955      EFFFFF4D 
 3956 179b 7540     		jne	L125
 3957 179d 0FBF85D6 		movswl	-10026(%ebp),%eax
 3957      D8FFFF
 3958 17a4 80BC05E5 		cmpb	$66, -4123(%ebp,%eax)
 3958      EFFFFF42 
 3959 17ac 752F     		jne	L125
 729:../../MMI/Resource/WriteImgRes.c ****                     filename_buffer[filenameLen_1 - 2] == 'M' &&
 730:../../MMI/Resource/WriteImgRes.c ****                     filename_buffer[filenameLen_1 - 3] == 'B')
 731:../../MMI/Resource/WriteImgRes.c ****                 {
 732:../../MMI/Resource/WriteImgRes.c ****                     filename_buffer[filenameLen_1 - 1] = 'F';
 3961              	LM172:
 3962 17ae 0FBF85D6 		movswl	-10026(%ebp),%eax
 3962      D8FFFF
 3963 17b5 C68405E7 		movb	$70, -4121(%ebp,%eax)
 3963      EFFFFF46 
 733:../../MMI/Resource/WriteImgRes.c ****                     filename_buffer[filenameLen_1 - 2] = 'I';
 3965              	LM173:
 3966 17bd 0FBF85D6 		movswl	-10026(%ebp),%eax
 3966      D8FFFF
 3967 17c4 C68405E6 		movb	$73, -4122(%ebp,%eax)
 3967      EFFFFF49 
 734:../../MMI/Resource/WriteImgRes.c ****                     filename_buffer[filenameLen_1 - 3] = 'G';
 3969              	LM174:
 3970 17cc 0FBF85D6 		movswl	-10026(%ebp),%eax
 3970      D8FFFF
 3971 17d3 C68405E5 		movb	$71, -4123(%ebp,%eax)
GAS LISTING d:/MTK/MTK2503/MTK2503/11CW1418SP4_03_CORETEK03AE_11C_V1_GPRS_MMI/plutommi/Customer/ResGenerator/gcctmp/ccaodaaa.s 			page 48


 3971      EFFFFF47 
 3972 17db EB60     		jmp	L124
 3973              	L125:
 735:../../MMI/Resource/WriteImgRes.c ****                 }
 736:../../MMI/Resource/WriteImgRes.c ****                 else if (filename_buffer[filenameLen_1 - 1] == 'F' &&
 3975              	LM175:
 3976 17dd 0FBF85D6 		movswl	-10026(%ebp),%eax
 3976      D8FFFF
 3977 17e4 80BC05E7 		cmpb	$70, -4121(%ebp,%eax)
 3977      EFFFFF46 
 3978 17ec 754F     		jne	L124
 3979 17ee 0FBF85D6 		movswl	-10026(%ebp),%eax
 3979      D8FFFF
 3980 17f5 80BC05E6 		cmpb	$73, -4122(%ebp,%eax)
 3980      EFFFFF49 
 3981 17fd 753E     		jne	L124
 3982 17ff 0FBF85D6 		movswl	-10026(%ebp),%eax
 3982      D8FFFF
 3983 1806 80BC05E5 		cmpb	$71, -4123(%ebp,%eax)
 3983      EFFFFF47 
 3984 180e 752D     		jne	L124
 737:../../MMI/Resource/WriteImgRes.c ****                          filename_buffer[filenameLen_1 - 2] == 'I' &&
 738:../../MMI/Resource/WriteImgRes.c ****                          filename_buffer[filenameLen_1 - 3] == 'G')
 739:../../MMI/Resource/WriteImgRes.c ****                 {
 740:../../MMI/Resource/WriteImgRes.c ****                     filename_buffer[filenameLen_1 - 1] = 'P';
 3986              	LM176:
 3987 1810 0FBF85D6 		movswl	-10026(%ebp),%eax
 3987      D8FFFF
 3988 1817 C68405E7 		movb	$80, -4121(%ebp,%eax)
 3988      EFFFFF50 
 741:../../MMI/Resource/WriteImgRes.c ****                     filename_buffer[filenameLen_1 - 2] = 'M';
 3990              	LM177:
 3991 181f 0FBF85D6 		movswl	-10026(%ebp),%eax
 3991      D8FFFF
 3992 1826 C68405E6 		movb	$77, -4122(%ebp,%eax)
 3992      EFFFFF4D 
 742:../../MMI/Resource/WriteImgRes.c ****                     filename_buffer[filenameLen_1 - 3] = 'B';
 3994              	LM178:
 3995 182e 0FBF85D6 		movswl	-10026(%ebp),%eax
 3995      D8FFFF
 3996 1835 C68405E5 		movb	$66, -4123(%ebp,%eax)
 3996      EFFFFF42 
 3997              	L124:
 743:../../MMI/Resource/WriteImgRes.c ****                 }
 744:../../MMI/Resource/WriteImgRes.c ****             }
 745:../../MMI/Resource/WriteImgRes.c **** 
 746:../../MMI/Resource/WriteImgRes.c ****             if (!file_exist(filename_buffer) )
 3999              	LM179:
 4000 183d 8D85E8EF 		leal	-4120(%ebp), %eax
 4000      FFFF
 4001 1843 890424   		movl	%eax, (%esp)
 4002 1846 E8000000 		call	_file_exist
 4002      00
 4003 184b 85C0     		testl	%eax, %eax
 4004 184d 0F85DD00 		jne	L128
 4004      0000
 747:../../MMI/Resource/WriteImgRes.c ****             {
GAS LISTING d:/MTK/MTK2503/MTK2503/11CW1418SP4_03_CORETEK03AE_11C_V1_GPRS_MMI/plutommi/Customer/ResGenerator/gcctmp/ccaodaaa.s 			page 49


 748:../../MMI/Resource/WriteImgRes.c ****                 if (toolFlag == 0)
 4006              	LM180:
 4007 1853 833D0000 		cmpl	$0, _toolFlag
 4007      000000
 4008 185a 7564     		jne	L129
 749:../../MMI/Resource/WriteImgRes.c ****                 {
 750:../../MMI/Resource/WriteImgRes.c ****                     FILE *fail = fopen(".\\\\debug\\\\fail.txt", "a+");
 4010              	LM181:
 4011              	LBB17:
 4012 185c C7442404 		movl	$LC56, 4(%esp)
 4012      B20C0000 
 4013 1864 C70424B5 		movl	$LC57, (%esp)
 4013      0C0000
 4014 186b E8000000 		call	_fopen
 4014      00
 4015 1870 8985C0ED 		movl	%eax, -4672(%ebp)
 4015      FFFF
 751:../../MMI/Resource/WriteImgRes.c **** 
 752:../../MMI/Resource/WriteImgRes.c ****                     if (fail != NULL)
 4017              	LM182:
 4018 1876 83BDC0ED 		cmpl	$0, -4672(%ebp)
 4018      FFFF00
 4019 187d 7441     		je	L129
 753:../../MMI/Resource/WriteImgRes.c ****                     {
 754:../../MMI/Resource/WriteImgRes.c ****                         fprintf(fail, "%s\n", filename_buffer);
 4021              	LM183:
 4022 187f 8D85E8EF 		leal	-4120(%ebp), %eax
 4022      FFFF
 4023 1885 89442408 		movl	%eax, 8(%esp)
 4024 1889 C7442404 		movl	$LC52, 4(%esp)
 4024      490C0000 
 4025 1891 8B85C0ED 		movl	-4672(%ebp), %eax
 4025      FFFF
 4026 1897 890424   		movl	%eax, (%esp)
 4027 189a E8000000 		call	_fprintf
 4027      00
 755:../../MMI/Resource/WriteImgRes.c ****                         MYFCLOSE(fail);
 4029              	LM184:
 4030 189f 83BDC0ED 		cmpl	$0, -4672(%ebp)
 4030      FFFF00
 4031 18a6 7418     		je	L129
 4032 18a8 8B85C0ED 		movl	-4672(%ebp), %eax
 4032      FFFF
 4033 18ae 890424   		movl	%eax, (%esp)
 4034 18b1 E8000000 		call	_fclose
 4034      00
 4035 18b6 C785C0ED 		movl	$0, -4672(%ebp)
 4035      FFFF0000 
 4035      0000
 4036              	L129:
 756:../../MMI/Resource/WriteImgRes.c ****                     }
 757:../../MMI/Resource/WriteImgRes.c ****                 }
 758:../../MMI/Resource/WriteImgRes.c ****                 RESIMG_LOG_V("File %s not exist, trying to load sequential image",filename_buffer);
 4038              	LM185:
 4039              	LBE17:
 4040 18c0 8D85E8EF 		leal	-4120(%ebp), %eax
 4040      FFFF
GAS LISTING d:/MTK/MTK2503/MTK2503/11CW1418SP4_03_CORETEK03AE_11C_V1_GPRS_MMI/plutommi/Customer/ResGenerator/gcctmp/ccaodaaa.s 			page 50


 4041 18c6 8944240C 		movl	%eax, 12(%esp)
 4042 18ca C7442408 		movl	$LC58, 8(%esp)
 4042      E00C0000 
 4043 18d2 C7442404 		movl	$LC34, 4(%esp)
 4043      64060000 
 4044 18da C7042401 		movl	$1, (%esp)
 4044      000000
 4045 18e1 E8000000 		call	_reslog_adaptor_log
 4045      00
 759:../../MMI/Resource/WriteImgRes.c ****                 failure_flag = Write_Sequential_Image(filename_buffer, output_image_names, processD
 4047              	LM186:
 4048 18e6 8B4514   		movl	20(%ebp), %eax
 4049 18e9 89442414 		movl	%eax, 20(%esp)
 4050 18ed 8B4510   		movl	16(%ebp), %eax
 4051 18f0 89442410 		movl	%eax, 16(%esp)
 4052 18f4 8B85E4EF 		movl	-4124(%ebp), %eax
 4052      FFFF
 4053 18fa 8944240C 		movl	%eax, 12(%esp)
 4054 18fe 8B4514   		movl	20(%ebp), %eax
 4055 1901 8B800402 		movl	516(%eax), %eax
 4055      0000
 4056 1907 89442408 		movl	%eax, 8(%esp)
 4057 190b 8B45EC   		movl	-20(%ebp), %eax
 4058 190e 89442404 		movl	%eax, 4(%esp)
 4059 1912 8D85E8EF 		leal	-4120(%ebp), %eax
 4059      FFFF
 4060 1918 890424   		movl	%eax, (%esp)
 4061 191b E83E1B00 		call	_Write_Sequential_Image
 4061      00
 4062 1920 8945F4   		movl	%eax, -12(%ebp)
 760:../../MMI/Resource/WriteImgRes.c ****                 if (failure_flag == MMI_TRUE)
 4064              	LM187:
 4065 1923 837DF401 		cmpl	$1, -12(%ebp)
 4066 1927 7507     		jne	L128
 761:../../MMI/Resource/WriteImgRes.c ****                 {
 762:../../MMI/Resource/WriteImgRes.c ****                     staticFlag = 0;
 4068              	LM188:
 4069 1929 C685D5D8 		movb	$0, -10027(%ebp)
 4069      FFFF00
 4070              	L128:
 763:../../MMI/Resource/WriteImgRes.c ****                 }
 764:../../MMI/Resource/WriteImgRes.c ****             }
 765:../../MMI/Resource/WriteImgRes.c **** 
 766:../../MMI/Resource/WriteImgRes.c ****             /* process static image */
 767:../../MMI/Resource/WriteImgRes.c ****             if ((failure_flag == MMI_FALSE) && (staticFlag))
 4072              	LM189:
 4073 1930 837DF400 		cmpl	$0, -12(%ebp)
 4074 1934 0F852001 		jne	L112
 4074      0000
 4075 193a 80BDD5D8 		cmpb	$0, -10027(%ebp)
 4075      FFFF00
 4076 1941 0F841301 		je	L112
 4076      0000
 768:../../MMI/Resource/WriteImgRes.c ****             {
 769:../../MMI/Resource/WriteImgRes.c ****                 FILE *image_data_file_4 = NULL;
 4078              	LM190:
 4079              	LBB18:
GAS LISTING d:/MTK/MTK2503/MTK2503/11CW1418SP4_03_CORETEK03AE_11C_V1_GPRS_MMI/plutommi/Customer/ResGenerator/gcctmp/ccaodaaa.s 			page 51


 4080 1947 C785C0ED 		movl	$0, -4672(%ebp)
 4080      FFFF0000 
 4080      0000
 770:../../MMI/Resource/WriteImgRes.c ****                 image_data_file_4 = fopen(filename_buffer, "rb");
 4082              	LM191:
 4083 1951 C7442404 		movl	$LC59, 4(%esp)
 4083      130D0000 
 4084 1959 8D85E8EF 		leal	-4120(%ebp), %eax
 4084      FFFF
 4085 195f 890424   		movl	%eax, (%esp)
 4086 1962 E8000000 		call	_fopen
 4086      00
 4087 1967 8985C0ED 		movl	%eax, -4672(%ebp)
 4087      FFFF
 771:../../MMI/Resource/WriteImgRes.c **** 
 772:../../MMI/Resource/WriteImgRes.c ****                 if (image_data_file_4 != NULL)
 4089              	LM192:
 4090 196d 83BDC0ED 		cmpl	$0, -4672(%ebp)
 4090      FFFF00
 4091 1974 0F84E000 		je	L112
 4091      0000
 773:../../MMI/Resource/WriteImgRes.c ****                 {
 774:../../MMI/Resource/WriteImgRes.c ****                     S32 nImageSize = 0;
 4093              	LM193:
 4094              	LBB19:
 4095 197a C785C4ED 		movl	$0, -4668(%ebp)
 4095      FFFF0000 
 4095      0000
 775:../../MMI/Resource/WriteImgRes.c ****                     /* patch added by vikram for getting image file size */
 776:../../MMI/Resource/WriteImgRes.c ****                     fseek(image_data_file_4, 0, SEEK_END);
 4097              	LM194:
 4098 1984 C7442408 		movl	$2, 8(%esp)
 4098      02000000 
 4099 198c C7442404 		movl	$0, 4(%esp)
 4099      00000000 
 4100 1994 8B85C0ED 		movl	-4672(%ebp), %eax
 4100      FFFF
 4101 199a 890424   		movl	%eax, (%esp)
 4102 199d E8000000 		call	_fseek
 4102      00
 777:../../MMI/Resource/WriteImgRes.c ****                     nImageSize = ftell(image_data_file_4);
 4104              	LM195:
 4105 19a2 8B85C0ED 		movl	-4672(%ebp), %eax
 4105      FFFF
 4106 19a8 890424   		movl	%eax, (%esp)
 4107 19ab E8000000 		call	_ftell
 4107      00
 4108 19b0 8985C4ED 		movl	%eax, -4668(%ebp)
 4108      FFFF
 778:../../MMI/Resource/WriteImgRes.c ****                     fseek(image_data_file_4, 0, SEEK_SET);
 4110              	LM196:
 4111 19b6 C7442408 		movl	$0, 8(%esp)
 4111      00000000 
 4112 19be C7442404 		movl	$0, 4(%esp)
 4112      00000000 
 4113 19c6 8B85C0ED 		movl	-4672(%ebp), %eax
 4113      FFFF
GAS LISTING d:/MTK/MTK2503/MTK2503/11CW1418SP4_03_CORETEK03AE_11C_V1_GPRS_MMI/plutommi/Customer/ResGenerator/gcctmp/ccaodaaa.s 			page 52


 4114 19cc 890424   		movl	%eax, (%esp)
 4115 19cf E8000000 		call	_fseek
 4115      00
 779:../../MMI/Resource/WriteImgRes.c **** 
 780:../../MMI/Resource/WriteImgRes.c ****                     failure_flag = Write_Unprocessed_Data(
 4117              	LM197:
 4118 19d4 8B4514   		movl	20(%ebp), %eax
 4119 19d7 89442424 		movl	%eax, 36(%esp)
 4120 19db 8B85D4ED 		movl	-4652(%ebp), %eax
 4120      FFFF
 4121 19e1 89442420 		movl	%eax, 32(%esp)
 4122 19e5 8D85D8ED 		leal	-4648(%ebp), %eax
 4122      FFFF
 4123 19eb 8944241C 		movl	%eax, 28(%esp)
 4124 19ef 8B85E4EF 		movl	-4124(%ebp), %eax
 4124      FFFF
 4125 19f5 89442418 		movl	%eax, 24(%esp)
 4126 19f9 8B450C   		movl	12(%ebp), %eax
 4127 19fc 89442414 		movl	%eax, 20(%esp)
 4128 1a00 8B4514   		movl	20(%ebp), %eax
 4129 1a03 8B800402 		movl	516(%eax), %eax
 4129      0000
 4130 1a09 89442410 		movl	%eax, 16(%esp)
 4131 1a0d 8B45EC   		movl	-20(%ebp), %eax
 4132 1a10 8944240C 		movl	%eax, 12(%esp)
 4133 1a14 8B85C4ED 		movl	-4668(%ebp), %eax
 4133      FFFF
 4134 1a1a 89442408 		movl	%eax, 8(%esp)
 4135 1a1e 8B85C0ED 		movl	-4672(%ebp), %eax
 4135      FFFF
 4136 1a24 89442404 		movl	%eax, 4(%esp)
 4137 1a28 8D85E8EF 		leal	-4120(%ebp), %eax
 4137      FFFF
 4138 1a2e 890424   		movl	%eax, (%esp)
 4139 1a31 E88F0C00 		call	_Write_Unprocessed_Data
 4139      00
 4140 1a36 8945F4   		movl	%eax, -12(%ebp)
 781:../../MMI/Resource/WriteImgRes.c ****                             filename_buffer,
 782:../../MMI/Resource/WriteImgRes.c ****                             image_data_file_4,
 783:../../MMI/Resource/WriteImgRes.c ****                             nImageSize,
 784:../../MMI/Resource/WriteImgRes.c ****                             output_image_names,
 785:../../MMI/Resource/WriteImgRes.c ****                             processData->outstream,
 786:../../MMI/Resource/WriteImgRes.c ****                             extImageFlag,
 787:../../MMI/Resource/WriteImgRes.c ****                             is9slice,
 788:../../MMI/Resource/WriteImgRes.c ****                             _9slice_filename,
 789:../../MMI/Resource/WriteImgRes.c ****                             nfb_img_res_file,
 790:../../MMI/Resource/WriteImgRes.c ****                             processData);
 791:../../MMI/Resource/WriteImgRes.c **** 
 792:../../MMI/Resource/WriteImgRes.c ****                     MYFCLOSE(image_data_file_4);
 4142              	LM198:
 4143 1a39 83BDC0ED 		cmpl	$0, -4672(%ebp)
 4143      FFFF00
 4144 1a40 7418     		je	L112
 4145 1a42 8B85C0ED 		movl	-4672(%ebp), %eax
 4145      FFFF
 4146 1a48 890424   		movl	%eax, (%esp)
 4147 1a4b E8000000 		call	_fclose
GAS LISTING d:/MTK/MTK2503/MTK2503/11CW1418SP4_03_CORETEK03AE_11C_V1_GPRS_MMI/plutommi/Customer/ResGenerator/gcctmp/ccaodaaa.s 			page 53


 4147      00
 4148 1a50 C785C0ED 		movl	$0, -4672(%ebp)
 4148      FFFF0000 
 4148      0000
 4149              	L112:
 793:../../MMI/Resource/WriteImgRes.c ****                 }
 794:../../MMI/Resource/WriteImgRes.c ****             }
 795:../../MMI/Resource/WriteImgRes.c ****         }
 796:../../MMI/Resource/WriteImgRes.c ****     }
 797:../../MMI/Resource/WriteImgRes.c **** 
 798:../../MMI/Resource/WriteImgRes.c ****     /* 120704 Calvin added for populating with .bmp or .gif but actually extsion name is not */
 799:../../MMI/Resource/WriteImgRes.c ****     if (failure_flag == MMI_FALSE)
 4151              	LM199:
 4152              	LBE19:
 4153              	LBE18:
 4154              	LBE16:
 4155              	LBE14:
 4156 1a5a 837DF400 		cmpl	$0, -12(%ebp)
 4157 1a5e 0F85D201 		jne	L138
 4157      0000
 800:../../MMI/Resource/WriteImgRes.c ****     {
 801:../../MMI/Resource/WriteImgRes.c ****         /* RES_PRINT_INFO("*************failed !!!********************\n"); */
 802:../../MMI/Resource/WriteImgRes.c ****         /* try each supported extension */
 803:../../MMI/Resource/WriteImgRes.c ****         S32 j;
 804:../../MMI/Resource/WriteImgRes.c ****         S16 filenameLen_2;
 805:../../MMI/Resource/WriteImgRes.c ****         filenameLen_2 = strlen(filename_buffer);
 4159              	LM200:
 4160              	LBB20:
 4161 1a64 8D85E8EF 		leal	-4120(%ebp), %eax
 4161      FFFF
 4162 1a6a 890424   		movl	%eax, (%esp)
 4163 1a6d E8000000 		call	_strlen
 4163      00
 4164 1a72 668985D6 		movw	%ax, -10026(%ebp)
 4164      D8FFFF
 806:../../MMI/Resource/WriteImgRes.c ****         MMI_BOOL has_file = MMI_FALSE;
 4166              	LM201:
 4167 1a79 C785C4ED 		movl	$0, -4668(%ebp)
 4167      FFFF0000 
 4167      0000
 807:../../MMI/Resource/WriteImgRes.c ****         for (j = 0; j < SUPPORT_N_MEDIA_TYPE; j++)
 4169              	LM202:
 4170 1a83 C785C0ED 		movl	$0, -4672(%ebp)
 4170      FFFF0000 
 4170      0000
 4171              	L139:
 4172 1a8d 83BDC0ED 		cmpl	$5, -4672(%ebp)
 4172      FFFF05
 4173 1a94 7E05     		jle	L142
 4174 1a96 E9850000 		jmp	L140
 4174      00
 4175              	L142:
 808:../../MMI/Resource/WriteImgRes.c ****         {
 809:../../MMI/Resource/WriteImgRes.c ****             S32 l;
 810:../../MMI/Resource/WriteImgRes.c **** 
 811:../../MMI/Resource/WriteImgRes.c ****             ASSERT(filenameLen_2 >= 3);
 4177              	LM203:
GAS LISTING d:/MTK/MTK2503/MTK2503/11CW1418SP4_03_CORETEK03AE_11C_V1_GPRS_MMI/plutommi/Customer/ResGenerator/gcctmp/ccaodaaa.s 			page 54


 4178              	LBB21:
 4179 1a9b 6683BDD6 		cmpw	$2, -10026(%ebp)
 4179      D8FFFF02 
 4180 1aa3 7F02     		jg	L147
 4181              	L144:
 4182 1aa5 EBFE     		jmp	L144
 4183              	L147:
 812:../../MMI/Resource/WriteImgRes.c ****             for (l = 0; l < 3; l++)
 4185              	LM204:
 4186 1aa7 C785C8ED 		movl	$0, -4664(%ebp)
 4186      FFFF0000 
 4186      0000
 4187              	L148:
 4188 1ab1 83BDC8ED 		cmpl	$2, -4664(%ebp)
 4188      FFFF02
 4189 1ab8 7E02     		jle	L151
 4190 1aba EB39     		jmp	L149
 4191              	L151:
 813:../../MMI/Resource/WriteImgRes.c ****             {
 814:../../MMI/Resource/WriteImgRes.c ****                 filename_buffer[filenameLen_2 - 1 - l] = support_media_ext[j][2 - l];
 4193              	LM205:
 4194 1abc 0FBF85D6 		movswl	-10026(%ebp),%eax
 4194      D8FFFF
 4195 1ac3 89C1     		movl	%eax, %ecx
 4196 1ac5 2B8DC8ED 		subl	-4664(%ebp), %ecx
 4196      FFFF
 4197 1acb 8B85C0ED 		movl	-4672(%ebp), %eax
 4197      FFFF
 4198 1ad1 8B95C8ED 		movl	-4664(%ebp), %edx
 4198      FFFF
 4199 1ad7 8B048500 		movl	_support_media_ext(,%eax,4), %eax
 4199      000000
 4200 1ade 29D0     		subl	%edx, %eax
 4201 1ae0 0FB64002 		movzbl	2(%eax), %eax
 4202 1ae4 88840DE7 		movb	%al, -4121(%ebp,%ecx)
 4202      EFFFFF
 4204              	LM206:
 4205 1aeb 8D85C8ED 		leal	-4664(%ebp), %eax
 4205      FFFF
 4206 1af1 FF00     		incl	(%eax)
 4207 1af3 EBBC     		jmp	L148
 4208              	L149:
 815:../../MMI/Resource/WriteImgRes.c ****             }
 816:../../MMI/Resource/WriteImgRes.c **** 
 817:../../MMI/Resource/WriteImgRes.c ****             if (file_exist(filename_buffer) )
 4210              	LM207:
 4211 1af5 8D85E8EF 		leal	-4120(%ebp), %eax
 4211      FFFF
 4212 1afb 890424   		movl	%eax, (%esp)
 4213 1afe E8000000 		call	_file_exist
 4213      00
 4214 1b03 85C0     		testl	%eax, %eax
 4215 1b05 740C     		je	L141
 818:../../MMI/Resource/WriteImgRes.c ****             {
 819:../../MMI/Resource/WriteImgRes.c ****                 has_file = MMI_TRUE;
 4217              	LM208:
 4218 1b07 C785C4ED 		movl	$1, -4668(%ebp)
GAS LISTING d:/MTK/MTK2503/MTK2503/11CW1418SP4_03_CORETEK03AE_11C_V1_GPRS_MMI/plutommi/Customer/ResGenerator/gcctmp/ccaodaaa.s 			page 55


 4218      FFFF0100 
 4218      0000
 820:../../MMI/Resource/WriteImgRes.c ****                 break;
 4220              	LM209:
 4221 1b11 EB0D     		jmp	L140
 4223              	LM210:
 4224              	L141:
 4225 1b13 8D85C0ED 		leal	-4672(%ebp), %eax
 4225      FFFF
 4226              	LBE21:
 4227 1b19 FF00     		incl	(%eax)
 4228 1b1b E96DFFFF 		jmp	L139
 4228      FF
 4229              	L140:
 821:../../MMI/Resource/WriteImgRes.c ****             }
 822:../../MMI/Resource/WriteImgRes.c ****         }
 823:../../MMI/Resource/WriteImgRes.c **** 
 824:../../MMI/Resource/WriteImgRes.c ****         if (has_file)
 4231              	LM211:
 4232 1b20 83BDC4ED 		cmpl	$0, -4668(%ebp)
 4232      FFFF00
 4233 1b27 0F840901 		je	L138
 4233      0000
 825:../../MMI/Resource/WriteImgRes.c ****         {
 826:../../MMI/Resource/WriteImgRes.c ****             FILE *image_data_file_5 = fopen(filename_buffer, "rb");
 4235              	LM212:
 4236              	LBB22:
 4237 1b2d C7442404 		movl	$LC59, 4(%esp)
 4237      130D0000 
 4238 1b35 8D85E8EF 		leal	-4120(%ebp), %eax
 4238      FFFF
 4239 1b3b 890424   		movl	%eax, (%esp)
 4240 1b3e E8000000 		call	_fopen
 4240      00
 4241 1b43 8985D0D8 		movl	%eax, -10032(%ebp)
 4241      FFFF
 827:../../MMI/Resource/WriteImgRes.c ****             if (image_data_file_5 != NULL)
 4243              	LM213:
 4244 1b49 83BDD0D8 		cmpl	$0, -10032(%ebp)
 4244      FFFF00
 4245 1b50 0F84E000 		je	L138
 4245      0000
 828:../../MMI/Resource/WriteImgRes.c ****             {
 829:../../MMI/Resource/WriteImgRes.c ****                 S32 nImageSize = 0;
 4247              	LM214:
 4248              	LBB23:
 4249 1b56 C785CCD8 		movl	$0, -10036(%ebp)
 4249      FFFF0000 
 4249      0000
 830:../../MMI/Resource/WriteImgRes.c ****                 //failure_flag = MMI_TRUE;
 831:../../MMI/Resource/WriteImgRes.c **** 
 832:../../MMI/Resource/WriteImgRes.c ****                 fseek(image_data_file_5, 0, SEEK_END);
 4251              	LM215:
 4252 1b60 C7442408 		movl	$2, 8(%esp)
 4252      02000000 
 4253 1b68 C7442404 		movl	$0, 4(%esp)
 4253      00000000 
GAS LISTING d:/MTK/MTK2503/MTK2503/11CW1418SP4_03_CORETEK03AE_11C_V1_GPRS_MMI/plutommi/Customer/ResGenerator/gcctmp/ccaodaaa.s 			page 56


 4254 1b70 8B85D0D8 		movl	-10032(%ebp), %eax
 4254      FFFF
 4255 1b76 890424   		movl	%eax, (%esp)
 4256 1b79 E8000000 		call	_fseek
 4256      00
 833:../../MMI/Resource/WriteImgRes.c ****                 nImageSize = ftell(image_data_file_5);
 4258              	LM216:
 4259 1b7e 8B85D0D8 		movl	-10032(%ebp), %eax
 4259      FFFF
 4260 1b84 890424   		movl	%eax, (%esp)
 4261 1b87 E8000000 		call	_ftell
 4261      00
 4262 1b8c 8985CCD8 		movl	%eax, -10036(%ebp)
 4262      FFFF
 834:../../MMI/Resource/WriteImgRes.c ****                 fseek(image_data_file_5, 0, SEEK_SET);
 4264              	LM217:
 4265 1b92 C7442408 		movl	$0, 8(%esp)
 4265      00000000 
 4266 1b9a C7442404 		movl	$0, 4(%esp)
 4266      00000000 
 4267 1ba2 8B85D0D8 		movl	-10032(%ebp), %eax
 4267      FFFF
 4268 1ba8 890424   		movl	%eax, (%esp)
 4269 1bab E8000000 		call	_fseek
 4269      00
 835:../../MMI/Resource/WriteImgRes.c **** 
 836:../../MMI/Resource/WriteImgRes.c ****                 failure_flag = Write_Unprocessed_Data(
 4271              	LM218:
 4272 1bb0 8B4514   		movl	20(%ebp), %eax
 4273 1bb3 89442424 		movl	%eax, 36(%esp)
 4274 1bb7 8B85D4ED 		movl	-4652(%ebp), %eax
 4274      FFFF
 4275 1bbd 89442420 		movl	%eax, 32(%esp)
 4276 1bc1 8D85D8ED 		leal	-4648(%ebp), %eax
 4276      FFFF
 4277 1bc7 8944241C 		movl	%eax, 28(%esp)
 4278 1bcb 8B85E4EF 		movl	-4124(%ebp), %eax
 4278      FFFF
 4279 1bd1 89442418 		movl	%eax, 24(%esp)
 4280 1bd5 8B450C   		movl	12(%ebp), %eax
 4281 1bd8 89442414 		movl	%eax, 20(%esp)
 4282 1bdc 8B4514   		movl	20(%ebp), %eax
 4283 1bdf 8B800402 		movl	516(%eax), %eax
 4283      0000
 4284 1be5 89442410 		movl	%eax, 16(%esp)
 4285 1be9 8B45EC   		movl	-20(%ebp), %eax
 4286 1bec 8944240C 		movl	%eax, 12(%esp)
 4287 1bf0 8B85CCD8 		movl	-10036(%ebp), %eax
 4287      FFFF
 4288 1bf6 89442408 		movl	%eax, 8(%esp)
 4289 1bfa 8B85D0D8 		movl	-10032(%ebp), %eax
 4289      FFFF
 4290 1c00 89442404 		movl	%eax, 4(%esp)
 4291 1c04 8D85E8EF 		leal	-4120(%ebp), %eax
 4291      FFFF
 4292 1c0a 890424   		movl	%eax, (%esp)
 4293 1c0d E8B30A00 		call	_Write_Unprocessed_Data
GAS LISTING d:/MTK/MTK2503/MTK2503/11CW1418SP4_03_CORETEK03AE_11C_V1_GPRS_MMI/plutommi/Customer/ResGenerator/gcctmp/ccaodaaa.s 			page 57


 4293      00
 4294 1c12 8945F4   		movl	%eax, -12(%ebp)
 837:../../MMI/Resource/WriteImgRes.c ****                         filename_buffer,
 838:../../MMI/Resource/WriteImgRes.c ****                         image_data_file_5,
 839:../../MMI/Resource/WriteImgRes.c ****                         nImageSize,
 840:../../MMI/Resource/WriteImgRes.c ****                         output_image_names,
 841:../../MMI/Resource/WriteImgRes.c ****                         processData->outstream,
 842:../../MMI/Resource/WriteImgRes.c ****                         extImageFlag,
 843:../../MMI/Resource/WriteImgRes.c ****                         is9slice,
 844:../../MMI/Resource/WriteImgRes.c ****                         _9slice_filename,
 845:../../MMI/Resource/WriteImgRes.c ****                         nfb_img_res_file,
 846:../../MMI/Resource/WriteImgRes.c ****                         processData);
 847:../../MMI/Resource/WriteImgRes.c **** 
 848:../../MMI/Resource/WriteImgRes.c ****                 MYFCLOSE(image_data_file_5);
 4296              	LM219:
 4297 1c15 83BDD0D8 		cmpl	$0, -10032(%ebp)
 4297      FFFF00
 4298 1c1c 7418     		je	L138
 4299 1c1e 8B85D0D8 		movl	-10032(%ebp), %eax
 4299      FFFF
 4300 1c24 890424   		movl	%eax, (%esp)
 4301 1c27 E8000000 		call	_fclose
 4301      00
 4302 1c2c C785D0D8 		movl	$0, -10032(%ebp)
 4302      FFFF0000 
 4302      0000
 4303              	L138:
 849:../../MMI/Resource/WriteImgRes.c ****             }
 850:../../MMI/Resource/WriteImgRes.c ****         }
 851:../../MMI/Resource/WriteImgRes.c ****     }
 852:../../MMI/Resource/WriteImgRes.c **** 
 853:../../MMI/Resource/WriteImgRes.c ****     // Release resoruce before return
 854:../../MMI/Resource/WriteImgRes.c ****     if (extImageFlag == NFB_PROGRESS_IMAGE){
 4305              	LM220:
 4306              	LBE23:
 4307              	LBE22:
 4308              	LBE20:
 4309 1c36 837D0C02 		cmpl	$2, 12(%ebp)
 4310 1c3a 754D     		jne	L157
 855:../../MMI/Resource/WriteImgRes.c ****         RESIMG_LOG_V("NFB_PROGRESS_IMAGE is set - Close CustNFBProgressImg.c before Iload return");
 4312              	LM221:
 4313 1c3c C7442408 		movl	$LC45, 8(%esp)
 4313      A00A0000 
 4314 1c44 C7442404 		movl	$LC34, 4(%esp)
 4314      64060000 
 4315 1c4c C7042401 		movl	$1, (%esp)
 4315      000000
 4316 1c53 E8000000 		call	_reslog_adaptor_log
 4316      00
 856:../../MMI/Resource/WriteImgRes.c ****         fflush(stdout);
 4318              	LM222:
 4319 1c58 A1000000 		movl	__imp___iob, %eax
 4319      00
 4320 1c5d 83C020   		addl	$32, %eax
 4321 1c60 890424   		movl	%eax, (%esp)
 4322 1c63 E8000000 		call	_fflush
 4322      00
GAS LISTING d:/MTK/MTK2503/MTK2503/11CW1418SP4_03_CORETEK03AE_11C_V1_GPRS_MMI/plutommi/Customer/ResGenerator/gcctmp/ccaodaaa.s 			page 58


 857:../../MMI/Resource/WriteImgRes.c ****         MYFCLOSE(nfb_img_res_file);
 4324              	LM223:
 4325 1c68 83BDD4ED 		cmpl	$0, -4652(%ebp)
 4325      FFFF00
 4326 1c6f 7418     		je	L157
 4327 1c71 8B85D4ED 		movl	-4652(%ebp), %eax
 4327      FFFF
 4328 1c77 890424   		movl	%eax, (%esp)
 4329 1c7a E8000000 		call	_fclose
 4329      00
 4330 1c7f C785D4ED 		movl	$0, -4652(%ebp)
 4330      FFFF0000 
 4330      0000
 4331              	L157:
 858:../../MMI/Resource/WriteImgRes.c ****     }
 859:../../MMI/Resource/WriteImgRes.c ****     free(output_image_names);
 4333              	LM224:
 4334 1c89 8B45EC   		movl	-20(%ebp), %eax
 4335 1c8c 890424   		movl	%eax, (%esp)
 4336 1c8f E8000000 		call	_free
 4336      00
 860:../../MMI/Resource/WriteImgRes.c **** 	
 861:../../MMI/Resource/WriteImgRes.c ****     return failure_flag;
 4338              	LM225:
 4339 1c94 8B45F4   		movl	-12(%ebp), %eax
 4340 1c97 8985C8D8 		movl	%eax, -10040(%ebp)
 4340      FFFF
 862:../../MMI/Resource/WriteImgRes.c **** }
 4342              	LM226:
 4343              	L57:
 4344              	LBE6:
 4345 1c9d 8B85C8D8 		movl	-10040(%ebp), %eax
 4345      FFFF
 4346 1ca3 81C46427 		addl	$10084, %esp
 4346      0000
 4347 1ca9 5B       		popl	%ebx
 4348 1caa 5D       		popl	%ebp
 4349 1cab C3       		ret
 4416              	Lscope4:
 4418              	LC60:
 4419 1cac 4D41494E 		.ascii "MAINLCD\\\\SMS\\\\PIC\0"
 4419      4C43445C 
 4419      5C534D53 
 4419      5C5C5049 
 4419      4300
 4423              	_isEmsImage:
 863:../../MMI/Resource/WriteImgRes.c **** 
 864:../../MMI/Resource/WriteImgRes.c **** 
 865:../../MMI/Resource/WriteImgRes.c **** /*****************************************************************************
 866:../../MMI/Resource/WriteImgRes.c ****  * FUNCTION
 867:../../MMI/Resource/WriteImgRes.c ****  *  isEmsImage
 868:../../MMI/Resource/WriteImgRes.c ****  * DESCRIPTION
 869:../../MMI/Resource/WriteImgRes.c ****  *  Decide if the iamge is used for EMS picture
 870:../../MMI/Resource/WriteImgRes.c ****  *
 871:../../MMI/Resource/WriteImgRes.c ****  *  use EMS_IMAGE_PATH (defined in CustDataRes.h) to decide if a EMS picture
 872:../../MMI/Resource/WriteImgRes.c ****  * PARAMETERS
 873:../../MMI/Resource/WriteImgRes.c ****  *  path        [IN]        -> string containing file name and path
GAS LISTING d:/MTK/MTK2503/MTK2503/11CW1418SP4_03_CORETEK03AE_11C_V1_GPRS_MMI/plutommi/Customer/ResGenerator/gcctmp/ccaodaaa.s 			page 59


 874:../../MMI/Resource/WriteImgRes.c ****  * RETURNS
 875:../../MMI/Resource/WriteImgRes.c ****  *  U8 --> 1: EMS picture, 0: Not EMS picture
 876:../../MMI/Resource/WriteImgRes.c ****  *****************************************************************************/
 877:../../MMI/Resource/WriteImgRes.c **** static U8 isEmsImage(S8 *path)
 878:../../MMI/Resource/WriteImgRes.c **** {
 4425              	LM227:
 4426 1cbe 55       		pushl	%ebp
 4427 1cbf 89E5     		movl	%esp, %ebp
 4428 1cc1 83EC48   		subl	$72, %esp
 879:../../MMI/Resource/WriteImgRes.c ****     /*----------------------------------------------------------------*/
 880:../../MMI/Resource/WriteImgRes.c ****     /* Local Variables                                                */
 881:../../MMI/Resource/WriteImgRes.c ****     /*----------------------------------------------------------------*/
 882:../../MMI/Resource/WriteImgRes.c ****     S8 ems_path[] = EMS_IMAGE_PATH;
 4430              	LM228:
 4431              	LBB24:
 4432 1cc4 A1AC1C00 		movl	LC60, %eax
 4432      00
 4433 1cc9 8945D8   		movl	%eax, -40(%ebp)
 4434 1ccc A1B01C00 		movl	LC60+4, %eax
 4434      00
 4435 1cd1 8945DC   		movl	%eax, -36(%ebp)
 4436 1cd4 A1B41C00 		movl	LC60+8, %eax
 4436      00
 4437 1cd9 8945E0   		movl	%eax, -32(%ebp)
 4438 1cdc A1B81C00 		movl	LC60+12, %eax
 4438      00
 4439 1ce1 8945E4   		movl	%eax, -28(%ebp)
 4440 1ce4 0FB705BC 		movzwl	LC60+16, %eax
 4440      1C0000
 4441 1ceb 668945E8 		movw	%ax, -24(%ebp)
 883:../../MMI/Resource/WriteImgRes.c ****     U8 pos = 0, ems_len = 0, i = 0;
 4443              	LM229:
 4444 1cef C645D700 		movb	$0, -41(%ebp)
 4445 1cf3 C645D600 		movb	$0, -42(%ebp)
 4446 1cf7 C645D500 		movb	$0, -43(%ebp)
 884:../../MMI/Resource/WriteImgRes.c **** 
 885:../../MMI/Resource/WriteImgRes.c ****     /*----------------------------------------------------------------*/
 886:../../MMI/Resource/WriteImgRes.c ****     /* Code Body                                                      */
 887:../../MMI/Resource/WriteImgRes.c ****     /*----------------------------------------------------------------*/
 888:../../MMI/Resource/WriteImgRes.c ****     ems_len = strlen(ems_path);
 4448              	LM230:
 4449 1cfb 8D45D8   		leal	-40(%ebp), %eax
 4450 1cfe 890424   		movl	%eax, (%esp)
 4451 1d01 E8000000 		call	_strlen
 4451      00
 4452 1d06 8845D6   		movb	%al, -42(%ebp)
 889:../../MMI/Resource/WriteImgRes.c ****     pos = strlen(path) - 1;
 4454              	LM231:
 4455 1d09 8B4508   		movl	8(%ebp), %eax
 4456 1d0c 890424   		movl	%eax, (%esp)
 4457 1d0f E8000000 		call	_strlen
 4457      00
 4458 1d14 FEC8     		decb	%al
 4459 1d16 8845D7   		movb	%al, -41(%ebp)
 890:../../MMI/Resource/WriteImgRes.c ****     while (path[pos] != '\\')
 4461              	LM232:
 4462              	L161:
GAS LISTING d:/MTK/MTK2503/MTK2503/11CW1418SP4_03_CORETEK03AE_11C_V1_GPRS_MMI/plutommi/Customer/ResGenerator/gcctmp/ccaodaaa.s 			page 60


 4463 1d19 0FB655D7 		movzbl	-41(%ebp), %edx
 4464 1d1d 8B4508   		movl	8(%ebp), %eax
 4465 1d20 803C025C 		cmpb	$92, (%edx,%eax)
 4466 1d24 7502     		jne	L163
 4467 1d26 EB16     		jmp	L162
 4468              	L163:
 891:../../MMI/Resource/WriteImgRes.c ****     {
 892:../../MMI/Resource/WriteImgRes.c ****         /* __CUSTPACK_MULTIBIN Calvin BEGIN */
 893:../../MMI/Resource/WriteImgRes.c ****         if (pos == 0)   /* 040805 CustPack: Calvin added */
 4470              	LM233:
 4471 1d28 807DD700 		cmpb	$0, -41(%ebp)
 4472 1d2c 7509     		jne	L164
 894:../../MMI/Resource/WriteImgRes.c ****         {
 895:../../MMI/Resource/WriteImgRes.c ****             return 0;
 4474              	LM234:
 4475 1d2e C745D000 		movl	$0, -48(%ebp)
 4475      000000
 4476 1d35 EB56     		jmp	L160
 4477              	L164:
 896:../../MMI/Resource/WriteImgRes.c ****         }
 897:../../MMI/Resource/WriteImgRes.c ****         /* __CUSTPACK_MULTIBIN Calvin END */
 898:../../MMI/Resource/WriteImgRes.c ****         pos--;
 4479              	LM235:
 4480 1d37 8D45D7   		leal	-41(%ebp), %eax
 4481 1d3a FE08     		decb	(%eax)
 4482 1d3c EBDB     		jmp	L161
 4483              	L162:
 899:../../MMI/Resource/WriteImgRes.c ****     }
 900:../../MMI/Resource/WriteImgRes.c ****     pos -= ems_len + 1;
 4485              	LM236:
 4486 1d3e 0FB655D6 		movzbl	-42(%ebp), %edx
 4487 1d42 0FB645D7 		movzbl	-41(%ebp), %eax
 4488 1d46 28D0     		subb	%dl, %al
 4489 1d48 FEC8     		decb	%al
 4490 1d4a 8845D7   		movb	%al, -41(%ebp)
 901:../../MMI/Resource/WriteImgRes.c ****     for (i = 0; i < ems_len; i++)
 4492              	LM237:
 4493 1d4d C645D500 		movb	$0, -43(%ebp)
 4494              	L165:
 4495 1d51 0FB645D5 		movzbl	-43(%ebp), %eax
 4496 1d55 3A45D6   		cmpb	-42(%ebp), %al
 4497 1d58 7202     		jb	L168
 4498 1d5a EB2A     		jmp	L166
 4499              	L168:
 902:../../MMI/Resource/WriteImgRes.c ****     {
 903:../../MMI/Resource/WriteImgRes.c ****         if (ems_path[i] != path[pos])
 4501              	LM238:
 4502 1d5c 0FB645D5 		movzbl	-43(%ebp), %eax
 4503 1d60 0FB64DD7 		movzbl	-41(%ebp), %ecx
 4504 1d64 8B5508   		movl	8(%ebp), %edx
 4505 1d67 0FB64405 		movzbl	-40(%ebp,%eax), %eax
 4505      D8
 4506 1d6c 3A0411   		cmpb	(%ecx,%edx), %al
 4507 1d6f 7409     		je	L169
 904:../../MMI/Resource/WriteImgRes.c ****         {
 905:../../MMI/Resource/WriteImgRes.c ****             return 0;
 4509              	LM239:
GAS LISTING d:/MTK/MTK2503/MTK2503/11CW1418SP4_03_CORETEK03AE_11C_V1_GPRS_MMI/plutommi/Customer/ResGenerator/gcctmp/ccaodaaa.s 			page 61


 4510 1d71 C745D000 		movl	$0, -48(%ebp)
 4510      000000
 4511 1d78 EB13     		jmp	L160
 4512              	L169:
 906:../../MMI/Resource/WriteImgRes.c ****         }
 907:../../MMI/Resource/WriteImgRes.c ****         else
 908:../../MMI/Resource/WriteImgRes.c ****         {
 909:../../MMI/Resource/WriteImgRes.c ****             pos++;
 4514              	LM240:
 4515 1d7a 8D45D7   		leal	-41(%ebp), %eax
 4516 1d7d FE00     		incb	(%eax)
 4518              	LM241:
 4519 1d7f 8D45D5   		leal	-43(%ebp), %eax
 4520 1d82 FE00     		incb	(%eax)
 4521 1d84 EBCB     		jmp	L165
 4522              	L166:
 910:../../MMI/Resource/WriteImgRes.c ****         }
 911:../../MMI/Resource/WriteImgRes.c ****     }
 912:../../MMI/Resource/WriteImgRes.c **** 
 913:../../MMI/Resource/WriteImgRes.c ****     return 1;
 4524              	LM242:
 4525 1d86 C745D001 		movl	$1, -48(%ebp)
 4525      000000
 914:../../MMI/Resource/WriteImgRes.c **** }
 4527              	LM243:
 4528              	L160:
 4529              	LBE24:
 4530 1d8d 8B45D0   		movl	-48(%ebp), %eax
 4531 1d90 C9       		leave
 4532 1d91 C3       		ret
 4539              	Lscope5:
 4541              	LC61:
 4542 1d92 2E41424D 		.ascii ".ABM\0"
 4542      00
 4543              	LC62:
 4544 1d97 5B25735D 		.ascii "[%s] no need convert\12\0"
 4544      206E6F20 
 4544      6E656564 
 4544      20636F6E 
 4544      76657274 
 4545              	LC63:
 4546 1dad 2E5C7465 		.ascii ".\\temp\\\0"
 4546      6D705C00 
 4547              	LC64:
 4548 1db5 2E74656D 		.ascii ".temp\0"
 4548      7000
 4549              	LC65:
 4550 1dbb 5F5F616C 		.ascii "__align(4) const U8 %s[] =\12\0"
 4550      69676E28 
 4550      34292063 
 4550      6F6E7374 
 4550      20553820 
 4551 1dd7 89F68DBC 		.align 32
 4551      27000000 
 4551      00
 4552              	LC66:
 4553 1de0 7B0A09   		.ascii "{\12\11"
GAS LISTING d:/MTK/MTK2503/MTK2503/11CW1418SP4_03_CORETEK03AE_11C_V1_GPRS_MMI/plutommi/Customer/ResGenerator/gcctmp/ccaodaaa.s 			page 62


 4554 1de3 30783030 		.ascii "0x00, 0x01, 0x00, 0x00, 0x00, 0x00, 0x00, 0x00\12};\12\0"
 4554      2C203078 
 4554      30312C20 
 4554      30783030 
 4554      2C203078 
 4555 1e16 8D76008D 		.align 32
 4555      BC270000 
 4555      0000
 4556              	LC67:
 4557 1e20 57726974 		.ascii "Write NFB_PROGRESS_IMAGE in Write_Processed_Data for empty bmp file\0"
 4557      65204E46 
 4557      425F5052 
 4557      4F475245 
 4557      53535F49 
 4558              	LC68:
 4559 1e64 6F757470 		.ascii "output_name = %s\0"
 4559      75745F6E 
 4559      616D6520 
 4559      3D202573 
 4559      00
 4560              	LC69:
 4561 1e75 2855382A 		.ascii "(U8*)&%s,\12\0"
 4561      29262573 
 4561      2C0A00
 4562              	LC70:
 4563 1e80 6F757470 		.ascii "output_name can't be NULL!!\0"
 4563      75745F6E 
 4563      616D6520 
 4563      63616E27 
 4563      74206265 
 4564              	LC71:
 4565 1e9c 6E66625F 		.ascii "nfb_img_res_file not opened\0"
 4565      696D675F 
 4565      7265735F 
 4565      66696C65 
 4565      206E6F74 
 4566 1eb8 908DB426 		.align 32
 4566      00000000 
 4567              	LC72:
 4568 1ec0 57726974 		.ascii "Write NFB_PROGRESS_IMAGE in Write_Processed_Data, type = %d\0"
 4568      65204E46 
 4568      425F5052 
 4568      4F475245 
 4568      53535F49 
 4569              	LC73:
 4570 1efc 0A00     		.ascii "\12\0"
 4584              	_Write_Processed_Data:
 915:../../MMI/Resource/WriteImgRes.c **** 
 916:../../MMI/Resource/WriteImgRes.c **** /*****************************************************************************
 917:../../MMI/Resource/WriteImgRes.c ****  * FUNCTION
 918:../../MMI/Resource/WriteImgRes.c ****  *  Write_Processed_Data
 919:../../MMI/Resource/WriteImgRes.c ****  * DESCRIPTION
 920:../../MMI/Resource/WriteImgRes.c ****  *  write processed data
 921:../../MMI/Resource/WriteImgRes.c ****  * PARAMETERS
 922:../../MMI/Resource/WriteImgRes.c ****  *  pathname        [IN]        path name for sequential image
 923:../../MMI/Resource/WriteImgRes.c ****  *  type            [IN]        image type
 924:../../MMI/Resource/WriteImgRes.c ****  *  output_name     [IN]        output variable name
GAS LISTING d:/MTK/MTK2503/MTK2503/11CW1418SP4_03_CORETEK03AE_11C_V1_GPRS_MMI/plutommi/Customer/ResGenerator/gcctmp/ccaodaaa.s 			page 63


 925:../../MMI/Resource/WriteImgRes.c ****  *  output_file     [OUT]       output file handle
 926:../../MMI/Resource/WriteImgRes.c ****  * RETURNS
 927:../../MMI/Resource/WriteImgRes.c ****  *  MMI_BOOL
 928:../../MMI/Resource/WriteImgRes.c ****  *****************************************************************************/
 929:../../MMI/Resource/WriteImgRes.c **** static MMI_BOOL Write_Processed_Data(
 930:../../MMI/Resource/WriteImgRes.c ****         char *filename,
 931:../../MMI/Resource/WriteImgRes.c ****         U8 type,
 932:../../MMI/Resource/WriteImgRes.c ****         char *output_name,
 933:../../MMI/Resource/WriteImgRes.c ****         ResgenImageOutStream * outstream,
 934:../../MMI/Resource/WriteImgRes.c ****         image_type_enum extImageFlag,
 935:../../MMI/Resource/WriteImgRes.c ****         MMI_BOOL is9slice,
 936:../../MMI/Resource/WriteImgRes.c ****         S32 force_type,
 937:../../MMI/Resource/WriteImgRes.c ****         FILE *nfb_img_res_file,
 938:../../MMI/Resource/WriteImgRes.c ****         U8 *_9slice_filename,
 939:../../MMI/Resource/WriteImgRes.c ****         SetImageProcessData * processData,
 940:../../MMI/Resource/WriteImgRes.c ****         S32 *proc_img_err_code
 941:../../MMI/Resource/WriteImgRes.c ****         )
 942:../../MMI/Resource/WriteImgRes.c **** {
 4586              	LM244:
 4587 1efe 55       		pushl	%ebp
 4588 1eff 89E5     		movl	%esp, %ebp
 4589 1f01 B8781400 		movl	$5240, %eax
 4589      00
 4590 1f06 E8000000 		call	__alloca
 4590      00
 4591 1f0b 8B450C   		movl	12(%ebp), %eax
 4592 1f0e 8845F7   		movb	%al, -9(%ebp)
 943:../../MMI/Resource/WriteImgRes.c ****     *proc_img_err_code = 0;
 4594              	LM245:
 4595              	LBB25:
 4596 1f11 8B4530   		movl	48(%ebp), %eax
 4597 1f14 C7000000 		movl	$0, (%eax)
 4597      0000
 944:../../MMI/Resource/WriteImgRes.c ****     
 945:../../MMI/Resource/WriteImgRes.c ****     S8 tempDestFile[BUFFER_SIZE];
 946:../../MMI/Resource/WriteImgRes.c **** 
 947:../../MMI/Resource/WriteImgRes.c ****     BOOL is_need_convert = TRUE;
 4599              	LM246:
 4600 1f1a C785E4EF 		movl	$1, -4124(%ebp)
 4600      FFFF0100 
 4600      0000
 948:../../MMI/Resource/WriteImgRes.c **** 
 949:../../MMI/Resource/WriteImgRes.c ****     if (type == IMAGE_TYPE_ABM)
 4602              	LM247:
 4603 1f24 807DF728 		cmpb	$40, -9(%ebp)
 4604 1f28 7575     		jne	L172
 950:../../MMI/Resource/WriteImgRes.c ****     {
 951:../../MMI/Resource/WriteImgRes.c ****         strcpy(tempDestFile, filename);
 4606              	LM248:
 4607 1f2a 8B4508   		movl	8(%ebp), %eax
 4608 1f2d 89442404 		movl	%eax, 4(%esp)
 4609 1f31 8D85E8EF 		leal	-4120(%ebp), %eax
 4609      FFFF
 4610 1f37 890424   		movl	%eax, (%esp)
 4611 1f3a E8000000 		call	_strcpy
 4611      00
 952:../../MMI/Resource/WriteImgRes.c ****         strcat(tempDestFile, ".ABM");
GAS LISTING d:/MTK/MTK2503/MTK2503/11CW1418SP4_03_CORETEK03AE_11C_V1_GPRS_MMI/plutommi/Customer/ResGenerator/gcctmp/ccaodaaa.s 			page 64


 4613              	LM249:
 4614 1f3f C7442404 		movl	$LC61, 4(%esp)
 4614      921D0000 
 4615 1f47 8D85E8EF 		leal	-4120(%ebp), %eax
 4615      FFFF
 4616 1f4d 890424   		movl	%eax, (%esp)
 4617 1f50 E8000000 		call	_strcat
 4617      00
 953:../../MMI/Resource/WriteImgRes.c **** 
 954:../../MMI/Resource/WriteImgRes.c **** #if !defined(__MMI_RESOURCE_IMAGE_COMPRESS__)
 955:../../MMI/Resource/WriteImgRes.c ****         if (toolFlag != 1)
 4619              	LM250:
 4620 1f55 833D0000 		cmpl	$1, _toolFlag
 4620      000001
 4621 1f5c 0F849E00 		je	L175
 4621      0000
 956:../../MMI/Resource/WriteImgRes.c ****         {
 957:../../MMI/Resource/WriteImgRes.c ****             if (resgen_compare_file_time(tempDestFile, filename) == -1)
 4623              	LM251:
 4624 1f62 8B4508   		movl	8(%ebp), %eax
 4625 1f65 89442404 		movl	%eax, 4(%esp)
 4626 1f69 8D85E8EF 		leal	-4120(%ebp), %eax
 4626      FFFF
 4627 1f6f 890424   		movl	%eax, (%esp)
 4628 1f72 E8000000 		call	_resgen_compare_file_time
 4628      00
 4629 1f77 83F8FF   		cmpl	$-1, %eax
 4630 1f7a 0F858000 		jne	L175
 4630      0000
 958:../../MMI/Resource/WriteImgRes.c ****             {
 959:../../MMI/Resource/WriteImgRes.c ****                 is_need_convert = FALSE;
 4632              	LM252:
 4633 1f80 C785E4EF 		movl	$0, -4124(%ebp)
 4633      FFFF0000 
 4633      0000
 960:../../MMI/Resource/WriteImgRes.c ****                 RES_PRINT_INFO("[%s] no need convert\n", filename);
 4635              	LM253:
 4636 1f8a 8B4508   		movl	8(%ebp), %eax
 4637 1f8d 89442404 		movl	%eax, 4(%esp)
 4638 1f91 C7042497 		movl	$LC62, (%esp)
 4638      1D0000
 4639 1f98 E8000000 		call	_MtkResgenTrace
 4639      00
 4640 1f9d EB61     		jmp	L175
 4641              	L172:
 961:../../MMI/Resource/WriteImgRes.c ****             }
 962:../../MMI/Resource/WriteImgRes.c ****         }
 963:../../MMI/Resource/WriteImgRes.c **** #endif /* #if defined(__MMI_RESOURCE_IMAGE_COMPRESS__) */
 964:../../MMI/Resource/WriteImgRes.c ****     }
 965:../../MMI/Resource/WriteImgRes.c ****     else
 966:../../MMI/Resource/WriteImgRes.c ****     {
 967:../../MMI/Resource/WriteImgRes.c ****         char temp_filename[1024];
 968:../../MMI/Resource/WriteImgRes.c ****         Extract_Name(temp_filename, filename, SYSTEM_IMAGE);
 4643              	LM254:
 4644              	LBB26:
 4645 1f9f C7442408 		movl	$0, 8(%esp)
 4645      00000000 
GAS LISTING d:/MTK/MTK2503/MTK2503/11CW1418SP4_03_CORETEK03AE_11C_V1_GPRS_MMI/plutommi/Customer/ResGenerator/gcctmp/ccaodaaa.s 			page 65


 4646 1fa7 8B4508   		movl	8(%ebp), %eax
 4647 1faa 89442404 		movl	%eax, 4(%esp)
 4648 1fae 8D85D8EB 		leal	-5160(%ebp), %eax
 4648      FFFF
 4649 1fb4 890424   		movl	%eax, (%esp)
 4650 1fb7 E8000000 		call	_Extract_Name
 4650      00
 969:../../MMI/Resource/WriteImgRes.c ****         strcpy(tempDestFile, ".\\temp\\");
 4652              	LM255:
 4653 1fbc C7442404 		movl	$LC63, 4(%esp)
 4653      AD1D0000 
 4654 1fc4 8D85E8EF 		leal	-4120(%ebp), %eax
 4654      FFFF
 4655 1fca 890424   		movl	%eax, (%esp)
 4656 1fcd E8000000 		call	_strcpy
 4656      00
 970:../../MMI/Resource/WriteImgRes.c ****         strcat(tempDestFile, temp_filename);
 4658              	LM256:
 4659 1fd2 8D85D8EB 		leal	-5160(%ebp), %eax
 4659      FFFF
 4660 1fd8 89442404 		movl	%eax, 4(%esp)
 4661 1fdc 8D85E8EF 		leal	-4120(%ebp), %eax
 4661      FFFF
 4662 1fe2 890424   		movl	%eax, (%esp)
 4663 1fe5 E8000000 		call	_strcat
 4663      00
 971:../../MMI/Resource/WriteImgRes.c ****         strcat(tempDestFile, ".temp");
 4665              	LM257:
 4666 1fea C7442404 		movl	$LC64, 4(%esp)
 4666      B51D0000 
 4667 1ff2 8D85E8EF 		leal	-4120(%ebp), %eax
 4667      FFFF
 4668 1ff8 890424   		movl	%eax, (%esp)
 4669 1ffb E8000000 		call	_strcat
 4669      00
 4670              	L175:
 972:../../MMI/Resource/WriteImgRes.c ****     }
 973:../../MMI/Resource/WriteImgRes.c **** 
 974:../../MMI/Resource/WriteImgRes.c ****     if (file_exist(filename) )
 4672              	LM258:
 4673              	LBE26:
 4674 2000 8B4508   		movl	8(%ebp), %eax
 4675 2003 890424   		movl	%eax, (%esp)
 4676 2006 E8000000 		call	_file_exist
 4676      00
 4677 200b 85C0     		testl	%eax, %eax
 4678 200d 0F840105 		je	L176
 4678      0000
 975:../../MMI/Resource/WriteImgRes.c ****     {
 976:../../MMI/Resource/WriteImgRes.c ****         int ret;
 977:../../MMI/Resource/WriteImgRes.c ****         switch (type)
 4680              	LM259:
 4681              	LBB27:
 4682 2013 0FB645F7 		movzbl	-9(%ebp), %eax
 4683 2017 8985C0EB 		movl	%eax, -5184(%ebp)
 4683      FFFF
 4684 201d 83BDC0EB 		cmpl	$4, -5184(%ebp)
GAS LISTING d:/MTK/MTK2503/MTK2503/11CW1418SP4_03_CORETEK03AE_11C_V1_GPRS_MMI/plutommi/Customer/ResGenerator/gcctmp/ccaodaaa.s 			page 66


 4684      FFFF04
 4685 2024 7450     		je	L180
 4686 2026 83BDC0EB 		cmpl	$4, -5184(%ebp)
 4686      FFFF04
 4687 202d 7F0E     		jg	L206
 4688 202f 83BDC0EB 		cmpl	$3, -5184(%ebp)
 4688      FFFF03
 4689 2036 7417     		je	L178
 4690 2038 E9C90200 		jmp	L204
 4690      00
 4691              	L206:
 4692 203d 83BDC0EB 		cmpl	$40, -5184(%ebp)
 4692      FFFF28
 4693 2044 0F849D01 		je	L193
 4693      0000
 4694 204a E9B70200 		jmp	L204
 4694      00
 4695              	L178:
 978:../../MMI/Resource/WriteImgRes.c ****         {
 979:../../MMI/Resource/WriteImgRes.c ****             case IMAGE_TYPE_GIF:
 980:../../MMI/Resource/WriteImgRes.c ****                 if (is_need_convert)
 4697              	LM260:
 4698 204f 83BDE4EF 		cmpl	$0, -4124(%ebp)
 4698      FFFF00
 4699 2056 0F84B902 		je	L177
 4699      0000
 981:../../MMI/Resource/WriteImgRes.c ****                 {
 982:../../MMI/Resource/WriteImgRes.c ****                     GIFLoader(filename, tempDestFile);
 4701              	LM261:
 4702              	LBB28:
 4703 205c 8D85E8EF 		leal	-4120(%ebp), %eax
 4703      FFFF
 4704 2062 89442404 		movl	%eax, 4(%esp)
 4705 2066 8B4508   		movl	8(%ebp), %eax
 4706 2069 890424   		movl	%eax, (%esp)
 4707 206c E8000000 		call	_GIFLoader
 4707      00
 983:../../MMI/Resource/WriteImgRes.c ****                 }
 984:../../MMI/Resource/WriteImgRes.c ****                 break;
 4709              	LM262:
 4710              	LBE28:
 4711 2071 E99F0200 		jmp	L177
 4711      00
 4712              	L180:
 985:../../MMI/Resource/WriteImgRes.c **** 
 986:../../MMI/Resource/WriteImgRes.c ****             case IMAGE_TYPE_DEVICE_BITMAP:
 987:../../MMI/Resource/WriteImgRes.c ****                 if (is_need_convert)
 4714              	LM263:
 4715 2076 83BDE4EF 		cmpl	$0, -4124(%ebp)
 4715      FFFF00
 4716 207d 743A     		je	L181
 988:../../MMI/Resource/WriteImgRes.c ****                 {
 989:../../MMI/Resource/WriteImgRes.c ****                     ret = BMPLoader(filename, tempDestFile, __MMI_DEVICE_BMP_FORMAT__, _9slice_file
 4718              	LM264:
 4719 207f 8B452C   		movl	44(%ebp), %eax
 4720 2082 89442414 		movl	%eax, 20(%esp)
 4721 2086 8B451C   		movl	28(%ebp), %eax
GAS LISTING d:/MTK/MTK2503/MTK2503/11CW1418SP4_03_CORETEK03AE_11C_V1_GPRS_MMI/plutommi/Customer/ResGenerator/gcctmp/ccaodaaa.s 			page 67


 4722 2089 89442410 		movl	%eax, 16(%esp)
 4723 208d 8B4528   		movl	40(%ebp), %eax
 4724 2090 8944240C 		movl	%eax, 12(%esp)
 4725 2094 C7442408 		movl	$16, 8(%esp)
 4725      10000000 
 4726 209c 8D85E8EF 		leal	-4120(%ebp), %eax
 4726      FFFF
 4727 20a2 89442404 		movl	%eax, 4(%esp)
 4728 20a6 8B4508   		movl	8(%ebp), %eax
 4729 20a9 890424   		movl	%eax, (%esp)
 4730 20ac E8000000 		call	_BMPLoader
 4730      00
 4731 20b1 8985D4EB 		movl	%eax, -5164(%ebp)
 4731      FFFF
 4732 20b7 EB0A     		jmp	L182
 4733              	L181:
 990:../../MMI/Resource/WriteImgRes.c ****                 }
 991:../../MMI/Resource/WriteImgRes.c ****                 else
 992:../../MMI/Resource/WriteImgRes.c ****                 {
 993:../../MMI/Resource/WriteImgRes.c ****                     ret = 1;
 4735              	LM265:
 4736 20b9 C785D4EB 		movl	$1, -5164(%ebp)
 4736      FFFF0100 
 4736      0000
 4737              	L182:
 994:../../MMI/Resource/WriteImgRes.c ****                 }
 995:../../MMI/Resource/WriteImgRes.c **** 
 996:../../MMI/Resource/WriteImgRes.c ****                 if (toolFlag)
 4739              	LM266:
 4740 20c3 833D0000 		cmpl	$0, _toolFlag
 4740      000000
 4741 20ca 7427     		je	L183
 997:../../MMI/Resource/WriteImgRes.c ****                 {
 998:../../MMI/Resource/WriteImgRes.c ****                     if (ret == 0)
 4743              	LM267:
 4744 20cc 83BDD4EB 		cmpl	$0, -5164(%ebp)
 4744      FFFF00
 4745 20d3 750F     		jne	L184
 999:../../MMI/Resource/WriteImgRes.c ****                     {
1000:../../MMI/Resource/WriteImgRes.c ****                         resultFailFlag = 1;
 4747              	LM268:
 4748 20d5 C7050000 		movl	$1, _resultFailFlag
 4748      00000100 
 4748      0000
 4749 20df E9310200 		jmp	L177
 4749      00
 4750              	L184:
1001:../../MMI/Resource/WriteImgRes.c ****                     }
1002:../../MMI/Resource/WriteImgRes.c ****                     else
1003:../../MMI/Resource/WriteImgRes.c ****                     {
1004:../../MMI/Resource/WriteImgRes.c ****                         resultFailFlag = 0;
 4752              	LM269:
 4753 20e4 C7050000 		movl	$0, _resultFailFlag
 4753      00000000 
 4753      0000
 4754 20ee E9220200 		jmp	L177
 4754      00
GAS LISTING d:/MTK/MTK2503/MTK2503/11CW1418SP4_03_CORETEK03AE_11C_V1_GPRS_MMI/plutommi/Customer/ResGenerator/gcctmp/ccaodaaa.s 			page 68


 4755              	L183:
1005:../../MMI/Resource/WriteImgRes.c ****                     }
1006:../../MMI/Resource/WriteImgRes.c ****                 }
1007:../../MMI/Resource/WriteImgRes.c ****                 else
1008:../../MMI/Resource/WriteImgRes.c ****                 {
1009:../../MMI/Resource/WriteImgRes.c ****                     /* we handle empty bmp file here, maybe we should handle it in Write_Unprocesse
1010:../../MMI/Resource/WriteImgRes.c ****                     if (ret == 0)
 4757              	LM270:
 4758 20f3 83BDD4EB 		cmpl	$0, -5164(%ebp)
 4758      FFFF00
 4759 20fa 0F851502 		jne	L177
 4759      0000
1011:../../MMI/Resource/WriteImgRes.c ****                     {
1012:../../MMI/Resource/WriteImgRes.c ****                         ImageOutStreamPrintf(outstream, "__align(4) const U8 %s[] =\n", output_name
 4761              	LM271:
 4762 2100 8B4510   		movl	16(%ebp), %eax
 4763 2103 89442408 		movl	%eax, 8(%esp)
 4764 2107 C7442404 		movl	$LC65, 4(%esp)
 4764      BB1D0000 
 4765 210f 8B4514   		movl	20(%ebp), %eax
 4766 2112 890424   		movl	%eax, (%esp)
 4767 2115 E8000000 		call	_ImageOutStreamPrintf
 4767      00
1013:../../MMI/Resource/WriteImgRes.c ****                         ImageOutStreamPrintf(outstream, "{\n\t0x00, 0x01, 0x00, 0x00, 0x00, 0x00, 0
 4769              	LM272:
 4770 211a C7442404 		movl	$LC66, 4(%esp)
 4770      E01D0000 
 4771 2122 8B4514   		movl	20(%ebp), %eax
 4772 2125 890424   		movl	%eax, (%esp)
 4773 2128 E8000000 		call	_ImageOutStreamPrintf
 4773      00
1014:../../MMI/Resource/WriteImgRes.c ****                         if (extImageFlag == NFB_PROGRESS_IMAGE)
 4775              	LM273:
 4776 212d 837D1802 		cmpl	$2, 24(%ebp)
 4777 2131 0F85A100 		jne	L188
 4777      0000
1015:../../MMI/Resource/WriteImgRes.c ****                         {
1016:../../MMI/Resource/WriteImgRes.c ****                             RESIMG_LOG_V("Write NFB_PROGRESS_IMAGE in Write_Processed_Data for empt
 4779              	LM274:
 4780 2137 C7442408 		movl	$LC67, 8(%esp)
 4780      201E0000 
 4781 213f C7442404 		movl	$LC34, 4(%esp)
 4781      64060000 
 4782 2147 C7042401 		movl	$1, (%esp)
 4782      000000
 4783 214e E8000000 		call	_reslog_adaptor_log
 4783      00
1017:../../MMI/Resource/WriteImgRes.c ****                             if (nfb_img_res_file != NULL)
 4785              	LM275:
 4786 2153 837D2400 		cmpl	$0, 36(%ebp)
 4787 2157 7463     		je	L189
1018:../../MMI/Resource/WriteImgRes.c ****                             {
1019:../../MMI/Resource/WriteImgRes.c ****                                 if(output_name != NULL){							
 4789              	LM276:
 4790 2159 837D1000 		cmpl	$0, 16(%ebp)
 4791 215d 743F     		je	L190
1020:../../MMI/Resource/WriteImgRes.c ****                                     RESIMG_LOG_V("output_name = %s", output_name);
GAS LISTING d:/MTK/MTK2503/MTK2503/11CW1418SP4_03_CORETEK03AE_11C_V1_GPRS_MMI/plutommi/Customer/ResGenerator/gcctmp/ccaodaaa.s 			page 69


 4793              	LM277:
 4794 215f 8B4510   		movl	16(%ebp), %eax
 4795 2162 8944240C 		movl	%eax, 12(%esp)
 4796 2166 C7442408 		movl	$LC68, 8(%esp)
 4796      641E0000 
 4797 216e C7442404 		movl	$LC34, 4(%esp)
 4797      64060000 
 4798 2176 C7042401 		movl	$1, (%esp)
 4798      000000
 4799 217d E8000000 		call	_reslog_adaptor_log
 4799      00
1021:../../MMI/Resource/WriteImgRes.c ****                                 fprintf(nfb_img_res_file, "(U8*)&%s,\n", output_name);
 4801              	LM278:
 4802 2182 8B4510   		movl	16(%ebp), %eax
 4803 2185 89442408 		movl	%eax, 8(%esp)
 4804 2189 C7442404 		movl	$LC69, 4(%esp)
 4804      751E0000 
 4805 2191 8B4524   		movl	36(%ebp), %eax
 4806 2194 890424   		movl	%eax, (%esp)
 4807 2197 E8000000 		call	_fprintf
 4807      00
 4808 219c EB3A     		jmp	L188
 4809              	L190:
1022:../../MMI/Resource/WriteImgRes.c ****                                 }else{
1023:../../MMI/Resource/WriteImgRes.c ****                                     RESIMG_LOG_E("output_name can't be NULL!!");
 4811              	LM279:
 4812 219e C7442408 		movl	$LC70, 8(%esp)
 4812      801E0000 
 4813 21a6 C7442404 		movl	$LC34, 4(%esp)
 4813      64060000 
 4814 21ae C7042403 		movl	$3, (%esp)
 4814      000000
 4815 21b5 E8000000 		call	_reslog_adaptor_log
 4815      00
 4816 21ba EB1C     		jmp	L188
 4817              	L189:
1024:../../MMI/Resource/WriteImgRes.c **** 								}
1025:../../MMI/Resource/WriteImgRes.c ****                             }
1026:../../MMI/Resource/WriteImgRes.c ****                             else
1027:../../MMI/Resource/WriteImgRes.c ****                             {
1028:../../MMI/Resource/WriteImgRes.c ****                                 RESIMG_LOG_E("nfb_img_res_file not opened");
 4819              	LM280:
 4820 21bc C7442408 		movl	$LC71, 8(%esp)
 4820      9C1E0000 
 4821 21c4 C7442404 		movl	$LC34, 4(%esp)
 4821      64060000 
 4822 21cc C7042403 		movl	$3, (%esp)
 4822      000000
 4823 21d3 E8000000 		call	_reslog_adaptor_log
 4823      00
 4824              	L188:
1029:../../MMI/Resource/WriteImgRes.c ****                             }
1030:../../MMI/Resource/WriteImgRes.c ****                         }
1031:../../MMI/Resource/WriteImgRes.c ****                         return MMI_TRUE;
 4826              	LM281:
 4827 21d8 C785C4EB 		movl	$1, -5180(%ebp)
 4827      FFFF0100 
GAS LISTING d:/MTK/MTK2503/MTK2503/11CW1418SP4_03_CORETEK03AE_11C_V1_GPRS_MMI/plutommi/Customer/ResGenerator/gcctmp/ccaodaaa.s 			page 70


 4827      0000
 4828 21e2 E9430300 		jmp	L171
 4828      00
 4829              	L193:
1032:../../MMI/Resource/WriteImgRes.c ****                     }
1033:../../MMI/Resource/WriteImgRes.c ****                 }
1034:../../MMI/Resource/WriteImgRes.c ****                 break;
1035:../../MMI/Resource/WriteImgRes.c **** 
1036:../../MMI/Resource/WriteImgRes.c ****             case IMAGE_TYPE_ABM:
1037:../../MMI/Resource/WriteImgRes.c ****                 if (is_need_convert)
 4831              	LM282:
 4832 21e7 83BDE4EF 		cmpl	$0, -4124(%ebp)
 4832      FFFF00
 4833 21ee 0F84BD00 		je	L194
 4833      0000
1038:../../MMI/Resource/WriteImgRes.c ****                 {
1039:../../MMI/Resource/WriteImgRes.c ****                     RG_SET_CPZ(TRUE);
1040:../../MMI/Resource/WriteImgRes.c ****                     if (force_type == FORCE_ABM)
 4835              	LM283:
 4836 21f4 837D2001 		cmpl	$1, 32(%ebp)
 4837 21f8 753D     		jne	L195
1041:../../MMI/Resource/WriteImgRes.c ****                     {
1042:../../MMI/Resource/WriteImgRes.c ****                         ret = ABMLoader(filename, tempDestFile, ABM_ENC_OPTION_FLAG_ABM, is9slice, 
 4839              	LM284:
 4840 21fa 8B452C   		movl	44(%ebp), %eax
 4841 21fd 89442414 		movl	%eax, 20(%esp)
 4842 2201 8B4528   		movl	40(%ebp), %eax
 4843 2204 89442410 		movl	%eax, 16(%esp)
 4844 2208 8B451C   		movl	28(%ebp), %eax
 4845 220b 8944240C 		movl	%eax, 12(%esp)
 4846 220f C7442408 		movl	$2, 8(%esp)
 4846      02000000 
 4847 2217 8D85E8EF 		leal	-4120(%ebp), %eax
 4847      FFFF
 4848 221d 89442404 		movl	%eax, 4(%esp)
 4849 2221 8B4508   		movl	8(%ebp), %eax
 4850 2224 890424   		movl	%eax, (%esp)
 4851 2227 E8000000 		call	_ABMLoader
 4851      00
 4852 222c 8985D4EB 		movl	%eax, -5164(%ebp)
 4852      FFFF
 4853 2232 E9840000 		jmp	L199
 4853      00
 4854              	L195:
1043:../../MMI/Resource/WriteImgRes.c ****                     }
1044:../../MMI/Resource/WriteImgRes.c ****                     else if(force_type == FORCE_AB2)
 4856              	LM285:
 4857 2237 837D2002 		cmpl	$2, 32(%ebp)
 4858 223b 753A     		jne	L197
1045:../../MMI/Resource/WriteImgRes.c ****                     {
1046:../../MMI/Resource/WriteImgRes.c ****                         ret = ABMLoader(filename, tempDestFile, ABM_ENC_OPTION_FLAG_AB2, is9slice, 
 4860              	LM286:
 4861 223d 8B452C   		movl	44(%ebp), %eax
 4862 2240 89442414 		movl	%eax, 20(%esp)
 4863 2244 8B4528   		movl	40(%ebp), %eax
 4864 2247 89442410 		movl	%eax, 16(%esp)
 4865 224b 8B451C   		movl	28(%ebp), %eax
GAS LISTING d:/MTK/MTK2503/MTK2503/11CW1418SP4_03_CORETEK03AE_11C_V1_GPRS_MMI/plutommi/Customer/ResGenerator/gcctmp/ccaodaaa.s 			page 71


 4866 224e 8944240C 		movl	%eax, 12(%esp)
 4867 2252 C7442408 		movl	$4, 8(%esp)
 4867      04000000 
 4868 225a 8D85E8EF 		leal	-4120(%ebp), %eax
 4868      FFFF
 4869 2260 89442404 		movl	%eax, 4(%esp)
 4870 2264 8B4508   		movl	8(%ebp), %eax
 4871 2267 890424   		movl	%eax, (%esp)
 4872 226a E8000000 		call	_ABMLoader
 4872      00
 4873 226f 8985D4EB 		movl	%eax, -5164(%ebp)
 4873      FFFF
 4874 2275 EB44     		jmp	L199
 4875              	L197:
1047:../../MMI/Resource/WriteImgRes.c ****                     }                	
1048:../../MMI/Resource/WriteImgRes.c ****                     else
1049:../../MMI/Resource/WriteImgRes.c ****                     {
1050:../../MMI/Resource/WriteImgRes.c ****                         ret = ABMLoader(filename, tempDestFile, ABM_ENC_OPTION_FLAG_ALL, is9slice, 
 4877              	LM287:
 4878 2277 8B452C   		movl	44(%ebp), %eax
 4879 227a 89442414 		movl	%eax, 20(%esp)
 4880 227e 8B4528   		movl	40(%ebp), %eax
 4881 2281 89442410 		movl	%eax, 16(%esp)
 4882 2285 8B451C   		movl	28(%ebp), %eax
 4883 2288 8944240C 		movl	%eax, 12(%esp)
 4884 228c C7442408 		movl	$7, 8(%esp)
 4884      07000000 
 4885 2294 8D85E8EF 		leal	-4120(%ebp), %eax
 4885      FFFF
 4886 229a 89442404 		movl	%eax, 4(%esp)
 4887 229e 8B4508   		movl	8(%ebp), %eax
 4888 22a1 890424   		movl	%eax, (%esp)
 4889 22a4 E8000000 		call	_ABMLoader
 4889      00
 4890 22a9 8985D4EB 		movl	%eax, -5164(%ebp)
 4890      FFFF
 4891 22af EB0A     		jmp	L199
 4892              	L194:
1051:../../MMI/Resource/WriteImgRes.c ****                     }
1052:../../MMI/Resource/WriteImgRes.c ****                     RG_SET_CPZ(FALSE);
1053:../../MMI/Resource/WriteImgRes.c ****                 }
1054:../../MMI/Resource/WriteImgRes.c ****                 else
1055:../../MMI/Resource/WriteImgRes.c ****                 {
1056:../../MMI/Resource/WriteImgRes.c ****                     ret = ABM_ENC_RETURN_USE_ABM;
 4894              	LM288:
 4895 22b1 C785D4EB 		movl	$1, -5164(%ebp)
 4895      FFFF0100 
 4895      0000
 4896              	L199:
1057:../../MMI/Resource/WriteImgRes.c ****                 }
1058:../../MMI/Resource/WriteImgRes.c **** 
1059:../../MMI/Resource/WriteImgRes.c ****                 if (ret != ABM_ENC_RETURN_USE_ABM)
 4898              	LM289:
 4899 22bb 83BDD4EB 		cmpl	$1, -5164(%ebp)
 4899      FFFF01
 4900 22c2 742D     		je	L200
1060:../../MMI/Resource/WriteImgRes.c ****                 {
GAS LISTING d:/MTK/MTK2503/MTK2503/11CW1418SP4_03_CORETEK03AE_11C_V1_GPRS_MMI/plutommi/Customer/ResGenerator/gcctmp/ccaodaaa.s 			page 72


1061:../../MMI/Resource/WriteImgRes.c ****                     if (toolFlag)
 4902              	LM290:
 4903 22c4 833D0000 		cmpl	$0, _toolFlag
 4903      000000
 4904 22cb 740A     		je	L201
1062:../../MMI/Resource/WriteImgRes.c ****                     {
1063:../../MMI/Resource/WriteImgRes.c ****                         resultFailFlag = 1;
 4906              	LM291:
 4907 22cd C7050000 		movl	$1, _resultFailFlag
 4907      00000100 
 4907      0000
 4908              	L201:
1064:../../MMI/Resource/WriteImgRes.c ****                     }
1065:../../MMI/Resource/WriteImgRes.c ****                     *proc_img_err_code = ret;
 4910              	LM292:
 4911 22d7 8B5530   		movl	48(%ebp), %edx
 4912 22da 8B85D4EB 		movl	-5164(%ebp), %eax
 4912      FFFF
 4913 22e0 8902     		movl	%eax, (%edx)
1066:../../MMI/Resource/WriteImgRes.c ****                     
1067:../../MMI/Resource/WriteImgRes.c ****                     return MMI_FALSE;
 4915              	LM293:
 4916 22e2 C785C4EB 		movl	$0, -5180(%ebp)
 4916      FFFF0000 
 4916      0000
 4917 22ec E9390200 		jmp	L171
 4917      00
 4918              	L200:
1068:../../MMI/Resource/WriteImgRes.c ****                 }
1069:../../MMI/Resource/WriteImgRes.c ****                 else
1070:../../MMI/Resource/WriteImgRes.c ****                 {
1071:../../MMI/Resource/WriteImgRes.c ****                     if (toolFlag)
 4920              	LM294:
 4921 22f1 833D0000 		cmpl	$0, _toolFlag
 4921      000000
 4922 22f8 741B     		je	L177
1072:../../MMI/Resource/WriteImgRes.c ****                     {
1073:../../MMI/Resource/WriteImgRes.c ****                         resultFailFlag = 0;
 4924              	LM295:
 4925 22fa C7050000 		movl	$0, _resultFailFlag
 4925      00000000 
 4925      0000
1074:../../MMI/Resource/WriteImgRes.c ****                     }
1075:../../MMI/Resource/WriteImgRes.c ****                 }
1076:../../MMI/Resource/WriteImgRes.c ****                 break;
 4927              	LM296:
 4928 2304 EB0F     		jmp	L177
 4929              	L204:
1077:../../MMI/Resource/WriteImgRes.c **** 
1078:../../MMI/Resource/WriteImgRes.c ****             default:
1079:../../MMI/Resource/WriteImgRes.c ****                 return MMI_FALSE;
 4931              	LM297:
 4932 2306 C785C4EB 		movl	$0, -5180(%ebp)
 4932      FFFF0000 
 4932      0000
 4933 2310 E9150200 		jmp	L171
 4933      00
GAS LISTING d:/MTK/MTK2503/MTK2503/11CW1418SP4_03_CORETEK03AE_11C_V1_GPRS_MMI/plutommi/Customer/ResGenerator/gcctmp/ccaodaaa.s 			page 73


 4934              	L177:
1080:../../MMI/Resource/WriteImgRes.c ****         }
1081:../../MMI/Resource/WriteImgRes.c **** 
1082:../../MMI/Resource/WriteImgRes.c ****         if (toolFlag == 0)
 4936              	LM298:
 4937 2315 833D0000 		cmpl	$0, _toolFlag
 4937      000000
 4938 231c 0F85FE01 		jne	L220
 4938      0000
1083:../../MMI/Resource/WriteImgRes.c ****         {
1084:../../MMI/Resource/WriteImgRes.c ****             FILE *fp;
1085:../../MMI/Resource/WriteImgRes.c **** 
1086:../../MMI/Resource/WriteImgRes.c ****             fp = fopen(tempDestFile, "rb");
 4940              	LM299:
 4941              	LBB29:
 4942 2322 C7442404 		movl	$LC59, 4(%esp)
 4942      130D0000 
 4943 232a 8D85E8EF 		leal	-4120(%ebp), %eax
 4943      FFFF
 4944 2330 890424   		movl	%eax, (%esp)
 4945 2333 E8000000 		call	_fopen
 4945      00
 4946 2338 8985D0EB 		movl	%eax, -5168(%ebp)
 4946      FFFF
1087:../../MMI/Resource/WriteImgRes.c ****             if (fp != NULL)
 4948              	LM300:
 4949 233e 83BDD0EB 		cmpl	$0, -5168(%ebp)
 4949      FFFF00
 4950 2345 0F84D501 		je	L220
 4950      0000
1088:../../MMI/Resource/WriteImgRes.c ****             {
1089:../../MMI/Resource/WriteImgRes.c **** #if defined(__MMI_RESOURCE_IMAGE_COMPRESS__)
1090:../../MMI/Resource/WriteImgRes.c ****                 if (g_is_compressed)
1091:../../MMI/Resource/WriteImgRes.c ****                 {
1092:../../MMI/Resource/WriteImgRes.c ****                     ImageOutStreamPrintf(outstream, "__align(4) U8 %s[%d];\n", output_name, g_res_c
1093:../../MMI/Resource/WriteImgRes.c ****                     ImageOutStreamPrintf(outstream, "__align(4) const U8 %s_zip[] =\n", output_name
1094:../../MMI/Resource/WriteImgRes.c **** 
1095:../../MMI/Resource/WriteImgRes.c ****                     strcpy(g_res_compress_data_image[g_res_compress_count_image-1].ro_name, output_
1096:../../MMI/Resource/WriteImgRes.c ****                     strcpy(g_res_compress_data_image[g_res_compress_count_image-1].zi_name, output_
1097:../../MMI/Resource/WriteImgRes.c ****                     strcat(g_res_compress_data_image[g_res_compress_count_image-1].ro_name, "_zip")
1098:../../MMI/Resource/WriteImgRes.c ****                 }
1099:../../MMI/Resource/WriteImgRes.c ****                 else
1100:../../MMI/Resource/WriteImgRes.c **** #endif /* __MMI_RESOURCE_IMAGE_COMPRESS__ */
1101:../../MMI/Resource/WriteImgRes.c ****                 {
1102:../../MMI/Resource/WriteImgRes.c ****                     ImageOutStreamPrintf(outstream, "__align(4) const U8 %s[] =\n", output_name);
 4952              	LM301:
 4953              	LBB30:
 4954 234b 8B4510   		movl	16(%ebp), %eax
 4955 234e 89442408 		movl	%eax, 8(%esp)
 4956 2352 C7442404 		movl	$LC65, 4(%esp)
 4956      BB1D0000 
 4957 235a 8B4514   		movl	20(%ebp), %eax
 4958 235d 890424   		movl	%eax, (%esp)
 4959 2360 E8000000 		call	_ImageOutStreamPrintf
 4959      00
1103:../../MMI/Resource/WriteImgRes.c ****                 }
1104:../../MMI/Resource/WriteImgRes.c **** 
GAS LISTING d:/MTK/MTK2503/MTK2503/11CW1418SP4_03_CORETEK03AE_11C_V1_GPRS_MMI/plutommi/Customer/ResGenerator/gcctmp/ccaodaaa.s 			page 74


1105:../../MMI/Resource/WriteImgRes.c ****                 if (extImageFlag == NFB_PROGRESS_IMAGE)
 4961              	LM302:
 4962 2365 837D1802 		cmpl	$2, 24(%ebp)
 4963 2369 0F85AD00 		jne	L209
 4963      0000
1106:../../MMI/Resource/WriteImgRes.c ****                 {
1107:../../MMI/Resource/WriteImgRes.c ****                     if (nfb_img_res_file != NULL)
 4965              	LM303:
 4966 236f 837D2400 		cmpl	$0, 36(%ebp)
 4967 2373 0F848700 		je	L210
 4967      0000
1108:../../MMI/Resource/WriteImgRes.c ****                     {
1109:../../MMI/Resource/WriteImgRes.c ****                         RESIMG_LOG_V("Write NFB_PROGRESS_IMAGE in Write_Processed_Data, type = %d",
 4969              	LM304:
 4970 2379 0FB645F7 		movzbl	-9(%ebp), %eax
 4971 237d 8944240C 		movl	%eax, 12(%esp)
 4972 2381 C7442408 		movl	$LC72, 8(%esp)
 4972      C01E0000 
 4973 2389 C7442404 		movl	$LC34, 4(%esp)
 4973      64060000 
 4974 2391 C7042401 		movl	$1, (%esp)
 4974      000000
 4975 2398 E8000000 		call	_reslog_adaptor_log
 4975      00
1110:../../MMI/Resource/WriteImgRes.c **** 
1111:../../MMI/Resource/WriteImgRes.c ****                         if(output_name != NULL){
 4977              	LM305:
 4978 239d 837D1000 		cmpl	$0, 16(%ebp)
 4979 23a1 743F     		je	L211
1112:../../MMI/Resource/WriteImgRes.c ****                             RESIMG_LOG_V("output_name = %s", output_name);
 4981              	LM306:
 4982 23a3 8B4510   		movl	16(%ebp), %eax
 4983 23a6 8944240C 		movl	%eax, 12(%esp)
 4984 23aa C7442408 		movl	$LC68, 8(%esp)
 4984      641E0000 
 4985 23b2 C7442404 		movl	$LC34, 4(%esp)
 4985      64060000 
 4986 23ba C7042401 		movl	$1, (%esp)
 4986      000000
 4987 23c1 E8000000 		call	_reslog_adaptor_log
 4987      00
1113:../../MMI/Resource/WriteImgRes.c ****                             fprintf(nfb_img_res_file, "(U8*)&%s,\n", output_name);
 4989              	LM307:
 4990 23c6 8B4510   		movl	16(%ebp), %eax
 4991 23c9 89442408 		movl	%eax, 8(%esp)
 4992 23cd C7442404 		movl	$LC69, 4(%esp)
 4992      751E0000 
 4993 23d5 8B4524   		movl	36(%ebp), %eax
 4994 23d8 890424   		movl	%eax, (%esp)
 4995 23db E8000000 		call	_fprintf
 4995      00
 4996 23e0 EB3A     		jmp	L209
 4997              	L211:
1114:../../MMI/Resource/WriteImgRes.c ****                         }
1115:../../MMI/Resource/WriteImgRes.c ****                         else
1116:../../MMI/Resource/WriteImgRes.c ****                         {
1117:../../MMI/Resource/WriteImgRes.c ****                             RESIMG_LOG_E("output_name can't be NULL!!");
GAS LISTING d:/MTK/MTK2503/MTK2503/11CW1418SP4_03_CORETEK03AE_11C_V1_GPRS_MMI/plutommi/Customer/ResGenerator/gcctmp/ccaodaaa.s 			page 75


 4999              	LM308:
 5000 23e2 C7442408 		movl	$LC70, 8(%esp)
 5000      801E0000 
 5001 23ea C7442404 		movl	$LC34, 4(%esp)
 5001      64060000 
 5002 23f2 C7042403 		movl	$3, (%esp)
 5002      000000
 5003 23f9 E8000000 		call	_reslog_adaptor_log
 5003      00
 5004 23fe EB1C     		jmp	L209
 5005              	L210:
1118:../../MMI/Resource/WriteImgRes.c ****                         }
1119:../../MMI/Resource/WriteImgRes.c ****                     }
1120:../../MMI/Resource/WriteImgRes.c ****                     else
1121:../../MMI/Resource/WriteImgRes.c ****                     {
1122:../../MMI/Resource/WriteImgRes.c ****                         RESIMG_LOG_E("nfb_img_res_file not opened");
 5007              	LM309:
 5008 2400 C7442408 		movl	$LC71, 8(%esp)
 5008      9C1E0000 
 5009 2408 C7442404 		movl	$LC34, 4(%esp)
 5009      64060000 
 5010 2410 C7042403 		movl	$3, (%esp)
 5010      000000
 5011 2417 E8000000 		call	_reslog_adaptor_log
 5011      00
 5012              	L209:
1123:../../MMI/Resource/WriteImgRes.c ****                     }
1124:../../MMI/Resource/WriteImgRes.c ****                 }
1125:../../MMI/Resource/WriteImgRes.c **** 
1126:../../MMI/Resource/WriteImgRes.c ****                 //const int buffer_size = 64 * 1024;
1127:../../MMI/Resource/WriteImgRes.c ****                 const int buffer_size = 200;
 5014              	LM310:
 5015 241c C785CCEB 		movl	$200, -5172(%ebp)
 5015      FFFFC800 
 5015      0000
1128:../../MMI/Resource/WriteImgRes.c ****                 while (!feof(fp))
 5017              	LM311:
 5018              	L214:
 5019 2426 8B85D0EB 		movl	-5168(%ebp), %eax
 5019      FFFF
 5020 242c 890424   		movl	%eax, (%esp)
 5021 242f E8000000 		call	_feof
 5021      00
 5022 2434 85C0     		testl	%eax, %eax
 5023 2436 7405     		je	L216
 5024 2438 E9A10000 		jmp	L215
 5024      00
 5025              	L216:
 5026              	LBB31:
 5027 243d 89A5BCEB 		movl	%esp, -5188(%ebp)
 5027      FFFF
1129:../../MMI/Resource/WriteImgRes.c ****                 {
1130:../../MMI/Resource/WriteImgRes.c ****                     S8 buffer[buffer_size];
 5029              	LM312:
 5030 2443 8B85CCEB 		movl	-5172(%ebp), %eax
 5030      FFFF
 5031 2449 83C00F   		addl	$15, %eax
GAS LISTING d:/MTK/MTK2503/MTK2503/11CW1418SP4_03_CORETEK03AE_11C_V1_GPRS_MMI/plutommi/Customer/ResGenerator/gcctmp/ccaodaaa.s 			page 76


 5032 244c C1E804   		shrl	$4, %eax
 5033 244f C1E004   		sall	$4, %eax
 5034 2452 8985B4EB 		movl	%eax, -5196(%ebp)
 5034      FFFF
 5035 2458 8B85B4EB 		movl	-5196(%ebp), %eax
 5035      FFFF
 5036 245e E8000000 		call	__alloca
 5036      00
 5037 2463 8D442418 		leal	24(%esp), %eax
 5038 2467 8985B8EB 		movl	%eax, -5192(%ebp)
 5038      FFFF
1131:../../MMI/Resource/WriteImgRes.c ****                     size_t size;
1132:../../MMI/Resource/WriteImgRes.c **** 
1133:../../MMI/Resource/WriteImgRes.c ****                     size = fread(buffer, 1, buffer_size, fp);
 5040              	LM313:
 5041 246d 8B85D0EB 		movl	-5168(%ebp), %eax
 5041      FFFF
 5042 2473 8944240C 		movl	%eax, 12(%esp)
 5043 2477 8B85CCEB 		movl	-5172(%ebp), %eax
 5043      FFFF
 5044 247d 89442408 		movl	%eax, 8(%esp)
 5045 2481 C7442404 		movl	$1, 4(%esp)
 5045      01000000 
 5046 2489 8B85B8EB 		movl	-5192(%ebp), %eax
 5046      FFFF
 5047 248f 890424   		movl	%eax, (%esp)
 5048 2492 E8000000 		call	_fread
 5048      00
 5049 2497 8985C8EB 		movl	%eax, -5176(%ebp)
 5049      FFFF
1134:../../MMI/Resource/WriteImgRes.c ****                     if (size > 0 && size <= buffer_size)
 5051              	LM314:
 5052 249d 83BDC8EB 		cmpl	$0, -5176(%ebp)
 5052      FFFF00
 5053 24a4 742D     		je	L217
 5054 24a6 8B85C8EB 		movl	-5176(%ebp), %eax
 5054      FFFF
 5055 24ac 3B85CCEB 		cmpl	-5172(%ebp), %eax
 5055      FFFF
 5056 24b2 771F     		ja	L217
1135:../../MMI/Resource/WriteImgRes.c ****                     {
1136:../../MMI/Resource/WriteImgRes.c ****                         ImageOutStreamAppend(outstream, buffer, size);
 5058              	LM315:
 5059 24b4 8B85C8EB 		movl	-5176(%ebp), %eax
 5059      FFFF
 5060 24ba 89442408 		movl	%eax, 8(%esp)
 5061 24be 8B85B8EB 		movl	-5192(%ebp), %eax
 5061      FFFF
 5062 24c4 89442404 		movl	%eax, 4(%esp)
 5063 24c8 8B4514   		movl	20(%ebp), %eax
 5064 24cb 890424   		movl	%eax, (%esp)
 5065 24ce E8000000 		call	_ImageOutStreamAppend
 5065      00
 5066              	L217:
 5067 24d3 8BA5BCEB 		movl	-5188(%ebp), %esp
 5067      FFFF
 5068              	LBE31:
GAS LISTING d:/MTK/MTK2503/MTK2503/11CW1418SP4_03_CORETEK03AE_11C_V1_GPRS_MMI/plutommi/Customer/ResGenerator/gcctmp/ccaodaaa.s 			page 77


 5069 24d9 E948FFFF 		jmp	L214
 5069      FF
 5070              	L215:
1137:../../MMI/Resource/WriteImgRes.c ****                     }
1138:../../MMI/Resource/WriteImgRes.c ****                 }
1139:../../MMI/Resource/WriteImgRes.c ****                 ImageOutStreamPrintf(outstream, "\n");
 5072              	LM316:
 5073 24de C7442404 		movl	$LC73, 4(%esp)
 5073      FC1E0000 
 5074 24e6 8B4514   		movl	20(%ebp), %eax
 5075 24e9 890424   		movl	%eax, (%esp)
 5076 24ec E8000000 		call	_ImageOutStreamPrintf
 5076      00
1140:../../MMI/Resource/WriteImgRes.c **** 
1141:../../MMI/Resource/WriteImgRes.c ****                 MYFCLOSE(fp);
 5078              	LM317:
 5079 24f1 83BDD0EB 		cmpl	$0, -5168(%ebp)
 5079      FFFF00
 5080 24f8 7426     		je	L220
 5081 24fa 8B85D0EB 		movl	-5168(%ebp), %eax
 5081      FFFF
 5082 2500 890424   		movl	%eax, (%esp)
 5083 2503 E8000000 		call	_fclose
 5083      00
 5084 2508 C785D0EB 		movl	$0, -5168(%ebp)
 5084      FFFF0000 
 5084      0000
 5085              	LBE30:
 5086              	LBE29:
 5087              	LBE27:
 5088 2512 EB0C     		jmp	L220
 5089              	L176:
1142:../../MMI/Resource/WriteImgRes.c ****             }
1143:../../MMI/Resource/WriteImgRes.c ****         }
1144:../../MMI/Resource/WriteImgRes.c ****     }
1145:../../MMI/Resource/WriteImgRes.c ****     else
1146:../../MMI/Resource/WriteImgRes.c ****     {
1147:../../MMI/Resource/WriteImgRes.c ****         return MMI_FALSE;
 5091              	LM318:
 5092 2514 C785C4EB 		movl	$0, -5180(%ebp)
 5092      FFFF0000 
 5092      0000
 5093 251e EB0A     		jmp	L171
 5094              	L220:
1148:../../MMI/Resource/WriteImgRes.c ****     }
1149:../../MMI/Resource/WriteImgRes.c **** 
1150:../../MMI/Resource/WriteImgRes.c ****     return MMI_TRUE;
 5096              	LM319:
 5097 2520 C785C4EB 		movl	$1, -5180(%ebp)
 5097      FFFF0100 
 5097      0000
1151:../../MMI/Resource/WriteImgRes.c **** }
 5099              	LM320:
 5100              	L171:
 5101              	LBE25:
 5102 252a 8B85C4EB 		movl	-5180(%ebp), %eax
 5102      FFFF
GAS LISTING d:/MTK/MTK2503/MTK2503/11CW1418SP4_03_CORETEK03AE_11C_V1_GPRS_MMI/plutommi/Customer/ResGenerator/gcctmp/ccaodaaa.s 			page 78


 5103 2530 C9       		leave
 5104 2531 C3       		ret
 5126              	Lscope6:
 5128 2532 8DB42600 		.align 32
 5128      0000008D 
 5128      BC270000 
 5128      0000
 5129              	LC74:
 5130 2540 2A2A2A57 		.ascii "***Warning***\11PNG file is not populated successfully.\12\11%s\12\0"
 5130      61726E69 
 5130      6E672A2A 
 5130      2A09504E 
 5130      47206669 
 5131 257b 908D7426 		.align 32
 5131      00
 5132              	LC75:
 5133 2580 2A2A2A57 		.ascii "***Warning***\11PNG file is not populated successfully.\12\11%s\0"
 5133      61726E69 
 5133      6E672A2A 
 5133      2A09504E 
 5133      47206669 
 5134              	LC76:
 5135 25ba 0A476574 		.ascii "\12Get dimensions failed:\11%s\0"
 5135      2064696D 
 5135      656E7369 
 5135      6F6E7320 
 5135      6661696C 
 5136              	LC77:
 5137 25d5 5F5F616C 		.ascii "__align(4) \0"
 5137      69676E28 
 5137      34292000 
 5138              	LC78:
 5139 25e1 5B5D203D 		.ascii "[] =\12{\0"
 5139      0A7B00
 5140              	LC79:
 5141 25e8 636F6E73 		.ascii "const U8 %s%s\0"
 5141      74205538 
 5141      20257325 
 5141      7300
 5142              	LC80:
 5143 25f6 57726974 		.ascii "Write NFB_PROGRESS_IMAGE\0"
 5143      65204E46 
 5143      425F5052 
 5143      4F475245 
 5143      53535F49 
 5144 260f 90909090 		.align 32
 5144      90909090 
 5144      90909090 
 5144      90909090 
 5144      90
 5145              	LC81:
 5146 2620 57726974 		.ascii "Write output name to nfb_img_res_file: %s\0"
 5146      65206F75 
 5146      74707574 
 5146      206E616D 
 5146      6520746F 
 5147 264a 90909090 		.align 32
GAS LISTING d:/MTK/MTK2503/MTK2503/11CW1418SP4_03_CORETEK03AE_11C_V1_GPRS_MMI/plutommi/Customer/ResGenerator/gcctmp/ccaodaaa.s 			page 79


 5147      90909090 
 5147      90909090 
 5147      90909090 
 5147      90909090 
 5148              	LC82:
 5149 2660 4F757470 		.ascii "Output name can't be NULL in Write_Unprocessed_Data\0"
 5149      7574206E 
 5149      616D6520 
 5149      63616E27 
 5149      74206265 
 5150 2694 8DB60000 		.align 32
 5150      00008DBF 
 5150      00000000 
 5151              	LC83:
 5152 26a0 6E66625F 		.ascii "nfb_img_res_file is not opened\0"
 5152      696D675F 
 5152      7265735F 
 5152      66696C65 
 5152      20697320 
 5153              	LC84:
 5154 26bf 0A207D3B 		.ascii "\12 };\12\0"
 5154      0A00
 5167              	_Write_Unprocessed_Data:
1152:../../MMI/Resource/WriteImgRes.c **** 
1153:../../MMI/Resource/WriteImgRes.c **** /*****************************************************************************
1154:../../MMI/Resource/WriteImgRes.c ****  * FUNCTION
1155:../../MMI/Resource/WriteImgRes.c ****  *  Write_Unprocessed_Data
1156:../../MMI/Resource/WriteImgRes.c ****  * DESCRIPTION
1157:../../MMI/Resource/WriteImgRes.c ****  *  write unprocessed data
1158:../../MMI/Resource/WriteImgRes.c ****  * PARAMETERS
1159:../../MMI/Resource/WriteImgRes.c ****  *  pathname        [IN]        path name for sequential image
1160:../../MMI/Resource/WriteImgRes.c ****  *  output_name     [IN]        output variable name
1161:../../MMI/Resource/WriteImgRes.c ****  *  output_file     [OUT]       output file handle
1162:../../MMI/Resource/WriteImgRes.c ****  * RETURNS
1163:../../MMI/Resource/WriteImgRes.c ****  *  MMI_BOOL
1164:../../MMI/Resource/WriteImgRes.c ****  *****************************************************************************/
1165:../../MMI/Resource/WriteImgRes.c **** static MMI_BOOL Write_Unprocessed_Data(
1166:../../MMI/Resource/WriteImgRes.c ****         char *filename,
1167:../../MMI/Resource/WriteImgRes.c ****         FILE *image_file,
1168:../../MMI/Resource/WriteImgRes.c ****         S32 nImageSize,
1169:../../MMI/Resource/WriteImgRes.c ****         char *output_name,
1170:../../MMI/Resource/WriteImgRes.c ****         ResgenImageOutStream * outstream,
1171:../../MMI/Resource/WriteImgRes.c ****         image_type_enum extImageFlag,
1172:../../MMI/Resource/WriteImgRes.c ****         MMI_BOOL is9slice,
1173:../../MMI/Resource/WriteImgRes.c ****         U8* _9slice_filename,
1174:../../MMI/Resource/WriteImgRes.c ****         FILE *nfb_img_res_file,
1175:../../MMI/Resource/WriteImgRes.c ****         SetImageProcessData * processData)
1176:../../MMI/Resource/WriteImgRes.c **** {
 5169              	LM321:
 5170 26c5 55       		pushl	%ebp
 5171 26c6 89E5     		movl	%esp, %ebp
 5172 26c8 53       		pushl	%ebx
 5173 26c9 81EC9400 		subl	$148, %esp
 5173      0000
1177:../../MMI/Resource/WriteImgRes.c ****     U8 image_identifier;
1178:../../MMI/Resource/WriteImgRes.c ****     MMI_BOOL failure_flag = MMI_TRUE;
 5175              	LM322:
GAS LISTING d:/MTK/MTK2503/MTK2503/11CW1418SP4_03_CORETEK03AE_11C_V1_GPRS_MMI/plutommi/Customer/ResGenerator/gcctmp/ccaodaaa.s 			page 80


 5176              	LBB32:
 5177 26cf C745F001 		movl	$1, -16(%ebp)
 5177      000000
1179:../../MMI/Resource/WriteImgRes.c ****     S32 n_frames = 0;
 5179              	LM323:
 5180 26d6 C745EC00 		movl	$0, -20(%ebp)
 5180      000000
1180:../../MMI/Resource/WriteImgRes.c ****     U32 width = 0, height = 0;
 5182              	LM324:
 5183 26dd C745E800 		movl	$0, -24(%ebp)
 5183      000000
 5184 26e4 C745E400 		movl	$0, -28(%ebp)
 5184      000000
1181:../../MMI/Resource/WriteImgRes.c **** #ifdef __MMI_RESOURCE_ENFB_SUPPORT__
1182:../../MMI/Resource/WriteImgRes.c ****     U32 enfb_width, enfb_height;
1183:../../MMI/Resource/WriteImgRes.c ****     S32 enfb_ret;
1184:../../MMI/Resource/WriteImgRes.c **** #endif
1185:../../MMI/Resource/WriteImgRes.c **** #if defined(__MMI_RESOURCE_IMAGE_COMPRESS__)
1186:../../MMI/Resource/WriteImgRes.c ****     U8 *dest_buf = NULL;
1187:../../MMI/Resource/WriteImgRes.c ****     U32 dest_size = 0;
1188:../../MMI/Resource/WriteImgRes.c ****     U32 file_size = 0;
1189:../../MMI/Resource/WriteImgRes.c **** #endif
1190:../../MMI/Resource/WriteImgRes.c ****     /* Currently assuming that all single files are BMP */
1191:../../MMI/Resource/WriteImgRes.c ****     if (nImageSize == 0)
 5186              	LM325:
 5187 26eb 837D1000 		cmpl	$0, 16(%ebp)
 5188 26ef 7506     		jne	L222
1192:../../MMI/Resource/WriteImgRes.c ****     {
1193:../../MMI/Resource/WriteImgRes.c ****         image_identifier = IMAGE_TYPE_INVALID;
 5190              	LM326:
 5191 26f1 C645F700 		movb	$0, -9(%ebp)
 5192 26f5 EB16     		jmp	L223
 5193              	L222:
1194:../../MMI/Resource/WriteImgRes.c ****     }
1195:../../MMI/Resource/WriteImgRes.c ****     else
1196:../../MMI/Resource/WriteImgRes.c ****     {
1197:../../MMI/Resource/WriteImgRes.c ****         /* for read images with same filename but different in ".bmp" and ".gif" */
1198:../../MMI/Resource/WriteImgRes.c ****         image_identifier = ExtractExtension(filename, RES_IMAGE);
 5195              	LM327:
 5196 26f7 C7442404 		movl	$0, 4(%esp)
 5196      00000000 
 5197 26ff 8B4508   		movl	8(%ebp), %eax
 5198 2702 890424   		movl	%eax, (%esp)
 5199 2705 E8000000 		call	_ExtractExtension
 5199      00
 5200 270a 8845F7   		movb	%al, -9(%ebp)
 5201              	L223:
1199:../../MMI/Resource/WriteImgRes.c ****     }
1200:../../MMI/Resource/WriteImgRes.c **** 
1201:../../MMI/Resource/WriteImgRes.c **** #if defined(__MMI_ALPHA_BLENDING__) && !defined(GDI_USING_HW_PNG)
1202:../../MMI/Resource/WriteImgRes.c ****     /* IMAGE_TYPE_PNG is only for future usage.
1203:../../MMI/Resource/WriteImgRes.c ****      * Currently, output PNG format for image resource is not allowed */
1204:../../MMI/Resource/WriteImgRes.c ****     if (image_identifier == IMAGE_TYPE_PNG)
 5203              	LM328:
 5204 270d 807DF713 		cmpb	$19, -9(%ebp)
 5205 2711 754E     		jne	L224
1205:../../MMI/Resource/WriteImgRes.c ****     {
GAS LISTING d:/MTK/MTK2503/MTK2503/11CW1418SP4_03_CORETEK03AE_11C_V1_GPRS_MMI/plutommi/Customer/ResGenerator/gcctmp/ccaodaaa.s 			page 81


1206:../../MMI/Resource/WriteImgRes.c ****         fprintf(stderr, "***Warning***\tPNG file is not populated successfully.\n\t%s\n", filename)
 5207              	LM329:
 5208 2713 8B4508   		movl	8(%ebp), %eax
 5209 2716 89442408 		movl	%eax, 8(%esp)
 5210 271a C7442404 		movl	$LC74, 4(%esp)
 5210      40250000 
 5211 2722 A1000000 		movl	__imp___iob, %eax
 5211      00
 5212 2727 83C040   		addl	$64, %eax
 5213 272a 890424   		movl	%eax, (%esp)
 5214 272d E8000000 		call	_fprintf
 5214      00
1207:../../MMI/Resource/WriteImgRes.c ****         RESIMG_LOG_E("***Warning***\tPNG file is not populated successfully.\n\t%s", filename);
 5216              	LM330:
 5217 2732 8B4508   		movl	8(%ebp), %eax
 5218 2735 8944240C 		movl	%eax, 12(%esp)
 5219 2739 C7442408 		movl	$LC75, 8(%esp)
 5219      80250000 
 5220 2741 C7442404 		movl	$LC34, 4(%esp)
 5220      64060000 
 5221 2749 C7042403 		movl	$3, (%esp)
 5221      000000
 5222 2750 E8000000 		call	_reslog_adaptor_log
 5222      00
1208:../../MMI/Resource/WriteImgRes.c ****         return MMI_FALSE;
 5224              	LM331:
 5225 2755 C7459C00 		movl	$0, -100(%ebp)
 5225      000000
 5226 275c E9070300 		jmp	L221
 5226      00
 5227              	L224:
1209:../../MMI/Resource/WriteImgRes.c ****     }
1210:../../MMI/Resource/WriteImgRes.c **** #endif /* defined(__MMI_ALPHA_BLENDING__) && !defined(GDI_USING_HW_PNG) */
1211:../../MMI/Resource/WriteImgRes.c **** 
1212:../../MMI/Resource/WriteImgRes.c **** #ifdef GDI_USING_IMAGE_SINGLE_BANK_CACHE
1213:../../MMI/Resource/WriteImgRes.c ****     if (image_identifier == IMAGE_TYPE_GIF ||
1214:../../MMI/Resource/WriteImgRes.c ****         image_identifier == IMAGE_TYPE_JPG)
1215:../../MMI/Resource/WriteImgRes.c ****     {
1216:../../MMI/Resource/WriteImgRes.c ****         FILE *fp;
1217:../../MMI/Resource/WriteImgRes.c **** 
1218:../../MMI/Resource/WriteImgRes.c ****         fp = fopen(filename, "rb");
1219:../../MMI/Resource/WriteImgRes.c ****         if (fp != NULL)
1220:../../MMI/Resource/WriteImgRes.c ****         {
1221:../../MMI/Resource/WriteImgRes.c ****             S32 fs;
1222:../../MMI/Resource/WriteImgRes.c **** 
1223:../../MMI/Resource/WriteImgRes.c ****             fseek(fp, 0, SEEK_END);
1224:../../MMI/Resource/WriteImgRes.c ****             fs = ftell(fp);
1225:../../MMI/Resource/WriteImgRes.c ****             MYFCLOSE(fp);
1226:../../MMI/Resource/WriteImgRes.c **** 
1227:../../MMI/Resource/WriteImgRes.c ****             if ((fs + 8/* header */) > GDI_IMAGE_SINGLE_BANK_CACHE_SIZE)
1228:../../MMI/Resource/WriteImgRes.c ****             {
1229:../../MMI/Resource/WriteImgRes.c ****                 fprintf(stderr, "[Single Bank]:\timage oversize,\t%s\n", filename);
1230:../../MMI/Resource/WriteImgRes.c ****                 RESIMG_LOG_E("[Single Bank]:\timage oversize,\t%s\n", filename);
1231:../../MMI/Resource/WriteImgRes.c ****                 failure_flag = MMI_FALSE;
1232:../../MMI/Resource/WriteImgRes.c ****                 assert(0);
1233:../../MMI/Resource/WriteImgRes.c ****                 exit(2);
1234:../../MMI/Resource/WriteImgRes.c ****             }
GAS LISTING d:/MTK/MTK2503/MTK2503/11CW1418SP4_03_CORETEK03AE_11C_V1_GPRS_MMI/plutommi/Customer/ResGenerator/gcctmp/ccaodaaa.s 			page 82


1235:../../MMI/Resource/WriteImgRes.c ****         }
1236:../../MMI/Resource/WriteImgRes.c ****         else
1237:../../MMI/Resource/WriteImgRes.c ****         {
1238:../../MMI/Resource/WriteImgRes.c ****             failure_flag = MMI_FALSE;
1239:../../MMI/Resource/WriteImgRes.c ****         }
1240:../../MMI/Resource/WriteImgRes.c ****     }
1241:../../MMI/Resource/WriteImgRes.c **** #endif
1242:../../MMI/Resource/WriteImgRes.c **** 
1243:../../MMI/Resource/WriteImgRes.c ****     if (failure_flag == MMI_TRUE)
 5229              	LM332:
 5230 2761 837DF001 		cmpl	$1, -16(%ebp)
 5231 2765 0F853E01 		jne	L225
 5231      0000
1244:../../MMI/Resource/WriteImgRes.c ****     {
1245:../../MMI/Resource/WriteImgRes.c ****         /* get frame count, width and height of the image */
1246:../../MMI/Resource/WriteImgRes.c ****         if (image_identifier == IMAGE_TYPE_BMP ||
 5233              	LM333:
 5234 276b 807DF701 		cmpb	$1, -9(%ebp)
 5235 276f 7414     		je	L227
 5236 2771 807DF703 		cmpb	$3, -9(%ebp)
 5237 2775 740E     		je	L227
 5238 2777 807DF709 		cmpb	$9, -9(%ebp)
 5239 277b 7408     		je	L227
 5240 277d 807DF713 		cmpb	$19, -9(%ebp)
 5241 2781 7402     		je	L227
 5242 2783 EB45     		jmp	L226
 5243              	L227:
1247:../../MMI/Resource/WriteImgRes.c ****             image_identifier == IMAGE_TYPE_GIF ||
1248:../../MMI/Resource/WriteImgRes.c ****             image_identifier == IMAGE_TYPE_JPG ||
1249:../../MMI/Resource/WriteImgRes.c ****             image_identifier == IMAGE_TYPE_PNG)
1250:../../MMI/Resource/WriteImgRes.c ****         {
1251:../../MMI/Resource/WriteImgRes.c ****             n_frames = Image_Get_Dimensions(filename, &width, &height);
 5245              	LM334:
 5246 2785 8D45E4   		leal	-28(%ebp), %eax
 5247 2788 89442408 		movl	%eax, 8(%esp)
 5248 278c 8D45E8   		leal	-24(%ebp), %eax
 5249 278f 89442404 		movl	%eax, 4(%esp)
 5250 2793 8B4508   		movl	8(%ebp), %eax
 5251 2796 890424   		movl	%eax, (%esp)
 5252 2799 E8000000 		call	_Image_Get_Dimensions
 5252      00
 5253 279e 8945EC   		movl	%eax, -20(%ebp)
1252:../../MMI/Resource/WriteImgRes.c ****             if (n_frames <= 0)
 5255              	LM335:
 5256 27a1 837DEC00 		cmpl	$0, -20(%ebp)
 5257 27a5 0F8FFE00 		jg	L225
 5257      0000
1253:../../MMI/Resource/WriteImgRes.c ****             {
1254:../../MMI/Resource/WriteImgRes.c ****                 RES_PRINT_INFO("\nGet dimensions failed:\t%s", filename);
 5259              	LM336:
 5260 27ab 8B4508   		movl	8(%ebp), %eax
 5261 27ae 89442404 		movl	%eax, 4(%esp)
 5262 27b2 C70424BA 		movl	$LC76, (%esp)
 5262      250000
 5263 27b9 E8000000 		call	_MtkResgenTrace
 5263      00
1255:../../MMI/Resource/WriteImgRes.c ****                 failure_flag = MMI_FALSE;
GAS LISTING d:/MTK/MTK2503/MTK2503/11CW1418SP4_03_CORETEK03AE_11C_V1_GPRS_MMI/plutommi/Customer/ResGenerator/gcctmp/ccaodaaa.s 			page 83


 5265              	LM337:
 5266 27be C745F000 		movl	$0, -16(%ebp)
 5266      000000
 5267 27c5 E9DF0000 		jmp	L225
 5267      00
 5268              	L226:
1256:../../MMI/Resource/WriteImgRes.c ****             }
1257:../../MMI/Resource/WriteImgRes.c ****         }
1258:../../MMI/Resource/WriteImgRes.c ****         else if (image_identifier == IMAGE_TYPE_KTX)
 5270              	LM338:
 5271 27ca 807DF743 		cmpb	$67, -9(%ebp)
 5272 27ce 0F85D500 		jne	L225
 5272      0000
1259:../../MMI/Resource/WriteImgRes.c ****         {
1260:../../MMI/Resource/WriteImgRes.c ****             FILE * fp = NULL;
 5274              	LM339:
 5275              	LBB33:
 5276 27d4 C745E000 		movl	$0, -32(%ebp)
 5276      000000
1261:../../MMI/Resource/WriteImgRes.c ****             U8 tempBuffer[44];
1262:../../MMI/Resource/WriteImgRes.c ****             fp = fopen(filename, "rb");
 5278              	LM340:
 5279 27db C7442404 		movl	$LC59, 4(%esp)
 5279      130D0000 
 5280 27e3 8B4508   		movl	8(%ebp), %eax
 5281 27e6 890424   		movl	%eax, (%esp)
 5282 27e9 E8000000 		call	_fopen
 5282      00
 5283 27ee 8945E0   		movl	%eax, -32(%ebp)
1263:../../MMI/Resource/WriteImgRes.c ****             if (fp != NULL)
 5285              	LM341:
 5286 27f1 837DE000 		cmpl	$0, -32(%ebp)
 5287 27f5 0F84AE00 		je	L225
 5287      0000
1264:../../MMI/Resource/WriteImgRes.c ****             {
1265:../../MMI/Resource/WriteImgRes.c ****                 U8 read_count = fread(tempBuffer, 1, 44, fp);
 5289              	LM342:
 5290              	LBB34:
 5291 27fb 8B45E0   		movl	-32(%ebp), %eax
 5292 27fe 8944240C 		movl	%eax, 12(%esp)
 5293 2802 C7442408 		movl	$44, 8(%esp)
 5293      2C000000 
 5294 280a C7442404 		movl	$1, 4(%esp)
 5294      01000000 
 5295 2812 8D45A8   		leal	-88(%ebp), %eax
 5296 2815 890424   		movl	%eax, (%esp)
 5297 2818 E8000000 		call	_fread
 5297      00
 5298 281d 8845A7   		movb	%al, -89(%ebp)
1266:../../MMI/Resource/WriteImgRes.c ****                 if (read_count == 44)
 5300              	LM343:
 5301 2820 807DA72C 		cmpb	$44, -89(%ebp)
 5302 2824 7578     		jne	L232
1267:../../MMI/Resource/WriteImgRes.c ****                 {
1268:../../MMI/Resource/WriteImgRes.c ****                     U8 *data_ptr = tempBuffer;
 5304              	LM344:
 5305              	LBB35:
GAS LISTING d:/MTK/MTK2503/MTK2503/11CW1418SP4_03_CORETEK03AE_11C_V1_GPRS_MMI/plutommi/Customer/ResGenerator/gcctmp/ccaodaaa.s 			page 84


 5306 2826 8D45A8   		leal	-88(%ebp), %eax
 5307 2829 8945A0   		movl	%eax, -96(%ebp)
1269:../../MMI/Resource/WriteImgRes.c ****                     data_ptr += 36;
 5309              	LM345:
 5310 282c 8D45A0   		leal	-96(%ebp), %eax
 5311 282f 830024   		addl	$36, (%eax)
1270:../../MMI/Resource/WriteImgRes.c ****                     width = (data_ptr[3] << 24) | (data_ptr[2] << 16) | (data_ptr[1] << 8) | (data_
 5313              	LM346:
 5314 2832 8B45A0   		movl	-96(%ebp), %eax
 5315 2835 83C003   		addl	$3, %eax
 5316 2838 0FB600   		movzbl	(%eax), %eax
 5317 283b 89C2     		movl	%eax, %edx
 5318 283d C1E218   		sall	$24, %edx
 5319 2840 8B45A0   		movl	-96(%ebp), %eax
 5320 2843 83C002   		addl	$2, %eax
 5321 2846 0FB600   		movzbl	(%eax), %eax
 5322 2849 C1E010   		sall	$16, %eax
 5323 284c 09C2     		orl	%eax, %edx
 5324 284e 8B45A0   		movl	-96(%ebp), %eax
 5325 2851 40       		incl	%eax
 5326 2852 0FB600   		movzbl	(%eax), %eax
 5327 2855 C1E008   		sall	$8, %eax
 5328 2858 09C2     		orl	%eax, %edx
 5329 285a 8B45A0   		movl	-96(%ebp), %eax
 5330 285d 0FB600   		movzbl	(%eax), %eax
 5331 2860 09D0     		orl	%edx, %eax
 5332 2862 8945E8   		movl	%eax, -24(%ebp)
1271:../../MMI/Resource/WriteImgRes.c ****                     data_ptr += 4;
 5334              	LM347:
 5335 2865 8D45A0   		leal	-96(%ebp), %eax
 5336 2868 830004   		addl	$4, (%eax)
1272:../../MMI/Resource/WriteImgRes.c ****                     height = (data_ptr[3] << 24) | (data_ptr[2] << 16) | (data_ptr[1] << 8) | (data
 5338              	LM348:
 5339 286b 8B45A0   		movl	-96(%ebp), %eax
 5340 286e 83C003   		addl	$3, %eax
 5341 2871 0FB600   		movzbl	(%eax), %eax
 5342 2874 89C2     		movl	%eax, %edx
 5343 2876 C1E218   		sall	$24, %edx
 5344 2879 8B45A0   		movl	-96(%ebp), %eax
 5345 287c 83C002   		addl	$2, %eax
 5346 287f 0FB600   		movzbl	(%eax), %eax
 5347 2882 C1E010   		sall	$16, %eax
 5348 2885 09C2     		orl	%eax, %edx
 5349 2887 8B45A0   		movl	-96(%ebp), %eax
 5350 288a 40       		incl	%eax
 5351 288b 0FB600   		movzbl	(%eax), %eax
 5352 288e C1E008   		sall	$8, %eax
 5353 2891 09C2     		orl	%eax, %edx
 5354 2893 8B45A0   		movl	-96(%ebp), %eax
 5355 2896 0FB600   		movzbl	(%eax), %eax
 5356 2899 09D0     		orl	%edx, %eax
 5357 289b 8945E4   		movl	%eax, -28(%ebp)
 5358              	L232:
1273:../../MMI/Resource/WriteImgRes.c ****                 }
1274:../../MMI/Resource/WriteImgRes.c ****                 fclose(fp);
 5360              	LM349:
 5361              	LBE35:
GAS LISTING d:/MTK/MTK2503/MTK2503/11CW1418SP4_03_CORETEK03AE_11C_V1_GPRS_MMI/plutommi/Customer/ResGenerator/gcctmp/ccaodaaa.s 			page 85


 5362 289e 8B45E0   		movl	-32(%ebp), %eax
 5363 28a1 890424   		movl	%eax, (%esp)
 5364 28a4 E8000000 		call	_fclose
 5364      00
 5365              	L225:
1275:../../MMI/Resource/WriteImgRes.c ****             }
1276:../../MMI/Resource/WriteImgRes.c ****         }
1277:../../MMI/Resource/WriteImgRes.c ****     }
1278:../../MMI/Resource/WriteImgRes.c **** 
1279:../../MMI/Resource/WriteImgRes.c ****     strcpy(processData->real_filename, filename);
 5367              	LM350:
 5368              	LBE34:
 5369              	LBE33:
 5370 28a9 8B4508   		movl	8(%ebp), %eax
 5371 28ac 89442404 		movl	%eax, 4(%esp)
 5372 28b0 8B452C   		movl	44(%ebp), %eax
 5373 28b3 890424   		movl	%eax, (%esp)
 5374 28b6 E8000000 		call	_strcpy
 5374      00
1280:../../MMI/Resource/WriteImgRes.c **** 
1281:../../MMI/Resource/WriteImgRes.c ****     if (failure_flag == MMI_TRUE)
 5376              	LM351:
 5377 28bb 837DF001 		cmpl	$1, -16(%ebp)
 5378 28bf 0F859D01 		jne	L233
 5378      0000
1282:../../MMI/Resource/WriteImgRes.c ****     {
1283:../../MMI/Resource/WriteImgRes.c **** #if defined(__MMI_RESOURCE_IMAGE_COMPRESS__)
1284:../../MMI/Resource/WriteImgRes.c ****         if (image_identifier == IMAGE_TYPE_BMP ||
1285:../../MMI/Resource/WriteImgRes.c ****             image_identifier == IMAGE_TYPE_GIF ||
1286:../../MMI/Resource/WriteImgRes.c ****             image_identifier == IMAGE_TYPE_JPG ||
1287:../../MMI/Resource/WriteImgRes.c ****             image_identifier == IMAGE_TYPE_PNG)
1288:../../MMI/Resource/WriteImgRes.c ****         {
1289:../../MMI/Resource/WriteImgRes.c ****             U8 *buffer = NULL;
1290:../../MMI/Resource/WriteImgRes.c **** 
1291:../../MMI/Resource/WriteImgRes.c ****             fseek(image_file, 0, SEEK_END);
1292:../../MMI/Resource/WriteImgRes.c ****             file_size = ftell(image_file);
1293:../../MMI/Resource/WriteImgRes.c ****             fseek(image_file, 0, SEEK_SET);
1294:../../MMI/Resource/WriteImgRes.c **** 
1295:../../MMI/Resource/WriteImgRes.c ****             mmi_rg_set_compress(TRUE);
1296:../../MMI/Resource/WriteImgRes.c ****             buffer = malloc(file_size);
1297:../../MMI/Resource/WriteImgRes.c ****             fread(buffer, 1, file_size, image_file);
1298:../../MMI/Resource/WriteImgRes.c ****             dest_buf = mmi_rg_compress_image(buffer, file_size, &dest_size, image_identifier, (((wi
1299:../../MMI/Resource/WriteImgRes.c ****             mmi_rg_set_compress(FALSE);
1300:../../MMI/Resource/WriteImgRes.c ****         }
1301:../../MMI/Resource/WriteImgRes.c **** 
1302:../../MMI/Resource/WriteImgRes.c ****         if (g_is_compressed)
1303:../../MMI/Resource/WriteImgRes.c ****         {
1304:../../MMI/Resource/WriteImgRes.c ****             ImageOutStreamPrintf(outstream, "__align(4) U8 %s[%d];\n", output_name, g_res_compress_
1305:../../MMI/Resource/WriteImgRes.c ****             ImageOutStreamPrintf(outstream, "__align(4) const U8 %s_zip[] =\n{", output_name);
1306:../../MMI/Resource/WriteImgRes.c **** 
1307:../../MMI/Resource/WriteImgRes.c ****             strcpy(g_res_compress_data_image[g_res_compress_count_image-1].ro_name, output_name);
1308:../../MMI/Resource/WriteImgRes.c ****             strcpy(g_res_compress_data_image[g_res_compress_count_image-1].zi_name, output_name);
1309:../../MMI/Resource/WriteImgRes.c ****             strcat(g_res_compress_data_image[g_res_compress_count_image-1].ro_name, "_zip");
1310:../../MMI/Resource/WriteImgRes.c **** 
1311:../../MMI/Resource/WriteImgRes.c ****             mmi_rg_output_compressed_image(dest_buf, dest_size, outstream);
1312:../../MMI/Resource/WriteImgRes.c **** 
1313:../../MMI/Resource/WriteImgRes.c ****             ImageOutStreamPrintf(outstream, "\n };\n");
GAS LISTING d:/MTK/MTK2503/MTK2503/11CW1418SP4_03_CORETEK03AE_11C_V1_GPRS_MMI/plutommi/Customer/ResGenerator/gcctmp/ccaodaaa.s 			page 86


1314:../../MMI/Resource/WriteImgRes.c ****         }
1315:../../MMI/Resource/WriteImgRes.c ****         else
1316:../../MMI/Resource/WriteImgRes.c **** #endif
1317:../../MMI/Resource/WriteImgRes.c ****         {
1318:../../MMI/Resource/WriteImgRes.c ****             /* load the data */
1319:../../MMI/Resource/WriteImgRes.c ****             /* construct the data structure name */
1320:../../MMI/Resource/WriteImgRes.c ****             if (image_identifier == IMAGE_TYPE_GIF || image_identifier == IMAGE_TYPE_3GP ||
 5380              	LM352:
 5381 28c5 807DF703 		cmpb	$3, -9(%ebp)
 5382 28c9 7444     		je	L235
 5383 28cb 807DF70E 		cmpb	$14, -9(%ebp)
 5384 28cf 743E     		je	L235
 5385 28d1 807DF710 		cmpb	$16, -9(%ebp)
 5386 28d5 7438     		je	L235
 5387 28d7 807DF70C 		cmpb	$12, -9(%ebp)
 5388 28db 7432     		je	L235
 5389 28dd 807DF713 		cmpb	$19, -9(%ebp)
 5390 28e1 742C     		je	L235
 5391 28e3 807DF74A 		cmpb	$74, -9(%ebp)
 5392 28e7 7426     		je	L235
 5393 28e9 807DF74C 		cmpb	$76, -9(%ebp)
 5394 28ed 7420     		je	L235
 5395 28ef 807DF74E 		cmpb	$78, -9(%ebp)
 5396 28f3 741A     		je	L235
 5397 28f5 807DF719 		cmpb	$25, -9(%ebp)
 5398 28f9 7414     		je	L235
 5399 28fb 807DF71D 		cmpb	$29, -9(%ebp)
 5400 28ff 740E     		je	L235
 5401 2901 807DF743 		cmpb	$67, -9(%ebp)
 5402 2905 7408     		je	L235
 5403 2907 807DF709 		cmpb	$9, -9(%ebp)
 5404 290b 7402     		je	L235
 5405 290d EB13     		jmp	L234
 5406              	L235:
1321:../../MMI/Resource/WriteImgRes.c ****                 image_identifier == IMAGE_TYPE_MP4 || image_identifier == IMAGE_TYPE_AVI ||
1322:../../MMI/Resource/WriteImgRes.c ****                 image_identifier == IMAGE_TYPE_PNG || image_identifier == IMAGE_TYPE_RV  ||
1323:../../MMI/Resource/WriteImgRes.c ****                 image_identifier == IMAGE_TYPE_RM  || image_identifier == IMAGE_TYPE_RMVB ||
1324:../../MMI/Resource/WriteImgRes.c ****                 image_identifier == IMAGE_TYPE_M3D || image_identifier == IMAGE_TYPE_SWFLASH ||
1325:../../MMI/Resource/WriteImgRes.c ****                 image_identifier == IMAGE_TYPE_KTX || image_identifier == IMAGE_TYPE_JPG)
1326:../../MMI/Resource/WriteImgRes.c ****             {
1327:../../MMI/Resource/WriteImgRes.c ****                 ImageOutStreamPrintf(outstream, "__align(4) ");
 5408              	LM353:
 5409 290f C7442404 		movl	$LC77, 4(%esp)
 5409      D5250000 
 5410 2917 8B4518   		movl	24(%ebp), %eax
 5411 291a 890424   		movl	%eax, (%esp)
 5412 291d E8000000 		call	_ImageOutStreamPrintf
 5412      00
 5413              	L234:
1328:../../MMI/Resource/WriteImgRes.c ****             }
1329:../../MMI/Resource/WriteImgRes.c **** 
1330:../../MMI/Resource/WriteImgRes.c ****             ImageOutStreamPrintf(outstream, "const U8 %s%s", output_name, OUTPUT_IMAGE_NAMES_END);
 5415              	LM354:
 5416 2922 C744240C 		movl	$LC78, 12(%esp)
 5416      E1250000 
 5417 292a 8B4514   		movl	20(%ebp), %eax
 5418 292d 89442408 		movl	%eax, 8(%esp)
GAS LISTING d:/MTK/MTK2503/MTK2503/11CW1418SP4_03_CORETEK03AE_11C_V1_GPRS_MMI/plutommi/Customer/ResGenerator/gcctmp/ccaodaaa.s 			page 87


 5419 2931 C7442404 		movl	$LC79, 4(%esp)
 5419      E8250000 
 5420 2939 8B4518   		movl	24(%ebp), %eax
 5421 293c 890424   		movl	%eax, (%esp)
 5422 293f E8000000 		call	_ImageOutStreamPrintf
 5422      00
1331:../../MMI/Resource/WriteImgRes.c **** 
1332:../../MMI/Resource/WriteImgRes.c **** 
1333:../../MMI/Resource/WriteImgRes.c **** #ifdef __MMI_RESOURCE_ENFB_SUPPORT__
1334:../../MMI/Resource/WriteImgRes.c ****             enfb_ret = Image_Test(filename, &enfb_width, &enfb_height, processData->disable_enfb);
1335:../../MMI/Resource/WriteImgRes.c ****             if (enfb_ret != ENFB_IMAGE_NONE)
1336:../../MMI/Resource/WriteImgRes.c ****             {
1337:../../MMI/Resource/WriteImgRes.c ****                 processData->enfb_flag = 1;
1338:../../MMI/Resource/WriteImgRes.c ****                 if (enfb_ret == ENFB_IMAGE_ASSOCIATE)
1339:../../MMI/Resource/WriteImgRes.c ****                 {
1340:../../MMI/Resource/WriteImgRes.c ****                     ENFBAssociatedIDAdded = MMI_TRUE;
1341:../../MMI/Resource/WriteImgRes.c ****                 }
1342:../../MMI/Resource/WriteImgRes.c ****             }
1343:../../MMI/Resource/WriteImgRes.c **** #endif /* __MMI_RESOURCE_ENFB_SUPPORT__ */
1344:../../MMI/Resource/WriteImgRes.c **** 
1345:../../MMI/Resource/WriteImgRes.c ****             processData->res_size = Load_Image_Data(outstream, image_file, image_identifier, n_fram
 5424              	LM355:
 5425 2944 8B5D2C   		movl	44(%ebp), %ebx
 5426 2947 8B452C   		movl	44(%ebp), %eax
 5427 294a 89442420 		movl	%eax, 32(%esp)
 5428 294e 8B4524   		movl	36(%ebp), %eax
 5429 2951 8944241C 		movl	%eax, 28(%esp)
 5430 2955 8B4520   		movl	32(%ebp), %eax
 5431 2958 89442418 		movl	%eax, 24(%esp)
 5432 295c 8B45E4   		movl	-28(%ebp), %eax
 5433 295f 89442414 		movl	%eax, 20(%esp)
 5434 2963 8B45E8   		movl	-24(%ebp), %eax
 5435 2966 89442410 		movl	%eax, 16(%esp)
 5436 296a 8B45EC   		movl	-20(%ebp), %eax
 5437 296d 8944240C 		movl	%eax, 12(%esp)
 5438 2971 0FB645F7 		movzbl	-9(%ebp), %eax
 5439 2975 89442408 		movl	%eax, 8(%esp)
 5440 2979 8B450C   		movl	12(%ebp), %eax
 5441 297c 89442404 		movl	%eax, 4(%esp)
 5442 2980 8B4518   		movl	24(%ebp), %eax
 5443 2983 890424   		movl	%eax, (%esp)
 5444 2986 E88B1A00 		call	_Load_Image_Data
 5444      00
 5445 298b 89830002 		movl	%eax, 512(%ebx)
 5445      0000
1346:../../MMI/Resource/WriteImgRes.c ****             if (processData->res_size == 0)
 5447              	LM356:
 5448 2991 8B452C   		movl	44(%ebp), %eax
 5449 2994 83B80002 		cmpl	$0, 512(%eax)
 5449      000000
 5450 299b 7507     		jne	L236
1347:../../MMI/Resource/WriteImgRes.c ****             {
1348:../../MMI/Resource/WriteImgRes.c ****                 failure_flag = MMI_FALSE;
 5452              	LM357:
 5453 299d C745F000 		movl	$0, -16(%ebp)
 5453      000000
 5454              	L236:
GAS LISTING d:/MTK/MTK2503/MTK2503/11CW1418SP4_03_CORETEK03AE_11C_V1_GPRS_MMI/plutommi/Customer/ResGenerator/gcctmp/ccaodaaa.s 			page 88


1349:../../MMI/Resource/WriteImgRes.c ****             }
1350:../../MMI/Resource/WriteImgRes.c **** 
1351:../../MMI/Resource/WriteImgRes.c **** #ifdef __MMI_RESOURCE_ENFB_SUPPORT__
1352:../../MMI/Resource/WriteImgRes.c ****             processData->enfb_flag = 0;
1353:../../MMI/Resource/WriteImgRes.c **** #endif
1354:../../MMI/Resource/WriteImgRes.c **** 
1355:../../MMI/Resource/WriteImgRes.c ****             if (extImageFlag == NFB_PROGRESS_IMAGE)
 5456              	LM358:
 5457 29a4 837D1C02 		cmpl	$2, 28(%ebp)
 5458 29a8 0F85A100 		jne	L237
 5458      0000
1356:../../MMI/Resource/WriteImgRes.c ****             {
1357:../../MMI/Resource/WriteImgRes.c ****                 RESIMG_LOG_V("Write NFB_PROGRESS_IMAGE");
 5460              	LM359:
 5461 29ae C7442408 		movl	$LC80, 8(%esp)
 5461      F6250000 
 5462 29b6 C7442404 		movl	$LC34, 4(%esp)
 5462      64060000 
 5463 29be C7042401 		movl	$1, (%esp)
 5463      000000
 5464 29c5 E8000000 		call	_reslog_adaptor_log
 5464      00
1358:../../MMI/Resource/WriteImgRes.c ****    			
1359:../../MMI/Resource/WriteImgRes.c ****                 if (nfb_img_res_file != NULL)
 5466              	LM360:
 5467 29ca 837D2800 		cmpl	$0, 40(%ebp)
 5468 29ce 7463     		je	L238
1360:../../MMI/Resource/WriteImgRes.c ****                 {
1361:../../MMI/Resource/WriteImgRes.c ****                     if(output_name != NULL)
 5470              	LM361:
 5471 29d0 837D1400 		cmpl	$0, 20(%ebp)
 5472 29d4 743F     		je	L239
1362:../../MMI/Resource/WriteImgRes.c ****                     {
1363:../../MMI/Resource/WriteImgRes.c ****                         RESIMG_LOG_V("Write output name to nfb_img_res_file: %s",output_name);
 5474              	LM362:
 5475 29d6 8B4514   		movl	20(%ebp), %eax
 5476 29d9 8944240C 		movl	%eax, 12(%esp)
 5477 29dd C7442408 		movl	$LC81, 8(%esp)
 5477      20260000 
 5478 29e5 C7442404 		movl	$LC34, 4(%esp)
 5478      64060000 
 5479 29ed C7042401 		movl	$1, (%esp)
 5479      000000
 5480 29f4 E8000000 		call	_reslog_adaptor_log
 5480      00
1364:../../MMI/Resource/WriteImgRes.c ****                         fprintf(nfb_img_res_file, "(U8*)&%s,\n", output_name);
 5482              	LM363:
 5483 29f9 8B4514   		movl	20(%ebp), %eax
 5484 29fc 89442408 		movl	%eax, 8(%esp)
 5485 2a00 C7442404 		movl	$LC69, 4(%esp)
 5485      751E0000 
 5486 2a08 8B4528   		movl	40(%ebp), %eax
 5487 2a0b 890424   		movl	%eax, (%esp)
 5488 2a0e E8000000 		call	_fprintf
 5488      00
 5489 2a13 EB3A     		jmp	L237
 5490              	L239:
GAS LISTING d:/MTK/MTK2503/MTK2503/11CW1418SP4_03_CORETEK03AE_11C_V1_GPRS_MMI/plutommi/Customer/ResGenerator/gcctmp/ccaodaaa.s 			page 89


1365:../../MMI/Resource/WriteImgRes.c ****                     }
1366:../../MMI/Resource/WriteImgRes.c ****                     else
1367:../../MMI/Resource/WriteImgRes.c ****                     {
1368:../../MMI/Resource/WriteImgRes.c ****                         RESIMG_LOG_E("Output name can't be NULL in Write_Unprocessed_Data");
 5492              	LM364:
 5493 2a15 C7442408 		movl	$LC82, 8(%esp)
 5493      60260000 
 5494 2a1d C7442404 		movl	$LC34, 4(%esp)
 5494      64060000 
 5495 2a25 C7042403 		movl	$3, (%esp)
 5495      000000
 5496 2a2c E8000000 		call	_reslog_adaptor_log
 5496      00
 5497 2a31 EB1C     		jmp	L237
 5498              	L238:
1369:../../MMI/Resource/WriteImgRes.c ****                     }
1370:../../MMI/Resource/WriteImgRes.c ****                 }
1371:../../MMI/Resource/WriteImgRes.c ****                 else
1372:../../MMI/Resource/WriteImgRes.c ****                 {
1373:../../MMI/Resource/WriteImgRes.c ****                     RESIMG_LOG_E("nfb_img_res_file is not opened");
 5500              	LM365:
 5501 2a33 C7442408 		movl	$LC83, 8(%esp)
 5501      A0260000 
 5502 2a3b C7442404 		movl	$LC34, 4(%esp)
 5502      64060000 
 5503 2a43 C7042403 		movl	$3, (%esp)
 5503      000000
 5504 2a4a E8000000 		call	_reslog_adaptor_log
 5504      00
 5505              	L237:
1374:../../MMI/Resource/WriteImgRes.c ****                 }
1375:../../MMI/Resource/WriteImgRes.c ****             }
1376:../../MMI/Resource/WriteImgRes.c **** 
1377:../../MMI/Resource/WriteImgRes.c ****             ImageOutStreamPrintf(outstream, "\n };\n");
 5507              	LM366:
 5508 2a4f C7442404 		movl	$LC84, 4(%esp)
 5508      BF260000 
 5509 2a57 8B4518   		movl	24(%ebp), %eax
 5510 2a5a 890424   		movl	%eax, (%esp)
 5511 2a5d E8000000 		call	_ImageOutStreamPrintf
 5511      00
 5512              	L233:
1378:../../MMI/Resource/WriteImgRes.c ****         }
1379:../../MMI/Resource/WriteImgRes.c ****     }
1380:../../MMI/Resource/WriteImgRes.c ****     return failure_flag;
 5514              	LM367:
 5515 2a62 8B45F0   		movl	-16(%ebp), %eax
 5516 2a65 89459C   		movl	%eax, -100(%ebp)
1381:../../MMI/Resource/WriteImgRes.c **** }
 5518              	LM368:
 5519              	L221:
 5520              	LBE32:
 5521 2a68 8B459C   		movl	-100(%ebp), %eax
 5522 2a6b 81C49400 		addl	$148, %esp
 5522      0000
 5523 2a71 5B       		popl	%ebx
 5524 2a72 5D       		popl	%ebp
GAS LISTING d:/MTK/MTK2503/MTK2503/11CW1418SP4_03_CORETEK03AE_11C_V1_GPRS_MMI/plutommi/Customer/ResGenerator/gcctmp/ccaodaaa.s 			page 90


 5525 2a73 C3       		ret
 5543              	Lscope7:
 5545              	LC85:
 5546 2a74 25632563 		.ascii "%c%c%c%c%c%c%c%c\0"
 5546      25632563 
 5546      25632563 
 5546      25632563 
 5546      00
 5547              	LC86:
 5548 2a85 25632563 		.ascii "%c%c%c%c\0"
 5548      25632563 
 5548      00
 5549 2a8e 90909090 		.align 32
 5549      90909090 
 5549      90909090 
 5549      90909090 
 5549      9090
 5550              	LC87:
 5551 2aa0 0A09     		.ascii "\12\11"
 5552 2aa2 30782530 		.ascii "0x%02X, 0x%02X, 0x%02X, 0x%02X, 0x%02X, 0x%02X, 0x%02X, 0x%02X,\12\11\0"
 5552      32582C20 
 5552      30782530 
 5552      32582C20 
 5552      30782530 
 5553 2ae4 90909090 		.align 32
 5553      90909090 
 5553      90909090 
 5553      90909090 
 5553      90909090 
 5554              	LC88:
 5555 2b00 30782530 		.ascii "0x%02X, 0x%02X, 0x%02X, 0x%02X, \0"
 5555      32582C20 
 5555      30782530 
 5555      32582C20 
 5555      30782530 
 5556 2b21 90909090 		.align 32
 5556      90909090 
 5556      90909090 
 5556      90909090 
 5556      90909090 
 5557              	LC89:
 5558 2b40 30782530 		.ascii "0x%02X, 0x%02X, 0x%02X, 0x%02X,\12\11\0"
 5558      32582C20 
 5558      30782530 
 5558      32582C20 
 5558      30782530 
 5571              	_Write_Sequential_Image_Header:
1382:../../MMI/Resource/WriteImgRes.c **** 
1383:../../MMI/Resource/WriteImgRes.c **** /*****************************************************************************
1384:../../MMI/Resource/WriteImgRes.c ****  * FUNCTION
1385:../../MMI/Resource/WriteImgRes.c ****  *  Write_Sequential_Image_Header
1386:../../MMI/Resource/WriteImgRes.c ****  * DESCRIPTION
1387:../../MMI/Resource/WriteImgRes.c ****  *  construct the header for sequential images
1388:../../MMI/Resource/WriteImgRes.c ****  * PARAMETERS
1389:../../MMI/Resource/WriteImgRes.c ****  *  output_file             [IN]        output file handle
1390:../../MMI/Resource/WriteImgRes.c ****  *  image_identifier        [IN]        sequential image type
1391:../../MMI/Resource/WriteImgRes.c ****  *  n_frames                [IN]        the number of the frames
GAS LISTING d:/MTK/MTK2503/MTK2503/11CW1418SP4_03_CORETEK03AE_11C_V1_GPRS_MMI/plutommi/Customer/ResGenerator/gcctmp/ccaodaaa.s 			page 91


1392:../../MMI/Resource/WriteImgRes.c ****  *  play_count              [IN]        number of playing times
1393:../../MMI/Resource/WriteImgRes.c ****  *  seq_filesize            [IN]        pointer to a list of file sizes
1394:../../MMI/Resource/WriteImgRes.c ****  *  seq_offset              [OUT]       pointer to a list of offsets
1395:../../MMI/Resource/WriteImgRes.c ****  *  width                   [IN]        maximun width
1396:../../MMI/Resource/WriteImgRes.c ****  *  height                  [IN]        maximun height
1397:../../MMI/Resource/WriteImgRes.c ****  * RETURNS
1398:../../MMI/Resource/WriteImgRes.c ****  *  void
1399:../../MMI/Resource/WriteImgRes.c ****  *****************************************************************************/
1400:../../MMI/Resource/WriteImgRes.c **** static void Write_Sequential_Image_Header(
1401:../../MMI/Resource/WriteImgRes.c ****         ResgenImageOutStream * outstream,
1402:../../MMI/Resource/WriteImgRes.c ****         U8 image_identifier,
1403:../../MMI/Resource/WriteImgRes.c ****         S32 n_frames,
1404:../../MMI/Resource/WriteImgRes.c ****         U8 play_count,
1405:../../MMI/Resource/WriteImgRes.c ****         S32 *seq_filesize,
1406:../../MMI/Resource/WriteImgRes.c ****         S32 *seq_offset,
1407:../../MMI/Resource/WriteImgRes.c ****         U32 width,
1408:../../MMI/Resource/WriteImgRes.c ****         U32 height,
1409:../../MMI/Resource/WriteImgRes.c ****         S32 sequential_interval[MAX_SEQUENTIAL_IMAGE_FRAME],
1410:../../MMI/Resource/WriteImgRes.c ****         SetImageProcessData * processData)
1411:../../MMI/Resource/WriteImgRes.c **** {
 5573              	LM369:
 5574 2b62 55       		pushl	%ebp
 5575 2b63 89E5     		movl	%esp, %ebp
 5576 2b65 53       		pushl	%ebx
 5577 2b66 83EC44   		subl	$68, %esp
 5578 2b69 8B450C   		movl	12(%ebp), %eax
 5579 2b6c 8B5514   		movl	20(%ebp), %edx
 5580 2b6f 8845FB   		movb	%al, -5(%ebp)
 5581 2b72 8855FA   		movb	%dl, -6(%ebp)
1412:../../MMI/Resource/WriteImgRes.c ****     /*----------------------------------------------------------------*/
1413:../../MMI/Resource/WriteImgRes.c ****     /* Local Variables                                                */
1414:../../MMI/Resource/WriteImgRes.c ****     /*----------------------------------------------------------------*/
1415:../../MMI/Resource/WriteImgRes.c ****     S32 i;
1416:../../MMI/Resource/WriteImgRes.c ****     S32 offset = 8;
 5583              	LM370:
 5584              	LBB36:
 5585 2b75 C745F008 		movl	$8, -16(%ebp)
 5585      000000
1417:../../MMI/Resource/WriteImgRes.c ****     S32 real_size;
1418:../../MMI/Resource/WriteImgRes.c ****     U32 width_height;
1419:../../MMI/Resource/WriteImgRes.c **** 
1420:../../MMI/Resource/WriteImgRes.c ****     /*----------------------------------------------------------------*/
1421:../../MMI/Resource/WriteImgRes.c ****     /* Code Body                                                      */
1422:../../MMI/Resource/WriteImgRes.c ****     /*----------------------------------------------------------------*/
1423:../../MMI/Resource/WriteImgRes.c ****     width_height = ((width & 0XFFF) << 12) | (height & 0XFFF);
 5587              	LM371:
 5588 2b7c 8B4520   		movl	32(%ebp), %eax
 5589 2b7f 25FF0F00 		andl	$4095, %eax
 5589      00
 5590 2b84 89C2     		movl	%eax, %edx
 5591 2b86 C1E20C   		sall	$12, %edx
 5592 2b89 8B4524   		movl	36(%ebp), %eax
 5593 2b8c 25FF0F00 		andl	$4095, %eax
 5593      00
 5594 2b91 09D0     		orl	%edx, %eax
 5595 2b93 8945E8   		movl	%eax, -24(%ebp)
1424:../../MMI/Resource/WriteImgRes.c **** 
GAS LISTING d:/MTK/MTK2503/MTK2503/11CW1418SP4_03_CORETEK03AE_11C_V1_GPRS_MMI/plutommi/Customer/ResGenerator/gcctmp/ccaodaaa.s 			page 92


1425:../../MMI/Resource/WriteImgRes.c ****     if (toolFlag == 1)
 5597              	LM372:
 5598 2b96 833D0000 		cmpl	$1, _toolFlag
 5598      000001
 5599 2b9d 0F851002 		jne	L243
 5599      0000
1426:../../MMI/Resource/WriteImgRes.c ****     {
1427:../../MMI/Resource/WriteImgRes.c ****         /* the major header */
1428:../../MMI/Resource/WriteImgRes.c ****         fprintf(dest_file, "%c%c%c%c%c%c%c%c",
 5601              	LM373:
 5602 2ba3 8B45E8   		movl	-24(%ebp), %eax
 5603 2ba6 250000FF 		andl	$16711680, %eax
 5603      00
 5604 2bab C1E810   		shrl	$16, %eax
 5605 2bae 89442424 		movl	%eax, 36(%esp)
 5606 2bb2 8B45E8   		movl	-24(%ebp), %eax
 5607 2bb5 2500FF00 		andl	$65280, %eax
 5607      00
 5608 2bba C1E808   		shrl	$8, %eax
 5609 2bbd 89442420 		movl	%eax, 32(%esp)
 5610 2bc1 0FB645E8 		movzbl	-24(%ebp),%eax
 5611 2bc5 8944241C 		movl	%eax, 28(%esp)
 5612 2bc9 C7442418 		movl	$0, 24(%esp)
 5612      00000000 
 5613 2bd1 C7442414 		movl	$0, 20(%esp)
 5613      00000000 
 5614 2bd9 0FB645FA 		movzbl	-6(%ebp), %eax
 5615 2bdd 89442410 		movl	%eax, 16(%esp)
 5616 2be1 8B4510   		movl	16(%ebp), %eax
 5617 2be4 8944240C 		movl	%eax, 12(%esp)
 5618 2be8 0FB645FB 		movzbl	-5(%ebp), %eax
 5619 2bec 89442408 		movl	%eax, 8(%esp)
 5620 2bf0 C7442404 		movl	$LC85, 4(%esp)
 5620      742A0000 
 5621 2bf8 A1000000 		movl	_dest_file, %eax
 5621      00
 5622 2bfd 890424   		movl	%eax, (%esp)
 5623 2c00 E8000000 		call	_fprintf
 5623      00
1429:../../MMI/Resource/WriteImgRes.c ****                 image_identifier,
1430:../../MMI/Resource/WriteImgRes.c ****                 n_frames,
1431:../../MMI/Resource/WriteImgRes.c ****                 play_count,
1432:../../MMI/Resource/WriteImgRes.c ****                 0, 0,    /* file size (not used) */
1433:../../MMI/Resource/WriteImgRes.c ****                 (width_height & 0xff),
1434:../../MMI/Resource/WriteImgRes.c ****                 (width_height & 0xff00) >> 8,
1435:../../MMI/Resource/WriteImgRes.c ****                 (width_height & 0xff0000) >> 16);
1436:../../MMI/Resource/WriteImgRes.c ****         for (i = 0; i < n_frames; i++)
 5625              	LM374:
 5626 2c05 C745F400 		movl	$0, -12(%ebp)
 5626      000000
 5627              	L244:
 5628 2c0c 8B45F4   		movl	-12(%ebp), %eax
 5629 2c0f 3B4510   		cmpl	16(%ebp), %eax
 5630 2c12 7C05     		jl	L247
 5631 2c14 E9DC0300 		jmp	L242
 5631      00
 5632              	L247:
GAS LISTING d:/MTK/MTK2503/MTK2503/11CW1418SP4_03_CORETEK03AE_11C_V1_GPRS_MMI/plutommi/Customer/ResGenerator/gcctmp/ccaodaaa.s 			page 93


1437:../../MMI/Resource/WriteImgRes.c ****         {
1438:../../MMI/Resource/WriteImgRes.c ****             int interval = sequential_interval[i];
 5634              	LM375:
 5635              	LBB37:
 5636 2c19 8B45F4   		movl	-12(%ebp), %eax
 5637 2c1c 8D148500 		leal	0(,%eax,4), %edx
 5637      000000
 5638 2c23 8B4528   		movl	40(%ebp), %eax
 5639 2c26 8B0410   		movl	(%eax,%edx), %eax
 5640 2c29 8945E4   		movl	%eax, -28(%ebp)
1439:../../MMI/Resource/WriteImgRes.c **** 
1440:../../MMI/Resource/WriteImgRes.c ****             seq_offset[i] = offset;
 5642              	LM376:
 5643 2c2c 8B45F4   		movl	-12(%ebp), %eax
 5644 2c2f 8D0C8500 		leal	0(,%eax,4), %ecx
 5644      000000
 5645 2c36 8B551C   		movl	28(%ebp), %edx
 5646 2c39 8B45F0   		movl	-16(%ebp), %eax
 5647 2c3c 89040A   		movl	%eax, (%edx,%ecx)
1441:../../MMI/Resource/WriteImgRes.c ****             real_size = ((seq_filesize[i] + 3) >> 2) << 2;
 5649              	LM377:
 5650 2c3f 8B45F4   		movl	-12(%ebp), %eax
 5651 2c42 8D148500 		leal	0(,%eax,4), %edx
 5651      000000
 5652 2c49 8B4518   		movl	24(%ebp), %eax
 5653 2c4c 8B0410   		movl	(%eax,%edx), %eax
 5654 2c4f 83C003   		addl	$3, %eax
 5655 2c52 C1F802   		sarl	$2, %eax
 5656 2c55 C1E002   		sall	$2, %eax
 5657 2c58 8945EC   		movl	%eax, -20(%ebp)
1442:../../MMI/Resource/WriteImgRes.c ****             fprintf(dest_file, "%c%c%c%c", seq_offset[i] & 0xff, (seq_offset[i] & 0xff00) >> 8, (se
 5659              	LM378:
 5660 2c5b 8B45F4   		movl	-12(%ebp), %eax
 5661 2c5e 8D148500 		leal	0(,%eax,4), %edx
 5661      000000
 5662 2c65 8B451C   		movl	28(%ebp), %eax
 5663 2c68 8B0410   		movl	(%eax,%edx), %eax
 5664 2c6b 25000000 		andl	$-16777216, %eax
 5664      FF
 5665 2c70 C1E818   		shrl	$24, %eax
 5666 2c73 89442414 		movl	%eax, 20(%esp)
 5667 2c77 8B45F4   		movl	-12(%ebp), %eax
 5668 2c7a 8D148500 		leal	0(,%eax,4), %edx
 5668      000000
 5669 2c81 8B451C   		movl	28(%ebp), %eax
 5670 2c84 8B0410   		movl	(%eax,%edx), %eax
 5671 2c87 250000FF 		andl	$16711680, %eax
 5671      00
 5672 2c8c C1F810   		sarl	$16, %eax
 5673 2c8f 89442410 		movl	%eax, 16(%esp)
 5674 2c93 8B45F4   		movl	-12(%ebp), %eax
 5675 2c96 8D148500 		leal	0(,%eax,4), %edx
 5675      000000
 5676 2c9d 8B451C   		movl	28(%ebp), %eax
 5677 2ca0 8B0410   		movl	(%eax,%edx), %eax
 5678 2ca3 2500FF00 		andl	$65280, %eax
 5678      00
GAS LISTING d:/MTK/MTK2503/MTK2503/11CW1418SP4_03_CORETEK03AE_11C_V1_GPRS_MMI/plutommi/Customer/ResGenerator/gcctmp/ccaodaaa.s 			page 94


 5679 2ca8 C1F808   		sarl	$8, %eax
 5680 2cab 8944240C 		movl	%eax, 12(%esp)
 5681 2caf 8B45F4   		movl	-12(%ebp), %eax
 5682 2cb2 8D148500 		leal	0(,%eax,4), %edx
 5682      000000
 5683 2cb9 8B451C   		movl	28(%ebp), %eax
 5684 2cbc 0FB60410 		movzbl	(%eax,%edx),%eax
 5685 2cc0 89442408 		movl	%eax, 8(%esp)
 5686 2cc4 C7442404 		movl	$LC86, 4(%esp)
 5686      852A0000 
 5687 2ccc A1000000 		movl	_dest_file, %eax
 5687      00
 5688 2cd1 890424   		movl	%eax, (%esp)
 5689 2cd4 E8000000 		call	_fprintf
 5689      00
1443:../../MMI/Resource/WriteImgRes.c ****             fprintf(dest_file, "%c%c%c%c", seq_filesize[i] & 0xff, (seq_filesize[i] & 0xff00) >> 8,
 5691              	LM379:
 5692 2cd9 8B45F4   		movl	-12(%ebp), %eax
 5693 2cdc 8D148500 		leal	0(,%eax,4), %edx
 5693      000000
 5694 2ce3 8B4518   		movl	24(%ebp), %eax
 5695 2ce6 8B0410   		movl	(%eax,%edx), %eax
 5696 2ce9 25000000 		andl	$-16777216, %eax
 5696      FF
 5697 2cee C1E818   		shrl	$24, %eax
 5698 2cf1 89442414 		movl	%eax, 20(%esp)
 5699 2cf5 8B45F4   		movl	-12(%ebp), %eax
 5700 2cf8 8D148500 		leal	0(,%eax,4), %edx
 5700      000000
 5701 2cff 8B4518   		movl	24(%ebp), %eax
 5702 2d02 8B0410   		movl	(%eax,%edx), %eax
 5703 2d05 250000FF 		andl	$16711680, %eax
 5703      00
 5704 2d0a C1F810   		sarl	$16, %eax
 5705 2d0d 89442410 		movl	%eax, 16(%esp)
 5706 2d11 8B45F4   		movl	-12(%ebp), %eax
 5707 2d14 8D148500 		leal	0(,%eax,4), %edx
 5707      000000
 5708 2d1b 8B4518   		movl	24(%ebp), %eax
 5709 2d1e 8B0410   		movl	(%eax,%edx), %eax
 5710 2d21 2500FF00 		andl	$65280, %eax
 5710      00
 5711 2d26 C1F808   		sarl	$8, %eax
 5712 2d29 8944240C 		movl	%eax, 12(%esp)
 5713 2d2d 8B45F4   		movl	-12(%ebp), %eax
 5714 2d30 8D148500 		leal	0(,%eax,4), %edx
 5714      000000
 5715 2d37 8B4518   		movl	24(%ebp), %eax
 5716 2d3a 0FB60410 		movzbl	(%eax,%edx),%eax
 5717 2d3e 89442408 		movl	%eax, 8(%esp)
 5718 2d42 C7442404 		movl	$LC86, 4(%esp)
 5718      852A0000 
 5719 2d4a A1000000 		movl	_dest_file, %eax
 5719      00
 5720 2d4f 890424   		movl	%eax, (%esp)
 5721 2d52 E8000000 		call	_fprintf
 5721      00
GAS LISTING d:/MTK/MTK2503/MTK2503/11CW1418SP4_03_CORETEK03AE_11C_V1_GPRS_MMI/plutommi/Customer/ResGenerator/gcctmp/ccaodaaa.s 			page 95


1444:../../MMI/Resource/WriteImgRes.c ****             fprintf(dest_file, "%c%c%c%c", interval & 0xff, (interval & 0xff00) >> 8, (interval & 0
 5723              	LM380:
 5724 2d57 8B45E4   		movl	-28(%ebp), %eax
 5725 2d5a 25000000 		andl	$-16777216, %eax
 5725      FF
 5726 2d5f C1E818   		shrl	$24, %eax
 5727 2d62 89442414 		movl	%eax, 20(%esp)
 5728 2d66 8B45E4   		movl	-28(%ebp), %eax
 5729 2d69 250000FF 		andl	$16711680, %eax
 5729      00
 5730 2d6e C1F810   		sarl	$16, %eax
 5731 2d71 89442410 		movl	%eax, 16(%esp)
 5732 2d75 8B45E4   		movl	-28(%ebp), %eax
 5733 2d78 2500FF00 		andl	$65280, %eax
 5733      00
 5734 2d7d C1F808   		sarl	$8, %eax
 5735 2d80 8944240C 		movl	%eax, 12(%esp)
 5736 2d84 0FB645E4 		movzbl	-28(%ebp),%eax
 5737 2d88 89442408 		movl	%eax, 8(%esp)
 5738 2d8c C7442404 		movl	$LC86, 4(%esp)
 5738      852A0000 
 5739 2d94 A1000000 		movl	_dest_file, %eax
 5739      00
 5740 2d99 890424   		movl	%eax, (%esp)
 5741 2d9c E8000000 		call	_fprintf
 5741      00
1445:../../MMI/Resource/WriteImgRes.c ****             offset += real_size;
 5743              	LM381:
 5744 2da1 8B55EC   		movl	-20(%ebp), %edx
 5745 2da4 8D45F0   		leal	-16(%ebp), %eax
 5746 2da7 0110     		addl	%edx, (%eax)
 5748              	LM382:
 5749 2da9 8D45F4   		leal	-12(%ebp), %eax
 5750              	LBE37:
 5751 2dac FF00     		incl	(%eax)
 5752 2dae E959FEFF 		jmp	L244
 5752      FF
 5753              	L243:
1446:../../MMI/Resource/WriteImgRes.c ****         }
1447:../../MMI/Resource/WriteImgRes.c ****     }
1448:../../MMI/Resource/WriteImgRes.c **** 
1449:../../MMI/Resource/WriteImgRes.c **** #ifdef __MMI_RESOURCE_ENFB_SUPPORT__
1450:../../MMI/Resource/WriteImgRes.c ****     /* write ENFB header to CustImgDataxxx.h and image header/data to ENFB image data file */
1451:../../MMI/Resource/WriteImgRes.c ****     else if (processData->enfb_flag == 1)
1452:../../MMI/Resource/WriteImgRes.c ****     {
1453:../../MMI/Resource/WriteImgRes.c ****         S32 data_size = 0;
1454:../../MMI/Resource/WriteImgRes.c ****         for (i = 0; i < n_frames; i++)
1455:../../MMI/Resource/WriteImgRes.c ****         {
1456:../../MMI/Resource/WriteImgRes.c ****             real_size = ((seq_filesize[i] + 3) >> 2) << 2;
1457:../../MMI/Resource/WriteImgRes.c ****             data_size += real_size;
1458:../../MMI/Resource/WriteImgRes.c ****         }
1459:../../MMI/Resource/WriteImgRes.c ****         enfb_size = 8 + 12*n_frames + data_size;
1460:../../MMI/Resource/WriteImgRes.c **** 
1461:../../MMI/Resource/WriteImgRes.c ****         /* write ENFB header to CustImgDataxxx.h */
1462:../../MMI/Resource/WriteImgRes.c ****         ImageOutStreamPrintf(outstream,
1463:../../MMI/Resource/WriteImgRes.c ****             "\n\t0x%02X, 0x%02X, 0x%02X, 0x%02X, 0x%02X, 0x%02X, 0x%02X, 0x%02X, 0x%02X, 0x%02X, 0x
1464:../../MMI/Resource/WriteImgRes.c ****             (U8) 255,                   //type
GAS LISTING d:/MTK/MTK2503/MTK2503/11CW1418SP4_03_CORETEK03AE_11C_V1_GPRS_MMI/plutommi/Customer/ResGenerator/gcctmp/ccaodaaa.s 			page 96


1465:../../MMI/Resource/WriteImgRes.c ****             (U8) ENFBAssociatedIDAdded, //associated id
1466:../../MMI/Resource/WriteImgRes.c ****             (U8) 0,                     //reserved
1467:../../MMI/Resource/WriteImgRes.c ****             (U8) 0,                     //reserved
1468:../../MMI/Resource/WriteImgRes.c ****             (U8) (enfb_offset & 0xff),
1469:../../MMI/Resource/WriteImgRes.c ****             (U8) ((enfb_offset >> 8) & 0xff),
1470:../../MMI/Resource/WriteImgRes.c ****             (U8) ((enfb_offset >> 16) & 0xff),
1471:../../MMI/Resource/WriteImgRes.c ****             (U8) ((enfb_offset >> 24) & 0xff),
1472:../../MMI/Resource/WriteImgRes.c ****             (U8) (enfb_size & 0xff),
1473:../../MMI/Resource/WriteImgRes.c ****             (U8) ((enfb_size >> 8) & 0xff),
1474:../../MMI/Resource/WriteImgRes.c ****             (U8) ((enfb_size >> 16) & 0xff),
1475:../../MMI/Resource/WriteImgRes.c ****             (U8) ((enfb_size >> 24) & 0xff));
1476:../../MMI/Resource/WriteImgRes.c **** 
1477:../../MMI/Resource/WriteImgRes.c ****         /* image header/data to ENFB image data file */
1478:../../MMI/Resource/WriteImgRes.c ****         /* the major header */
1479:../../MMI/Resource/WriteImgRes.c ****         fprintf(enfb_img_data_file, "%c%c%c%c%c%c%c%c",
1480:../../MMI/Resource/WriteImgRes.c ****                 image_identifier,
1481:../../MMI/Resource/WriteImgRes.c ****                 n_frames,
1482:../../MMI/Resource/WriteImgRes.c ****                 play_count,
1483:../../MMI/Resource/WriteImgRes.c ****                 0, 0,    /* file size (not used) */
1484:../../MMI/Resource/WriteImgRes.c ****                 (width_height & 0xff),
1485:../../MMI/Resource/WriteImgRes.c ****                 (width_height & 0xff00) >> 8,
1486:../../MMI/Resource/WriteImgRes.c ****                 (width_height & 0xff0000) >> 16);
1487:../../MMI/Resource/WriteImgRes.c ****         for (i = 0; i < n_frames; i++)
1488:../../MMI/Resource/WriteImgRes.c ****         {
1489:../../MMI/Resource/WriteImgRes.c ****             int interval = sequential_interval[i];
1490:../../MMI/Resource/WriteImgRes.c **** 
1491:../../MMI/Resource/WriteImgRes.c ****             seq_offset[i] = offset;
1492:../../MMI/Resource/WriteImgRes.c ****             real_size = ((seq_filesize[i] + 3) >> 2) << 2;
1493:../../MMI/Resource/WriteImgRes.c ****             fprintf(enfb_img_data_file, "%c%c%c%c", seq_offset[i] & 0xff, (seq_offset[i] & 0xff00) 
1494:../../MMI/Resource/WriteImgRes.c ****             fprintf(enfb_img_data_file, "%c%c%c%c", seq_filesize[i] & 0xff, (seq_filesize[i] & 0xff
1495:../../MMI/Resource/WriteImgRes.c ****             fprintf(enfb_img_data_file, "%c%c%c%c", interval & 0xff, (interval & 0xff00) >> 8, (int
1496:../../MMI/Resource/WriteImgRes.c ****             offset += real_size;
1497:../../MMI/Resource/WriteImgRes.c ****         }
1498:../../MMI/Resource/WriteImgRes.c **** 
1499:../../MMI/Resource/WriteImgRes.c ****         enfb_offset += enfb_size;
1500:../../MMI/Resource/WriteImgRes.c ****         processData->res_size += enfb_size;
1501:../../MMI/Resource/WriteImgRes.c ****     }
1502:../../MMI/Resource/WriteImgRes.c **** #endif
1503:../../MMI/Resource/WriteImgRes.c **** 
1504:../../MMI/Resource/WriteImgRes.c ****     else
1505:../../MMI/Resource/WriteImgRes.c ****     {
1506:../../MMI/Resource/WriteImgRes.c ****         /* the major header */
1507:../../MMI/Resource/WriteImgRes.c ****         ImageOutStreamPrintf(outstream, 
 5755              	LM383:
 5756 2db3 8B45E8   		movl	-24(%ebp), %eax
 5757 2db6 250000FF 		andl	$16711680, %eax
 5757      00
 5758 2dbb C1E810   		shrl	$16, %eax
 5759 2dbe 89442424 		movl	%eax, 36(%esp)
 5760 2dc2 8B45E8   		movl	-24(%ebp), %eax
 5761 2dc5 2500FF00 		andl	$65280, %eax
 5761      00
 5762 2dca C1E808   		shrl	$8, %eax
 5763 2dcd 89442420 		movl	%eax, 32(%esp)
 5764 2dd1 0FB645E8 		movzbl	-24(%ebp),%eax
 5765 2dd5 8944241C 		movl	%eax, 28(%esp)
 5766 2dd9 C7442418 		movl	$0, 24(%esp)
GAS LISTING d:/MTK/MTK2503/MTK2503/11CW1418SP4_03_CORETEK03AE_11C_V1_GPRS_MMI/plutommi/Customer/ResGenerator/gcctmp/ccaodaaa.s 			page 97


 5766      00000000 
 5767 2de1 C7442414 		movl	$0, 20(%esp)
 5767      00000000 
 5768 2de9 0FB645FA 		movzbl	-6(%ebp), %eax
 5769 2ded 89442410 		movl	%eax, 16(%esp)
 5770 2df1 8B4510   		movl	16(%ebp), %eax
 5771 2df4 8944240C 		movl	%eax, 12(%esp)
 5772 2df8 0FB645FB 		movzbl	-5(%ebp), %eax
 5773 2dfc 89442408 		movl	%eax, 8(%esp)
 5774 2e00 C7442404 		movl	$LC87, 4(%esp)
 5774      A02A0000 
 5775 2e08 8B4508   		movl	8(%ebp), %eax
 5776 2e0b 890424   		movl	%eax, (%esp)
 5777 2e0e E8000000 		call	_ImageOutStreamPrintf
 5777      00
1508:../../MMI/Resource/WriteImgRes.c ****                 "\n\t0x%02X, 0x%02X, 0x%02X, 0x%02X, 0x%02X, 0x%02X, 0x%02X, 0x%02X,\n\t",
1509:../../MMI/Resource/WriteImgRes.c ****                 image_identifier,
1510:../../MMI/Resource/WriteImgRes.c ****                 n_frames,
1511:../../MMI/Resource/WriteImgRes.c ****                 play_count,
1512:../../MMI/Resource/WriteImgRes.c ****                 0, 0,
1513:../../MMI/Resource/WriteImgRes.c ****                 (width_height & 0xff),
1514:../../MMI/Resource/WriteImgRes.c ****                 (width_height & 0xff00) >> 8,
1515:../../MMI/Resource/WriteImgRes.c ****                 (width_height & 0xff0000) >> 16);
1516:../../MMI/Resource/WriteImgRes.c ****         processData->res_size += 8;
 5779              	LM384:
 5780 2e13 8B552C   		movl	44(%ebp), %edx
 5781 2e16 8B452C   		movl	44(%ebp), %eax
 5782 2e19 8B800002 		movl	512(%eax), %eax
 5782      0000
 5783 2e1f 83C008   		addl	$8, %eax
 5784 2e22 89820002 		movl	%eax, 512(%edx)
 5784      0000
1517:../../MMI/Resource/WriteImgRes.c ****         for (i = 0; i < n_frames; i++)
 5786              	LM385:
 5787 2e28 C745F400 		movl	$0, -12(%ebp)
 5787      000000
 5788              	L249:
 5789 2e2f 8B45F4   		movl	-12(%ebp), %eax
 5790 2e32 3B4510   		cmpl	16(%ebp), %eax
 5791 2e35 7C05     		jl	L252
 5792 2e37 E9B90100 		jmp	L242
 5792      00
 5793              	L252:
1518:../../MMI/Resource/WriteImgRes.c ****         {
1519:../../MMI/Resource/WriteImgRes.c ****             int interval = sequential_interval[i];
 5795              	LM386:
 5796              	LBB38:
 5797 2e3c 8B45F4   		movl	-12(%ebp), %eax
 5798 2e3f 8D148500 		leal	0(,%eax,4), %edx
 5798      000000
 5799 2e46 8B4528   		movl	40(%ebp), %eax
 5800 2e49 8B0410   		movl	(%eax,%edx), %eax
 5801 2e4c 8945E4   		movl	%eax, -28(%ebp)
1520:../../MMI/Resource/WriteImgRes.c **** 
1521:../../MMI/Resource/WriteImgRes.c ****             seq_offset[i] = offset;
 5803              	LM387:
 5804 2e4f 8B45F4   		movl	-12(%ebp), %eax
GAS LISTING d:/MTK/MTK2503/MTK2503/11CW1418SP4_03_CORETEK03AE_11C_V1_GPRS_MMI/plutommi/Customer/ResGenerator/gcctmp/ccaodaaa.s 			page 98


 5805 2e52 8D0C8500 		leal	0(,%eax,4), %ecx
 5805      000000
 5806 2e59 8B551C   		movl	28(%ebp), %edx
 5807 2e5c 8B45F0   		movl	-16(%ebp), %eax
 5808 2e5f 89040A   		movl	%eax, (%edx,%ecx)
1522:../../MMI/Resource/WriteImgRes.c ****             real_size = ((seq_filesize[i] + 3) >> 2) << 2;
 5810              	LM388:
 5811 2e62 8B45F4   		movl	-12(%ebp), %eax
 5812 2e65 8D148500 		leal	0(,%eax,4), %edx
 5812      000000
 5813 2e6c 8B4518   		movl	24(%ebp), %eax
 5814 2e6f 8B0410   		movl	(%eax,%edx), %eax
 5815 2e72 83C003   		addl	$3, %eax
 5816 2e75 C1F802   		sarl	$2, %eax
 5817 2e78 C1E002   		sall	$2, %eax
 5818 2e7b 8945EC   		movl	%eax, -20(%ebp)
1523:../../MMI/Resource/WriteImgRes.c ****             ImageOutStreamPrintf(outstream, "0x%02X, 0x%02X, 0x%02X, 0x%02X, ", seq_offset[i] & 0xf
 5820              	LM389:
 5821 2e7e 8B45F4   		movl	-12(%ebp), %eax
 5822 2e81 8D148500 		leal	0(,%eax,4), %edx
 5822      000000
 5823 2e88 8B451C   		movl	28(%ebp), %eax
 5824 2e8b 8B0410   		movl	(%eax,%edx), %eax
 5825 2e8e 25000000 		andl	$-16777216, %eax
 5825      FF
 5826 2e93 C1E818   		shrl	$24, %eax
 5827 2e96 89442414 		movl	%eax, 20(%esp)
 5828 2e9a 8B45F4   		movl	-12(%ebp), %eax
 5829 2e9d 8D148500 		leal	0(,%eax,4), %edx
 5829      000000
 5830 2ea4 8B451C   		movl	28(%ebp), %eax
 5831 2ea7 8B0410   		movl	(%eax,%edx), %eax
 5832 2eaa 250000FF 		andl	$16711680, %eax
 5832      00
 5833 2eaf C1F810   		sarl	$16, %eax
 5834 2eb2 89442410 		movl	%eax, 16(%esp)
 5835 2eb6 8B45F4   		movl	-12(%ebp), %eax
 5836 2eb9 8D148500 		leal	0(,%eax,4), %edx
 5836      000000
 5837 2ec0 8B451C   		movl	28(%ebp), %eax
 5838 2ec3 8B0410   		movl	(%eax,%edx), %eax
 5839 2ec6 2500FF00 		andl	$65280, %eax
 5839      00
 5840 2ecb C1F808   		sarl	$8, %eax
 5841 2ece 8944240C 		movl	%eax, 12(%esp)
 5842 2ed2 8B45F4   		movl	-12(%ebp), %eax
 5843 2ed5 8D148500 		leal	0(,%eax,4), %edx
 5843      000000
 5844 2edc 8B451C   		movl	28(%ebp), %eax
 5845 2edf 0FB60410 		movzbl	(%eax,%edx),%eax
 5846 2ee3 89442408 		movl	%eax, 8(%esp)
 5847 2ee7 C7442404 		movl	$LC88, 4(%esp)
 5847      002B0000 
 5848 2eef 8B4508   		movl	8(%ebp), %eax
 5849 2ef2 890424   		movl	%eax, (%esp)
 5850 2ef5 E8000000 		call	_ImageOutStreamPrintf
 5850      00
GAS LISTING d:/MTK/MTK2503/MTK2503/11CW1418SP4_03_CORETEK03AE_11C_V1_GPRS_MMI/plutommi/Customer/ResGenerator/gcctmp/ccaodaaa.s 			page 99


1524:../../MMI/Resource/WriteImgRes.c ****             ImageOutStreamPrintf(outstream, "0x%02X, 0x%02X, 0x%02X, 0x%02X, ", seq_filesize[i] & 0
 5852              	LM390:
 5853 2efa 8B45F4   		movl	-12(%ebp), %eax
 5854 2efd 8D148500 		leal	0(,%eax,4), %edx
 5854      000000
 5855 2f04 8B4518   		movl	24(%ebp), %eax
 5856 2f07 8B0410   		movl	(%eax,%edx), %eax
 5857 2f0a 25000000 		andl	$-16777216, %eax
 5857      FF
 5858 2f0f C1E818   		shrl	$24, %eax
 5859 2f12 89442414 		movl	%eax, 20(%esp)
 5860 2f16 8B45F4   		movl	-12(%ebp), %eax
 5861 2f19 8D148500 		leal	0(,%eax,4), %edx
 5861      000000
 5862 2f20 8B4518   		movl	24(%ebp), %eax
 5863 2f23 8B0410   		movl	(%eax,%edx), %eax
 5864 2f26 250000FF 		andl	$16711680, %eax
 5864      00
 5865 2f2b C1F810   		sarl	$16, %eax
 5866 2f2e 89442410 		movl	%eax, 16(%esp)
 5867 2f32 8B45F4   		movl	-12(%ebp), %eax
 5868 2f35 8D148500 		leal	0(,%eax,4), %edx
 5868      000000
 5869 2f3c 8B4518   		movl	24(%ebp), %eax
 5870 2f3f 8B0410   		movl	(%eax,%edx), %eax
 5871 2f42 2500FF00 		andl	$65280, %eax
 5871      00
 5872 2f47 C1F808   		sarl	$8, %eax
 5873 2f4a 8944240C 		movl	%eax, 12(%esp)
 5874 2f4e 8B45F4   		movl	-12(%ebp), %eax
 5875 2f51 8D148500 		leal	0(,%eax,4), %edx
 5875      000000
 5876 2f58 8B4518   		movl	24(%ebp), %eax
 5877 2f5b 0FB60410 		movzbl	(%eax,%edx),%eax
 5878 2f5f 89442408 		movl	%eax, 8(%esp)
 5879 2f63 C7442404 		movl	$LC88, 4(%esp)
 5879      002B0000 
 5880 2f6b 8B4508   		movl	8(%ebp), %eax
 5881 2f6e 890424   		movl	%eax, (%esp)
 5882 2f71 E8000000 		call	_ImageOutStreamPrintf
 5882      00
1525:../../MMI/Resource/WriteImgRes.c ****             ImageOutStreamPrintf(outstream, "0x%02X, 0x%02X, 0x%02X, 0x%02X,\n\t", interval & 0xff,
 5884              	LM391:
 5885 2f76 8B45E4   		movl	-28(%ebp), %eax
 5886 2f79 25000000 		andl	$-16777216, %eax
 5886      FF
 5887 2f7e C1E818   		shrl	$24, %eax
 5888 2f81 89442414 		movl	%eax, 20(%esp)
 5889 2f85 8B45E4   		movl	-28(%ebp), %eax
 5890 2f88 250000FF 		andl	$16711680, %eax
 5890      00
 5891 2f8d C1F810   		sarl	$16, %eax
 5892 2f90 89442410 		movl	%eax, 16(%esp)
 5893 2f94 8B45E4   		movl	-28(%ebp), %eax
 5894 2f97 2500FF00 		andl	$65280, %eax
 5894      00
 5895 2f9c C1F808   		sarl	$8, %eax
GAS LISTING d:/MTK/MTK2503/MTK2503/11CW1418SP4_03_CORETEK03AE_11C_V1_GPRS_MMI/plutommi/Customer/ResGenerator/gcctmp/ccaodaaa.s 			page 100


 5896 2f9f 8944240C 		movl	%eax, 12(%esp)
 5897 2fa3 0FB645E4 		movzbl	-28(%ebp),%eax
 5898 2fa7 89442408 		movl	%eax, 8(%esp)
 5899 2fab C7442404 		movl	$LC89, 4(%esp)
 5899      402B0000 
 5900 2fb3 8B4508   		movl	8(%ebp), %eax
 5901 2fb6 890424   		movl	%eax, (%esp)
 5902 2fb9 E8000000 		call	_ImageOutStreamPrintf
 5902      00
1526:../../MMI/Resource/WriteImgRes.c ****             offset += real_size;
 5904              	LM392:
 5905 2fbe 8B55EC   		movl	-20(%ebp), %edx
 5906 2fc1 8D45F0   		leal	-16(%ebp), %eax
 5907 2fc4 0110     		addl	%edx, (%eax)
1527:../../MMI/Resource/WriteImgRes.c **** 
1528:../../MMI/Resource/WriteImgRes.c ****             processData->res_size += 12 + seq_filesize[i];
 5909              	LM393:
 5910 2fc6 8B5D2C   		movl	44(%ebp), %ebx
 5911 2fc9 8B4D2C   		movl	44(%ebp), %ecx
 5912 2fcc 8B45F4   		movl	-12(%ebp), %eax
 5913 2fcf 8D148500 		leal	0(,%eax,4), %edx
 5913      000000
 5914 2fd6 8B4518   		movl	24(%ebp), %eax
 5915 2fd9 8B0410   		movl	(%eax,%edx), %eax
 5916 2fdc 03810002 		addl	512(%ecx), %eax
 5916      0000
 5917 2fe2 83C00C   		addl	$12, %eax
 5918 2fe5 89830002 		movl	%eax, 512(%ebx)
 5918      0000
 5920              	LM394:
 5921 2feb 8D45F4   		leal	-12(%ebp), %eax
 5922              	LBE38:
 5923 2fee FF00     		incl	(%eax)
 5924 2ff0 E93AFEFF 		jmp	L249
 5924      FF
1529:../../MMI/Resource/WriteImgRes.c ****         }
1530:../../MMI/Resource/WriteImgRes.c ****     }
1531:../../MMI/Resource/WriteImgRes.c **** }
 5926              	LM395:
 5927              	L242:
 5928 2ff5 83C444   		addl	$68, %esp
 5929 2ff8 5B       		popl	%ebx
 5930 2ff9 5D       		popl	%ebp
 5931 2ffa C3       		ret
 5932              	LBE36:
 5947              	Lscope8:
 5949              	LC90:
 5950 2ffb 256300   		.ascii "%c\0"
 5951              	LC91:
 5952 2ffe 30782530 		.ascii "0x%02X, \0"
 5952      32582C20 
 5952      00
 5953              	LC92:
 5954 3007 0A0900   		.ascii "\12\11\0"
 5955              	LC93:
 5956 300a 30783030 		.ascii "0x00, \0"
 5956      2C2000
GAS LISTING d:/MTK/MTK2503/MTK2503/11CW1418SP4_03_CORETEK03AE_11C_V1_GPRS_MMI/plutommi/Customer/ResGenerator/gcctmp/ccaodaaa.s 			page 101


 5963              	_Write_Sequential_Image_File:
1532:../../MMI/Resource/WriteImgRes.c **** 
1533:../../MMI/Resource/WriteImgRes.c **** /*****************************************************************************
1534:../../MMI/Resource/WriteImgRes.c ****  * FUNCTION
1535:../../MMI/Resource/WriteImgRes.c ****  *  Write_Sequential_Image_File
1536:../../MMI/Resource/WriteImgRes.c ****  * DESCRIPTION
1537:../../MMI/Resource/WriteImgRes.c ****  *  write raw date from a frame of an image to the output file
1538:../../MMI/Resource/WriteImgRes.c ****  * PARAMETERS
1539:../../MMI/Resource/WriteImgRes.c ****  *  output_file     [IN]        output file handle
1540:../../MMI/Resource/WriteImgRes.c ****  *  input_file      [IN]        input file handle
1541:../../MMI/Resource/WriteImgRes.c ****  *  filesize        [IN]        the input file size
1542:../../MMI/Resource/WriteImgRes.c ****  * RETURNS
1543:../../MMI/Resource/WriteImgRes.c ****  *  void
1544:../../MMI/Resource/WriteImgRes.c ****  *****************************************************************************/
1545:../../MMI/Resource/WriteImgRes.c **** static void Write_Sequential_Image_File(
1546:../../MMI/Resource/WriteImgRes.c ****         ResgenImageOutStream * outstream,
1547:../../MMI/Resource/WriteImgRes.c ****         FILE *input_file,
1548:../../MMI/Resource/WriteImgRes.c ****         S32 filesize,
1549:../../MMI/Resource/WriteImgRes.c ****         SetImageProcessData * processData)
1550:../../MMI/Resource/WriteImgRes.c **** {
 5965              	LM396:
 5966 3011 55       		pushl	%ebp
 5967 3012 89E5     		movl	%esp, %ebp
 5968 3014 83EC38   		subl	$56, %esp
1551:../../MMI/Resource/WriteImgRes.c ****     /*----------------------------------------------------------------*/
1552:../../MMI/Resource/WriteImgRes.c ****     /* Local Variables                                                */
1553:../../MMI/Resource/WriteImgRes.c ****     /*----------------------------------------------------------------*/
1554:../../MMI/Resource/WriteImgRes.c ****     U32 i;
1555:../../MMI/Resource/WriteImgRes.c ****     U32 o = 0;
 5970              	LM397:
 5971              	LBB39:
 5972 3017 C745F800 		movl	$0, -8(%ebp)
 5972      000000
1556:../../MMI/Resource/WriteImgRes.c ****     U8 ch;
1557:../../MMI/Resource/WriteImgRes.c **** 
1558:../../MMI/Resource/WriteImgRes.c ****     /*----------------------------------------------------------------*/
1559:../../MMI/Resource/WriteImgRes.c ****     /* Code Body                                                      */
1560:../../MMI/Resource/WriteImgRes.c ****     /*----------------------------------------------------------------*/
1561:../../MMI/Resource/WriteImgRes.c ****     if (toolFlag == 1)
 5974              	LM398:
 5975 301e 833D0000 		cmpl	$1, _toolFlag
 5975      000001
 5976 3025 757C     		jne	L254
1562:../../MMI/Resource/WriteImgRes.c ****     {
1563:../../MMI/Resource/WriteImgRes.c ****         for (i = 0; i < filesize; i++)
 5978              	LM399:
 5979 3027 C745FC00 		movl	$0, -4(%ebp)
 5979      000000
 5980              	L255:
 5981 302e 8B45FC   		movl	-4(%ebp), %eax
 5982 3031 3B4510   		cmpl	16(%ebp), %eax
 5983 3034 7202     		jb	L258
 5984 3036 EB32     		jmp	L256
 5985              	L258:
1564:../../MMI/Resource/WriteImgRes.c ****         {
1565:../../MMI/Resource/WriteImgRes.c ****             ch = fgetc(input_file);
 5987              	LM400:
GAS LISTING d:/MTK/MTK2503/MTK2503/11CW1418SP4_03_CORETEK03AE_11C_V1_GPRS_MMI/plutommi/Customer/ResGenerator/gcctmp/ccaodaaa.s 			page 102


 5988 3038 8B450C   		movl	12(%ebp), %eax
 5989 303b 890424   		movl	%eax, (%esp)
 5990 303e E8000000 		call	_fgetc
 5990      00
 5991 3043 8845F7   		movb	%al, -9(%ebp)
1566:../../MMI/Resource/WriteImgRes.c ****             fprintf(dest_file, "%c", ch);
 5993              	LM401:
 5994 3046 0FB645F7 		movzbl	-9(%ebp), %eax
 5995 304a 89442408 		movl	%eax, 8(%esp)
 5996 304e C7442404 		movl	$LC90, 4(%esp)
 5996      FB2F0000 
 5997 3056 A1000000 		movl	_dest_file, %eax
 5997      00
 5998 305b 890424   		movl	%eax, (%esp)
 5999 305e E8000000 		call	_fprintf
 5999      00
 6001              	LM402:
 6002 3063 8D45FC   		leal	-4(%ebp), %eax
 6003 3066 FF00     		incl	(%eax)
 6004 3068 EBC4     		jmp	L255
 6005              	L256:
1567:../../MMI/Resource/WriteImgRes.c ****         }
1568:../../MMI/Resource/WriteImgRes.c **** 
1569:../../MMI/Resource/WriteImgRes.c ****         for (i = filesize; i % 4 != 0; i++)
 6007              	LM403:
 6008 306a 8B4510   		movl	16(%ebp), %eax
 6009 306d 8945FC   		movl	%eax, -4(%ebp)
 6010              	L259:
 6011 3070 8B45FC   		movl	-4(%ebp), %eax
 6012 3073 83E003   		andl	$3, %eax
 6013 3076 85C0     		testl	%eax, %eax
 6014 3078 7505     		jne	L262
 6015 307a E9270100 		jmp	L253
 6015      00
 6016              	L262:
1570:../../MMI/Resource/WriteImgRes.c ****         {
1571:../../MMI/Resource/WriteImgRes.c ****             /* for 4 byte alignment */
1572:../../MMI/Resource/WriteImgRes.c ****             fprintf(dest_file, "%c", 0);
 6018              	LM404:
 6019 307f C7442408 		movl	$0, 8(%esp)
 6019      00000000 
 6020 3087 C7442404 		movl	$LC90, 4(%esp)
 6020      FB2F0000 
 6021 308f A1000000 		movl	_dest_file, %eax
 6021      00
 6022 3094 890424   		movl	%eax, (%esp)
 6023 3097 E8000000 		call	_fprintf
 6023      00
 6025              	LM405:
 6026 309c 8D45FC   		leal	-4(%ebp), %eax
 6027 309f FF00     		incl	(%eax)
 6028 30a1 EBCD     		jmp	L259
 6029              	L254:
1573:../../MMI/Resource/WriteImgRes.c ****         }
1574:../../MMI/Resource/WriteImgRes.c ****     }
1575:../../MMI/Resource/WriteImgRes.c **** 
1576:../../MMI/Resource/WriteImgRes.c **** #ifdef __MMI_RESOURCE_ENFB_SUPPORT__
GAS LISTING d:/MTK/MTK2503/MTK2503/11CW1418SP4_03_CORETEK03AE_11C_V1_GPRS_MMI/plutommi/Customer/ResGenerator/gcctmp/ccaodaaa.s 			page 103


1577:../../MMI/Resource/WriteImgRes.c ****     /* write ENFB header to CustImgDataxxx.h and image header/data to ENFB image data file */
1578:../../MMI/Resource/WriteImgRes.c ****     else if (processData->enfb_flag == 1)
1579:../../MMI/Resource/WriteImgRes.c ****     {
1580:../../MMI/Resource/WriteImgRes.c ****         for (i = 0; i < filesize; i++)
1581:../../MMI/Resource/WriteImgRes.c ****         {
1582:../../MMI/Resource/WriteImgRes.c ****             ch = fgetc(input_file);
1583:../../MMI/Resource/WriteImgRes.c ****             fprintf(enfb_img_data_file, "%c", ch);
1584:../../MMI/Resource/WriteImgRes.c ****         }
1585:../../MMI/Resource/WriteImgRes.c **** 
1586:../../MMI/Resource/WriteImgRes.c ****         for (i = filesize; i % 4 != 0; i++)
1587:../../MMI/Resource/WriteImgRes.c ****         {
1588:../../MMI/Resource/WriteImgRes.c ****             /* for 4 byte alignment */
1589:../../MMI/Resource/WriteImgRes.c ****             fprintf(enfb_img_data_file, "%c", 0);
1590:../../MMI/Resource/WriteImgRes.c ****         }
1591:../../MMI/Resource/WriteImgRes.c ****     }
1592:../../MMI/Resource/WriteImgRes.c **** #endif
1593:../../MMI/Resource/WriteImgRes.c **** 
1594:../../MMI/Resource/WriteImgRes.c ****     else
1595:../../MMI/Resource/WriteImgRes.c ****     {
1596:../../MMI/Resource/WriteImgRes.c ****         /*
1597:../../MMI/Resource/WriteImgRes.c ****         for (i = 0; i < filesize; i++)
1598:../../MMI/Resource/WriteImgRes.c ****         {
1599:../../MMI/Resource/WriteImgRes.c ****             ch = fgetc(input_file);
1600:../../MMI/Resource/WriteImgRes.c ****             ImageOutStreamPrintf(outstream, "0x%02X, ", ch);
1601:../../MMI/Resource/WriteImgRes.c ****             o++;
1602:../../MMI/Resource/WriteImgRes.c ****             if ((o % 16) == 0)
1603:../../MMI/Resource/WriteImgRes.c ****             {
1604:../../MMI/Resource/WriteImgRes.c ****                 ImageOutStreamPrintf(outstream, "\n\t");
1605:../../MMI/Resource/WriteImgRes.c ****             }
1606:../../MMI/Resource/WriteImgRes.c ****         }
1607:../../MMI/Resource/WriteImgRes.c ****         */
1608:../../MMI/Resource/WriteImgRes.c ****         const int buffer_size = 16 * 1024;
 6031              	LM406:
 6032              	LBB40:
 6033 30a3 C745F000 		movl	$16384, -16(%ebp)
 6033      400000
1609:../../MMI/Resource/WriteImgRes.c ****         while (1)
 6035              	LM407:
 6036              	L264:
 6037              	LBB41:
 6038 30aa 8965E8   		movl	%esp, -24(%ebp)
1610:../../MMI/Resource/WriteImgRes.c ****         {
1611:../../MMI/Resource/WriteImgRes.c ****             U8 buffer[buffer_size];
 6040              	LM408:
 6041 30ad 8B45F0   		movl	-16(%ebp), %eax
 6042 30b0 83C00F   		addl	$15, %eax
 6043 30b3 C1E804   		shrl	$4, %eax
 6044 30b6 C1E004   		sall	$4, %eax
 6045 30b9 8945E0   		movl	%eax, -32(%ebp)
 6046 30bc 8B45E0   		movl	-32(%ebp), %eax
 6047 30bf E8000000 		call	__alloca
 6047      00
 6048 30c4 8D542410 		leal	16(%esp), %edx
 6049 30c8 8955E4   		movl	%edx, -28(%ebp)
1612:../../MMI/Resource/WriteImgRes.c ****             U32 size = fread(buffer, 1, buffer_size, input_file);
 6051              	LM409:
 6052 30cb 8B450C   		movl	12(%ebp), %eax
GAS LISTING d:/MTK/MTK2503/MTK2503/11CW1418SP4_03_CORETEK03AE_11C_V1_GPRS_MMI/plutommi/Customer/ResGenerator/gcctmp/ccaodaaa.s 			page 104


 6053 30ce 8944240C 		movl	%eax, 12(%esp)
 6054 30d2 8B45F0   		movl	-16(%ebp), %eax
 6055 30d5 89442408 		movl	%eax, 8(%esp)
 6056 30d9 C7442404 		movl	$1, 4(%esp)
 6056      01000000 
 6057 30e1 8B45E4   		movl	-28(%ebp), %eax
 6058 30e4 890424   		movl	%eax, (%esp)
 6059 30e7 E8000000 		call	_fread
 6059      00
 6060 30ec 8945EC   		movl	%eax, -20(%ebp)
1613:../../MMI/Resource/WriteImgRes.c ****             if (size == 0)
 6062              	LM410:
 6063 30ef 837DEC00 		cmpl	$0, -20(%ebp)
 6064 30f3 7505     		jne	L267
1614:../../MMI/Resource/WriteImgRes.c ****             {
1615:../../MMI/Resource/WriteImgRes.c ****                 break;
 6066              	LM411:
 6067              	LBB42:
 6068 30f5 8B65E8   		movl	-24(%ebp), %esp
 6069              	LBE42:
 6070 30f8 EB63     		jmp	L265
 6071              	L267:
1616:../../MMI/Resource/WriteImgRes.c ****             }
1617:../../MMI/Resource/WriteImgRes.c ****             for (i = 0; i < size; i++)
 6073              	LM412:
 6074 30fa C745FC00 		movl	$0, -4(%ebp)
 6074      000000
 6075              	L268:
 6076 3101 8B45FC   		movl	-4(%ebp), %eax
 6077 3104 3B45EC   		cmpl	-20(%ebp), %eax
 6078 3107 7202     		jb	L271
 6079 3109 EB4A     		jmp	L269
 6080              	L271:
1618:../../MMI/Resource/WriteImgRes.c ****             {
1619:../../MMI/Resource/WriteImgRes.c ****                 ImageOutStreamPrintf(outstream, "0x%02X, ", buffer[i]);
 6082              	LM413:
 6083 310b 8B45FC   		movl	-4(%ebp), %eax
 6084 310e 8B55E4   		movl	-28(%ebp), %edx
 6085 3111 0FB60402 		movzbl	(%edx,%eax), %eax
 6086 3115 89442408 		movl	%eax, 8(%esp)
 6087 3119 C7442404 		movl	$LC91, 4(%esp)
 6087      FE2F0000 
 6088 3121 8B4508   		movl	8(%ebp), %eax
 6089 3124 890424   		movl	%eax, (%esp)
 6090 3127 E8000000 		call	_ImageOutStreamPrintf
 6090      00
1620:../../MMI/Resource/WriteImgRes.c ****                 if ((++o % 16) == 0)
 6092              	LM414:
 6093 312c 8D45F8   		leal	-8(%ebp), %eax
 6094 312f FF00     		incl	(%eax)
 6095 3131 8B45F8   		movl	-8(%ebp), %eax
 6096 3134 83E00F   		andl	$15, %eax
 6097 3137 85C0     		testl	%eax, %eax
 6098 3139 7513     		jne	L270
1621:../../MMI/Resource/WriteImgRes.c ****                 {
1622:../../MMI/Resource/WriteImgRes.c ****                     ImageOutStreamPrintf(outstream, "\n\t");
 6100              	LM415:
GAS LISTING d:/MTK/MTK2503/MTK2503/11CW1418SP4_03_CORETEK03AE_11C_V1_GPRS_MMI/plutommi/Customer/ResGenerator/gcctmp/ccaodaaa.s 			page 105


 6101 313b C7442404 		movl	$LC92, 4(%esp)
 6101      07300000 
 6102 3143 8B4508   		movl	8(%ebp), %eax
 6103 3146 890424   		movl	%eax, (%esp)
 6104 3149 E8000000 		call	_ImageOutStreamPrintf
 6104      00
 6106              	LM416:
 6107              	L270:
 6108 314e 8D45FC   		leal	-4(%ebp), %eax
 6109 3151 FF00     		incl	(%eax)
 6110 3153 EBAC     		jmp	L268
 6111              	L269:
 6112 3155 8B65E8   		movl	-24(%ebp), %esp
 6113              	LBE41:
 6114 3158 E94DFFFF 		jmp	L264
 6114      FF
 6115              	L265:
1623:../../MMI/Resource/WriteImgRes.c ****                 }
1624:../../MMI/Resource/WriteImgRes.c ****             }
1625:../../MMI/Resource/WriteImgRes.c ****         }
1626:../../MMI/Resource/WriteImgRes.c **** 
1627:../../MMI/Resource/WriteImgRes.c ****         for (i = filesize; i % 4 != 0; i++)
 6117              	LM417:
 6118 315d 8B4510   		movl	16(%ebp), %eax
 6119 3160 8945FC   		movl	%eax, -4(%ebp)
 6120              	L273:
 6121 3163 8B45FC   		movl	-4(%ebp), %eax
 6122 3166 83E003   		andl	$3, %eax
 6123 3169 85C0     		testl	%eax, %eax
 6124 316b 7502     		jne	L276
 6125 316d EB1A     		jmp	L274
 6126              	L276:
1628:../../MMI/Resource/WriteImgRes.c ****         {
1629:../../MMI/Resource/WriteImgRes.c ****             /* for 4 byte alignment */
1630:../../MMI/Resource/WriteImgRes.c ****             ImageOutStreamPrintf(outstream, "0x00, ");
 6128              	LM418:
 6129 316f C7442404 		movl	$LC93, 4(%esp)
 6129      0A300000 
 6130 3177 8B4508   		movl	8(%ebp), %eax
 6131 317a 890424   		movl	%eax, (%esp)
 6132 317d E8000000 		call	_ImageOutStreamPrintf
 6132      00
 6134              	LM419:
 6135 3182 8D45FC   		leal	-4(%ebp), %eax
 6136 3185 FF00     		incl	(%eax)
 6137 3187 EBDA     		jmp	L273
 6138              	L274:
1631:../../MMI/Resource/WriteImgRes.c ****         }
1632:../../MMI/Resource/WriteImgRes.c **** 
1633:../../MMI/Resource/WriteImgRes.c ****         if ((o % 16) != 0)
 6140              	LM420:
 6141 3189 8B45F8   		movl	-8(%ebp), %eax
 6142 318c 83E00F   		andl	$15, %eax
 6143 318f 85C0     		testl	%eax, %eax
 6144 3191 7413     		je	L253
1634:../../MMI/Resource/WriteImgRes.c ****         {
1635:../../MMI/Resource/WriteImgRes.c ****             ImageOutStreamPrintf(outstream, "\n\t");
GAS LISTING d:/MTK/MTK2503/MTK2503/11CW1418SP4_03_CORETEK03AE_11C_V1_GPRS_MMI/plutommi/Customer/ResGenerator/gcctmp/ccaodaaa.s 			page 106


 6146              	LM421:
 6147 3193 C7442404 		movl	$LC92, 4(%esp)
 6147      07300000 
 6148 319b 8B4508   		movl	8(%ebp), %eax
 6149 319e 890424   		movl	%eax, (%esp)
 6150 31a1 E8000000 		call	_ImageOutStreamPrintf
 6150      00
1636:../../MMI/Resource/WriteImgRes.c ****         }
1637:../../MMI/Resource/WriteImgRes.c ****     }
1638:../../MMI/Resource/WriteImgRes.c **** }
 6152              	LM422:
 6153              	L253:
 6154 31a6 C9       		leave
 6155 31a7 C3       		ret
 6156              	LBE40:
 6157              	LBE39:
 6170              	Lscope9:
 6172              	LC94:
 6173 31a8 25735C5C 		.ascii "%s\\\\0.%s\0"
 6173      302E2573 
 6173      00
 6174              	LC95:
 6175 31b1 25735C5C 		.ascii "%s\\\\interval.txt\0"
 6175      696E7465 
 6175      7276616C 
 6175      2E747874 
 6175      00
 6176              	LC96:
 6177 31c2 7200     		.ascii "r\0"
 6178              	LC97:
 6179 31c4 4552523A 		.ascii "ERR: Can't find %s\12\0"
 6179      2043616E 
 6179      27742066 
 6179      696E6420 
 6179      25730A00 
 6180              	LC98:
 6181 31d8 20256400 		.ascii " %d\0"
 6182              	LC99:
 6183 31dc 204C4F4F 		.ascii " LOOP %d\0"
 6183      50202564 
 6183      00
 6184              	LC100:
 6185 31e5 25735C5C 		.ascii "%s\\\\%d.%s\0"
 6185      25642E25 
 6185      7300
 6186              	LC101:
 6187 31ef 61626D73 		.ascii "abms\0"
 6187      00
 6188 31f4 8DB60000 		.align 32
 6188      00008DBF 
 6188      00000000 
 6189              	LC102:
 6190 3200 57726974 		.ascii "Write_Sequential_image: buffer == NULL\12\0"
 6190      655F5365 
 6190      7175656E 
 6190      7469616C 
 6190      5F696D61 
GAS LISTING d:/MTK/MTK2503/MTK2503/11CW1418SP4_03_CORETEK03AE_11C_V1_GPRS_MMI/plutommi/Customer/ResGenerator/gcctmp/ccaodaaa.s 			page 107


 6191              	LC103:
 6192 3228 77622B00 		.ascii "wb+\0"
 6193 322c 90909090 		.align 32
 6193      90909090 
 6193      90909090 
 6193      90909090 
 6193      90909090 
 6194              	LC104:
 6195 3240 5B424D50 		.ascii "[BMP->ABM sequence] size not match:\11%s\12\0"
 6195      2D3E4142 
 6195      4D207365 
 6195      7175656E 
 6195      63655D20 
 6196 3268 90909090 		.align 32
 6196      90909090 
 6196      90909090 
 6196      90909090 
 6196      90909090 
 6197              	LC105:
 6198 3280 5B424D50 		.ascii "[BMP->ABM sequence] read size not match:\11%s\12\0"
 6198      2D3E4142 
 6198      4D207365 
 6198      7175656E 
 6198      63655D20 
 6199 32ad 90909090 		.align 32
 6199      90909090 
 6199      90909090 
 6199      90909090 
 6199      909090
 6200              	LC106:
 6201 32c0 5B424D50 		.ascii "[BMP->ABM sequence] write size not match:\11%s\12\0"
 6201      2D3E4142 
 6201      4D207365 
 6201      7175656E 
 6201      63655D20 
 6202 32ee 90909090 		.align 32
 6202      90909090 
 6202      90909090 
 6202      90909090 
 6202      9090
 6203              	LC107:
 6204 3300 5B424D50 		.ascii "[BMP->ABM sequence] err encode format:\11%s\12\0"
 6204      2D3E4142 
 6204      4D207365 
 6204      7175656E 
 6204      63655D20 
 6205              	LC108:
 6206 332b 61623273 		.ascii "ab2s\0"
 6206      00
 6207 3330 90909090 		.align 32
 6207      90909090 
 6207      90909090 
 6207      90909090 
 6208              	LC109:
 6209 3340 2E5C5C63 		.ascii ".\\\\convert.exe -channel Alpha -negate -compress none %s %s > NUL\0"
 6209      6F6E7665 
 6209      72742E65 
GAS LISTING d:/MTK/MTK2503/MTK2503/11CW1418SP4_03_CORETEK03AE_11C_V1_GPRS_MMI/plutommi/Customer/ResGenerator/gcctmp/ccaodaaa.s 			page 108


 6209      7865202D 
 6209      6368616E 
 6210 3381 90909090 		.align 32
 6210      90909090 
 6210      90909090 
 6210      90909090 
 6210      90909090 
 6211              	LC110:
 6212 33a0 5B41424D 		.ascii "[ABM sequence] size not match:\11%s\12\0"
 6212      20736571 
 6212      75656E63 
 6212      655D2073 
 6212      697A6520 
 6213 33c3 90909090 		.align 32
 6213      90909090 
 6213      90909090 
 6213      90909090 
 6213      90909090 
 6214              	LC111:
 6215 33e0 5B41424D 		.ascii "[ABM sequence] err encode format:\11%s\12\0"
 6215      20736571 
 6215      75656E63 
 6215      655D2065 
 6215      72722065 
 6216              	LC112:
 6217 3406 5F5F616C 		.ascii "__align(4) const U8 %s%s\0"
 6217      69676E28 
 6217      34292063 
 6217      6F6E7374 
 6217      20553820 
 6218 341f 90       		.align 32
 6219              	LC113:
 6220 3420 496D6167 		.ascii "Image get dimensions failed:\11%s\12\0"
 6220      65206765 
 6220      74206469 
 6220      6D656E73 
 6220      696F6E73 
 6221              	LC114:
 6222 3441 25735C5C 		.ascii "%s\\\\%d.abms\0"
 6222      25642E61 
 6222      626D7300 
 6223              	LC115:
 6224 344d 25735C5C 		.ascii "%s\\\\%d.ab2s\0"
 6224      25642E61 
 6224      62327300 
 6225              	LC116:
 6226 3459 0A7D3B0A 		.ascii "\12};\12\0"
 6226      00
 6235              	_Write_Sequential_Image:
1639:../../MMI/Resource/WriteImgRes.c **** 
1640:../../MMI/Resource/WriteImgRes.c **** 
1641:../../MMI/Resource/WriteImgRes.c **** /*****************************************************************************
1642:../../MMI/Resource/WriteImgRes.c ****  * FUNCTION
1643:../../MMI/Resource/WriteImgRes.c ****  *  Write_Sequential_Image
1644:../../MMI/Resource/WriteImgRes.c ****  * DESCRIPTION
1645:../../MMI/Resource/WriteImgRes.c ****  *  write sequential image
1646:../../MMI/Resource/WriteImgRes.c ****  * PARAMETERS
GAS LISTING d:/MTK/MTK2503/MTK2503/11CW1418SP4_03_CORETEK03AE_11C_V1_GPRS_MMI/plutommi/Customer/ResGenerator/gcctmp/ccaodaaa.s 			page 109


1647:../../MMI/Resource/WriteImgRes.c ****  *  pathname        [IN]        path name for sequential image
1648:../../MMI/Resource/WriteImgRes.c ****  *  output_name     [IN]        output variable name
1649:../../MMI/Resource/WriteImgRes.c ****  *  output_file     [OUT]       output file handle
1650:../../MMI/Resource/WriteImgRes.c ****  * RETURNS
1651:../../MMI/Resource/WriteImgRes.c ****  *  MMI_BOOL
1652:../../MMI/Resource/WriteImgRes.c ****  *****************************************************************************/
1653:../../MMI/Resource/WriteImgRes.c **** static MMI_BOOL Write_Sequential_Image(
1654:../../MMI/Resource/WriteImgRes.c ****         char *pathname,
1655:../../MMI/Resource/WriteImgRes.c ****         char *output_name,
1656:../../MMI/Resource/WriteImgRes.c ****         ResgenImageOutStream * outstream,
1657:../../MMI/Resource/WriteImgRes.c ****         MMI_BOOL is9slice,
1658:../../MMI/Resource/WriteImgRes.c ****         S32 force_type,
1659:../../MMI/Resource/WriteImgRes.c ****         SetImageProcessData * processData)
1660:../../MMI/Resource/WriteImgRes.c **** {
 6237              	LM423:
 6238 345e 55       		pushl	%ebp
 6239 345f 89E5     		movl	%esp, %ebp
 6240 3461 53       		pushl	%ebx
 6241 3462 B8343B00 		movl	$15156, %eax
 6241      00
 6242 3467 E8000000 		call	__alloca
 6242      00
1661:../../MMI/Resource/WriteImgRes.c ****     /*----------------------------------------------------------------*/
1662:../../MMI/Resource/WriteImgRes.c ****     /* Local Variables                                                */
1663:../../MMI/Resource/WriteImgRes.c ****     /*----------------------------------------------------------------*/
1664:../../MMI/Resource/WriteImgRes.c ****     S32 sequential_filesize[MAX_SEQUENTIAL_IMAGE_FRAME];
1665:../../MMI/Resource/WriteImgRes.c ****     S32 sequential_offset[MAX_SEQUENTIAL_IMAGE_FRAME];
1666:../../MMI/Resource/WriteImgRes.c ****     S8 filename[BUFFER_SIZE];
1667:../../MMI/Resource/WriteImgRes.c ****     FILE *imgfp;
1668:../../MMI/Resource/WriteImgRes.c ****     S32 sequential_frame;
1669:../../MMI/Resource/WriteImgRes.c ****     S32 sequence_counter;
1670:../../MMI/Resource/WriteImgRes.c ****     S32 n_frames;
1671:../../MMI/Resource/WriteImgRes.c ****     S32 type = -1;
 6244              	LM424:
 6245              	LBB43:
 6246 346c C785E4DF 		movl	$-1, -8220(%ebp)
 6246      FFFFFFFF 
 6246      FFFF
1672:../../MMI/Resource/WriteImgRes.c ****     U32 width = 0, height = 0;
 6248              	LM425:
 6249 3476 C785E0DF 		movl	$0, -8224(%ebp)
 6249      FFFF0000 
 6249      0000
 6250 3480 C785DCDF 		movl	$0, -8228(%ebp)
 6250      FFFF0000 
 6250      0000
1673:../../MMI/Resource/WriteImgRes.c ****     U32 seq_max_width = 0, seq_max_height = 0;
 6252              	LM426:
 6253 348a C785D8DF 		movl	$0, -8232(%ebp)
 6253      FFFF0000 
 6253      0000
 6254 3494 C785D4DF 		movl	$0, -8236(%ebp)
 6254      FFFF0000 
 6254      0000
1674:../../MMI/Resource/WriteImgRes.c ****     S32 j;
1675:../../MMI/Resource/WriteImgRes.c ****     U8 play_count = 0;
 6256              	LM427:
GAS LISTING d:/MTK/MTK2503/MTK2503/11CW1418SP4_03_CORETEK03AE_11C_V1_GPRS_MMI/plutommi/Customer/ResGenerator/gcctmp/ccaodaaa.s 			page 110


 6257 349e C685CFDF 		movb	$0, -8241(%ebp)
 6257      FFFF00
1676:../../MMI/Resource/WriteImgRes.c **** #ifdef __MMI_RESOURCE_ENFB_SUPPORT__
1677:../../MMI/Resource/WriteImgRes.c ****     U32 enfb_width, enfb_height;
1678:../../MMI/Resource/WriteImgRes.c ****     S32 enfb_ret;
1679:../../MMI/Resource/WriteImgRes.c **** #endif
1680:../../MMI/Resource/WriteImgRes.c ****     S32 sequential_interval[MAX_SEQUENTIAL_IMAGE_FRAME];
1681:../../MMI/Resource/WriteImgRes.c **** 
1682:../../MMI/Resource/WriteImgRes.c ****     /*----------------------------------------------------------------*/
1683:../../MMI/Resource/WriteImgRes.c ****     /* Code Body                                                      */
1684:../../MMI/Resource/WriteImgRes.c ****     /*----------------------------------------------------------------*/
1685:../../MMI/Resource/WriteImgRes.c ****     /* find the right extension file name */
1686:../../MMI/Resource/WriteImgRes.c **** #if defined(__MMI_ALPHA_LAYER_SUPPORT__) || defined(__MMI_ALPHA_BLENDING__)
1687:../../MMI/Resource/WriteImgRes.c ****     for (j = SUPPORT_N_SEQUENTIAL_IMAGE_TYPE - 1; j >= 0; j--)  /* search from PNG */
 6259              	LM428:
 6260 34a5 C785D0DF 		movl	$2, -8240(%ebp)
 6260      FFFF0200 
 6260      0000
 6261              	L279:
 6262 34af 83BDD0DF 		cmpl	$0, -8240(%ebp)
 6262      FFFF00
 6263 34b6 7902     		jns	L282
 6264 34b8 EB58     		jmp	L280
 6265              	L282:
1688:../../MMI/Resource/WriteImgRes.c **** #else /* defined(__MMI_ALPHA_LAYER_SUPPORT__) || defined(__MMI_ALPHA_BLENDING__) */
1689:../../MMI/Resource/WriteImgRes.c ****     for (j = 0; j < SUPPORT_N_SEQUENTIAL_IMAGE_TYPE; j++)       /* search from BMP */
1690:../../MMI/Resource/WriteImgRes.c **** #endif /* defined(__MMI_ALPHA_LAYER_SUPPORT__) || defined(__MMI_ALPHA_BLENDING__) */
1691:../../MMI/Resource/WriteImgRes.c ****     {
1692:../../MMI/Resource/WriteImgRes.c ****         sprintf(filename, "%s\\\\0.%s", pathname, sequential_image[j].filename_ext);
 6267              	LM429:
 6268 34ba 8B85D0DF 		movl	-8240(%ebp), %eax
 6268      FFFF
 6269 34c0 8B04C500 		movl	_sequential_image(,%eax,8), %eax
 6269      000000
 6270 34c7 8944240C 		movl	%eax, 12(%esp)
 6271 34cb 8B4508   		movl	8(%ebp), %eax
 6272 34ce 89442408 		movl	%eax, 8(%esp)
 6273 34d2 C7442404 		movl	$LC94, 4(%esp)
 6273      A8310000 
 6274 34da 8D85F8DF 		leal	-8200(%ebp), %eax
 6274      FFFF
 6275 34e0 890424   		movl	%eax, (%esp)
 6276 34e3 E8000000 		call	_sprintf
 6276      00
1693:../../MMI/Resource/WriteImgRes.c ****         if (file_exist(filename) )
 6278              	LM430:
 6279 34e8 8D85F8DF 		leal	-8200(%ebp), %eax
 6279      FFFF
 6280 34ee 890424   		movl	%eax, (%esp)
 6281 34f1 E8000000 		call	_file_exist
 6281      00
 6282 34f6 85C0     		testl	%eax, %eax
 6283 34f8 740E     		je	L281
1694:../../MMI/Resource/WriteImgRes.c ****         {
1695:../../MMI/Resource/WriteImgRes.c ****             type = j;
 6285              	LM431:
 6286 34fa 8B85D0DF 		movl	-8240(%ebp), %eax
GAS LISTING d:/MTK/MTK2503/MTK2503/11CW1418SP4_03_CORETEK03AE_11C_V1_GPRS_MMI/plutommi/Customer/ResGenerator/gcctmp/ccaodaaa.s 			page 111


 6286      FFFF
 6287 3500 8985E4DF 		movl	%eax, -8220(%ebp)
 6287      FFFF
1696:../../MMI/Resource/WriteImgRes.c ****             break;
 6289              	LM432:
 6290 3506 EB0A     		jmp	L280
 6292              	LM433:
 6293              	L281:
 6294 3508 8D85D0DF 		leal	-8240(%ebp), %eax
 6294      FFFF
 6295 350e FF08     		decl	(%eax)
 6296 3510 EB9D     		jmp	L279
 6297              	L280:
1697:../../MMI/Resource/WriteImgRes.c ****         }
1698:../../MMI/Resource/WriteImgRes.c ****     }
1699:../../MMI/Resource/WriteImgRes.c ****     if (type == -1)
 6299              	LM434:
 6300 3512 83BDE4DF 		cmpl	$-1, -8220(%ebp)
 6300      FFFFFF
 6301 3519 750F     		jne	L284
1700:../../MMI/Resource/WriteImgRes.c ****     {
1701:../../MMI/Resource/WriteImgRes.c ****         return MMI_FALSE;
 6303              	LM435:
 6304 351b C78508C5 		movl	$0, -15096(%ebp)
 6304      FFFF0000 
 6304      0000
 6305 3525 E95A0C00 		jmp	L278
 6305      00
 6306              	L284:
1702:../../MMI/Resource/WriteImgRes.c ****     }
1703:../../MMI/Resource/WriteImgRes.c **** 
1704:../../MMI/Resource/WriteImgRes.c ****     /* read during & find how many files are in sequence */
1705:../../MMI/Resource/WriteImgRes.c ****     sprintf(filename, "%s\\\\interval.txt", pathname);
 6308              	LM436:
 6309 352a 8B4508   		movl	8(%ebp), %eax
 6310 352d 89442408 		movl	%eax, 8(%esp)
 6311 3531 C7442404 		movl	$LC95, 4(%esp)
 6311      B1310000 
 6312 3539 8D85F8DF 		leal	-8200(%ebp), %eax
 6312      FFFF
 6313 353f 890424   		movl	%eax, (%esp)
 6314 3542 E8000000 		call	_sprintf
 6314      00
1706:../../MMI/Resource/WriteImgRes.c ****     imgfp = fopen(filename, "r");
 6316              	LM437:
 6317 3547 C7442404 		movl	$LC96, 4(%esp)
 6317      C2310000 
 6318 354f 8D85F8DF 		leal	-8200(%ebp), %eax
 6318      FFFF
 6319 3555 890424   		movl	%eax, (%esp)
 6320 3558 E8000000 		call	_fopen
 6320      00
 6321 355d 8985F4DF 		movl	%eax, -8204(%ebp)
 6321      FFFF
1707:../../MMI/Resource/WriteImgRes.c ****     if (imgfp == NULL)
 6323              	LM438:
 6324 3563 83BDF4DF 		cmpl	$0, -8204(%ebp)
GAS LISTING d:/MTK/MTK2503/MTK2503/11CW1418SP4_03_CORETEK03AE_11C_V1_GPRS_MMI/plutommi/Customer/ResGenerator/gcctmp/ccaodaaa.s 			page 112


 6324      FFFF00
 6325 356a 7525     		jne	L285
1708:../../MMI/Resource/WriteImgRes.c ****     {
1709:../../MMI/Resource/WriteImgRes.c ****         RES_PRINT_INFO("ERR: Can't find %s\n", filename);
 6327              	LM439:
 6328 356c 8D85F8DF 		leal	-8200(%ebp), %eax
 6328      FFFF
 6329 3572 89442404 		movl	%eax, 4(%esp)
 6330 3576 C70424C4 		movl	$LC97, (%esp)
 6330      310000
 6331 357d E8000000 		call	_MtkResgenTrace
 6331      00
1710:../../MMI/Resource/WriteImgRes.c ****         return MMI_FALSE;
 6333              	LM440:
 6334 3582 C78508C5 		movl	$0, -15096(%ebp)
 6334      FFFF0000 
 6334      0000
 6335 358c E9F30B00 		jmp	L278
 6335      00
 6336              	L285:
1711:../../MMI/Resource/WriteImgRes.c ****     }
1712:../../MMI/Resource/WriteImgRes.c ****     else
1713:../../MMI/Resource/WriteImgRes.c ****     {
1714:../../MMI/Resource/WriteImgRes.c ****         S32 count = 0;
 6338              	LM441:
 6339              	LBB44:
 6340 3591 C785C4D7 		movl	$0, -10300(%ebp)
 6340      FFFF0000 
 6340      0000
1715:../../MMI/Resource/WriteImgRes.c ****         S32 duration;
1716:../../MMI/Resource/WriteImgRes.c **** 
1717:../../MMI/Resource/WriteImgRes.c ****         sequence_counter = 0;
 6342              	LM442:
 6343 359b C785ECDF 		movl	$0, -8212(%ebp)
 6343      FFFF0000 
 6343      0000
1718:../../MMI/Resource/WriteImgRes.c ****         while(fscanf(imgfp, " %d", &duration) == 1)
 6345              	LM443:
 6346              	L287:
 6347 35a5 8D85C0D7 		leal	-10304(%ebp), %eax
 6347      FFFF
 6348 35ab 89442408 		movl	%eax, 8(%esp)
 6349 35af C7442404 		movl	$LC98, 4(%esp)
 6349      D8310000 
 6350 35b7 8B85F4DF 		movl	-8204(%ebp), %eax
 6350      FFFF
 6351 35bd 890424   		movl	%eax, (%esp)
 6352 35c0 E8000000 		call	_fscanf
 6352      00
 6353 35c5 83F801   		cmpl	$1, %eax
 6354 35c8 7402     		je	L289
 6355 35ca EB1F     		jmp	L288
 6356              	L289:
1719:../../MMI/Resource/WriteImgRes.c ****         {
1720:../../MMI/Resource/WriteImgRes.c ****             sequential_interval[sequence_counter++] = duration;
 6358              	LM444:
 6359 35cc 8B85ECDF 		movl	-8212(%ebp), %eax
GAS LISTING d:/MTK/MTK2503/MTK2503/11CW1418SP4_03_CORETEK03AE_11C_V1_GPRS_MMI/plutommi/Customer/ResGenerator/gcctmp/ccaodaaa.s 			page 113


 6359      FFFF
 6360 35d2 89C2     		movl	%eax, %edx
 6361 35d4 8B85C0D7 		movl	-10304(%ebp), %eax
 6361      FFFF
 6362 35da 898495C8 		movl	%eax, -10296(%ebp,%edx,4)
 6362      D7FFFF
 6363 35e1 8D85ECDF 		leal	-8212(%ebp), %eax
 6363      FFFF
 6364 35e7 FF00     		incl	(%eax)
 6365 35e9 EBBA     		jmp	L287
 6366              	L288:
1721:../../MMI/Resource/WriteImgRes.c ****         }
1722:../../MMI/Resource/WriteImgRes.c **** 
1723:../../MMI/Resource/WriteImgRes.c ****         /* we will recognize "LOOP " as prefix */
1724:../../MMI/Resource/WriteImgRes.c ****         play_count = (fscanf(imgfp, " LOOP %d", &count) == 1) ? ((U8)count) : (0);
 6368              	LM445:
 6369 35eb 8D85C4D7 		leal	-10300(%ebp), %eax
 6369      FFFF
 6370 35f1 89442408 		movl	%eax, 8(%esp)
 6371 35f5 C7442404 		movl	$LC99, 4(%esp)
 6371      DC310000 
 6372 35fd 8B85F4DF 		movl	-8204(%ebp), %eax
 6372      FFFF
 6373 3603 890424   		movl	%eax, (%esp)
 6374 3606 E8000000 		call	_fscanf
 6374      00
 6375 360b 83F801   		cmpl	$1, %eax
 6376 360e 750F     		jne	L290
 6377 3610 0FB685C4 		movzbl	-10300(%ebp), %eax
 6377      D7FFFF
 6378 3617 888507C5 		movb	%al, -15097(%ebp)
 6378      FFFF
 6379 361d EB07     		jmp	L291
 6380              	L290:
 6381 361f C68507C5 		movb	$0, -15097(%ebp)
 6381      FFFF00
 6382              	L291:
 6383 3626 0FB68507 		movzbl	-15097(%ebp), %eax
 6383      C5FFFF
 6384 362d 8885CFDF 		movb	%al, -8241(%ebp)
 6384      FFFF
1725:../../MMI/Resource/WriteImgRes.c **** 
1726:../../MMI/Resource/WriteImgRes.c ****         MYFCLOSE(imgfp);
 6386              	LM446:
 6387 3633 83BDF4DF 		cmpl	$0, -8204(%ebp)
 6387      FFFF00
 6388 363a 7418     		je	L286
 6389 363c 8B85F4DF 		movl	-8204(%ebp), %eax
 6389      FFFF
 6390 3642 890424   		movl	%eax, (%esp)
 6391 3645 E8000000 		call	_fclose
 6391      00
 6392 364a C785F4DF 		movl	$0, -8204(%ebp)
 6392      FFFF0000 
 6392      0000
 6393              	L286:
1727:../../MMI/Resource/WriteImgRes.c ****     }
GAS LISTING d:/MTK/MTK2503/MTK2503/11CW1418SP4_03_CORETEK03AE_11C_V1_GPRS_MMI/plutommi/Customer/ResGenerator/gcctmp/ccaodaaa.s 			page 114


1728:../../MMI/Resource/WriteImgRes.c **** 
1729:../../MMI/Resource/WriteImgRes.c ****     for (j = 0; j < sequence_counter; j++)
 6395              	LM447:
 6396              	LBE44:
 6397 3654 C785D0DF 		movl	$0, -8240(%ebp)
 6397      FFFF0000 
 6397      0000
 6398              	L294:
 6399 365e 8B85D0DF 		movl	-8240(%ebp), %eax
 6399      FFFF
 6400 3664 3B85ECDF 		cmpl	-8212(%ebp), %eax
 6400      FFFF
 6401 366a 7C05     		jl	L297
 6402 366c E90A0700 		jmp	L295
 6402      00
 6403              	L297:
1730:../../MMI/Resource/WriteImgRes.c ****     {
1731:../../MMI/Resource/WriteImgRes.c ****         sprintf(filename, "%s\\\\%d.%s", pathname, j, sequential_image[type].filename_ext);
 6405              	LM448:
 6406 3671 8B85E4DF 		movl	-8220(%ebp), %eax
 6406      FFFF
 6407 3677 8B04C500 		movl	_sequential_image(,%eax,8), %eax
 6407      000000
 6408 367e 89442410 		movl	%eax, 16(%esp)
 6409 3682 8B85D0DF 		movl	-8240(%ebp), %eax
 6409      FFFF
 6410 3688 8944240C 		movl	%eax, 12(%esp)
 6411 368c 8B4508   		movl	8(%ebp), %eax
 6412 368f 89442408 		movl	%eax, 8(%esp)
 6413 3693 C7442404 		movl	$LC100, 4(%esp)
 6413      E5310000 
 6414 369b 8D85F8DF 		leal	-8200(%ebp), %eax
 6414      FFFF
 6415 36a1 890424   		movl	%eax, (%esp)
 6416 36a4 E8000000 		call	_sprintf
 6416      00
1732:../../MMI/Resource/WriteImgRes.c ****         imgfp = fopen(filename, "rb");
 6418              	LM449:
 6419 36a9 C7442404 		movl	$LC59, 4(%esp)
 6419      130D0000 
 6420 36b1 8D85F8DF 		leal	-8200(%ebp), %eax
 6420      FFFF
 6421 36b7 890424   		movl	%eax, (%esp)
 6422 36ba E8000000 		call	_fopen
 6422      00
 6423 36bf 8985F4DF 		movl	%eax, -8204(%ebp)
 6423      FFFF
1733:../../MMI/Resource/WriteImgRes.c ****         if (imgfp != NULL)
 6425              	LM450:
 6426 36c5 83BDF4DF 		cmpl	$0, -8204(%ebp)
 6426      FFFF00
 6427 36cc 0F848D06 		je	L298
 6427      0000
1734:../../MMI/Resource/WriteImgRes.c ****         {
1735:../../MMI/Resource/WriteImgRes.c ****             if (sequential_image[type].file_type == IMAGE_TYPE_BMP_SEQUENCE && force_type == FORCE_
 6429              	LM451:
 6430 36d2 8B85E4DF 		movl	-8220(%ebp), %eax
GAS LISTING d:/MTK/MTK2503/MTK2503/11CW1418SP4_03_CORETEK03AE_11C_V1_GPRS_MMI/plutommi/Customer/ResGenerator/gcctmp/ccaodaaa.s 			page 115


 6430      FFFF
 6431 36d8 803CC504 		cmpb	$2, _sequential_image+4(,%eax,8)
 6431      00000002 
 6432 36e0 0F856003 		jne	L299
 6432      0000
 6433 36e6 837D1804 		cmpl	$4, 24(%ebp)
 6434 36ea 0F855603 		jne	L299
 6434      0000
1736:../../MMI/Resource/WriteImgRes.c ****             {
1737:../../MMI/Resource/WriteImgRes.c ****                 U8 *buffer;
1738:../../MMI/Resource/WriteImgRes.c ****                 S32 size, width, height, ret;
1739:../../MMI/Resource/WriteImgRes.c ****                 FILE *outfp = NULL;
 6436              	LM452:
 6437              	LBB45:
 6438 36f0 C785A8D7 		movl	$0, -10328(%ebp)
 6438      FFFF0000 
 6438      0000
1740:../../MMI/Resource/WriteImgRes.c **** 
1741:../../MMI/Resource/WriteImgRes.c ****                 const char *ext = "abms";
 6440              	LM453:
 6441 36fa C785A4D7 		movl	$LC101, -10332(%ebp)
 6441      FFFFEF31 
 6441      0000
1742:../../MMI/Resource/WriteImgRes.c ****                 U32 encode_option = ABM_ENC_OPTION_FLAG_ABM; /* ABM exactly */
 6443              	LM454:
 6444 3704 C785A0D7 		movl	$2, -10336(%ebp)
 6444      FFFF0200 
 6444      0000
1743:../../MMI/Resource/WriteImgRes.c ****                 U32 want_ret = ABM_ENC_RETURN_USE_ABM;
 6446              	LM455:
 6447 370e C7859CD7 		movl	$1, -10340(%ebp)
 6447      FFFF0100 
 6447      0000
1744:../../MMI/Resource/WriteImgRes.c **** 
1745:../../MMI/Resource/WriteImgRes.c ****                 /* convert BMP to ABM */
1746:../../MMI/Resource/WriteImgRes.c ****                 buffer = (U8*)malloc(ABMENC_BMP_FILE_BUFFER_SIZE*sizeof(U8));
 6449              	LM456:
 6450 3718 C7042400 		movl	$16777216, (%esp)
 6450      000001
 6451 371f E8000000 		call	_malloc
 6451      00
 6452 3724 8985BCD7 		movl	%eax, -10308(%ebp)
 6452      FFFF
1747:../../MMI/Resource/WriteImgRes.c ****                 if (buffer == NULL)
 6454              	LM457:
 6455 372a 83BDBCD7 		cmpl	$0, -10308(%ebp)
 6455      FFFF00
 6456 3731 7538     		jne	L300
1748:../../MMI/Resource/WriteImgRes.c ****                 {
1749:../../MMI/Resource/WriteImgRes.c ****                     RESIMG_LOG_E("Write_Sequential_image: buffer == NULL\n");
 6458              	LM458:
 6459 3733 C7442408 		movl	$LC102, 8(%esp)
 6459      00320000 
 6460 373b C7442404 		movl	$LC34, 4(%esp)
 6460      64060000 
 6461 3743 C7042403 		movl	$3, (%esp)
 6461      000000
GAS LISTING d:/MTK/MTK2503/MTK2503/11CW1418SP4_03_CORETEK03AE_11C_V1_GPRS_MMI/plutommi/Customer/ResGenerator/gcctmp/ccaodaaa.s 			page 116


 6462 374a E8000000 		call	_reslog_adaptor_log
 6462      00
1750:../../MMI/Resource/WriteImgRes.c ****                     assert(0);
 6464              	LM459:
 6465 374f C7442408 		movl	$1750, 8(%esp)
 6465      D6060000 
 6466 3757 C7442404 		movl	$LC35, 4(%esp)
 6466      80060000 
 6467 375f C70424A1 		movl	$LC36, (%esp)
 6467      060000
 6468 3766 E8000000 		call	__assert
 6468      00
 6469              	L300:
1751:../../MMI/Resource/WriteImgRes.c ****                     exit(2);
1752:../../MMI/Resource/WriteImgRes.c ****                 }
1753:../../MMI/Resource/WriteImgRes.c **** 
1754:../../MMI/Resource/WriteImgRes.c ****                 ret = ABM_load(filename,
 6471              	LM460:
 6472 376b 8B451C   		movl	28(%ebp), %eax
 6473 376e 89442424 		movl	%eax, 36(%esp)
 6474 3772 8B4514   		movl	20(%ebp), %eax
 6475 3775 89442420 		movl	%eax, 32(%esp)
 6476 3779 8D85B0D7 		leal	-10320(%ebp), %eax
 6476      FFFF
 6477 377f 8944241C 		movl	%eax, 28(%esp)
 6478 3783 8D85B4D7 		leal	-10316(%ebp), %eax
 6478      FFFF
 6479 3789 89442418 		movl	%eax, 24(%esp)
 6480 378d 8D85B8D7 		leal	-10312(%ebp), %eax
 6480      FFFF
 6481 3793 89442414 		movl	%eax, 20(%esp)
 6482 3797 8B85BCD7 		movl	-10308(%ebp), %eax
 6482      FFFF
 6483 379d 89442410 		movl	%eax, 16(%esp)
 6484 37a1 8B85A0D7 		movl	-10336(%ebp), %eax
 6484      FFFF
 6485 37a7 8944240C 		movl	%eax, 12(%esp)
 6486 37ab C7442408 		movl	$1, 8(%esp)
 6486      01000000 
 6487 37b3 C7442404 		movl	$16, 4(%esp)
 6487      10000000 
 6488 37bb 8D85F8DF 		leal	-8200(%ebp), %eax
 6488      FFFF
 6489 37c1 890424   		movl	%eax, (%esp)
 6490 37c4 E8000000 		call	_ABM_load
 6490      00
 6491 37c9 8985ACD7 		movl	%eax, -10324(%ebp)
 6491      FFFF
1755:../../MMI/Resource/WriteImgRes.c ****                         __MMI_DEVICE_BMP_FORMAT__,
1756:../../MMI/Resource/WriteImgRes.c ****                         IMAGE_TYPE_BMP, /* non PBM */
1757:../../MMI/Resource/WriteImgRes.c ****                         encode_option,
1758:../../MMI/Resource/WriteImgRes.c ****                         buffer,
1759:../../MMI/Resource/WriteImgRes.c ****                         &size, &width, &height, is9slice, processData);
1760:../../MMI/Resource/WriteImgRes.c **** 
1761:../../MMI/Resource/WriteImgRes.c ****                 sequential_filesize[j] = size;
 6493              	LM461:
 6494 37cf 8B95D0DF 		movl	-8240(%ebp), %edx
GAS LISTING d:/MTK/MTK2503/MTK2503/11CW1418SP4_03_CORETEK03AE_11C_V1_GPRS_MMI/plutommi/Customer/ResGenerator/gcctmp/ccaodaaa.s 			page 117


 6494      FFFF
 6495 37d5 8B85B8D7 		movl	-10312(%ebp), %eax
 6495      FFFF
 6496 37db 898495F8 		movl	%eax, -2056(%ebp,%edx,4)
 6496      F7FFFF
1762:../../MMI/Resource/WriteImgRes.c **** 
1763:../../MMI/Resource/WriteImgRes.c ****                 sprintf(filename, "%s\\\\%d.%s", pathname, j, ext);
 6498              	LM462:
 6499 37e2 8B85A4D7 		movl	-10332(%ebp), %eax
 6499      FFFF
 6500 37e8 89442410 		movl	%eax, 16(%esp)
 6501 37ec 8B85D0DF 		movl	-8240(%ebp), %eax
 6501      FFFF
 6502 37f2 8944240C 		movl	%eax, 12(%esp)
 6503 37f6 8B4508   		movl	8(%ebp), %eax
 6504 37f9 89442408 		movl	%eax, 8(%esp)
 6505 37fd C7442404 		movl	$LC100, 4(%esp)
 6505      E5310000 
 6506 3805 8D85F8DF 		leal	-8200(%ebp), %eax
 6506      FFFF
 6507 380b 890424   		movl	%eax, (%esp)
 6508 380e E8000000 		call	_sprintf
 6508      00
1764:../../MMI/Resource/WriteImgRes.c ****                 if (ret == want_ret)
 6510              	LM463:
 6511 3813 8B85ACD7 		movl	-10324(%ebp), %eax
 6511      FFFF
 6512 3819 3B859CD7 		cmpl	-10340(%ebp), %eax
 6512      FFFF
 6513 381f 0F859000 		jne	L301
 6513      0000
1765:../../MMI/Resource/WriteImgRes.c ****                 {
1766:../../MMI/Resource/WriteImgRes.c ****                     outfp = fopen(filename, "wb+");
 6515              	LM464:
 6516 3825 C7442404 		movl	$LC103, 4(%esp)
 6516      28320000 
 6517 382d 8D85F8DF 		leal	-8200(%ebp), %eax
 6517      FFFF
 6518 3833 890424   		movl	%eax, (%esp)
 6519 3836 E8000000 		call	_fopen
 6519      00
 6520 383b 8985A8D7 		movl	%eax, -10328(%ebp)
 6520      FFFF
1767:../../MMI/Resource/WriteImgRes.c ****                     if (outfp != NULL)
 6522              	LM465:
 6523 3841 83BDA8D7 		cmpl	$0, -10328(%ebp)
 6523      FFFF00
 6524 3848 0F84E501 		je	L304
 6524      0000
1768:../../MMI/Resource/WriteImgRes.c ****                     {
1769:../../MMI/Resource/WriteImgRes.c ****                         S32 wsize;
1770:../../MMI/Resource/WriteImgRes.c **** 
1771:../../MMI/Resource/WriteImgRes.c ****                         wsize = fwrite(buffer, sizeof(U8), size, outfp);
 6526              	LM466:
 6527              	LBB46:
 6528 384e 8B85A8D7 		movl	-10328(%ebp), %eax
 6528      FFFF
GAS LISTING d:/MTK/MTK2503/MTK2503/11CW1418SP4_03_CORETEK03AE_11C_V1_GPRS_MMI/plutommi/Customer/ResGenerator/gcctmp/ccaodaaa.s 			page 118


 6529 3854 8944240C 		movl	%eax, 12(%esp)
 6530 3858 8B85B8D7 		movl	-10312(%ebp), %eax
 6530      FFFF
 6531 385e 89442408 		movl	%eax, 8(%esp)
 6532 3862 C7442404 		movl	$1, 4(%esp)
 6532      01000000 
 6533 386a 8B85BCD7 		movl	-10308(%ebp), %eax
 6533      FFFF
 6534 3870 890424   		movl	%eax, (%esp)
 6535 3873 E8000000 		call	_fwrite
 6535      00
 6536 3878 898598D7 		movl	%eax, -10344(%ebp)
 6536      FFFF
1772:../../MMI/Resource/WriteImgRes.c ****                         if (wsize != size)
 6538              	LM467:
 6539 387e 8B8598D7 		movl	-10344(%ebp), %eax
 6539      FFFF
 6540 3884 3B85B8D7 		cmpl	-10312(%ebp), %eax
 6540      FFFF
 6541 388a 7416     		je	L303
1773:../../MMI/Resource/WriteImgRes.c ****                         {
1774:../../MMI/Resource/WriteImgRes.c ****                             RES_PRINT_INFO("[BMP->ABM sequence] size not match:\t%s\n", filename);
 6543              	LM468:
 6544 388c 8D85F8DF 		leal	-8200(%ebp), %eax
 6544      FFFF
 6545 3892 89442404 		movl	%eax, 4(%esp)
 6546 3896 C7042440 		movl	$LC104, (%esp)
 6546      320000
 6547 389d E8000000 		call	_MtkResgenTrace
 6547      00
 6548              	L303:
1775:../../MMI/Resource/WriteImgRes.c ****                         }
1776:../../MMI/Resource/WriteImgRes.c ****                         fclose(outfp);
 6550              	LM469:
 6551 38a2 8B85A8D7 		movl	-10328(%ebp), %eax
 6551      FFFF
 6552 38a8 890424   		movl	%eax, (%esp)
 6553 38ab E8000000 		call	_fclose
 6553      00
 6554              	LBE46:
 6555 38b0 E97E0100 		jmp	L304
 6555      00
 6556              	L301:
1777:../../MMI/Resource/WriteImgRes.c ****                     }
1778:../../MMI/Resource/WriteImgRes.c ****                 }
1779:../../MMI/Resource/WriteImgRes.c ****                 else
1780:../../MMI/Resource/WriteImgRes.c ****                 {
1781:../../MMI/Resource/WriteImgRes.c ****                     if(ABM_ENC_RETURN_KEEP_ORIGINAL == ret) /* add for CMCC TD */
 6558              	LM470:
 6559 38b5 83BDACD7 		cmpl	$0, -10324(%ebp)
 6559      FFFF00
 6560 38bc 0F855B01 		jne	L305
 6560      0000
1782:../../MMI/Resource/WriteImgRes.c ****                     {
1783:../../MMI/Resource/WriteImgRes.c ****                         S32 isize = 0, risize = 0;
 6562              	LM471:
 6563              	LBB47:
GAS LISTING d:/MTK/MTK2503/MTK2503/11CW1418SP4_03_CORETEK03AE_11C_V1_GPRS_MMI/plutommi/Customer/ResGenerator/gcctmp/ccaodaaa.s 			page 119


 6564 38c2 C78598D7 		movl	$0, -10344(%ebp)
 6564      FFFF0000 
 6564      0000
 6565 38cc C78594D7 		movl	$0, -10348(%ebp)
 6565      FFFF0000 
 6565      0000
1784:../../MMI/Resource/WriteImgRes.c ****                         force_type = AUTO_TYPE;
 6567              	LM472:
 6568 38d6 C7451800 		movl	$0, 24(%ebp)
 6568      000000
1785:../../MMI/Resource/WriteImgRes.c ****                         
1786:../../MMI/Resource/WriteImgRes.c ****                         fseek(imgfp, 0, SEEK_END);
 6570              	LM473:
 6571 38dd C7442408 		movl	$2, 8(%esp)
 6571      02000000 
 6572 38e5 C7442404 		movl	$0, 4(%esp)
 6572      00000000 
 6573 38ed 8B85F4DF 		movl	-8204(%ebp), %eax
 6573      FFFF
 6574 38f3 890424   		movl	%eax, (%esp)
 6575 38f6 E8000000 		call	_fseek
 6575      00
1787:../../MMI/Resource/WriteImgRes.c ****                         isize = ftell(imgfp);
 6577              	LM474:
 6578 38fb 8B85F4DF 		movl	-8204(%ebp), %eax
 6578      FFFF
 6579 3901 890424   		movl	%eax, (%esp)
 6580 3904 E8000000 		call	_ftell
 6580      00
 6581 3909 898598D7 		movl	%eax, -10344(%ebp)
 6581      FFFF
1788:../../MMI/Resource/WriteImgRes.c ****                         fseek(imgfp, 0, SEEK_SET);
 6583              	LM475:
 6584 390f C7442408 		movl	$0, 8(%esp)
 6584      00000000 
 6585 3917 C7442404 		movl	$0, 4(%esp)
 6585      00000000 
 6586 391f 8B85F4DF 		movl	-8204(%ebp), %eax
 6586      FFFF
 6587 3925 890424   		movl	%eax, (%esp)
 6588 3928 E8000000 		call	_fseek
 6588      00
1789:../../MMI/Resource/WriteImgRes.c ****                         risize = fread(buffer, sizeof(U8), isize, imgfp);
 6590              	LM476:
 6591 392d 8B85F4DF 		movl	-8204(%ebp), %eax
 6591      FFFF
 6592 3933 8944240C 		movl	%eax, 12(%esp)
 6593 3937 8B8598D7 		movl	-10344(%ebp), %eax
 6593      FFFF
 6594 393d 89442408 		movl	%eax, 8(%esp)
 6595 3941 C7442404 		movl	$1, 4(%esp)
 6595      01000000 
 6596 3949 8B85BCD7 		movl	-10308(%ebp), %eax
 6596      FFFF
 6597 394f 890424   		movl	%eax, (%esp)
 6598 3952 E8000000 		call	_fread
 6598      00
GAS LISTING d:/MTK/MTK2503/MTK2503/11CW1418SP4_03_CORETEK03AE_11C_V1_GPRS_MMI/plutommi/Customer/ResGenerator/gcctmp/ccaodaaa.s 			page 120


 6599 3957 898594D7 		movl	%eax, -10348(%ebp)
 6599      FFFF
1790:../../MMI/Resource/WriteImgRes.c ****                         if(risize != isize)
 6601              	LM477:
 6602 395d 8B8594D7 		movl	-10348(%ebp), %eax
 6602      FFFF
 6603 3963 3B8598D7 		cmpl	-10344(%ebp), %eax
 6603      FFFF
 6604 3969 7416     		je	L306
1791:../../MMI/Resource/WriteImgRes.c ****                         {
1792:../../MMI/Resource/WriteImgRes.c ****                             RES_PRINT_INFO("[BMP->ABM sequence] read size not match:\t%s\n", filena
 6606              	LM478:
 6607 396b 8D85F8DF 		leal	-8200(%ebp), %eax
 6607      FFFF
 6608 3971 89442404 		movl	%eax, 4(%esp)
 6609 3975 C7042480 		movl	$LC105, (%esp)
 6609      320000
 6610 397c E8000000 		call	_MtkResgenTrace
 6610      00
 6611              	L306:
1793:../../MMI/Resource/WriteImgRes.c ****                         }
1794:../../MMI/Resource/WriteImgRes.c **** 				                
1795:../../MMI/Resource/WriteImgRes.c ****                         outfp = fopen(filename, "wb+");
 6613              	LM479:
 6614 3981 C7442404 		movl	$LC103, 4(%esp)
 6614      28320000 
 6615 3989 8D85F8DF 		leal	-8200(%ebp), %eax
 6615      FFFF
 6616 398f 890424   		movl	%eax, (%esp)
 6617 3992 E8000000 		call	_fopen
 6617      00
 6618 3997 8985A8D7 		movl	%eax, -10328(%ebp)
 6618      FFFF
1796:../../MMI/Resource/WriteImgRes.c ****                         if (outfp != NULL)
 6620              	LM480:
 6621 399d 83BDA8D7 		cmpl	$0, -10328(%ebp)
 6621      FFFF00
 6622 39a4 7462     		je	L307
1797:../../MMI/Resource/WriteImgRes.c ****                         {
1798:../../MMI/Resource/WriteImgRes.c ****                             S32 wsize;
1799:../../MMI/Resource/WriteImgRes.c **** 		                        
1800:../../MMI/Resource/WriteImgRes.c ****                             wsize = fwrite(buffer, sizeof(U8), risize, outfp);
 6624              	LM481:
 6625              	LBB48:
 6626 39a6 8B85A8D7 		movl	-10328(%ebp), %eax
 6626      FFFF
 6627 39ac 8944240C 		movl	%eax, 12(%esp)
 6628 39b0 8B8594D7 		movl	-10348(%ebp), %eax
 6628      FFFF
 6629 39b6 89442408 		movl	%eax, 8(%esp)
 6630 39ba C7442404 		movl	$1, 4(%esp)
 6630      01000000 
 6631 39c2 8B85BCD7 		movl	-10308(%ebp), %eax
 6631      FFFF
 6632 39c8 890424   		movl	%eax, (%esp)
 6633 39cb E8000000 		call	_fwrite
 6633      00
GAS LISTING d:/MTK/MTK2503/MTK2503/11CW1418SP4_03_CORETEK03AE_11C_V1_GPRS_MMI/plutommi/Customer/ResGenerator/gcctmp/ccaodaaa.s 			page 121


 6634 39d0 898590D7 		movl	%eax, -10352(%ebp)
 6634      FFFF
1801:../../MMI/Resource/WriteImgRes.c ****                             if (wsize != risize)
 6636              	LM482:
 6637 39d6 8B8590D7 		movl	-10352(%ebp), %eax
 6637      FFFF
 6638 39dc 3B8594D7 		cmpl	-10348(%ebp), %eax
 6638      FFFF
 6639 39e2 7416     		je	L308
1802:../../MMI/Resource/WriteImgRes.c ****                             {
1803:../../MMI/Resource/WriteImgRes.c ****                                 RES_PRINT_INFO("[BMP->ABM sequence] write size not match:\t%s\n", f
 6641              	LM483:
 6642 39e4 8D85F8DF 		leal	-8200(%ebp), %eax
 6642      FFFF
 6643 39ea 89442404 		movl	%eax, 4(%esp)
 6644 39ee C70424C0 		movl	$LC106, (%esp)
 6644      320000
 6645 39f5 E8000000 		call	_MtkResgenTrace
 6645      00
 6646              	L308:
1804:../../MMI/Resource/WriteImgRes.c ****                             }
1805:../../MMI/Resource/WriteImgRes.c ****                             fclose(outfp);
 6648              	LM484:
 6649 39fa 8B85A8D7 		movl	-10328(%ebp), %eax
 6649      FFFF
 6650 3a00 890424   		movl	%eax, (%esp)
 6651 3a03 E8000000 		call	_fclose
 6651      00
 6652              	L307:
1806:../../MMI/Resource/WriteImgRes.c ****                         }
1807:../../MMI/Resource/WriteImgRes.c ****                         sequential_filesize[j] = isize;
 6654              	LM485:
 6655              	LBE48:
 6656 3a08 8B95D0DF 		movl	-8240(%ebp), %edx
 6656      FFFF
 6657 3a0e 8B8598D7 		movl	-10344(%ebp), %eax
 6657      FFFF
 6658 3a14 898495F8 		movl	%eax, -2056(%ebp,%edx,4)
 6658      F7FFFF
 6659              	LBE47:
 6660 3a1b EB16     		jmp	L304
 6661              	L305:
1808:../../MMI/Resource/WriteImgRes.c ****                     }
1809:../../MMI/Resource/WriteImgRes.c ****                     else
1810:../../MMI/Resource/WriteImgRes.c ****                     {
1811:../../MMI/Resource/WriteImgRes.c ****                         RES_PRINT_INFO("[BMP->ABM sequence] err encode format:\t%s\n", filename);
 6663              	LM486:
 6664 3a1d 8D85F8DF 		leal	-8200(%ebp), %eax
 6664      FFFF
 6665 3a23 89442404 		movl	%eax, 4(%esp)
 6666 3a27 C7042400 		movl	$LC107, (%esp)
 6666      330000
 6667 3a2e E8000000 		call	_MtkResgenTrace
 6667      00
 6668              	L304:
1812:../../MMI/Resource/WriteImgRes.c ****                     }
1813:../../MMI/Resource/WriteImgRes.c ****                 }
GAS LISTING d:/MTK/MTK2503/MTK2503/11CW1418SP4_03_CORETEK03AE_11C_V1_GPRS_MMI/plutommi/Customer/ResGenerator/gcctmp/ccaodaaa.s 			page 122


1814:../../MMI/Resource/WriteImgRes.c **** 
1815:../../MMI/Resource/WriteImgRes.c ****                 free(buffer);
 6670              	LM487:
 6671 3a33 8B85BCD7 		movl	-10308(%ebp), %eax
 6671      FFFF
 6672 3a39 890424   		movl	%eax, (%esp)
 6673 3a3c E8000000 		call	_free
 6673      00
 6674              	LBE45:
 6675 3a41 E9F60200 		jmp	L310
 6675      00
 6676              	L299:
1816:../../MMI/Resource/WriteImgRes.c ****             }
1817:../../MMI/Resource/WriteImgRes.c **** #if defined(__MMI_ALPHA_BLENDING__) //&& !defined(GDI_USING_HW_PNG)
1818:../../MMI/Resource/WriteImgRes.c ****             /* If PNG, we will convert it to ABM or AB2 */
1819:../../MMI/Resource/WriteImgRes.c ****             else if (sequential_image[type].file_type == IMAGE_TYPE_ABM_SEQUENCE ||
 6678              	LM488:
 6679 3a46 8B85E4DF 		movl	-8220(%ebp), %eax
 6679      FFFF
 6680 3a4c 803CC504 		cmpb	$41, _sequential_image+4(,%eax,8)
 6680      00000029 
 6681 3a54 742F     		je	L312
 6682 3a56 8B85E4DF 		movl	-8220(%ebp), %eax
 6682      FFFF
 6683 3a5c 803CC504 		cmpb	$53, _sequential_image+4(,%eax,8)
 6683      00000035 
 6684 3a64 741F     		je	L312
 6685 3a66 8B85E4DF 		movl	-8220(%ebp), %eax
 6685      FFFF
 6686 3a6c 803CC504 		cmpb	$21, _sequential_image+4(,%eax,8)
 6686      00000015 
 6687 3a74 0F856B02 		jne	L311
 6687      0000
 6688 3a7a 837D1804 		cmpl	$4, 24(%ebp)
 6689 3a7e 7405     		je	L312
 6690 3a80 E9600200 		jmp	L311
 6690      00
 6691              	L312:
1820:../../MMI/Resource/WriteImgRes.c ****                 sequential_image[type].file_type == IMAGE_TYPE_AB2_SEQUENCE ||
1821:../../MMI/Resource/WriteImgRes.c ****                 (sequential_image[type].file_type == IMAGE_TYPE_PNG_SEQUENCE && force_type == FORCE
1822:../../MMI/Resource/WriteImgRes.c ****             {
1823:../../MMI/Resource/WriteImgRes.c ****                 S8 tempBMPFile[BUFFER_SIZE];
1824:../../MMI/Resource/WriteImgRes.c ****                 S8 tempCommand[SHELL_CMD_BUFLEN];
1825:../../MMI/Resource/WriteImgRes.c ****                 U8 *buffer;
1826:../../MMI/Resource/WriteImgRes.c ****                 S32 size, width, height, ret;
1827:../../MMI/Resource/WriteImgRes.c ****                 FILE *outfp = NULL;
 6693              	LM489:
 6694              	LBB49:
 6695 3a85 C785A4D7 		movl	$0, -10332(%ebp)
 6695      FFFF0000 
 6695      0000
1828:../../MMI/Resource/WriteImgRes.c **** 
1829:../../MMI/Resource/WriteImgRes.c ****                 const char *ext = "abms";
 6697              	LM490:
 6698 3a8f C785A8D7 		movl	$LC101, -10328(%ebp)
 6698      FFFFEF31 
 6698      0000
GAS LISTING d:/MTK/MTK2503/MTK2503/11CW1418SP4_03_CORETEK03AE_11C_V1_GPRS_MMI/plutommi/Customer/ResGenerator/gcctmp/ccaodaaa.s 			page 123


1830:../../MMI/Resource/WriteImgRes.c ****                 U32 encode_option = ABM_ENC_OPTION_FLAG_ABM; /* ABM exactly */
 6700              	LM491:
 6701 3a99 C785ACD7 		movl	$2, -10324(%ebp)
 6701      FFFF0200 
 6701      0000
1831:../../MMI/Resource/WriteImgRes.c ****                 U32 want_ret = ABM_ENC_RETURN_USE_ABM;
 6703              	LM492:
 6704 3aa3 C785BCD7 		movl	$1, -10308(%ebp)
 6704      FFFF0100 
 6704      0000
1832:../../MMI/Resource/WriteImgRes.c **** 
1833:../../MMI/Resource/WriteImgRes.c ****                 /* decide which format */
1834:../../MMI/Resource/WriteImgRes.c ****                 if (sequential_image[type].file_type == IMAGE_TYPE_AB2_SEQUENCE)
 6706              	LM493:
 6707 3aad 8B85E4DF 		movl	-8220(%ebp), %eax
 6707      FFFF
 6708 3ab3 803CC504 		cmpb	$53, _sequential_image+4(,%eax,8)
 6708      00000035 
 6709 3abb 751E     		jne	L313
1835:../../MMI/Resource/WriteImgRes.c ****                 {
1836:../../MMI/Resource/WriteImgRes.c ****                     const char *ext = "ab2s";
 6711              	LM494:
 6712              	LBB50:
 6713 3abd C78514C5 		movl	$LC108, -15084(%ebp)
 6713      FFFF2B33 
 6713      0000
1837:../../MMI/Resource/WriteImgRes.c ****                     U32 encode_option = ABM_ENC_OPTION_FLAG_AB2; /* AB2 exactly */
 6715              	LM495:
 6716 3ac7 C78510C5 		movl	$4, -15088(%ebp)
 6716      FFFF0400 
 6716      0000
1838:../../MMI/Resource/WriteImgRes.c ****                     U32 want_ret = ABM_ENC_RETURN_USE_AB2;
 6718              	LM496:
 6719 3ad1 C7850CC5 		movl	$2, -15092(%ebp)
 6719      FFFF0200 
 6719      0000
 6720              	L313:
1839:../../MMI/Resource/WriteImgRes.c ****                 }
1840:../../MMI/Resource/WriteImgRes.c **** 
1841:../../MMI/Resource/WriteImgRes.c ****                 /* convert PNG to 32-bits BMP */
1842:../../MMI/Resource/WriteImgRes.c ****                 strcpy((char*)tempBMPFile, (const char*)filename);
 6722              	LM497:
 6723              	LBE50:
 6724 3adb 8D85F8DF 		leal	-8200(%ebp), %eax
 6724      FFFF
 6725 3ae1 89442404 		movl	%eax, 4(%esp)
 6726 3ae5 8D8588C7 		leal	-14456(%ebp), %eax
 6726      FFFF
 6727 3aeb 890424   		movl	%eax, (%esp)
 6728 3aee E8000000 		call	_strcpy
 6728      00
1843:../../MMI/Resource/WriteImgRes.c ****                 ChangeExtension(tempBMPFile, RES_IMAGE, IMAGE_TYPE_BMP);
 6730              	LM498:
 6731 3af3 C7442408 		movl	$1, 8(%esp)
 6731      01000000 
 6732 3afb C7442404 		movl	$0, 4(%esp)
 6732      00000000 
GAS LISTING d:/MTK/MTK2503/MTK2503/11CW1418SP4_03_CORETEK03AE_11C_V1_GPRS_MMI/plutommi/Customer/ResGenerator/gcctmp/ccaodaaa.s 			page 124


 6733 3b03 8D8588C7 		leal	-14456(%ebp), %eax
 6733      FFFF
 6734 3b09 890424   		movl	%eax, (%esp)
 6735 3b0c E8000000 		call	_ChangeExtension
 6735      00
1844:../../MMI/Resource/WriteImgRes.c ****                 //sprintf(tempCommand, ".\\\\convert.exe -channel Alpha -negate -compress none %s %
1845:../../MMI/Resource/WriteImgRes.c ****                 sprintf(tempCommand, ".\\\\convert.exe -channel Alpha -negate -compress none %s %s 
 6737              	LM499:
 6738 3b11 8D8588C7 		leal	-14456(%ebp), %eax
 6738      FFFF
 6739 3b17 8944240C 		movl	%eax, 12(%esp)
 6740 3b1b 8D85F8DF 		leal	-8200(%ebp), %eax
 6740      FFFF
 6741 3b21 89442408 		movl	%eax, 8(%esp)
 6742 3b25 C7442404 		movl	$LC109, 4(%esp)
 6742      40330000 
 6743 3b2d 8D8518C5 		leal	-15080(%ebp), %eax
 6743      FFFF
 6744 3b33 890424   		movl	%eax, (%esp)
 6745 3b36 E8000000 		call	_sprintf
 6745      00
1846:../../MMI/Resource/WriteImgRes.c ****                 RES_PRINT_INFO("%s\n", tempCommand);
 6747              	LM500:
 6748 3b3b 8D8518C5 		leal	-15080(%ebp), %eax
 6748      FFFF
 6749 3b41 89442404 		movl	%eax, 4(%esp)
 6750 3b45 C7042449 		movl	$LC52, (%esp)
 6750      0C0000
 6751 3b4c E8000000 		call	_MtkResgenTrace
 6751      00
1847:../../MMI/Resource/WriteImgRes.c ****                 system(tempCommand);
 6753              	LM501:
 6754 3b51 8D8518C5 		leal	-15080(%ebp), %eax
 6754      FFFF
 6755 3b57 890424   		movl	%eax, (%esp)
 6756 3b5a E8000000 		call	_system
 6756      00
1848:../../MMI/Resource/WriteImgRes.c **** 
1849:../../MMI/Resource/WriteImgRes.c ****                 /* convert 32-bits BMP to ABM */
1850:../../MMI/Resource/WriteImgRes.c ****                 buffer = (U8*)malloc(ABMENC_BMP_FILE_BUFFER_SIZE*sizeof(U8));
 6758              	LM502:
 6759 3b5f C7042400 		movl	$16777216, (%esp)
 6759      000001
 6760 3b66 E8000000 		call	_malloc
 6760      00
 6761 3b6b 898590D7 		movl	%eax, -10352(%ebp)
 6761      FFFF
1851:../../MMI/Resource/WriteImgRes.c ****                 ASSERT(buffer != NULL);
 6763              	LM503:
 6764 3b71 83BD90D7 		cmpl	$0, -10352(%ebp)
 6764      FFFF00
 6765 3b78 7502     		jne	L318
 6766              	L315:
 6767 3b7a EBFE     		jmp	L315
 6768              	L318:
1852:../../MMI/Resource/WriteImgRes.c **** 
1853:../../MMI/Resource/WriteImgRes.c ****                 ret = ABM_load(tempBMPFile,
GAS LISTING d:/MTK/MTK2503/MTK2503/11CW1418SP4_03_CORETEK03AE_11C_V1_GPRS_MMI/plutommi/Customer/ResGenerator/gcctmp/ccaodaaa.s 			page 125


 6770              	LM504:
 6771 3b7c 8B451C   		movl	28(%ebp), %eax
 6772 3b7f 89442424 		movl	%eax, 36(%esp)
 6773 3b83 8B4514   		movl	20(%ebp), %eax
 6774 3b86 89442420 		movl	%eax, 32(%esp)
 6775 3b8a 8D859CD7 		leal	-10340(%ebp), %eax
 6775      FFFF
 6776 3b90 8944241C 		movl	%eax, 28(%esp)
 6777 3b94 8D8598D7 		leal	-10344(%ebp), %eax
 6777      FFFF
 6778 3b9a 89442418 		movl	%eax, 24(%esp)
 6779 3b9e 8D8594D7 		leal	-10348(%ebp), %eax
 6779      FFFF
 6780 3ba4 89442414 		movl	%eax, 20(%esp)
 6781 3ba8 8B8590D7 		movl	-10352(%ebp), %eax
 6781      FFFF
 6782 3bae 89442410 		movl	%eax, 16(%esp)
 6783 3bb2 8B85ACD7 		movl	-10324(%ebp), %eax
 6783      FFFF
 6784 3bb8 8944240C 		movl	%eax, 12(%esp)
 6785 3bbc C7442408 		movl	$19, 8(%esp)
 6785      13000000 
 6786 3bc4 C7442404 		movl	$16, 4(%esp)
 6786      10000000 
 6787 3bcc 8D8588C7 		leal	-14456(%ebp), %eax
 6787      FFFF
 6788 3bd2 890424   		movl	%eax, (%esp)
 6789 3bd5 E8000000 		call	_ABM_load
 6789      00
 6790 3bda 8985A0D7 		movl	%eax, -10336(%ebp)
 6790      FFFF
1854:../../MMI/Resource/WriteImgRes.c ****                         __MMI_DEVICE_BMP_FORMAT__,
1855:../../MMI/Resource/WriteImgRes.c ****                         IMAGE_TYPE_PNG, /* non PBM */
1856:../../MMI/Resource/WriteImgRes.c ****                         encode_option,
1857:../../MMI/Resource/WriteImgRes.c ****                         buffer,
1858:../../MMI/Resource/WriteImgRes.c ****                         &size, &width, &height, is9slice, processData);
1859:../../MMI/Resource/WriteImgRes.c **** 
1860:../../MMI/Resource/WriteImgRes.c ****                 sequential_filesize[j] = size;
 6792              	LM505:
 6793 3be0 8B95D0DF 		movl	-8240(%ebp), %edx
 6793      FFFF
 6794 3be6 8B8594D7 		movl	-10348(%ebp), %eax
 6794      FFFF
 6795 3bec 898495F8 		movl	%eax, -2056(%ebp,%edx,4)
 6795      F7FFFF
1861:../../MMI/Resource/WriteImgRes.c **** 
1862:../../MMI/Resource/WriteImgRes.c ****                 sprintf(tempBMPFile, "%s\\\\%d.%s", pathname, j, ext);
 6797              	LM506:
 6798 3bf3 8B85A8D7 		movl	-10328(%ebp), %eax
 6798      FFFF
 6799 3bf9 89442410 		movl	%eax, 16(%esp)
 6800 3bfd 8B85D0DF 		movl	-8240(%ebp), %eax
 6800      FFFF
 6801 3c03 8944240C 		movl	%eax, 12(%esp)
 6802 3c07 8B4508   		movl	8(%ebp), %eax
 6803 3c0a 89442408 		movl	%eax, 8(%esp)
 6804 3c0e C7442404 		movl	$LC100, 4(%esp)
GAS LISTING d:/MTK/MTK2503/MTK2503/11CW1418SP4_03_CORETEK03AE_11C_V1_GPRS_MMI/plutommi/Customer/ResGenerator/gcctmp/ccaodaaa.s 			page 126


 6804      E5310000 
 6805 3c16 8D8588C7 		leal	-14456(%ebp), %eax
 6805      FFFF
 6806 3c1c 890424   		movl	%eax, (%esp)
 6807 3c1f E8000000 		call	_sprintf
 6807      00
1863:../../MMI/Resource/WriteImgRes.c ****                 if (ret == want_ret)
 6809              	LM507:
 6810 3c24 8B85A0D7 		movl	-10336(%ebp), %eax
 6810      FFFF
 6811 3c2a 3B85BCD7 		cmpl	-10308(%ebp), %eax
 6811      FFFF
 6812 3c30 0F858900 		jne	L319
 6812      0000
1864:../../MMI/Resource/WriteImgRes.c ****                 {
1865:../../MMI/Resource/WriteImgRes.c ****                     outfp = fopen(tempBMPFile, "wb+");
 6814              	LM508:
 6815 3c36 C7442404 		movl	$LC103, 4(%esp)
 6815      28320000 
 6816 3c3e 8D8588C7 		leal	-14456(%ebp), %eax
 6816      FFFF
 6817 3c44 890424   		movl	%eax, (%esp)
 6818 3c47 E8000000 		call	_fopen
 6818      00
 6819 3c4c 8985A4D7 		movl	%eax, -10332(%ebp)
 6819      FFFF
1866:../../MMI/Resource/WriteImgRes.c ****                     if (outfp != NULL)
 6821              	LM509:
 6822 3c52 83BDA4D7 		cmpl	$0, -10332(%ebp)
 6822      FFFF00
 6823 3c59 747A     		je	L322
1867:../../MMI/Resource/WriteImgRes.c ****                     {
1868:../../MMI/Resource/WriteImgRes.c ****                         S32 wsize;
1869:../../MMI/Resource/WriteImgRes.c **** 
1870:../../MMI/Resource/WriteImgRes.c ****                         wsize = fwrite(buffer, sizeof(U8), size, outfp);
 6825              	LM510:
 6826              	LBB51:
 6827 3c5b 8B85A4D7 		movl	-10332(%ebp), %eax
 6827      FFFF
 6828 3c61 8944240C 		movl	%eax, 12(%esp)
 6829 3c65 8B8594D7 		movl	-10348(%ebp), %eax
 6829      FFFF
 6830 3c6b 89442408 		movl	%eax, 8(%esp)
 6831 3c6f C7442404 		movl	$1, 4(%esp)
 6831      01000000 
 6832 3c77 8B8590D7 		movl	-10352(%ebp), %eax
 6832      FFFF
 6833 3c7d 890424   		movl	%eax, (%esp)
 6834 3c80 E8000000 		call	_fwrite
 6834      00
 6835 3c85 89850CC5 		movl	%eax, -15092(%ebp)
 6835      FFFF
1871:../../MMI/Resource/WriteImgRes.c ****                         if (wsize != size)
 6837              	LM511:
 6838 3c8b 8B850CC5 		movl	-15092(%ebp), %eax
 6838      FFFF
 6839 3c91 3B8594D7 		cmpl	-10348(%ebp), %eax
GAS LISTING d:/MTK/MTK2503/MTK2503/11CW1418SP4_03_CORETEK03AE_11C_V1_GPRS_MMI/plutommi/Customer/ResGenerator/gcctmp/ccaodaaa.s 			page 127


 6839      FFFF
 6840 3c97 7416     		je	L321
1872:../../MMI/Resource/WriteImgRes.c ****                         {
1873:../../MMI/Resource/WriteImgRes.c ****                             RES_PRINT_INFO("[ABM sequence] size not match:\t%s\n", tempBMPFile);
 6842              	LM512:
 6843 3c99 8D8588C7 		leal	-14456(%ebp), %eax
 6843      FFFF
 6844 3c9f 89442404 		movl	%eax, 4(%esp)
 6845 3ca3 C70424A0 		movl	$LC110, (%esp)
 6845      330000
 6846 3caa E8000000 		call	_MtkResgenTrace
 6846      00
 6847              	L321:
1874:../../MMI/Resource/WriteImgRes.c ****                         }
1875:../../MMI/Resource/WriteImgRes.c ****                         fclose(outfp);
 6849              	LM513:
 6850 3caf 8B85A4D7 		movl	-10332(%ebp), %eax
 6850      FFFF
 6851 3cb5 890424   		movl	%eax, (%esp)
 6852 3cb8 E8000000 		call	_fclose
 6852      00
 6853              	LBE51:
 6854 3cbd EB16     		jmp	L322
 6855              	L319:
1876:../../MMI/Resource/WriteImgRes.c ****                     }
1877:../../MMI/Resource/WriteImgRes.c ****                 }
1878:../../MMI/Resource/WriteImgRes.c ****                 else
1879:../../MMI/Resource/WriteImgRes.c ****                 {
1880:../../MMI/Resource/WriteImgRes.c ****                     RES_PRINT_INFO("[ABM sequence] err encode format:\t%s\n", tempBMPFile);
 6857              	LM514:
 6858 3cbf 8D8588C7 		leal	-14456(%ebp), %eax
 6858      FFFF
 6859 3cc5 89442404 		movl	%eax, 4(%esp)
 6860 3cc9 C70424E0 		movl	$LC111, (%esp)
 6860      330000
 6861 3cd0 E8000000 		call	_MtkResgenTrace
 6861      00
 6862              	L322:
1881:../../MMI/Resource/WriteImgRes.c ****                 }
1882:../../MMI/Resource/WriteImgRes.c **** 
1883:../../MMI/Resource/WriteImgRes.c ****                 free(buffer);
 6864              	LM515:
 6865 3cd5 8B8590D7 		movl	-10352(%ebp), %eax
 6865      FFFF
 6866 3cdb 890424   		movl	%eax, (%esp)
 6867 3cde E8000000 		call	_free
 6867      00
 6868              	LBE49:
 6869 3ce3 EB57     		jmp	L310
 6870              	L311:
1884:../../MMI/Resource/WriteImgRes.c ****             }
1885:../../MMI/Resource/WriteImgRes.c **** #endif /* defined(__MMI_ALPHA_BLENDING__) && !defined(GDI_USING_HW_PNG) */
1886:../../MMI/Resource/WriteImgRes.c ****             else
1887:../../MMI/Resource/WriteImgRes.c ****             {
1888:../../MMI/Resource/WriteImgRes.c ****                 fseek(imgfp, 0, SEEK_END);
 6872              	LM516:
 6873 3ce5 C7442408 		movl	$2, 8(%esp)
GAS LISTING d:/MTK/MTK2503/MTK2503/11CW1418SP4_03_CORETEK03AE_11C_V1_GPRS_MMI/plutommi/Customer/ResGenerator/gcctmp/ccaodaaa.s 			page 128


 6873      02000000 
 6874 3ced C7442404 		movl	$0, 4(%esp)
 6874      00000000 
 6875 3cf5 8B85F4DF 		movl	-8204(%ebp), %eax
 6875      FFFF
 6876 3cfb 890424   		movl	%eax, (%esp)
 6877 3cfe E8000000 		call	_fseek
 6877      00
1889:../../MMI/Resource/WriteImgRes.c ****                 sequential_filesize[j] = ftell(imgfp);
 6879              	LM517:
 6880 3d03 8B9DD0DF 		movl	-8240(%ebp), %ebx
 6880      FFFF
 6881 3d09 8B85F4DF 		movl	-8204(%ebp), %eax
 6881      FFFF
 6882 3d0f 890424   		movl	%eax, (%esp)
 6883 3d12 E8000000 		call	_ftell
 6883      00
 6884 3d17 89849DF8 		movl	%eax, -2056(%ebp,%ebx,4)
 6884      F7FFFF
1890:../../MMI/Resource/WriteImgRes.c ****                 fseek(imgfp, 0, SEEK_SET);
 6886              	LM518:
 6887 3d1e C7442408 		movl	$0, 8(%esp)
 6887      00000000 
 6888 3d26 C7442404 		movl	$0, 4(%esp)
 6888      00000000 
 6889 3d2e 8B85F4DF 		movl	-8204(%ebp), %eax
 6889      FFFF
 6890 3d34 890424   		movl	%eax, (%esp)
 6891 3d37 E8000000 		call	_fseek
 6891      00
 6892              	L310:
1891:../../MMI/Resource/WriteImgRes.c ****             }
1892:../../MMI/Resource/WriteImgRes.c **** 
1893:../../MMI/Resource/WriteImgRes.c ****             MYFCLOSE(imgfp);
 6894              	LM519:
 6895 3d3c 83BDF4DF 		cmpl	$0, -8204(%ebp)
 6895      FFFF00
 6896 3d43 7429     		je	L296
 6897 3d45 8B85F4DF 		movl	-8204(%ebp), %eax
 6897      FFFF
 6898 3d4b 890424   		movl	%eax, (%esp)
 6899 3d4e E8000000 		call	_fclose
 6899      00
 6900 3d53 C785F4DF 		movl	$0, -8204(%ebp)
 6900      FFFF0000 
 6900      0000
 6901 3d5d EB0F     		jmp	L296
 6902              	L298:
1894:../../MMI/Resource/WriteImgRes.c ****         }
1895:../../MMI/Resource/WriteImgRes.c ****         else
1896:../../MMI/Resource/WriteImgRes.c ****         {
1897:../../MMI/Resource/WriteImgRes.c ****             return MMI_FALSE;
 6904              	LM520:
 6905 3d5f C78508C5 		movl	$0, -15096(%ebp)
 6905      FFFF0000 
 6905      0000
 6906 3d69 E9160400 		jmp	L278
GAS LISTING d:/MTK/MTK2503/MTK2503/11CW1418SP4_03_CORETEK03AE_11C_V1_GPRS_MMI/plutommi/Customer/ResGenerator/gcctmp/ccaodaaa.s 			page 129


 6906      00
 6908              	LM521:
 6909              	L296:
 6910 3d6e 8D85D0DF 		leal	-8240(%ebp), %eax
 6910      FFFF
 6911 3d74 FF00     		incl	(%eax)
 6912 3d76 E9E3F8FF 		jmp	L294
 6912      FF
 6913              	L295:
1898:../../MMI/Resource/WriteImgRes.c ****         }
1899:../../MMI/Resource/WriteImgRes.c ****     }
1900:../../MMI/Resource/WriteImgRes.c **** 
1901:../../MMI/Resource/WriteImgRes.c ****     /* write each image raw data */
1902:../../MMI/Resource/WriteImgRes.c **** #ifdef __MMI_RESOURCE_ENFB_SUPPORT__
1903:../../MMI/Resource/WriteImgRes.c ****     sprintf(filename, "%s\\\\0.%s", pathname, sequential_image[type].filename_ext);
1904:../../MMI/Resource/WriteImgRes.c ****     enfb_ret = Image_Test(filename, &enfb_width, &enfb_height, processData->disable_enfb);
1905:../../MMI/Resource/WriteImgRes.c ****     if (enfb_ret!= ENFB_IMAGE_NONE)
1906:../../MMI/Resource/WriteImgRes.c ****     {
1907:../../MMI/Resource/WriteImgRes.c ****         processData->enfb_flag = 1;
1908:../../MMI/Resource/WriteImgRes.c ****         if (enfb_ret == ENFB_IMAGE_ASSOCIATE)
1909:../../MMI/Resource/WriteImgRes.c ****         {
1910:../../MMI/Resource/WriteImgRes.c ****             ENFBAssociatedIDAdded = MMI_TRUE;
1911:../../MMI/Resource/WriteImgRes.c ****         }
1912:../../MMI/Resource/WriteImgRes.c ****     }
1913:../../MMI/Resource/WriteImgRes.c **** #endif
1914:../../MMI/Resource/WriteImgRes.c **** 
1915:../../MMI/Resource/WriteImgRes.c ****     sequential_frame = sequence_counter;
 6915              	LM522:
 6916 3d7b 8B85ECDF 		movl	-8212(%ebp), %eax
 6916      FFFF
 6917 3d81 8985F0DF 		movl	%eax, -8208(%ebp)
 6917      FFFF
1916:../../MMI/Resource/WriteImgRes.c **** 
1917:../../MMI/Resource/WriteImgRes.c ****     /* construct the data structure name */
1918:../../MMI/Resource/WriteImgRes.c ****     ImageOutStreamPrintf(outstream, "__align(4) const U8 %s%s", output_name, OUTPUT_IMAGE_NAMES_END
 6919              	LM523:
 6920 3d87 C744240C 		movl	$LC78, 12(%esp)
 6920      E1250000 
 6921 3d8f 8B450C   		movl	12(%ebp), %eax
 6922 3d92 89442408 		movl	%eax, 8(%esp)
 6923 3d96 C7442404 		movl	$LC112, 4(%esp)
 6923      06340000 
 6924 3d9e 8B4510   		movl	16(%ebp), %eax
 6925 3da1 890424   		movl	%eax, (%esp)
 6926 3da4 E8000000 		call	_ImageOutStreamPrintf
 6926      00
1919:../../MMI/Resource/WriteImgRes.c **** 
1920:../../MMI/Resource/WriteImgRes.c ****     /* get width and height */
1921:../../MMI/Resource/WriteImgRes.c ****     for (j = 0; j < sequence_counter; j++)
 6928              	LM524:
 6929 3da9 C785D0DF 		movl	$0, -8240(%ebp)
 6929      FFFF0000 
 6929      0000
 6930              	L327:
 6931 3db3 8B85D0DF 		movl	-8240(%ebp), %eax
 6931      FFFF
 6932 3db9 3B85ECDF 		cmpl	-8212(%ebp), %eax
GAS LISTING d:/MTK/MTK2503/MTK2503/11CW1418SP4_03_CORETEK03AE_11C_V1_GPRS_MMI/plutommi/Customer/ResGenerator/gcctmp/ccaodaaa.s 			page 130


 6932      FFFF
 6933 3dbf 7C05     		jl	L330
 6934 3dc1 E9E30000 		jmp	L328
 6934      00
 6935              	L330:
1922:../../MMI/Resource/WriteImgRes.c ****     {
1923:../../MMI/Resource/WriteImgRes.c ****         sprintf(filename, "%s\\\\%d.%s", pathname, j, sequential_image[type].filename_ext);
 6937              	LM525:
 6938 3dc6 8B85E4DF 		movl	-8220(%ebp), %eax
 6938      FFFF
 6939 3dcc 8B04C500 		movl	_sequential_image(,%eax,8), %eax
 6939      000000
 6940 3dd3 89442410 		movl	%eax, 16(%esp)
 6941 3dd7 8B85D0DF 		movl	-8240(%ebp), %eax
 6941      FFFF
 6942 3ddd 8944240C 		movl	%eax, 12(%esp)
 6943 3de1 8B4508   		movl	8(%ebp), %eax
 6944 3de4 89442408 		movl	%eax, 8(%esp)
 6945 3de8 C7442404 		movl	$LC100, 4(%esp)
 6945      E5310000 
 6946 3df0 8D85F8DF 		leal	-8200(%ebp), %eax
 6946      FFFF
 6947 3df6 890424   		movl	%eax, (%esp)
 6948 3df9 E8000000 		call	_sprintf
 6948      00
1924:../../MMI/Resource/WriteImgRes.c ****         if (file_exist(filename) )
 6950              	LM526:
 6951 3dfe 8D85F8DF 		leal	-8200(%ebp), %eax
 6951      FFFF
 6952 3e04 890424   		movl	%eax, (%esp)
 6953 3e07 E8000000 		call	_file_exist
 6953      00
 6954 3e0c 85C0     		testl	%eax, %eax
 6955 3e0e 747D     		je	L331
1925:../../MMI/Resource/WriteImgRes.c ****         {
1926:../../MMI/Resource/WriteImgRes.c ****             n_frames = Image_Get_Dimensions(filename, &width, &height);
 6957              	LM527:
 6958 3e10 8D85DCDF 		leal	-8228(%ebp), %eax
 6958      FFFF
 6959 3e16 89442408 		movl	%eax, 8(%esp)
 6960 3e1a 8D85E0DF 		leal	-8224(%ebp), %eax
 6960      FFFF
 6961 3e20 89442404 		movl	%eax, 4(%esp)
 6962 3e24 8D85F8DF 		leal	-8200(%ebp), %eax
 6962      FFFF
 6963 3e2a 890424   		movl	%eax, (%esp)
 6964 3e2d E8000000 		call	_Image_Get_Dimensions
 6964      00
 6965 3e32 8985E8DF 		movl	%eax, -8216(%ebp)
 6965      FFFF
1927:../../MMI/Resource/WriteImgRes.c ****             if (n_frames < 1)
 6967              	LM528:
 6968 3e38 83BDE8DF 		cmpl	$0, -8216(%ebp)
 6968      FFFF00
 6969 3e3f 7F16     		jg	L332
1928:../../MMI/Resource/WriteImgRes.c ****             {
1929:../../MMI/Resource/WriteImgRes.c ****                 RES_PRINT_INFO("Image get dimensions failed:\t%s\n", filename);
GAS LISTING d:/MTK/MTK2503/MTK2503/11CW1418SP4_03_CORETEK03AE_11C_V1_GPRS_MMI/plutommi/Customer/ResGenerator/gcctmp/ccaodaaa.s 			page 131


 6971              	LM529:
 6972 3e41 8D85F8DF 		leal	-8200(%ebp), %eax
 6972      FFFF
 6973 3e47 89442404 		movl	%eax, 4(%esp)
 6974 3e4b C7042420 		movl	$LC113, (%esp)
 6974      340000
 6975 3e52 E8000000 		call	_MtkResgenTrace
 6975      00
 6976              	L332:
1930:../../MMI/Resource/WriteImgRes.c ****             }
1931:../../MMI/Resource/WriteImgRes.c ****             if (width > seq_max_width)
 6978              	LM530:
 6979 3e57 8B85E0DF 		movl	-8224(%ebp), %eax
 6979      FFFF
 6980 3e5d 3B85D8DF 		cmpl	-8232(%ebp), %eax
 6980      FFFF
 6981 3e63 760C     		jbe	L333
1932:../../MMI/Resource/WriteImgRes.c ****             {
1933:../../MMI/Resource/WriteImgRes.c ****                 seq_max_width = width;
 6983              	LM531:
 6984 3e65 8B85E0DF 		movl	-8224(%ebp), %eax
 6984      FFFF
 6985 3e6b 8985D8DF 		movl	%eax, -8232(%ebp)
 6985      FFFF
 6986              	L333:
1934:../../MMI/Resource/WriteImgRes.c ****             }
1935:../../MMI/Resource/WriteImgRes.c ****             if (height > seq_max_height)
 6988              	LM532:
 6989 3e71 8B85DCDF 		movl	-8228(%ebp), %eax
 6989      FFFF
 6990 3e77 3B85D4DF 		cmpl	-8236(%ebp), %eax
 6990      FFFF
 6991 3e7d 761D     		jbe	L329
1936:../../MMI/Resource/WriteImgRes.c ****             {
1937:../../MMI/Resource/WriteImgRes.c ****                 seq_max_height = height;
 6993              	LM533:
 6994 3e7f 8B85DCDF 		movl	-8228(%ebp), %eax
 6994      FFFF
 6995 3e85 8985D4DF 		movl	%eax, -8236(%ebp)
 6995      FFFF
 6996 3e8b EB0F     		jmp	L329
 6997              	L331:
1938:../../MMI/Resource/WriteImgRes.c ****             }
1939:../../MMI/Resource/WriteImgRes.c ****         }
1940:../../MMI/Resource/WriteImgRes.c ****         else
1941:../../MMI/Resource/WriteImgRes.c ****         {
1942:../../MMI/Resource/WriteImgRes.c ****             return MMI_FALSE;
 6999              	LM534:
 7000 3e8d C78508C5 		movl	$0, -15096(%ebp)
 7000      FFFF0000 
 7000      0000
 7001 3e97 E9E80200 		jmp	L278
 7001      00
 7003              	LM535:
 7004              	L329:
 7005 3e9c 8D85D0DF 		leal	-8240(%ebp), %eax
 7005      FFFF
GAS LISTING d:/MTK/MTK2503/MTK2503/11CW1418SP4_03_CORETEK03AE_11C_V1_GPRS_MMI/plutommi/Customer/ResGenerator/gcctmp/ccaodaaa.s 			page 132


 7006 3ea2 FF00     		incl	(%eax)
 7007 3ea4 E90AFFFF 		jmp	L327
 7007      FF
 7008              	L328:
1943:../../MMI/Resource/WriteImgRes.c ****         }
1944:../../MMI/Resource/WriteImgRes.c ****     }
1945:../../MMI/Resource/WriteImgRes.c **** 
1946:../../MMI/Resource/WriteImgRes.c ****     /* write header of sequential images */
1947:../../MMI/Resource/WriteImgRes.c **** 
1948:../../MMI/Resource/WriteImgRes.c ****     if ((sequential_image[type].file_type == IMAGE_TYPE_PNG_SEQUENCE && force_type == FORCE_ABM_SEQ
 7010              	LM536:
 7011 3ea9 8B85E4DF 		movl	-8220(%ebp), %eax
 7011      FFFF
 7012 3eaf 803CC504 		cmpb	$21, _sequential_image+4(,%eax,8)
 7012      00000015 
 7013 3eb7 7506     		jne	L338
 7014 3eb9 837D1804 		cmpl	$4, 24(%ebp)
 7015 3ebd 7418     		je	L337
 7016              	L338:
 7017 3ebf 8B85E4DF 		movl	-8220(%ebp), %eax
 7017      FFFF
 7018 3ec5 803CC504 		cmpb	$2, _sequential_image+4(,%eax,8)
 7018      00000002 
 7019 3ecd 756B     		jne	L336
 7020 3ecf 837D1804 		cmpl	$4, 24(%ebp)
 7021 3ed3 7402     		je	L337
 7022 3ed5 EB63     		jmp	L336
 7023              	L337:
1949:../../MMI/Resource/WriteImgRes.c ****         (sequential_image[type].file_type == IMAGE_TYPE_BMP_SEQUENCE && force_type == FORCE_ABM_SEQ
1950:../../MMI/Resource/WriteImgRes.c ****     {
1951:../../MMI/Resource/WriteImgRes.c ****         Write_Sequential_Image_Header(outstream, IMAGE_TYPE_ABM_SEQUENCE, sequential_frame, play_co
 7025              	LM537:
 7026 3ed7 8B451C   		movl	28(%ebp), %eax
 7027 3eda 89442424 		movl	%eax, 36(%esp)
 7028 3ede 8D85C8D7 		leal	-10296(%ebp), %eax
 7028      FFFF
 7029 3ee4 89442420 		movl	%eax, 32(%esp)
 7030 3ee8 8B85D4DF 		movl	-8236(%ebp), %eax
 7030      FFFF
 7031 3eee 8944241C 		movl	%eax, 28(%esp)
 7032 3ef2 8B85D8DF 		movl	-8232(%ebp), %eax
 7032      FFFF
 7033 3ef8 89442418 		movl	%eax, 24(%esp)
 7034 3efc 8D85F8EF 		leal	-4104(%ebp), %eax
 7034      FFFF
 7035 3f02 89442414 		movl	%eax, 20(%esp)
 7036 3f06 8D85F8F7 		leal	-2056(%ebp), %eax
 7036      FFFF
 7037 3f0c 89442410 		movl	%eax, 16(%esp)
 7038 3f10 0FB685CF 		movzbl	-8241(%ebp), %eax
 7038      DFFFFF
 7039 3f17 8944240C 		movl	%eax, 12(%esp)
 7040 3f1b 8B85F0DF 		movl	-8208(%ebp), %eax
 7040      FFFF
 7041 3f21 89442408 		movl	%eax, 8(%esp)
 7042 3f25 C7442404 		movl	$41, 4(%esp)
 7042      29000000 
GAS LISTING d:/MTK/MTK2503/MTK2503/11CW1418SP4_03_CORETEK03AE_11C_V1_GPRS_MMI/plutommi/Customer/ResGenerator/gcctmp/ccaodaaa.s 			page 133


 7043 3f2d 8B4510   		movl	16(%ebp), %eax
 7044 3f30 890424   		movl	%eax, (%esp)
 7045 3f33 E82AECFF 		call	_Write_Sequential_Image_Header
 7045      FF
 7046 3f38 EB6B     		jmp	L339
 7047              	L336:
1952:../../MMI/Resource/WriteImgRes.c ****     }
1953:../../MMI/Resource/WriteImgRes.c ****     else
1954:../../MMI/Resource/WriteImgRes.c ****     {
1955:../../MMI/Resource/WriteImgRes.c ****         Write_Sequential_Image_Header(outstream, sequential_image[type].file_type, sequential_frame
 7049              	LM538:
 7050 3f3a 8B451C   		movl	28(%ebp), %eax
 7051 3f3d 89442424 		movl	%eax, 36(%esp)
 7052 3f41 8D85C8D7 		leal	-10296(%ebp), %eax
 7052      FFFF
 7053 3f47 89442420 		movl	%eax, 32(%esp)
 7054 3f4b 8B85D4DF 		movl	-8236(%ebp), %eax
 7054      FFFF
 7055 3f51 8944241C 		movl	%eax, 28(%esp)
 7056 3f55 8B85D8DF 		movl	-8232(%ebp), %eax
 7056      FFFF
 7057 3f5b 89442418 		movl	%eax, 24(%esp)
 7058 3f5f 8D85F8EF 		leal	-4104(%ebp), %eax
 7058      FFFF
 7059 3f65 89442414 		movl	%eax, 20(%esp)
 7060 3f69 8D85F8F7 		leal	-2056(%ebp), %eax
 7060      FFFF
 7061 3f6f 89442410 		movl	%eax, 16(%esp)
 7062 3f73 0FB685CF 		movzbl	-8241(%ebp), %eax
 7062      DFFFFF
 7063 3f7a 8944240C 		movl	%eax, 12(%esp)
 7064 3f7e 8B85F0DF 		movl	-8208(%ebp), %eax
 7064      FFFF
 7065 3f84 89442408 		movl	%eax, 8(%esp)
 7066 3f88 8B85E4DF 		movl	-8220(%ebp), %eax
 7066      FFFF
 7067 3f8e 0FB604C5 		movzbl	_sequential_image+4(,%eax,8), %eax
 7067      04000000 
 7068 3f96 89442404 		movl	%eax, 4(%esp)
 7069 3f9a 8B4510   		movl	16(%ebp), %eax
 7070 3f9d 890424   		movl	%eax, (%esp)
 7071 3fa0 E8BDEBFF 		call	_Write_Sequential_Image_Header
 7071      FF
 7072              	L339:
1956:../../MMI/Resource/WriteImgRes.c ****     }
1957:../../MMI/Resource/WriteImgRes.c **** 
1958:../../MMI/Resource/WriteImgRes.c ****     /* load all files in the sequence   */
1959:../../MMI/Resource/WriteImgRes.c ****     for (j = 0; j < sequence_counter; j++)
 7074              	LM539:
 7075 3fa5 C785D0DF 		movl	$0, -8240(%ebp)
 7075      FFFF0000 
 7075      0000
 7076              	L340:
 7077 3faf 8B85D0DF 		movl	-8240(%ebp), %eax
 7077      FFFF
 7078 3fb5 3B85ECDF 		cmpl	-8212(%ebp), %eax
 7078      FFFF
GAS LISTING d:/MTK/MTK2503/MTK2503/11CW1418SP4_03_CORETEK03AE_11C_V1_GPRS_MMI/plutommi/Customer/ResGenerator/gcctmp/ccaodaaa.s 			page 134


 7079 3fbb 7C05     		jl	L343
 7080 3fbd E9A50100 		jmp	L341
 7080      00
 7081              	L343:
1960:../../MMI/Resource/WriteImgRes.c ****     {
1961:../../MMI/Resource/WriteImgRes.c ****         if (sequential_image[type].file_type == IMAGE_TYPE_BMP_SEQUENCE && force_type == FORCE_ABM_
 7083              	LM540:
 7084 3fc2 8B85E4DF 		movl	-8220(%ebp), %eax
 7084      FFFF
 7085 3fc8 803CC504 		cmpb	$2, _sequential_image+4(,%eax,8)
 7085      00000002 
 7086 3fd0 7532     		jne	L344
 7087 3fd2 837D1804 		cmpl	$4, 24(%ebp)
 7088 3fd6 752C     		jne	L344
1962:../../MMI/Resource/WriteImgRes.c ****         {
1963:../../MMI/Resource/WriteImgRes.c ****             sprintf(filename, "%s\\\\%d.abms", pathname, j);
 7090              	LM541:
 7091 3fd8 8B85D0DF 		movl	-8240(%ebp), %eax
 7091      FFFF
 7092 3fde 8944240C 		movl	%eax, 12(%esp)
 7093 3fe2 8B4508   		movl	8(%ebp), %eax
 7094 3fe5 89442408 		movl	%eax, 8(%esp)
 7095 3fe9 C7442404 		movl	$LC114, 4(%esp)
 7095      41340000 
 7096 3ff1 8D85F8DF 		leal	-8200(%ebp), %eax
 7096      FFFF
 7097 3ff7 890424   		movl	%eax, (%esp)
 7098 3ffa E8000000 		call	_sprintf
 7098      00
 7099 3fff E9C20000 		jmp	L345
 7099      00
 7100              	L344:
1964:../../MMI/Resource/WriteImgRes.c ****         }
1965:../../MMI/Resource/WriteImgRes.c **** #if defined(__MMI_ALPHA_BLENDING__) //&& !defined(GDI_USING_HW_PNG)
1966:../../MMI/Resource/WriteImgRes.c ****         else if (sequential_image[type].file_type == IMAGE_TYPE_ABM_SEQUENCE ||
 7102              	LM542:
 7103 4004 8B85E4DF 		movl	-8220(%ebp), %eax
 7103      FFFF
 7104 400a 803CC504 		cmpb	$41, _sequential_image+4(,%eax,8)
 7104      00000029 
 7105 4012 7418     		je	L347
 7106 4014 8B85E4DF 		movl	-8220(%ebp), %eax
 7106      FFFF
 7107 401a 803CC504 		cmpb	$21, _sequential_image+4(,%eax,8)
 7107      00000015 
 7108 4022 7531     		jne	L346
 7109 4024 837D1804 		cmpl	$4, 24(%ebp)
 7110 4028 7402     		je	L347
 7111 402a EB29     		jmp	L346
 7112              	L347:
1967:../../MMI/Resource/WriteImgRes.c ****             (sequential_image[type].file_type == IMAGE_TYPE_PNG_SEQUENCE && force_type == FORCE_ABM
1968:../../MMI/Resource/WriteImgRes.c ****         {
1969:../../MMI/Resource/WriteImgRes.c ****             sprintf(filename, "%s\\\\%d.abms", pathname, j);
 7114              	LM543:
 7115 402c 8B85D0DF 		movl	-8240(%ebp), %eax
 7115      FFFF
 7116 4032 8944240C 		movl	%eax, 12(%esp)
GAS LISTING d:/MTK/MTK2503/MTK2503/11CW1418SP4_03_CORETEK03AE_11C_V1_GPRS_MMI/plutommi/Customer/ResGenerator/gcctmp/ccaodaaa.s 			page 135


 7117 4036 8B4508   		movl	8(%ebp), %eax
 7118 4039 89442408 		movl	%eax, 8(%esp)
 7119 403d C7442404 		movl	$LC114, 4(%esp)
 7119      41340000 
 7120 4045 8D85F8DF 		leal	-8200(%ebp), %eax
 7120      FFFF
 7121 404b 890424   		movl	%eax, (%esp)
 7122 404e E8000000 		call	_sprintf
 7122      00
 7123 4053 EB71     		jmp	L345
 7124              	L346:
1970:../../MMI/Resource/WriteImgRes.c ****         }
1971:../../MMI/Resource/WriteImgRes.c ****         else if (sequential_image[type].file_type == IMAGE_TYPE_AB2_SEQUENCE)
 7126              	LM544:
 7127 4055 8B85E4DF 		movl	-8220(%ebp), %eax
 7127      FFFF
 7128 405b 803CC504 		cmpb	$53, _sequential_image+4(,%eax,8)
 7128      00000035 
 7129 4063 7529     		jne	L349
1972:../../MMI/Resource/WriteImgRes.c ****         {
1973:../../MMI/Resource/WriteImgRes.c ****             sprintf(filename, "%s\\\\%d.ab2s", pathname, j);
 7131              	LM545:
 7132 4065 8B85D0DF 		movl	-8240(%ebp), %eax
 7132      FFFF
 7133 406b 8944240C 		movl	%eax, 12(%esp)
 7134 406f 8B4508   		movl	8(%ebp), %eax
 7135 4072 89442408 		movl	%eax, 8(%esp)
 7136 4076 C7442404 		movl	$LC115, 4(%esp)
 7136      4D340000 
 7137 407e 8D85F8DF 		leal	-8200(%ebp), %eax
 7137      FFFF
 7138 4084 890424   		movl	%eax, (%esp)
 7139 4087 E8000000 		call	_sprintf
 7139      00
 7140 408c EB38     		jmp	L345
 7141              	L349:
1974:../../MMI/Resource/WriteImgRes.c ****         }
1975:../../MMI/Resource/WriteImgRes.c **** #endif /* defined(__MMI_ALPHA_BLENDING__) && !defined(GDI_USING_HW_PNG) */
1976:../../MMI/Resource/WriteImgRes.c ****         else
1977:../../MMI/Resource/WriteImgRes.c ****         {
1978:../../MMI/Resource/WriteImgRes.c ****             sprintf(filename, "%s\\\\%d.%s", pathname, j, sequential_image[type].filename_ext);
 7143              	LM546:
 7144 408e 8B85E4DF 		movl	-8220(%ebp), %eax
 7144      FFFF
 7145 4094 8B04C500 		movl	_sequential_image(,%eax,8), %eax
 7145      000000
 7146 409b 89442410 		movl	%eax, 16(%esp)
 7147 409f 8B85D0DF 		movl	-8240(%ebp), %eax
 7147      FFFF
 7148 40a5 8944240C 		movl	%eax, 12(%esp)
 7149 40a9 8B4508   		movl	8(%ebp), %eax
 7150 40ac 89442408 		movl	%eax, 8(%esp)
 7151 40b0 C7442404 		movl	$LC100, 4(%esp)
 7151      E5310000 
 7152 40b8 8D85F8DF 		leal	-8200(%ebp), %eax
 7152      FFFF
 7153 40be 890424   		movl	%eax, (%esp)
GAS LISTING d:/MTK/MTK2503/MTK2503/11CW1418SP4_03_CORETEK03AE_11C_V1_GPRS_MMI/plutommi/Customer/ResGenerator/gcctmp/ccaodaaa.s 			page 136


 7154 40c1 E8000000 		call	_sprintf
 7154      00
 7155              	L345:
1979:../../MMI/Resource/WriteImgRes.c ****         }
1980:../../MMI/Resource/WriteImgRes.c ****         imgfp = fopen(filename, "rb");
 7157              	LM547:
 7158 40c6 C7442404 		movl	$LC59, 4(%esp)
 7158      130D0000 
 7159 40ce 8D85F8DF 		leal	-8200(%ebp), %eax
 7159      FFFF
 7160 40d4 890424   		movl	%eax, (%esp)
 7161 40d7 E8000000 		call	_fopen
 7161      00
 7162 40dc 8985F4DF 		movl	%eax, -8204(%ebp)
 7162      FFFF
1981:../../MMI/Resource/WriteImgRes.c ****         if (imgfp != NULL)
 7164              	LM548:
 7165 40e2 83BDF4DF 		cmpl	$0, -8204(%ebp)
 7165      FFFF00
 7166 40e9 7450     		je	L351
1982:../../MMI/Resource/WriteImgRes.c ****         {
1983:../../MMI/Resource/WriteImgRes.c ****             Write_Sequential_Image_File(outstream, imgfp, sequential_filesize[j], processData);
 7168              	LM549:
 7169 40eb 8B451C   		movl	28(%ebp), %eax
 7170 40ee 8944240C 		movl	%eax, 12(%esp)
 7171 40f2 8B85D0DF 		movl	-8240(%ebp), %eax
 7171      FFFF
 7172 40f8 8B8485F8 		movl	-2056(%ebp,%eax,4), %eax
 7172      F7FFFF
 7173 40ff 89442408 		movl	%eax, 8(%esp)
 7174 4103 8B85F4DF 		movl	-8204(%ebp), %eax
 7174      FFFF
 7175 4109 89442404 		movl	%eax, 4(%esp)
 7176 410d 8B4510   		movl	16(%ebp), %eax
 7177 4110 890424   		movl	%eax, (%esp)
 7178 4113 E8F9EEFF 		call	_Write_Sequential_Image_File
 7178      FF
1984:../../MMI/Resource/WriteImgRes.c ****             MYFCLOSE(imgfp);
 7180              	LM550:
 7181 4118 83BDF4DF 		cmpl	$0, -8204(%ebp)
 7181      FFFF00
 7182 411f 7439     		je	L342
 7183 4121 8B85F4DF 		movl	-8204(%ebp), %eax
 7183      FFFF
 7184 4127 890424   		movl	%eax, (%esp)
 7185 412a E8000000 		call	_fclose
 7185      00
 7186 412f C785F4DF 		movl	$0, -8204(%ebp)
 7186      FFFF0000 
 7186      0000
 7187 4139 EB1F     		jmp	L342
 7188              	L351:
1985:../../MMI/Resource/WriteImgRes.c ****         }
1986:../../MMI/Resource/WriteImgRes.c ****         else
1987:../../MMI/Resource/WriteImgRes.c ****         {
1988:../../MMI/Resource/WriteImgRes.c ****             ImageOutStreamPrintf(outstream, "\n};\n");
 7190              	LM551:
GAS LISTING d:/MTK/MTK2503/MTK2503/11CW1418SP4_03_CORETEK03AE_11C_V1_GPRS_MMI/plutommi/Customer/ResGenerator/gcctmp/ccaodaaa.s 			page 137


 7191 413b C7442404 		movl	$LC116, 4(%esp)
 7191      59340000 
 7192 4143 8B4510   		movl	16(%ebp), %eax
 7193 4146 890424   		movl	%eax, (%esp)
 7194 4149 E8000000 		call	_ImageOutStreamPrintf
 7194      00
1989:../../MMI/Resource/WriteImgRes.c ****             return MMI_FALSE;
 7196              	LM552:
 7197 414e C78508C5 		movl	$0, -15096(%ebp)
 7197      FFFF0000 
 7197      0000
 7198 4158 EB2A     		jmp	L278
 7200              	LM553:
 7201              	L342:
 7202 415a 8D85D0DF 		leal	-8240(%ebp), %eax
 7202      FFFF
 7203 4160 FF00     		incl	(%eax)
 7204 4162 E948FEFF 		jmp	L340
 7204      FF
 7205              	L341:
1990:../../MMI/Resource/WriteImgRes.c ****         }
1991:../../MMI/Resource/WriteImgRes.c ****     }
1992:../../MMI/Resource/WriteImgRes.c ****     ImageOutStreamPrintf(outstream, "\n};\n");
 7207              	LM554:
 7208 4167 C7442404 		movl	$LC116, 4(%esp)
 7208      59340000 
 7209 416f 8B4510   		movl	16(%ebp), %eax
 7210 4172 890424   		movl	%eax, (%esp)
 7211 4175 E8000000 		call	_ImageOutStreamPrintf
 7211      00
1993:../../MMI/Resource/WriteImgRes.c **** 
1994:../../MMI/Resource/WriteImgRes.c **** #ifdef __MMI_RESOURCE_ENFB_SUPPORT__
1995:../../MMI/Resource/WriteImgRes.c ****     processData->enfb_flag = 0;
1996:../../MMI/Resource/WriteImgRes.c **** #endif
1997:../../MMI/Resource/WriteImgRes.c **** 
1998:../../MMI/Resource/WriteImgRes.c ****     return MMI_TRUE;
 7213              	LM555:
 7214 417a C78508C5 		movl	$1, -15096(%ebp)
 7214      FFFF0100 
 7214      0000
1999:../../MMI/Resource/WriteImgRes.c **** }
 7216              	LM556:
 7217              	L278:
 7218              	LBE43:
 7219 4184 8B8508C5 		movl	-15096(%ebp), %eax
 7219      FFFF
 7220 418a 81C4343B 		addl	$15156, %esp
 7220      0000
 7221 4190 5B       		popl	%ebx
 7222 4191 5D       		popl	%ebp
 7223 4192 C3       		ret
 7287              	Lscope10:
 7289              	LC117:
 7290 4193 25632563 		.ascii "%c%c\0"
 7290      00
 7291              	LC118:
 7292 4198 25632563 		.ascii "%c%c%c%c%c%c\0"
GAS LISTING d:/MTK/MTK2503/MTK2503/11CW1418SP4_03_CORETEK03AE_11C_V1_GPRS_MMI/plutommi/Customer/ResGenerator/gcctmp/ccaodaaa.s 			page 138


 7292      25632563 
 7292      25632563 
 7292      00
 7304              	_Load_Image_Data_Tool:
2000:../../MMI/Resource/WriteImgRes.c **** 
2001:../../MMI/Resource/WriteImgRes.c **** 
2002:../../MMI/Resource/WriteImgRes.c **** static void Load_Image_Data_Tool(
2003:../../MMI/Resource/WriteImgRes.c ****         FILE *input_file,
2004:../../MMI/Resource/WriteImgRes.c ****         U32 file_size,
2005:../../MMI/Resource/WriteImgRes.c ****         S32 data_size,
2006:../../MMI/Resource/WriteImgRes.c ****         U8 image_identifier,
2007:../../MMI/Resource/WriteImgRes.c ****         S32 n_frames,
2008:../../MMI/Resource/WriteImgRes.c ****         U32 width,
2009:../../MMI/Resource/WriteImgRes.c ****         U32 height,
2010:../../MMI/Resource/WriteImgRes.c ****         MMI_BOOL is9slice,
2011:../../MMI/Resource/WriteImgRes.c ****         U8* _9slice_filename)
2012:../../MMI/Resource/WriteImgRes.c **** {
 7306              	LM557:
 7307 41a5 55       		pushl	%ebp
 7308 41a6 89E5     		movl	%esp, %ebp
 7309 41a8 83EC38   		subl	$56, %esp
 7310 41ab 8B4514   		movl	20(%ebp), %eax
 7311 41ae 8845FF   		movb	%al, -1(%ebp)
2013:../../MMI/Resource/WriteImgRes.c ****     U32 width_height;
2014:../../MMI/Resource/WriteImgRes.c ****     U32 i;
2015:../../MMI/Resource/WriteImgRes.c **** 
2016:../../MMI/Resource/WriteImgRes.c ****     width_height = ((width & 0XFFF) << 12) | (height & 0XFFF);
 7313              	LM558:
 7314 41b1 8B451C   		movl	28(%ebp), %eax
 7315              	LBB52:
 7316 41b4 25FF0F00 		andl	$4095, %eax
 7316      00
 7317 41b9 89C2     		movl	%eax, %edx
 7318 41bb C1E20C   		sall	$12, %edx
 7319 41be 8B4520   		movl	32(%ebp), %eax
 7320 41c1 25FF0F00 		andl	$4095, %eax
 7320      00
 7321 41c6 09D0     		orl	%edx, %eax
 7322 41c8 8945F8   		movl	%eax, -8(%ebp)
2017:../../MMI/Resource/WriteImgRes.c ****     if (is9slice)
 7324              	LM559:
 7325 41cb 837D2400 		cmpl	$0, 36(%ebp)
 7326 41cf 7426     		je	L356
2018:../../MMI/Resource/WriteImgRes.c ****     {
2019:../../MMI/Resource/WriteImgRes.c ****         fprintf(dest_file, "%c%c", IMAGE_TYPE_9SLICE, n_frames);
 7328              	LM560:
 7329 41d1 8B4518   		movl	24(%ebp), %eax
 7330 41d4 8944240C 		movl	%eax, 12(%esp)
 7331 41d8 C7442408 		movl	$62, 8(%esp)
 7331      3E000000 
 7332 41e0 C7442404 		movl	$LC117, 4(%esp)
 7332      93410000 
 7333 41e8 A1000000 		movl	_dest_file, %eax
 7333      00
 7334 41ed 890424   		movl	%eax, (%esp)
 7335 41f0 E8000000 		call	_fprintf
 7335      00
GAS LISTING d:/MTK/MTK2503/MTK2503/11CW1418SP4_03_CORETEK03AE_11C_V1_GPRS_MMI/plutommi/Customer/ResGenerator/gcctmp/ccaodaaa.s 			page 139


 7336 41f5 EB24     		jmp	L357
 7337              	L356:
2020:../../MMI/Resource/WriteImgRes.c ****     }
2021:../../MMI/Resource/WriteImgRes.c ****     else
2022:../../MMI/Resource/WriteImgRes.c ****     {
2023:../../MMI/Resource/WriteImgRes.c ****         fprintf(dest_file, "%c%c", image_identifier, n_frames);
 7339              	LM561:
 7340 41f7 8B4518   		movl	24(%ebp), %eax
 7341 41fa 8944240C 		movl	%eax, 12(%esp)
 7342 41fe 0FB645FF 		movzbl	-1(%ebp), %eax
 7343 4202 89442408 		movl	%eax, 8(%esp)
 7344 4206 C7442404 		movl	$LC117, 4(%esp)
 7344      93410000 
 7345 420e A1000000 		movl	_dest_file, %eax
 7345      00
 7346 4213 890424   		movl	%eax, (%esp)
 7347 4216 E8000000 		call	_fprintf
 7347      00
 7348              	L357:
2024:../../MMI/Resource/WriteImgRes.c ****     }
2025:../../MMI/Resource/WriteImgRes.c **** 
2026:../../MMI/Resource/WriteImgRes.c ****     if (image_identifier == IMAGE_TYPE_3GP || image_identifier == IMAGE_TYPE_MP4 ||
 7350              	LM562:
 7351 421b 807DFF0E 		cmpb	$14, -1(%ebp)
 7352 421f 742C     		je	L359
 7353 4221 807DFF10 		cmpb	$16, -1(%ebp)
 7354 4225 7426     		je	L359
 7355 4227 807DFF0C 		cmpb	$12, -1(%ebp)
 7356 422b 7420     		je	L359
 7357 422d 807DFF19 		cmpb	$25, -1(%ebp)
 7358 4231 741A     		je	L359
 7359 4233 807DFF4A 		cmpb	$74, -1(%ebp)
 7360 4237 7414     		je	L359
 7361 4239 807DFF4C 		cmpb	$76, -1(%ebp)
 7362 423d 740E     		je	L359
 7363 423f 807DFF4E 		cmpb	$78, -1(%ebp)
 7364 4243 7408     		je	L359
 7365 4245 807DFF1D 		cmpb	$29, -1(%ebp)
 7366 4249 7402     		je	L359
 7367 424b EB5C     		jmp	L358
 7368              	L359:
2027:../../MMI/Resource/WriteImgRes.c ****         image_identifier == IMAGE_TYPE_AVI || image_identifier == IMAGE_TYPE_M3D ||
2028:../../MMI/Resource/WriteImgRes.c ****         image_identifier == IMAGE_TYPE_RV  || image_identifier == IMAGE_TYPE_RM  ||
2029:../../MMI/Resource/WriteImgRes.c ****         image_identifier == IMAGE_TYPE_RMVB || image_identifier == IMAGE_TYPE_SWFLASH)
2030:../../MMI/Resource/WriteImgRes.c ****     {
2031:../../MMI/Resource/WriteImgRes.c ****         fprintf(
 7370              	LM563:
 7371 424d C744241C 		movl	$0, 28(%esp)
 7371      00000000 
 7372 4255 C7442418 		movl	$0, 24(%esp)
 7372      00000000 
 7373 425d 8B450C   		movl	12(%ebp), %eax
 7374 4260 25000000 		andl	$-16777216, %eax
 7374      FF
 7375 4265 C1E818   		shrl	$24, %eax
 7376 4268 89442414 		movl	%eax, 20(%esp)
 7377 426c 8B450C   		movl	12(%ebp), %eax
GAS LISTING d:/MTK/MTK2503/MTK2503/11CW1418SP4_03_CORETEK03AE_11C_V1_GPRS_MMI/plutommi/Customer/ResGenerator/gcctmp/ccaodaaa.s 			page 140


 7378 426f 250000FF 		andl	$16711680, %eax
 7378      00
 7379 4274 C1E810   		shrl	$16, %eax
 7380 4277 89442410 		movl	%eax, 16(%esp)
 7381 427b 8B450C   		movl	12(%ebp), %eax
 7382 427e 2500FF00 		andl	$65280, %eax
 7382      00
 7383 4283 C1E808   		shrl	$8, %eax
 7384 4286 8944240C 		movl	%eax, 12(%esp)
 7385 428a 0FB6450C 		movzbl	12(%ebp),%eax
 7386 428e 89442408 		movl	%eax, 8(%esp)
 7387 4292 C7442404 		movl	$LC118, 4(%esp)
 7387      98410000 
 7388 429a A1000000 		movl	_dest_file, %eax
 7388      00
 7389 429f 890424   		movl	%eax, (%esp)
 7390 42a2 E8000000 		call	_fprintf
 7390      00
 7391 42a7 EB61     		jmp	L360
 7392              	L358:
2032:../../MMI/Resource/WriteImgRes.c ****             dest_file,
2033:../../MMI/Resource/WriteImgRes.c ****             "%c%c%c%c%c%c",
2034:../../MMI/Resource/WriteImgRes.c ****             (file_size & 0xff),
2035:../../MMI/Resource/WriteImgRes.c ****             (file_size & 0xff00) >> 8,
2036:../../MMI/Resource/WriteImgRes.c ****             (file_size & 0xff0000) >> 16,
2037:../../MMI/Resource/WriteImgRes.c ****             (file_size & 0xff000000) >> 24,
2038:../../MMI/Resource/WriteImgRes.c ****             0,
2039:../../MMI/Resource/WriteImgRes.c ****             0);
2040:../../MMI/Resource/WriteImgRes.c ****     }
2041:../../MMI/Resource/WriteImgRes.c ****     else
2042:../../MMI/Resource/WriteImgRes.c ****     {
2043:../../MMI/Resource/WriteImgRes.c ****         fprintf(
 7394              	LM564:
 7395 42a9 8B45F8   		movl	-8(%ebp), %eax
 7396 42ac 250000FF 		andl	$16711680, %eax
 7396      00
 7397 42b1 C1E810   		shrl	$16, %eax
 7398 42b4 8944241C 		movl	%eax, 28(%esp)
 7399 42b8 8B45F8   		movl	-8(%ebp), %eax
 7400 42bb 2500FF00 		andl	$65280, %eax
 7400      00
 7401 42c0 C1E808   		shrl	$8, %eax
 7402 42c3 89442418 		movl	%eax, 24(%esp)
 7403 42c7 0FB645F8 		movzbl	-8(%ebp),%eax
 7404 42cb 89442414 		movl	%eax, 20(%esp)
 7405 42cf 8B4510   		movl	16(%ebp), %eax
 7406 42d2 250000FF 		andl	$16711680, %eax
 7406      00
 7407 42d7 C1F810   		sarl	$16, %eax
 7408 42da 89442410 		movl	%eax, 16(%esp)
 7409 42de 8B4510   		movl	16(%ebp), %eax
 7410 42e1 2500FF00 		andl	$65280, %eax
 7410      00
 7411 42e6 C1F808   		sarl	$8, %eax
 7412 42e9 8944240C 		movl	%eax, 12(%esp)
 7413 42ed 0FB64510 		movzbl	16(%ebp),%eax
 7414 42f1 89442408 		movl	%eax, 8(%esp)
GAS LISTING d:/MTK/MTK2503/MTK2503/11CW1418SP4_03_CORETEK03AE_11C_V1_GPRS_MMI/plutommi/Customer/ResGenerator/gcctmp/ccaodaaa.s 			page 141


 7415 42f5 C7442404 		movl	$LC118, 4(%esp)
 7415      98410000 
 7416 42fd A1000000 		movl	_dest_file, %eax
 7416      00
 7417 4302 890424   		movl	%eax, (%esp)
 7418 4305 E8000000 		call	_fprintf
 7418      00
 7419              	L360:
2044:../../MMI/Resource/WriteImgRes.c ****             dest_file,
2045:../../MMI/Resource/WriteImgRes.c ****             "%c%c%c%c%c%c",
2046:../../MMI/Resource/WriteImgRes.c ****             (data_size & 0xff),
2047:../../MMI/Resource/WriteImgRes.c ****             (data_size & 0xff00) >> 8,
2048:../../MMI/Resource/WriteImgRes.c ****             (data_size & 0xff0000) >> 16,
2049:../../MMI/Resource/WriteImgRes.c ****             (width_height & 0xff),
2050:../../MMI/Resource/WriteImgRes.c ****             (width_height & 0xff00) >> 8,
2051:../../MMI/Resource/WriteImgRes.c ****             (width_height & 0xff0000) >> 16);
2052:../../MMI/Resource/WriteImgRes.c ****     }
2053:../../MMI/Resource/WriteImgRes.c **** 
2054:../../MMI/Resource/WriteImgRes.c ****     if (is9slice)
 7421              	LM565:
 7422 430a 837D2400 		cmpl	$0, 36(%ebp)
 7423 430e 7424     		je	L361
2055:../../MMI/Resource/WriteImgRes.c ****     {
2056:../../MMI/Resource/WriteImgRes.c ****         /* Write 9slice file header */
2057:../../MMI/Resource/WriteImgRes.c ****         mmi_rg_write_9slice_header(image_identifier, _9slice_filename, dest_file, MMI_TRUE);
 7425              	LM566:
 7426 4310 C744240C 		movl	$1, 12(%esp)
 7426      01000000 
 7427 4318 A1000000 		movl	_dest_file, %eax
 7427      00
 7428 431d 89442408 		movl	%eax, 8(%esp)
 7429 4321 8B4528   		movl	40(%ebp), %eax
 7430 4324 89442404 		movl	%eax, 4(%esp)
 7431 4328 0FB645FF 		movzbl	-1(%ebp), %eax
 7432 432c 890424   		movl	%eax, (%esp)
 7433 432f E82F0600 		call	_mmi_rg_write_9slice_header
 7433      00
 7434              	L361:
2058:../../MMI/Resource/WriteImgRes.c ****     }
2059:../../MMI/Resource/WriteImgRes.c **** 
2060:../../MMI/Resource/WriteImgRes.c ****     for (i = 0; i < file_size; i++)
 7436              	LM567:
 7437 4334 C745F400 		movl	$0, -12(%ebp)
 7437      000000
 7438              	L362:
 7439 433b 8B45F4   		movl	-12(%ebp), %eax
 7440 433e 3B450C   		cmpl	12(%ebp), %eax
 7441 4341 7202     		jb	L365
 7442 4343 EB2A     		jmp	L355
 7443              	L365:
2061:../../MMI/Resource/WriteImgRes.c ****     {
2062:../../MMI/Resource/WriteImgRes.c ****         U8 ch;
2063:../../MMI/Resource/WriteImgRes.c ****         ch = fgetc(input_file);
 7445              	LM568:
 7446              	LBB53:
 7447 4345 8B4508   		movl	8(%ebp), %eax
 7448 4348 890424   		movl	%eax, (%esp)
GAS LISTING d:/MTK/MTK2503/MTK2503/11CW1418SP4_03_CORETEK03AE_11C_V1_GPRS_MMI/plutommi/Customer/ResGenerator/gcctmp/ccaodaaa.s 			page 142


 7449 434b E8000000 		call	_fgetc
 7449      00
 7450 4350 8845F3   		movb	%al, -13(%ebp)
2064:../../MMI/Resource/WriteImgRes.c ****         fputc(ch, dest_file);
 7452              	LM569:
 7453 4353 A1000000 		movl	_dest_file, %eax
 7453      00
 7454 4358 89442404 		movl	%eax, 4(%esp)
 7455 435c 0FB645F3 		movzbl	-13(%ebp), %eax
 7456 4360 890424   		movl	%eax, (%esp)
 7457 4363 E8000000 		call	_fputc
 7457      00
 7459              	LM570:
 7460 4368 8D45F4   		leal	-12(%ebp), %eax
 7461              	LBE53:
 7462 436b FF00     		incl	(%eax)
 7463 436d EBCC     		jmp	L362
2065:../../MMI/Resource/WriteImgRes.c ****     }
2066:../../MMI/Resource/WriteImgRes.c **** }
 7465              	LM571:
 7466              	L355:
 7467 436f C9       		leave
 7468 4370 C3       		ret
 7469              	LBE52:
 7478              	Lscope11:
 7480              	LC119:
 7481 4371 0A496D61 		.ascii "\12Image is too big.\12\0"
 7481      67652069 
 7481      7320746F 
 7481      6F206269 
 7481      672E0A00 
 7482              	LC120:
 7483 4385 0A09     		.ascii "\12\11"
 7484 4387 30782530 		.ascii "0x%02X, 0x%02X, \0"
 7484      32582C20 
 7484      30782530 
 7484      32582C20 
 7484      00
 7485 4398 908DB426 		.align 32
 7485      00000000 
 7486              	LC121:
 7487 43a0 30782530 		.ascii "0x%02X, 0x%02X, 0x%02X, 0x%02X, 0x00, 0x00,\12\11\0"
 7487      32582C20 
 7487      30782530 
 7487      32582C20 
 7487      30782530 
 7488 43ce 90909090 		.align 32
 7488      90909090 
 7488      90909090 
 7488      90909090 
 7488      9090
 7489              	LC122:
 7490 43e0 30782530 		.ascii "0x%02X, 0x%02X, 0x%02X, 0x%02X, 0x%02X, 0x%02X,\12\11\0"
 7490      32582C20 
 7490      30782530 
 7490      32582C20 
 7490      30782530 
GAS LISTING d:/MTK/MTK2503/MTK2503/11CW1418SP4_03_CORETEK03AE_11C_V1_GPRS_MMI/plutommi/Customer/ResGenerator/gcctmp/ccaodaaa.s 			page 143


 7491              	LC123:
 7492 4412 25642C00 		.ascii "%d,\0"
 7504              	_Load_Image_Data:
2067:../../MMI/Resource/WriteImgRes.c **** 
2068:../../MMI/Resource/WriteImgRes.c **** #ifdef __MMI_RESOURCE_ENFB_SUPPORT__
2069:../../MMI/Resource/WriteImgRes.c **** 
2070:../../MMI/Resource/WriteImgRes.c **** static S32 Load_Image_Data_ENFB(
2071:../../MMI/Resource/WriteImgRes.c ****         FILE *input_file,
2072:../../MMI/Resource/WriteImgRes.c ****         U32 file_size,
2073:../../MMI/Resource/WriteImgRes.c ****         S32 data_size,
2074:../../MMI/Resource/WriteImgRes.c ****         U8 image_identifier,
2075:../../MMI/Resource/WriteImgRes.c ****         S32 n_frames,
2076:../../MMI/Resource/WriteImgRes.c ****         U32 width,
2077:../../MMI/Resource/WriteImgRes.c ****         U32 height,
2078:../../MMI/Resource/WriteImgRes.c ****         MMI_BOOL is9slice,
2079:../../MMI/Resource/WriteImgRes.c ****         U8* _9slice_filename)
2080:../../MMI/Resource/WriteImgRes.c **** {
2081:../../MMI/Resource/WriteImgRes.c ****     U32 width_height;
2082:../../MMI/Resource/WriteImgRes.c ****     U32 i;
2083:../../MMI/Resource/WriteImgRes.c **** 
2084:../../MMI/Resource/WriteImgRes.c ****     width_height = ((width & 0XFFF) << 12) | (height & 0XFFF);
2085:../../MMI/Resource/WriteImgRes.c **** 
2086:../../MMI/Resource/WriteImgRes.c ****     if (is9slice)
2087:../../MMI/Resource/WriteImgRes.c ****     {
2088:../../MMI/Resource/WriteImgRes.c ****         fprintf(enfb_img_data_file, "%c%c", IMAGE_TYPE_9SLICE, n_frames);
2089:../../MMI/Resource/WriteImgRes.c ****     }
2090:../../MMI/Resource/WriteImgRes.c ****     else
2091:../../MMI/Resource/WriteImgRes.c ****     {
2092:../../MMI/Resource/WriteImgRes.c ****         fprintf(enfb_img_data_file, "%c%c", image_identifier, n_frames);
2093:../../MMI/Resource/WriteImgRes.c ****     }
2094:../../MMI/Resource/WriteImgRes.c ****     if (image_identifier == IMAGE_TYPE_3GP || image_identifier == IMAGE_TYPE_MP4 ||
2095:../../MMI/Resource/WriteImgRes.c ****         image_identifier == IMAGE_TYPE_AVI || image_identifier == IMAGE_TYPE_M3D ||
2096:../../MMI/Resource/WriteImgRes.c ****         image_identifier == IMAGE_TYPE_RV  || image_identifier == IMAGE_TYPE_RM ||
2097:../../MMI/Resource/WriteImgRes.c ****         image_identifier == IMAGE_TYPE_RMVB || image_identifier == IMAGE_TYPE_SWFLASH)
2098:../../MMI/Resource/WriteImgRes.c ****     {
2099:../../MMI/Resource/WriteImgRes.c ****         fprintf(
2100:../../MMI/Resource/WriteImgRes.c ****             enfb_img_data_file,
2101:../../MMI/Resource/WriteImgRes.c ****             "%c%c%c%c%c%c",
2102:../../MMI/Resource/WriteImgRes.c ****             (file_size & 0xff),
2103:../../MMI/Resource/WriteImgRes.c ****             (file_size & 0xff00) >> 8,
2104:../../MMI/Resource/WriteImgRes.c ****             (file_size & 0xff0000) >> 16,
2105:../../MMI/Resource/WriteImgRes.c ****             (file_size & 0xff000000) >> 24,
2106:../../MMI/Resource/WriteImgRes.c ****             0,
2107:../../MMI/Resource/WriteImgRes.c ****             0);
2108:../../MMI/Resource/WriteImgRes.c ****         enfb_size = 8 + file_size;
2109:../../MMI/Resource/WriteImgRes.c ****     }
2110:../../MMI/Resource/WriteImgRes.c ****     else
2111:../../MMI/Resource/WriteImgRes.c ****     {
2112:../../MMI/Resource/WriteImgRes.c ****         fprintf(
2113:../../MMI/Resource/WriteImgRes.c ****             enfb_img_data_file,
2114:../../MMI/Resource/WriteImgRes.c ****             "%c%c%c%c%c%c",
2115:../../MMI/Resource/WriteImgRes.c ****             (data_size & 0xff),
2116:../../MMI/Resource/WriteImgRes.c ****             (data_size & 0xff00) >> 8,
2117:../../MMI/Resource/WriteImgRes.c ****             (data_size & 0xff0000) >> 16,
2118:../../MMI/Resource/WriteImgRes.c ****             (width_height & 0xff),
2119:../../MMI/Resource/WriteImgRes.c ****             (width_height & 0xff00) >> 8,
2120:../../MMI/Resource/WriteImgRes.c ****             (width_height & 0xff0000) >> 16);
GAS LISTING d:/MTK/MTK2503/MTK2503/11CW1418SP4_03_CORETEK03AE_11C_V1_GPRS_MMI/plutommi/Customer/ResGenerator/gcctmp/ccaodaaa.s 			page 144


2121:../../MMI/Resource/WriteImgRes.c ****         enfb_size = 8 + data_size;
2122:../../MMI/Resource/WriteImgRes.c ****     }
2123:../../MMI/Resource/WriteImgRes.c **** 
2124:../../MMI/Resource/WriteImgRes.c ****     if (is9slice)
2125:../../MMI/Resource/WriteImgRes.c ****     {
2126:../../MMI/Resource/WriteImgRes.c ****         /* Write 9slice file header */
2127:../../MMI/Resource/WriteImgRes.c ****         mmi_rg_write_9slice_header(image_identifier, _9slice_filename, enfb_img_data_file, MMI_TRUE
2128:../../MMI/Resource/WriteImgRes.c ****     }
2129:../../MMI/Resource/WriteImgRes.c **** 
2130:../../MMI/Resource/WriteImgRes.c ****     enfb_offset += enfb_size;
2131:../../MMI/Resource/WriteImgRes.c **** 
2132:../../MMI/Resource/WriteImgRes.c ****     /* write image data to ENFB image data file */
2133:../../MMI/Resource/WriteImgRes.c ****     for (i = 0; i < file_size; i++)
2134:../../MMI/Resource/WriteImgRes.c ****     {
2135:../../MMI/Resource/WriteImgRes.c ****         U8 ch;
2136:../../MMI/Resource/WriteImgRes.c ****         ch = fgetc(input_file);
2137:../../MMI/Resource/WriteImgRes.c ****         fputc(ch, enfb_img_data_file);
2138:../../MMI/Resource/WriteImgRes.c ****     }
2139:../../MMI/Resource/WriteImgRes.c **** }
2140:../../MMI/Resource/WriteImgRes.c **** 
2141:../../MMI/Resource/WriteImgRes.c **** #endif // __MMI_RESOURCE_ENFB_SUPPORT__
2142:../../MMI/Resource/WriteImgRes.c **** 
2143:../../MMI/Resource/WriteImgRes.c **** /*****************************************************************************
2144:../../MMI/Resource/WriteImgRes.c ****  * FUNCTION
2145:../../MMI/Resource/WriteImgRes.c ****  *  Load_Image_Data
2146:../../MMI/Resource/WriteImgRes.c ****  * DESCRIPTION
2147:../../MMI/Resource/WriteImgRes.c ****  *  Identifies the image , BMP , ppf etc
2148:../../MMI/Resource/WriteImgRes.c ****  * PARAMETERS
2149:../../MMI/Resource/WriteImgRes.c ****  *  output_file             [IN]        -> Name of the file to which buffer
2150:../../MMI/Resource/WriteImgRes.c ****  *  input_file              [IN]        ->  Name of the input image file
2151:../../MMI/Resource/WriteImgRes.c ****  *  image_identifier        [IN]        -> image identifier
2152:../../MMI/Resource/WriteImgRes.c ****  *  n_frames                [IN]        -> no of frames
2153:../../MMI/Resource/WriteImgRes.c ****  *  is(?)                   [IN]        To be written
2154:../../MMI/Resource/WriteImgRes.c ****  * RETURNS
2155:../../MMI/Resource/WriteImgRes.c ****  *  S32 --> file size
2156:../../MMI/Resource/WriteImgRes.c ****  *****************************************************************************/
2157:../../MMI/Resource/WriteImgRes.c **** static S32 Load_Image_Data(
2158:../../MMI/Resource/WriteImgRes.c ****         ResgenImageOutStream * outstream,
2159:../../MMI/Resource/WriteImgRes.c ****         FILE *input_file,
2160:../../MMI/Resource/WriteImgRes.c ****         U8 image_identifier,
2161:../../MMI/Resource/WriteImgRes.c ****         S32 n_frames,
2162:../../MMI/Resource/WriteImgRes.c ****         U32 width,
2163:../../MMI/Resource/WriteImgRes.c ****         U32 height,
2164:../../MMI/Resource/WriteImgRes.c ****         MMI_BOOL is9slice,
2165:../../MMI/Resource/WriteImgRes.c ****         U8* _9slice_filename,
2166:../../MMI/Resource/WriteImgRes.c ****         SetImageProcessData * processData)
2167:../../MMI/Resource/WriteImgRes.c **** {
 7506              	LM572:
 7507 4416 55       		pushl	%ebp
 7508 4417 89E5     		movl	%esp, %ebp
 7509 4419 83EC58   		subl	$88, %esp
 7510 441c 8B4510   		movl	16(%ebp), %eax
 7511 441f 8845FF   		movb	%al, -1(%ebp)
2168:../../MMI/Resource/WriteImgRes.c ****     /*----------------------------------------------------------------*/
2169:../../MMI/Resource/WriteImgRes.c ****     /* Local Variables                                                */
2170:../../MMI/Resource/WriteImgRes.c ****     /*----------------------------------------------------------------*/
2171:../../MMI/Resource/WriteImgRes.c ****     U32 file_size, i;
GAS LISTING d:/MTK/MTK2503/MTK2503/11CW1418SP4_03_CORETEK03AE_11C_V1_GPRS_MMI/plutommi/Customer/ResGenerator/gcctmp/ccaodaaa.s 			page 145


2172:../../MMI/Resource/WriteImgRes.c ****     U32 width_height;
2173:../../MMI/Resource/WriteImgRes.c ****     S32 data_size;
2174:../../MMI/Resource/WriteImgRes.c **** 
2175:../../MMI/Resource/WriteImgRes.c ****     /*----------------------------------------------------------------*/
2176:../../MMI/Resource/WriteImgRes.c ****     /* Code Body                                                      */
2177:../../MMI/Resource/WriteImgRes.c ****     /*----------------------------------------------------------------*/
2178:../../MMI/Resource/WriteImgRes.c **** 
2179:../../MMI/Resource/WriteImgRes.c ****     if(n_frames==0)
 7513              	LM573:
 7514              	LBB54:
 7515 4422 837D1400 		cmpl	$0, 20(%ebp)
 7516 4426 7507     		jne	L367
2180:../../MMI/Resource/WriteImgRes.c ****     {
2181:../../MMI/Resource/WriteImgRes.c ****         n_frames = 1;
 7518              	LM574:
 7519 4428 C7451401 		movl	$1, 20(%ebp)
 7519      000000
 7520              	L367:
2182:../../MMI/Resource/WriteImgRes.c ****     }
2183:../../MMI/Resource/WriteImgRes.c **** 
2184:../../MMI/Resource/WriteImgRes.c ****     fseek(input_file, 0, SEEK_END);
 7522              	LM575:
 7523 442f C7442408 		movl	$2, 8(%esp)
 7523      02000000 
 7524 4437 C7442404 		movl	$0, 4(%esp)
 7524      00000000 
 7525 443f 8B450C   		movl	12(%ebp), %eax
 7526 4442 890424   		movl	%eax, (%esp)
 7527 4445 E8000000 		call	_fseek
 7527      00
2185:../../MMI/Resource/WriteImgRes.c ****     file_size = ftell(input_file);
 7529              	LM576:
 7530 444a 8B450C   		movl	12(%ebp), %eax
 7531 444d 890424   		movl	%eax, (%esp)
 7532 4450 E8000000 		call	_ftell
 7532      00
 7533 4455 8945F8   		movl	%eax, -8(%ebp)
2186:../../MMI/Resource/WriteImgRes.c ****     fseek(input_file, 0, SEEK_SET);
 7535              	LM577:
 7536 4458 C7442408 		movl	$0, 8(%esp)
 7536      00000000 
 7537 4460 C7442404 		movl	$0, 4(%esp)
 7537      00000000 
 7538 4468 8B450C   		movl	12(%ebp), %eax
 7539 446b 890424   		movl	%eax, (%esp)
 7540 446e E8000000 		call	_fseek
 7540      00
2187:../../MMI/Resource/WriteImgRes.c **** 
2188:../../MMI/Resource/WriteImgRes.c ****     width_height = ((width & 0XFFF) << 12) | (height & 0XFFF);
 7542              	LM578:
 7543 4473 8B4518   		movl	24(%ebp), %eax
 7544 4476 25FF0F00 		andl	$4095, %eax
 7544      00
 7545 447b 89C2     		movl	%eax, %edx
 7546 447d C1E20C   		sall	$12, %edx
 7547 4480 8B451C   		movl	28(%ebp), %eax
 7548 4483 25FF0F00 		andl	$4095, %eax
GAS LISTING d:/MTK/MTK2503/MTK2503/11CW1418SP4_03_CORETEK03AE_11C_V1_GPRS_MMI/plutommi/Customer/ResGenerator/gcctmp/ccaodaaa.s 			page 146


 7548      00
 7549 4488 09D0     		orl	%edx, %eax
 7550 448a 8945F0   		movl	%eax, -16(%ebp)
2189:../../MMI/Resource/WriteImgRes.c **** 
2190:../../MMI/Resource/WriteImgRes.c ****     if (image_identifier == IMAGE_TYPE_BMP ||
 7552              	LM579:
 7553 448d 807DFF01 		cmpb	$1, -1(%ebp)
 7554 4491 7414     		je	L369
 7555 4493 807DFF03 		cmpb	$3, -1(%ebp)
 7556 4497 740E     		je	L369
 7557 4499 807DFF09 		cmpb	$9, -1(%ebp)
 7558 449d 7408     		je	L369
 7559 449f 807DFF13 		cmpb	$19, -1(%ebp)
 7560 44a3 7402     		je	L369
 7561 44a5 EB22     		jmp	L368
 7562              	L369:
2191:../../MMI/Resource/WriteImgRes.c ****         image_identifier == IMAGE_TYPE_GIF ||
2192:../../MMI/Resource/WriteImgRes.c ****         image_identifier == IMAGE_TYPE_JPG ||
2193:../../MMI/Resource/WriteImgRes.c ****         image_identifier == IMAGE_TYPE_PNG)
2194:../../MMI/Resource/WriteImgRes.c ****     {
2195:../../MMI/Resource/WriteImgRes.c ****         if ((file_size >> 24) > 0)
 7564              	LM580:
 7565 44a7 8B45F8   		movl	-8(%ebp), %eax
 7566 44aa C1E818   		shrl	$24, %eax
 7567 44ad 85C0     		testl	%eax, %eax
 7568 44af 7418     		je	L368
2196:../../MMI/Resource/WriteImgRes.c ****         {
2197:../../MMI/Resource/WriteImgRes.c ****             RES_PRINT_INFO("\nImage is too big.\n");
 7570              	LM581:
 7571 44b1 C7042471 		movl	$LC119, (%esp)
 7571      430000
 7572 44b8 E8000000 		call	_MtkResgenTrace
 7572      00
2198:../../MMI/Resource/WriteImgRes.c ****             return 0;
 7574              	LM582:
 7575 44bd C745DC00 		movl	$0, -36(%ebp)
 7575      000000
 7576 44c4 E97F0200 		jmp	L366
 7576      00
 7577              	L368:
2199:../../MMI/Resource/WriteImgRes.c ****         }
2200:../../MMI/Resource/WriteImgRes.c ****     }
2201:../../MMI/Resource/WriteImgRes.c **** 
2202:../../MMI/Resource/WriteImgRes.c ****     data_size = file_size;
 7579              	LM583:
 7580 44c9 8B45F8   		movl	-8(%ebp), %eax
 7581 44cc 8945EC   		movl	%eax, -20(%ebp)
2203:../../MMI/Resource/WriteImgRes.c ****     if (is9slice)
 7583              	LM584:
 7584 44cf 837D2000 		cmpl	$0, 32(%ebp)
 7585 44d3 7406     		je	L371
2204:../../MMI/Resource/WriteImgRes.c ****         data_size += 20;
 7587              	LM585:
 7588 44d5 8D45EC   		leal	-20(%ebp), %eax
 7589 44d8 830014   		addl	$20, (%eax)
 7590              	L371:
2205:../../MMI/Resource/WriteImgRes.c **** 
GAS LISTING d:/MTK/MTK2503/MTK2503/11CW1418SP4_03_CORETEK03AE_11C_V1_GPRS_MMI/plutommi/Customer/ResGenerator/gcctmp/ccaodaaa.s 			page 147


2206:../../MMI/Resource/WriteImgRes.c ****     if (toolFlag)
 7592              	LM586:
 7593 44db 833D0000 		cmpl	$0, _toolFlag
 7593      000000
 7594 44e2 7449     		je	L372
2207:../../MMI/Resource/WriteImgRes.c ****     {
2208:../../MMI/Resource/WriteImgRes.c ****         Load_Image_Data_Tool(input_file, file_size, data_size, image_identifier, n_frames, width, h
 7596              	LM587:
 7597 44e4 8B4524   		movl	36(%ebp), %eax
 7598 44e7 89442420 		movl	%eax, 32(%esp)
 7599 44eb 8B4520   		movl	32(%ebp), %eax
 7600 44ee 8944241C 		movl	%eax, 28(%esp)
 7601 44f2 8B451C   		movl	28(%ebp), %eax
 7602 44f5 89442418 		movl	%eax, 24(%esp)
 7603 44f9 8B4518   		movl	24(%ebp), %eax
 7604 44fc 89442414 		movl	%eax, 20(%esp)
 7605 4500 8B4514   		movl	20(%ebp), %eax
 7606 4503 89442410 		movl	%eax, 16(%esp)
 7607 4507 0FB645FF 		movzbl	-1(%ebp), %eax
 7608 450b 8944240C 		movl	%eax, 12(%esp)
 7609 450f 8B45EC   		movl	-20(%ebp), %eax
 7610 4512 89442408 		movl	%eax, 8(%esp)
 7611 4516 8B45F8   		movl	-8(%ebp), %eax
 7612 4519 89442404 		movl	%eax, 4(%esp)
 7613 451d 8B450C   		movl	12(%ebp), %eax
 7614 4520 890424   		movl	%eax, (%esp)
 7615 4523 E87DFCFF 		call	_Load_Image_Data_Tool
 7615      FF
 7616 4528 E9120200 		jmp	L373
 7616      00
 7617              	L372:
2209:../../MMI/Resource/WriteImgRes.c ****     }
2210:../../MMI/Resource/WriteImgRes.c **** 
2211:../../MMI/Resource/WriteImgRes.c **** #ifdef __MMI_RESOURCE_ENFB_SUPPORT__
2212:../../MMI/Resource/WriteImgRes.c ****     else if (processData->enfb_flag == 1) /* write ENFB header to CustImgDataxxx.h and image header
2213:../../MMI/Resource/WriteImgRes.c ****     {
2214:../../MMI/Resource/WriteImgRes.c ****         Load_Image_Data_ENFB(input_file, file_size, data_size, image_identifier, n_frames, width, h
2215:../../MMI/Resource/WriteImgRes.c **** 
2216:../../MMI/Resource/WriteImgRes.c ****         /* write ENFB header to CustImgDataxxx.h */
2217:../../MMI/Resource/WriteImgRes.c ****         ImageOutStreamPrintf(outstream,
2218:../../MMI/Resource/WriteImgRes.c ****             "\n\t0x%02X, 0x%02X, 0x%02X, 0x%02X, 0x%02X, 0x%02X, 0x%02X, 0x%02X, 0x%02X, 0x%02X, 0x
2219:../../MMI/Resource/WriteImgRes.c ****             (U8) 255,                   //type
2220:../../MMI/Resource/WriteImgRes.c ****             (U8) ENFBAssociatedIDAdded, //associated id
2221:../../MMI/Resource/WriteImgRes.c ****             (U8) 0,                     //reserved
2222:../../MMI/Resource/WriteImgRes.c ****             (U8) 0,                     //reserved
2223:../../MMI/Resource/WriteImgRes.c ****             (U8) (enfb_offset & 0xff),
2224:../../MMI/Resource/WriteImgRes.c ****             (U8) ((enfb_offset >> 8) & 0xff),
2225:../../MMI/Resource/WriteImgRes.c ****             (U8) ((enfb_offset >> 16) & 0xff),
2226:../../MMI/Resource/WriteImgRes.c ****             (U8) ((enfb_offset >> 24) & 0xff),
2227:../../MMI/Resource/WriteImgRes.c ****             (U8) (enfb_size & 0xff),
2228:../../MMI/Resource/WriteImgRes.c ****             (U8) ((enfb_size >> 8) & 0xff),
2229:../../MMI/Resource/WriteImgRes.c ****             (U8) ((enfb_size >> 16) & 0xff),
2230:../../MMI/Resource/WriteImgRes.c ****             (U8) ((enfb_size >> 24) & 0xff));
2231:../../MMI/Resource/WriteImgRes.c ****     }
2232:../../MMI/Resource/WriteImgRes.c **** #endif
2233:../../MMI/Resource/WriteImgRes.c ****     else
2234:../../MMI/Resource/WriteImgRes.c ****     {
GAS LISTING d:/MTK/MTK2503/MTK2503/11CW1418SP4_03_CORETEK03AE_11C_V1_GPRS_MMI/plutommi/Customer/ResGenerator/gcctmp/ccaodaaa.s 			page 148


2235:../../MMI/Resource/WriteImgRes.c ****         if (is9slice)
 7619              	LM588:
 7620              	LBB55:
 7621 452d 837D2000 		cmpl	$0, 32(%ebp)
 7622 4531 7424     		je	L374
2236:../../MMI/Resource/WriteImgRes.c ****         {
2237:../../MMI/Resource/WriteImgRes.c ****             ImageOutStreamPrintf(outstream, "\n\t0x%02X, 0x%02X, ", IMAGE_TYPE_9SLICE, n_frames);
 7624              	LM589:
 7625 4533 8B4514   		movl	20(%ebp), %eax
 7626 4536 8944240C 		movl	%eax, 12(%esp)
 7627 453a C7442408 		movl	$62, 8(%esp)
 7627      3E000000 
 7628 4542 C7442404 		movl	$LC120, 4(%esp)
 7628      85430000 
 7629 454a 8B4508   		movl	8(%ebp), %eax
 7630 454d 890424   		movl	%eax, (%esp)
 7631 4550 E8000000 		call	_ImageOutStreamPrintf
 7631      00
 7632 4555 EB22     		jmp	L375
 7633              	L374:
2238:../../MMI/Resource/WriteImgRes.c ****         }
2239:../../MMI/Resource/WriteImgRes.c ****         else
2240:../../MMI/Resource/WriteImgRes.c ****         {
2241:../../MMI/Resource/WriteImgRes.c ****             ImageOutStreamPrintf(outstream, "\n\t0x%02X, 0x%02X, ", image_identifier, n_frames);
 7635              	LM590:
 7636 4557 8B4514   		movl	20(%ebp), %eax
 7637 455a 8944240C 		movl	%eax, 12(%esp)
 7638 455e 0FB645FF 		movzbl	-1(%ebp), %eax
 7639 4562 89442408 		movl	%eax, 8(%esp)
 7640 4566 C7442404 		movl	$LC120, 4(%esp)
 7640      85430000 
 7641 456e 8B4508   		movl	8(%ebp), %eax
 7642 4571 890424   		movl	%eax, (%esp)
 7643 4574 E8000000 		call	_ImageOutStreamPrintf
 7643      00
 7644              	L375:
2242:../../MMI/Resource/WriteImgRes.c ****         }
2243:../../MMI/Resource/WriteImgRes.c **** 
2244:../../MMI/Resource/WriteImgRes.c ****         if (image_identifier == IMAGE_TYPE_3GP || image_identifier == IMAGE_TYPE_MP4 ||
 7646              	LM591:
 7647 4579 807DFF0E 		cmpb	$14, -1(%ebp)
 7648 457d 742C     		je	L377
 7649 457f 807DFF10 		cmpb	$16, -1(%ebp)
 7650 4583 7426     		je	L377
 7651 4585 807DFF0C 		cmpb	$12, -1(%ebp)
 7652 4589 7420     		je	L377
 7653 458b 807DFF19 		cmpb	$25, -1(%ebp)
 7654 458f 741A     		je	L377
 7655 4591 807DFF4A 		cmpb	$74, -1(%ebp)
 7656 4595 7414     		je	L377
 7657 4597 807DFF4C 		cmpb	$76, -1(%ebp)
 7658 459b 740E     		je	L377
 7659 459d 807DFF4E 		cmpb	$78, -1(%ebp)
 7660 45a1 7408     		je	L377
 7661 45a3 807DFF1D 		cmpb	$29, -1(%ebp)
 7662 45a7 7402     		je	L377
 7663 45a9 EB4A     		jmp	L376
GAS LISTING d:/MTK/MTK2503/MTK2503/11CW1418SP4_03_CORETEK03AE_11C_V1_GPRS_MMI/plutommi/Customer/ResGenerator/gcctmp/ccaodaaa.s 			page 149


 7664              	L377:
2245:../../MMI/Resource/WriteImgRes.c ****             image_identifier == IMAGE_TYPE_AVI || image_identifier == IMAGE_TYPE_M3D ||
2246:../../MMI/Resource/WriteImgRes.c ****             image_identifier == IMAGE_TYPE_RV  || image_identifier == IMAGE_TYPE_RM  ||
2247:../../MMI/Resource/WriteImgRes.c ****             image_identifier == IMAGE_TYPE_RMVB || image_identifier == IMAGE_TYPE_SWFLASH)
2248:../../MMI/Resource/WriteImgRes.c ****         {
2249:../../MMI/Resource/WriteImgRes.c ****             ImageOutStreamPrintf(outstream,
 7666              	LM592:
 7667 45ab 8B45F8   		movl	-8(%ebp), %eax
 7668 45ae 25000000 		andl	$-16777216, %eax
 7668      FF
 7669 45b3 C1E818   		shrl	$24, %eax
 7670 45b6 89442414 		movl	%eax, 20(%esp)
 7671 45ba 8B45F8   		movl	-8(%ebp), %eax
 7672 45bd 250000FF 		andl	$16711680, %eax
 7672      00
 7673 45c2 C1E810   		shrl	$16, %eax
 7674 45c5 89442410 		movl	%eax, 16(%esp)
 7675 45c9 8B45F8   		movl	-8(%ebp), %eax
 7676 45cc 2500FF00 		andl	$65280, %eax
 7676      00
 7677 45d1 C1E808   		shrl	$8, %eax
 7678 45d4 8944240C 		movl	%eax, 12(%esp)
 7679 45d8 0FB645F8 		movzbl	-8(%ebp),%eax
 7680 45dc 89442408 		movl	%eax, 8(%esp)
 7681 45e0 C7442404 		movl	$LC121, 4(%esp)
 7681      A0430000 
 7682 45e8 8B4508   		movl	8(%ebp), %eax
 7683 45eb 890424   		movl	%eax, (%esp)
 7684 45ee E8000000 		call	_ImageOutStreamPrintf
 7684      00
 7685 45f3 EB5F     		jmp	L378
 7686              	L376:
2250:../../MMI/Resource/WriteImgRes.c ****                 "0x%02X, 0x%02X, 0x%02X, 0x%02X, 0x00, 0x00,\n\t",
2251:../../MMI/Resource/WriteImgRes.c ****                 (file_size & 0xff),
2252:../../MMI/Resource/WriteImgRes.c ****                 (file_size & 0xff00) >> 8,
2253:../../MMI/Resource/WriteImgRes.c ****                 (file_size & 0xff0000) >> 16,
2254:../../MMI/Resource/WriteImgRes.c ****                 (file_size & 0xff000000) >> 24);
2255:../../MMI/Resource/WriteImgRes.c ****         }
2256:../../MMI/Resource/WriteImgRes.c ****         else
2257:../../MMI/Resource/WriteImgRes.c ****         {
2258:../../MMI/Resource/WriteImgRes.c ****             ImageOutStreamPrintf(outstream,
 7688              	LM593:
 7689 45f5 8B45F0   		movl	-16(%ebp), %eax
 7690 45f8 250000FF 		andl	$16711680, %eax
 7690      00
 7691 45fd C1E810   		shrl	$16, %eax
 7692 4600 8944241C 		movl	%eax, 28(%esp)
 7693 4604 8B45F0   		movl	-16(%ebp), %eax
 7694 4607 2500FF00 		andl	$65280, %eax
 7694      00
 7695 460c C1E808   		shrl	$8, %eax
 7696 460f 89442418 		movl	%eax, 24(%esp)
 7697 4613 0FB645F0 		movzbl	-16(%ebp),%eax
 7698 4617 89442414 		movl	%eax, 20(%esp)
 7699 461b 8B45EC   		movl	-20(%ebp), %eax
 7700 461e 250000FF 		andl	$16711680, %eax
 7700      00
GAS LISTING d:/MTK/MTK2503/MTK2503/11CW1418SP4_03_CORETEK03AE_11C_V1_GPRS_MMI/plutommi/Customer/ResGenerator/gcctmp/ccaodaaa.s 			page 150


 7701 4623 C1F810   		sarl	$16, %eax
 7702 4626 89442410 		movl	%eax, 16(%esp)
 7703 462a 8B45EC   		movl	-20(%ebp), %eax
 7704 462d 2500FF00 		andl	$65280, %eax
 7704      00
 7705 4632 C1F808   		sarl	$8, %eax
 7706 4635 8944240C 		movl	%eax, 12(%esp)
 7707 4639 0FB645EC 		movzbl	-20(%ebp),%eax
 7708 463d 89442408 		movl	%eax, 8(%esp)
 7709 4641 C7442404 		movl	$LC122, 4(%esp)
 7709      E0430000 
 7710 4649 8B4508   		movl	8(%ebp), %eax
 7711 464c 890424   		movl	%eax, (%esp)
 7712 464f E8000000 		call	_ImageOutStreamPrintf
 7712      00
 7713              	L378:
2259:../../MMI/Resource/WriteImgRes.c ****                 "0x%02X, 0x%02X, 0x%02X, 0x%02X, 0x%02X, 0x%02X,\n\t",
2260:../../MMI/Resource/WriteImgRes.c ****                 (data_size & 0xff),
2261:../../MMI/Resource/WriteImgRes.c ****                 (data_size & 0xff00) >> 8,
2262:../../MMI/Resource/WriteImgRes.c ****                 (data_size & 0xff0000) >> 16,
2263:../../MMI/Resource/WriteImgRes.c ****                 (width_height & 0xff),
2264:../../MMI/Resource/WriteImgRes.c ****                 (width_height & 0xff00) >> 8,
2265:../../MMI/Resource/WriteImgRes.c ****                 (width_height & 0xff0000) >> 16);
2266:../../MMI/Resource/WriteImgRes.c ****         }
2267:../../MMI/Resource/WriteImgRes.c **** 
2268:../../MMI/Resource/WriteImgRes.c ****         if (is9slice)
 7715              	LM594:
 7716 4654 837D2000 		cmpl	$0, 32(%ebp)
 7717 4658 7422     		je	L379
2269:../../MMI/Resource/WriteImgRes.c ****         {
2270:../../MMI/Resource/WriteImgRes.c ****             /* Write 9slice file header */
2271:../../MMI/Resource/WriteImgRes.c ****             mmi_rg_write_9slice_header(image_identifier, _9slice_filename, outstream, MMI_FALSE);
 7719              	LM595:
 7720 465a C744240C 		movl	$0, 12(%esp)
 7720      00000000 
 7721 4662 8B4508   		movl	8(%ebp), %eax
 7722 4665 89442408 		movl	%eax, 8(%esp)
 7723 4669 8B4524   		movl	36(%ebp), %eax
 7724 466c 89442404 		movl	%eax, 4(%esp)
 7725 4670 0FB645FF 		movzbl	-1(%ebp), %eax
 7726 4674 890424   		movl	%eax, (%esp)
 7727 4677 E8E70200 		call	_mmi_rg_write_9slice_header
 7727      00
 7728              	L379:
2272:../../MMI/Resource/WriteImgRes.c ****         }
2273:../../MMI/Resource/WriteImgRes.c **** 
2274:../../MMI/Resource/WriteImgRes.c ****         /*
2275:../../MMI/Resource/WriteImgRes.c ****         for (i = 0; i < file_size; i++)
2276:../../MMI/Resource/WriteImgRes.c ****         {
2277:../../MMI/Resource/WriteImgRes.c ****             U8 ch;
2278:../../MMI/Resource/WriteImgRes.c ****             ch = fgetc(input_file);
2279:../../MMI/Resource/WriteImgRes.c ****             ImageOutStreamPrintf(outstream, "%d,", ch);
2280:../../MMI/Resource/WriteImgRes.c ****             if (((i + 1) % 256) == 0)
2281:../../MMI/Resource/WriteImgRes.c ****             {
2282:../../MMI/Resource/WriteImgRes.c ****                 ImageOutStreamPrintf(outstream, "\n");
2283:../../MMI/Resource/WriteImgRes.c ****             }
2284:../../MMI/Resource/WriteImgRes.c ****         }
GAS LISTING d:/MTK/MTK2503/MTK2503/11CW1418SP4_03_CORETEK03AE_11C_V1_GPRS_MMI/plutommi/Customer/ResGenerator/gcctmp/ccaodaaa.s 			page 151


2285:../../MMI/Resource/WriteImgRes.c ****         */
2286:../../MMI/Resource/WriteImgRes.c ****         const int buffer_size = 16 * 1024;
 7730              	LM596:
 7731 467c C745E800 		movl	$16384, -24(%ebp)
 7731      400000
2287:../../MMI/Resource/WriteImgRes.c ****         int out_index = 0;
 7733              	LM597:
 7734 4683 C745E400 		movl	$0, -28(%ebp)
 7734      000000
2288:../../MMI/Resource/WriteImgRes.c ****         while (1)
 7736              	LM598:
 7737              	L380:
 7738              	LBB56:
 7739 468a 8965D8   		movl	%esp, -40(%ebp)
2289:../../MMI/Resource/WriteImgRes.c ****         {
2290:../../MMI/Resource/WriteImgRes.c ****             U8 buffer[buffer_size];
 7741              	LM599:
 7742 468d 8B45E8   		movl	-24(%ebp), %eax
 7743 4690 83C00F   		addl	$15, %eax
 7744 4693 C1E804   		shrl	$4, %eax
 7745 4696 C1E004   		sall	$4, %eax
 7746 4699 8945D0   		movl	%eax, -48(%ebp)
 7747 469c 8B45D0   		movl	-48(%ebp), %eax
 7748 469f E8000000 		call	__alloca
 7748      00
 7749 46a4 8D542424 		leal	36(%esp), %edx
 7750 46a8 8955D4   		movl	%edx, -44(%ebp)
2291:../../MMI/Resource/WriteImgRes.c ****             U32 size = fread(buffer, 1, buffer_size, input_file);
 7752              	LM600:
 7753 46ab 8B450C   		movl	12(%ebp), %eax
 7754 46ae 8944240C 		movl	%eax, 12(%esp)
 7755 46b2 8B45E8   		movl	-24(%ebp), %eax
 7756 46b5 89442408 		movl	%eax, 8(%esp)
 7757 46b9 C7442404 		movl	$1, 4(%esp)
 7757      01000000 
 7758 46c1 8B45D4   		movl	-44(%ebp), %eax
 7759 46c4 890424   		movl	%eax, (%esp)
 7760 46c7 E8000000 		call	_fread
 7760      00
 7761 46cc 8945E0   		movl	%eax, -32(%ebp)
2292:../../MMI/Resource/WriteImgRes.c ****             if (size == 0)
 7763              	LM601:
 7764 46cf 837DE000 		cmpl	$0, -32(%ebp)
 7765 46d3 7505     		jne	L383
2293:../../MMI/Resource/WriteImgRes.c ****             {
2294:../../MMI/Resource/WriteImgRes.c ****                 break;
 7767              	LM602:
 7768              	LBB57:
 7769 46d5 8B65D8   		movl	-40(%ebp), %esp
 7770              	LBE57:
 7771 46d8 EB65     		jmp	L373
 7772              	L383:
2295:../../MMI/Resource/WriteImgRes.c ****             }
2296:../../MMI/Resource/WriteImgRes.c ****             for (i = 0; i < size; i++)
 7774              	LM603:
 7775 46da C745F400 		movl	$0, -12(%ebp)
 7775      000000
GAS LISTING d:/MTK/MTK2503/MTK2503/11CW1418SP4_03_CORETEK03AE_11C_V1_GPRS_MMI/plutommi/Customer/ResGenerator/gcctmp/ccaodaaa.s 			page 152


 7776              	L384:
 7777 46e1 8B45F4   		movl	-12(%ebp), %eax
 7778 46e4 3B45E0   		cmpl	-32(%ebp), %eax
 7779 46e7 7202     		jb	L387
 7780 46e9 EB4C     		jmp	L385
 7781              	L387:
2297:../../MMI/Resource/WriteImgRes.c ****             {
2298:../../MMI/Resource/WriteImgRes.c ****                 ImageOutStreamPrintf(outstream, "%d,", buffer[i]);
 7783              	LM604:
 7784 46eb 8B45F4   		movl	-12(%ebp), %eax
 7785 46ee 8B55D4   		movl	-44(%ebp), %edx
 7786 46f1 0FB60402 		movzbl	(%edx,%eax), %eax
 7787 46f5 89442408 		movl	%eax, 8(%esp)
 7788 46f9 C7442404 		movl	$LC123, 4(%esp)
 7788      12440000 
 7789 4701 8B4508   		movl	8(%ebp), %eax
 7790 4704 890424   		movl	%eax, (%esp)
 7791 4707 E8000000 		call	_ImageOutStreamPrintf
 7791      00
2299:../../MMI/Resource/WriteImgRes.c ****                 if ((++out_index % 256) == 0)
 7793              	LM605:
 7794 470c 8D45E4   		leal	-28(%ebp), %eax
 7795 470f FF00     		incl	(%eax)
 7796 4711 8B45E4   		movl	-28(%ebp), %eax
 7797 4714 25FF0000 		andl	$255, %eax
 7797      00
 7798 4719 85C0     		testl	%eax, %eax
 7799 471b 7513     		jne	L386
2300:../../MMI/Resource/WriteImgRes.c ****                 {
2301:../../MMI/Resource/WriteImgRes.c ****                     ImageOutStreamPrintf(outstream, "\n");
 7801              	LM606:
 7802 471d C7442404 		movl	$LC73, 4(%esp)
 7802      FC1E0000 
 7803 4725 8B4508   		movl	8(%ebp), %eax
 7804 4728 890424   		movl	%eax, (%esp)
 7805 472b E8000000 		call	_ImageOutStreamPrintf
 7805      00
 7807              	LM607:
 7808              	L386:
 7809 4730 8D45F4   		leal	-12(%ebp), %eax
 7810 4733 FF00     		incl	(%eax)
 7811 4735 EBAA     		jmp	L384
 7812              	L385:
 7813 4737 8B65D8   		movl	-40(%ebp), %esp
 7814              	LBE56:
 7815 473a E94BFFFF 		jmp	L380
 7815      FF
 7816              	L373:
2302:../../MMI/Resource/WriteImgRes.c ****                 }
2303:../../MMI/Resource/WriteImgRes.c ****             }
2304:../../MMI/Resource/WriteImgRes.c ****         }
2305:../../MMI/Resource/WriteImgRes.c ****     }
2306:../../MMI/Resource/WriteImgRes.c **** 
2307:../../MMI/Resource/WriteImgRes.c ****     return file_size + 8;
 7818              	LM608:
 7819 473f 8B45F8   		movl	-8(%ebp), %eax
 7820              	LBE55:
GAS LISTING d:/MTK/MTK2503/MTK2503/11CW1418SP4_03_CORETEK03AE_11C_V1_GPRS_MMI/plutommi/Customer/ResGenerator/gcctmp/ccaodaaa.s 			page 153


 7821 4742 83C008   		addl	$8, %eax
 7822 4745 8945DC   		movl	%eax, -36(%ebp)
2308:../../MMI/Resource/WriteImgRes.c **** }
 7824              	LM609:
 7825              	L366:
 7826              	LBE54:
 7827 4748 8B45DC   		movl	-36(%ebp), %eax
 7828 474b C9       		leave
 7829 474c C3       		ret
 7845              	Lscope12:
 7847              	LC124:
 7848 474d 0A457272 		.ascii "\12Err opening %s\0"
 7848      206F7065 
 7848      6E696E67 
 7848      20257300 
 7849              	LC125:
 7850 475d 72657065 		.ascii "repeat\0"
 7850      617400
 7851              	LC126:
 7852 4764 73747265 		.ascii "stretch\0"
 7852      74636800 
 7853              	LC127:
 7854 476c 73747265 		.ascii "stretch_no_dither\0"
 7854      7463685F 
 7854      6E6F5F64 
 7854      69746865 
 7854      7200
 7855 477e 89F6     		.align 32
 7856              	LC128:
 7857 4780 0A       		.ascii "\12"
 7858 4781 39736C69 		.ascii "9slice file err, please write [repeat/stretch/stretch_no_dither], can not be[%s],set defau
 7858      63652066 
 7858      696C6520 
 7858      6572722C 
 7858      20706C65 
 7859              	LC129:
 7860 47ec 0A457272 		.ascii "\12Err in 9slice file [%s]\12\0"
 7860      20696E20 
 7860      39736C69 
 7860      63652066 
 7860      696C6520 
 7861 4806 90909090 		.align 32
 7861      90909090 
 7861      90909090 
 7861      90909090 
 7861      90909090 
 7862              	LC130:
 7863 4820 57726974 		.ascii "Write 9slice image header [%s]  position=[%d-%d-%d-%d] zoom=[%s]\12\0"
 7863      65203973 
 7863      6C696365 
 7863      20696D61 
 7863      67652068 
 7864 4862 90909090 		.align 32
 7864      90909090 
 7864      90909090 
 7864      90909090 
 7864      90909090 
GAS LISTING d:/MTK/MTK2503/MTK2503/11CW1418SP4_03_CORETEK03AE_11C_V1_GPRS_MMI/plutommi/Customer/ResGenerator/gcctmp/ccaodaaa.s 			page 154


 7865              	LC131:
 7866 4880 25632563 		.ascii "%c%c%c%c%c%c%c%c%c%c%c%c%c%c%c%c%c%c%c%c\0"
 7866      25632563 
 7866      25632563 
 7866      25632563 
 7866      25632563 
 7867 48a9 90909090 		.align 32
 7867      90909090 
 7867      90909090 
 7867      90909090 
 7867      90909090 
 7868              	LC132:
 7869 48c0 0A09     		.ascii "\12\11"
 7870 48c2 30782530 		.ascii "0x%02X, 0x%02X, 0x%02X, 0x%02X, 0x%02X, 0x%02X, 0x%02X, 0x%02X, 0x%02X, 0x%02X, 0x%02X, 0x
 7870      32582C20 
 7870      30782530 
 7870      32582C20 
 7870      30782530 
 7876              	.globl _mmi_rg_write_9slice_header
 7878              	_mmi_rg_write_9slice_header:
2309:../../MMI/Resource/WriteImgRes.c **** 
2310:../../MMI/Resource/WriteImgRes.c **** 
2311:../../MMI/Resource/WriteImgRes.c **** #if defined(__MMI_RESOURCE_IMAGE_COMPRESS__)
2312:../../MMI/Resource/WriteImgRes.c **** 
2313:../../MMI/Resource/WriteImgRes.c **** static void mmi_rg_set_compress(BOOL is_compress)
2314:../../MMI/Resource/WriteImgRes.c **** {
2315:../../MMI/Resource/WriteImgRes.c ****     g_is_compress = is_compress;
2316:../../MMI/Resource/WriteImgRes.c **** }
2317:../../MMI/Resource/WriteImgRes.c **** 
2318:../../MMI/Resource/WriteImgRes.c **** static U8* mmi_rg_compress_image_imp(U8 *buffer, S32 org_size, S32 *dest_size, S32 image_type, U32 
2319:../../MMI/Resource/WriteImgRes.c **** {
2320:../../MMI/Resource/WriteImgRes.c ****     int array_size = 0;
2321:../../MMI/Resource/WriteImgRes.c ****     U8 *buffer_org = NULL;
2322:../../MMI/Resource/WriteImgRes.c ****     U8 *dest_buf = NULL;
2323:../../MMI/Resource/WriteImgRes.c **** 
2324:../../MMI/Resource/WriteImgRes.c ****     if(n_frames==0)
2325:../../MMI/Resource/WriteImgRes.c ****     {
2326:../../MMI/Resource/WriteImgRes.c ****         n_frames = 1;
2327:../../MMI/Resource/WriteImgRes.c ****     }
2328:../../MMI/Resource/WriteImgRes.c **** 
2329:../../MMI/Resource/WriteImgRes.c ****     array_size = org_size + 8;
2330:../../MMI/Resource/WriteImgRes.c ****     if(is9slice)
2331:../../MMI/Resource/WriteImgRes.c ****     {
2332:../../MMI/Resource/WriteImgRes.c ****         array_size += 20;
2333:../../MMI/Resource/WriteImgRes.c ****     }
2334:../../MMI/Resource/WriteImgRes.c ****     
2335:../../MMI/Resource/WriteImgRes.c ****     *dest_size = array_size*2;
2336:../../MMI/Resource/WriteImgRes.c ****     buffer_org = malloc(array_size);
2337:../../MMI/Resource/WriteImgRes.c ****     dest_buf = malloc(array_size * 2);
2338:../../MMI/Resource/WriteImgRes.c **** 
2339:../../MMI/Resource/WriteImgRes.c ****     if (buffer_org == NULL || dest_buf == NULL)
2340:../../MMI/Resource/WriteImgRes.c ****     {
2341:../../MMI/Resource/WriteImgRes.c ****         fprintf(stderr, "[ResZip]ABM compress Memory not enough buffer_org=[%d] dest_buf=[%d]\n", b
2342:../../MMI/Resource/WriteImgRes.c ****         RESIMG_LOG_E("[ResZip]ABM compress Memory not enough buffer_org=[%d] dest_buf=[%d]\n", buff
2343:../../MMI/Resource/WriteImgRes.c ****         assert(0);
2344:../../MMI/Resource/WriteImgRes.c ****         exit(2);
2345:../../MMI/Resource/WriteImgRes.c ****     }
GAS LISTING d:/MTK/MTK2503/MTK2503/11CW1418SP4_03_CORETEK03AE_11C_V1_GPRS_MMI/plutommi/Customer/ResGenerator/gcctmp/ccaodaaa.s 			page 155


2346:../../MMI/Resource/WriteImgRes.c **** 
2347:../../MMI/Resource/WriteImgRes.c ****     /* resource header */
2348:../../MMI/Resource/WriteImgRes.c ****     if (is9slice)
2349:../../MMI/Resource/WriteImgRes.c ****     {
2350:../../MMI/Resource/WriteImgRes.c ****         sprintf(buffer_org, "%c%c", IMAGE_TYPE_9SLICE, n_frames);
2351:../../MMI/Resource/WriteImgRes.c ****     }
2352:../../MMI/Resource/WriteImgRes.c ****     else              
2353:../../MMI/Resource/WriteImgRes.c ****     {
2354:../../MMI/Resource/WriteImgRes.c ****         sprintf(buffer_org, "%c%c", image_type, n_frames);
2355:../../MMI/Resource/WriteImgRes.c ****     }
2356:../../MMI/Resource/WriteImgRes.c **** 
2357:../../MMI/Resource/WriteImgRes.c ****     /* data size, should sub 8 byte header */
2358:../../MMI/Resource/WriteImgRes.c ****     sprintf(buffer_org+2,
2359:../../MMI/Resource/WriteImgRes.c ****             "%c%c%c",
2360:../../MMI/Resource/WriteImgRes.c ****             ( (array_size - 8) & 0x000000ff),
2361:../../MMI/Resource/WriteImgRes.c ****             ( (array_size - 8) & 0x0000ff00) >> 8,
2362:../../MMI/Resource/WriteImgRes.c ****             ( (array_size - 8) & 0x00ff0000) >> 16);
2363:../../MMI/Resource/WriteImgRes.c ****     sprintf(buffer_org+5,
2364:../../MMI/Resource/WriteImgRes.c ****             "%c%c%c",
2365:../../MMI/Resource/WriteImgRes.c ****             (width_height & 0x000000ff),
2366:../../MMI/Resource/WriteImgRes.c ****             (width_height & 0x0000ff00) >> 8,
2367:../../MMI/Resource/WriteImgRes.c ****             (width_height & 0x00ff0000) >> 16);
2368:../../MMI/Resource/WriteImgRes.c **** 
2369:../../MMI/Resource/WriteImgRes.c ****     if(is9slice)
2370:../../MMI/Resource/WriteImgRes.c ****     {
2371:../../MMI/Resource/WriteImgRes.c ****         mmi_rg_get_9slice_header((U8)image_type, buffer_org + 8, _9slice_filename);
2372:../../MMI/Resource/WriteImgRes.c ****         memcpy(buffer_org+28, buffer, org_size);
2373:../../MMI/Resource/WriteImgRes.c ****     }
2374:../../MMI/Resource/WriteImgRes.c ****     else
2375:../../MMI/Resource/WriteImgRes.c ****     {
2376:../../MMI/Resource/WriteImgRes.c ****         memcpy(buffer_org+8, buffer, org_size);
2377:../../MMI/Resource/WriteImgRes.c ****     }
2378:../../MMI/Resource/WriteImgRes.c **** 
2379:../../MMI/Resource/WriteImgRes.c ****     compress2(dest_buf, dest_size, buffer_org, array_size, Z_BEST_COMPRESSION);
2380:../../MMI/Resource/WriteImgRes.c **** 
2381:../../MMI/Resource/WriteImgRes.c ****     free(buffer_org);
2382:../../MMI/Resource/WriteImgRes.c **** 
2383:../../MMI/Resource/WriteImgRes.c ****     if (*dest_size < array_size && array_size != 0 && *dest_size != 0  && (((array_size-(*dest_size
2384:../../MMI/Resource/WriteImgRes.c ****     {
2385:../../MMI/Resource/WriteImgRes.c ****         /* compress rate > __MMI_RESOURCE_IMAGE_COMPRESS_RATE__ then compress, else write directly*
2386:../../MMI/Resource/WriteImgRes.c ****         FILE *pFile;
2387:../../MMI/Resource/WriteImgRes.c **** 
2388:../../MMI/Resource/WriteImgRes.c ****         if(pFile = fopen(ZIP_OUTPUT_FILE, "a"))
2389:../../MMI/Resource/WriteImgRes.c ****         {
2390:../../MMI/Resource/WriteImgRes.c ****             fprintf(pFile, "%s,%d,%d,%d,Yes\n", symbol, array_size, *dest_size, array_size-*dest_si
2391:../../MMI/Resource/WriteImgRes.c ****             fclose(pFile);
2392:../../MMI/Resource/WriteImgRes.c ****         }
2393:../../MMI/Resource/WriteImgRes.c **** 
2394:../../MMI/Resource/WriteImgRes.c ****         g_res_compress_data_image[g_res_compress_count_image].ro_len = *dest_size;
2395:../../MMI/Resource/WriteImgRes.c ****         g_res_compress_data_image[g_res_compress_count_image].zi_len = array_size;
2396:../../MMI/Resource/WriteImgRes.c **** 
2397:../../MMI/Resource/WriteImgRes.c ****         g_res_compress_count_image++;
2398:../../MMI/Resource/WriteImgRes.c **** 
2399:../../MMI/Resource/WriteImgRes.c ****         g_is_compressed = TRUE;
2400:../../MMI/Resource/WriteImgRes.c **** 
2401:../../MMI/Resource/WriteImgRes.c ****         return dest_buf;
2402:../../MMI/Resource/WriteImgRes.c ****     }
GAS LISTING d:/MTK/MTK2503/MTK2503/11CW1418SP4_03_CORETEK03AE_11C_V1_GPRS_MMI/plutommi/Customer/ResGenerator/gcctmp/ccaodaaa.s 			page 156


2403:../../MMI/Resource/WriteImgRes.c ****     else
2404:../../MMI/Resource/WriteImgRes.c ****     {
2405:../../MMI/Resource/WriteImgRes.c ****         FILE *pFile;
2406:../../MMI/Resource/WriteImgRes.c **** 
2407:../../MMI/Resource/WriteImgRes.c ****         if(pFile = fopen(ZIP_OUTPUT_FILE, "a"))
2408:../../MMI/Resource/WriteImgRes.c ****         {
2409:../../MMI/Resource/WriteImgRes.c ****             fprintf(pFile, "%s,%d,%d,%d,No\n", symbol, array_size, *dest_size, array_size-*dest_siz
2410:../../MMI/Resource/WriteImgRes.c ****             fclose(pFile);
2411:../../MMI/Resource/WriteImgRes.c ****         }
2412:../../MMI/Resource/WriteImgRes.c ****         free(dest_buf);
2413:../../MMI/Resource/WriteImgRes.c ****     }
2414:../../MMI/Resource/WriteImgRes.c **** 
2415:../../MMI/Resource/WriteImgRes.c ****     return NULL;
2416:../../MMI/Resource/WriteImgRes.c **** }
2417:../../MMI/Resource/WriteImgRes.c **** 
2418:../../MMI/Resource/WriteImgRes.c **** U8* mmi_rg_compress_image(U8 *buffer, S32 org_size, S32 *dest_size, S32 image_type, U32 width_heigh
2419:../../MMI/Resource/WriteImgRes.c **** {
2420:../../MMI/Resource/WriteImgRes.c ****     if (g_is_compress && extImageFlag == SYSTEM_IMAGE)
2421:../../MMI/Resource/WriteImgRes.c ****     {
2422:../../MMI/Resource/WriteImgRes.c ****         if (g_res_compress_count_image>= MAX_COMPRESSED_ITEM)
2423:../../MMI/Resource/WriteImgRes.c ****         {
2424:../../MMI/Resource/WriteImgRes.c ****             fprintf(stderr, "[ResZip] Image resource reach Max compress item count, please change M
2425:../../MMI/Resource/WriteImgRes.c ****             RESIMG_LOG_E("[ResZip] Image resource reach Max compress item count, please change MAX_
2426:../../MMI/Resource/WriteImgRes.c ****             assert(0);
2427:../../MMI/Resource/WriteImgRes.c ****             exit(2);
2428:../../MMI/Resource/WriteImgRes.c ****         }
2429:../../MMI/Resource/WriteImgRes.c ****         return mmi_rg_compress_image_imp(buffer, org_size, dest_size, image_type, width_height, sym
2430:../../MMI/Resource/WriteImgRes.c **** 
2431:../../MMI/Resource/WriteImgRes.c ****     }
2432:../../MMI/Resource/WriteImgRes.c **** 
2433:../../MMI/Resource/WriteImgRes.c ****     return NULL;
2434:../../MMI/Resource/WriteImgRes.c **** }
2435:../../MMI/Resource/WriteImgRes.c **** 
2436:../../MMI/Resource/WriteImgRes.c **** 
2437:../../MMI/Resource/WriteImgRes.c **** U8* mmi_rg_output_compressed_image(U8 *dest_buf, S32 dest_size, ResgenImageOutStream * outstream)
2438:../../MMI/Resource/WriteImgRes.c **** {
2439:../../MMI/Resource/WriteImgRes.c ****     U32 i;
2440:../../MMI/Resource/WriteImgRes.c **** 
2441:../../MMI/Resource/WriteImgRes.c ****     for (i = 0; i < dest_size-1; i++)
2442:../../MMI/Resource/WriteImgRes.c ****     {
2443:../../MMI/Resource/WriteImgRes.c ****         ImageOutStreamPrintf(outstream, "0x%02X, ", dest_buf[i]);
2444:../../MMI/Resource/WriteImgRes.c ****         if (((i + 1) % 16) == 0)
2445:../../MMI/Resource/WriteImgRes.c ****         {
2446:../../MMI/Resource/WriteImgRes.c ****             ImageOutStreamPrintf(outstream, "\n\t");
2447:../../MMI/Resource/WriteImgRes.c ****         }
2448:../../MMI/Resource/WriteImgRes.c ****     }
2449:../../MMI/Resource/WriteImgRes.c ****     ImageOutStreamPrintf(outstream, "0x%02X", dest_buf[i]);
2450:../../MMI/Resource/WriteImgRes.c **** 
2451:../../MMI/Resource/WriteImgRes.c ****     free(dest_buf);
2452:../../MMI/Resource/WriteImgRes.c **** }
2453:../../MMI/Resource/WriteImgRes.c **** 
2454:../../MMI/Resource/WriteImgRes.c **** #endif /* __MMI_RESOURCE_IMAGE_COMPRESS__ */
2455:../../MMI/Resource/WriteImgRes.c **** 
2456:../../MMI/Resource/WriteImgRes.c **** /*****************************************************************************
2457:../../MMI/Resource/WriteImgRes.c ****  * FUNCTION
2458:../../MMI/Resource/WriteImgRes.c ****  *  mmi_rg_write_9slice_header
2459:../../MMI/Resource/WriteImgRes.c ****  * DESCRIPTION
GAS LISTING d:/MTK/MTK2503/MTK2503/11CW1418SP4_03_CORETEK03AE_11C_V1_GPRS_MMI/plutommi/Customer/ResGenerator/gcctmp/ccaodaaa.s 			page 157


2460:../../MMI/Resource/WriteImgRes.c ****  *  write 9slice header, include position and read file type to output file
2461:../../MMI/Resource/WriteImgRes.c ****  * PARAMETERS
2462:../../MMI/Resource/WriteImgRes.c ****  *  output_file             [IN]        output file handle
2463:../../MMI/Resource/WriteImgRes.c ****  *  in_filename             [IN]        input image name
2464:../../MMI/Resource/WriteImgRes.c ****  *  real_imagetype          [IN]        Real image type of 9slice images
2465:../../MMI/Resource/WriteImgRes.c ****  * RETURNS
2466:../../MMI/Resource/WriteImgRes.c ****  *  void
2467:../../MMI/Resource/WriteImgRes.c ****  *****************************************************************************/
2468:../../MMI/Resource/WriteImgRes.c **** void mmi_rg_write_9slice_header(U8 real_imagetype, U8* _9slice_filename, ResgenImageOutStream * out
2469:../../MMI/Resource/WriteImgRes.c **** {
 7880              	LM610:
 7881 4963 55       		pushl	%ebp
 7882 4964 89E5     		movl	%esp, %ebp
 7883 4966 56       		pushl	%esi
 7884 4967 53       		pushl	%ebx
 7885 4968 81EC2001 		subl	$288, %esp
 7885      0000
 7886 496e 8B4508   		movl	8(%ebp), %eax
 7887 4971 8845F7   		movb	%al, -9(%ebp)
2470:../../MMI/Resource/WriteImgRes.c ****     U8 buffer[128];
2471:../../MMI/Resource/WriteImgRes.c ****     FILE *p_9slice_file;
2472:../../MMI/Resource/WriteImgRes.c ****     U32 x1,y1,x2,y2;
2473:../../MMI/Resource/WriteImgRes.c ****     U32 zoom_type;
2474:../../MMI/Resource/WriteImgRes.c ****     U32 do_dither; /* 1: no to do dithering,  0: try to do dithering*/
2475:../../MMI/Resource/WriteImgRes.c **** 
2476:../../MMI/Resource/WriteImgRes.c ****     p_9slice_file = fopen(_9slice_filename, "r");
 7889              	LM611:
 7890              	LBB58:
 7891 4974 C7442404 		movl	$LC96, 4(%esp)
 7891      C2310000 
 7892 497c 8B450C   		movl	12(%ebp), %eax
 7893 497f 890424   		movl	%eax, (%esp)
 7894 4982 E8000000 		call	_fopen
 7894      00
 7895 4987 898564FF 		movl	%eax, -156(%ebp)
 7895      FFFF
2477:../../MMI/Resource/WriteImgRes.c ****     if (p_9slice_file == NULL)
 7897              	LM612:
 7898 498d 83BD64FF 		cmpl	$0, -156(%ebp)
 7898      FFFF00
 7899 4994 755E     		jne	L390
2478:../../MMI/Resource/WriteImgRes.c ****     {
2479:../../MMI/Resource/WriteImgRes.c ****         fprintf(stderr, "\nErr opening %s", _9slice_filename);
 7901              	LM613:
 7902 4996 8B450C   		movl	12(%ebp), %eax
 7903 4999 89442408 		movl	%eax, 8(%esp)
 7904 499d C7442404 		movl	$LC124, 4(%esp)
 7904      4D470000 
 7905 49a5 A1000000 		movl	__imp___iob, %eax
 7905      00
 7906 49aa 83C040   		addl	$64, %eax
 7907 49ad 890424   		movl	%eax, (%esp)
 7908 49b0 E8000000 		call	_fprintf
 7908      00
2480:../../MMI/Resource/WriteImgRes.c ****         RESIMG_LOG_E("\nErr opening %s", _9slice_filename);
 7910              	LM614:
 7911 49b5 8B450C   		movl	12(%ebp), %eax
GAS LISTING d:/MTK/MTK2503/MTK2503/11CW1418SP4_03_CORETEK03AE_11C_V1_GPRS_MMI/plutommi/Customer/ResGenerator/gcctmp/ccaodaaa.s 			page 158


 7912 49b8 8944240C 		movl	%eax, 12(%esp)
 7913 49bc C7442408 		movl	$LC124, 8(%esp)
 7913      4D470000 
 7914 49c4 C7442404 		movl	$LC34, 4(%esp)
 7914      64060000 
 7915 49cc C7042403 		movl	$3, (%esp)
 7915      000000
 7916 49d3 E8000000 		call	_reslog_adaptor_log
 7916      00
2481:../../MMI/Resource/WriteImgRes.c ****         assert(0);
 7918              	LM615:
 7919 49d8 C7442408 		movl	$2481, 8(%esp)
 7919      B1090000 
 7920 49e0 C7442404 		movl	$LC35, 4(%esp)
 7920      80060000 
 7921 49e8 C70424A1 		movl	$LC36, (%esp)
 7921      060000
 7922 49ef E8000000 		call	__assert
 7922      00
 7923              	L390:
2482:../../MMI/Resource/WriteImgRes.c ****         exit(2);
2483:../../MMI/Resource/WriteImgRes.c ****     }
2484:../../MMI/Resource/WriteImgRes.c **** 
2485:../../MMI/Resource/WriteImgRes.c ****     fgets(buffer, 128, p_9slice_file);
 7925              	LM616:
 7926 49f4 8B8564FF 		movl	-156(%ebp), %eax
 7926      FFFF
 7927 49fa 89442408 		movl	%eax, 8(%esp)
 7928 49fe C7442404 		movl	$128, 4(%esp)
 7928      80000000 
 7929 4a06 8D8568FF 		leal	-152(%ebp), %eax
 7929      FFFF
 7930 4a0c 890424   		movl	%eax, (%esp)
 7931 4a0f E8000000 		call	_fgets
 7931      00
2486:../../MMI/Resource/WriteImgRes.c ****     x1 = atoi(buffer);
 7933              	LM617:
 7934 4a14 8D8568FF 		leal	-152(%ebp), %eax
 7934      FFFF
 7935 4a1a 890424   		movl	%eax, (%esp)
 7936 4a1d E8000000 		call	_atoi
 7936      00
 7937 4a22 898560FF 		movl	%eax, -160(%ebp)
 7937      FFFF
2487:../../MMI/Resource/WriteImgRes.c ****     fgets(buffer, 128, p_9slice_file);
 7939              	LM618:
 7940 4a28 8B8564FF 		movl	-156(%ebp), %eax
 7940      FFFF
 7941 4a2e 89442408 		movl	%eax, 8(%esp)
 7942 4a32 C7442404 		movl	$128, 4(%esp)
 7942      80000000 
 7943 4a3a 8D8568FF 		leal	-152(%ebp), %eax
 7943      FFFF
 7944 4a40 890424   		movl	%eax, (%esp)
 7945 4a43 E8000000 		call	_fgets
 7945      00
2488:../../MMI/Resource/WriteImgRes.c ****     y1 = atoi(buffer);
GAS LISTING d:/MTK/MTK2503/MTK2503/11CW1418SP4_03_CORETEK03AE_11C_V1_GPRS_MMI/plutommi/Customer/ResGenerator/gcctmp/ccaodaaa.s 			page 159


 7947              	LM619:
 7948 4a48 8D8568FF 		leal	-152(%ebp), %eax
 7948      FFFF
 7949 4a4e 890424   		movl	%eax, (%esp)
 7950 4a51 E8000000 		call	_atoi
 7950      00
 7951 4a56 89855CFF 		movl	%eax, -164(%ebp)
 7951      FFFF
2489:../../MMI/Resource/WriteImgRes.c ****     fgets(buffer, 128, p_9slice_file);
 7953              	LM620:
 7954 4a5c 8B8564FF 		movl	-156(%ebp), %eax
 7954      FFFF
 7955 4a62 89442408 		movl	%eax, 8(%esp)
 7956 4a66 C7442404 		movl	$128, 4(%esp)
 7956      80000000 
 7957 4a6e 8D8568FF 		leal	-152(%ebp), %eax
 7957      FFFF
 7958 4a74 890424   		movl	%eax, (%esp)
 7959 4a77 E8000000 		call	_fgets
 7959      00
2490:../../MMI/Resource/WriteImgRes.c ****     x2 = atoi(buffer);
 7961              	LM621:
 7962 4a7c 8D8568FF 		leal	-152(%ebp), %eax
 7962      FFFF
 7963 4a82 890424   		movl	%eax, (%esp)
 7964 4a85 E8000000 		call	_atoi
 7964      00
 7965 4a8a 898558FF 		movl	%eax, -168(%ebp)
 7965      FFFF
2491:../../MMI/Resource/WriteImgRes.c ****     fgets(buffer, 128, p_9slice_file);
 7967              	LM622:
 7968 4a90 8B8564FF 		movl	-156(%ebp), %eax
 7968      FFFF
 7969 4a96 89442408 		movl	%eax, 8(%esp)
 7970 4a9a C7442404 		movl	$128, 4(%esp)
 7970      80000000 
 7971 4aa2 8D8568FF 		leal	-152(%ebp), %eax
 7971      FFFF
 7972 4aa8 890424   		movl	%eax, (%esp)
 7973 4aab E8000000 		call	_fgets
 7973      00
2492:../../MMI/Resource/WriteImgRes.c ****     y2 = atoi(buffer);
 7975              	LM623:
 7976 4ab0 8D8568FF 		leal	-152(%ebp), %eax
 7976      FFFF
 7977 4ab6 890424   		movl	%eax, (%esp)
 7978 4ab9 E8000000 		call	_atoi
 7978      00
 7979 4abe 898554FF 		movl	%eax, -172(%ebp)
 7979      FFFF
2493:../../MMI/Resource/WriteImgRes.c ****     fgets(buffer, 128, p_9slice_file);  /* zoom type */
 7981              	LM624:
 7982 4ac4 8B8564FF 		movl	-156(%ebp), %eax
 7982      FFFF
 7983 4aca 89442408 		movl	%eax, 8(%esp)
 7984 4ace C7442404 		movl	$128, 4(%esp)
 7984      80000000 
GAS LISTING d:/MTK/MTK2503/MTK2503/11CW1418SP4_03_CORETEK03AE_11C_V1_GPRS_MMI/plutommi/Customer/ResGenerator/gcctmp/ccaodaaa.s 			page 160


 7985 4ad6 8D8568FF 		leal	-152(%ebp), %eax
 7985      FFFF
 7986 4adc 890424   		movl	%eax, (%esp)
 7987 4adf E8000000 		call	_fgets
 7987      00
2494:../../MMI/Resource/WriteImgRes.c **** 
2495:../../MMI/Resource/WriteImgRes.c ****     fclose(p_9slice_file);
 7989              	LM625:
 7990 4ae4 8B8564FF 		movl	-156(%ebp), %eax
 7990      FFFF
 7991 4aea 890424   		movl	%eax, (%esp)
 7992 4aed E8000000 		call	_fclose
 7992      00
2496:../../MMI/Resource/WriteImgRes.c **** 
2497:../../MMI/Resource/WriteImgRes.c ****     if (!(strcmp(buffer, "repeat")))
 7994              	LM626:
 7995 4af2 C7442404 		movl	$LC125, 4(%esp)
 7995      5D470000 
 7996 4afa 8D8568FF 		leal	-152(%ebp), %eax
 7996      FFFF
 7997 4b00 890424   		movl	%eax, (%esp)
 7998 4b03 E8000000 		call	_strcmp
 7998      00
 7999 4b08 85C0     		testl	%eax, %eax
 8000 4b0a 7519     		jne	L391
2498:../../MMI/Resource/WriteImgRes.c ****     {
2499:../../MMI/Resource/WriteImgRes.c ****         zoom_type = 0;
 8002              	LM627:
 8003 4b0c C78550FF 		movl	$0, -176(%ebp)
 8003      FFFF0000 
 8003      0000
2500:../../MMI/Resource/WriteImgRes.c ****         do_dither = 1;
 8005              	LM628:
 8006 4b16 C7854CFF 		movl	$1, -180(%ebp)
 8006      FFFF0100 
 8006      0000
 8007 4b20 E98A0000 		jmp	L392
 8007      00
 8008              	L391:
2501:../../MMI/Resource/WriteImgRes.c ****     }
2502:../../MMI/Resource/WriteImgRes.c ****     else if (!(strcmp(buffer, "stretch")))
 8010              	LM629:
 8011 4b25 C7442404 		movl	$LC126, 4(%esp)
 8011      64470000 
 8012 4b2d 8D8568FF 		leal	-152(%ebp), %eax
 8012      FFFF
 8013 4b33 890424   		movl	%eax, (%esp)
 8014 4b36 E8000000 		call	_strcmp
 8014      00
 8015 4b3b 85C0     		testl	%eax, %eax
 8016 4b3d 7516     		jne	L393
2503:../../MMI/Resource/WriteImgRes.c ****     {
2504:../../MMI/Resource/WriteImgRes.c ****         zoom_type = 1;
 8018              	LM630:
 8019 4b3f C78550FF 		movl	$1, -176(%ebp)
 8019      FFFF0100 
 8019      0000
GAS LISTING d:/MTK/MTK2503/MTK2503/11CW1418SP4_03_CORETEK03AE_11C_V1_GPRS_MMI/plutommi/Customer/ResGenerator/gcctmp/ccaodaaa.s 			page 161


2505:../../MMI/Resource/WriteImgRes.c ****         do_dither = 0;
 8021              	LM631:
 8022 4b49 C7854CFF 		movl	$0, -180(%ebp)
 8022      FFFF0000 
 8022      0000
 8023 4b53 EB5A     		jmp	L392
 8024              	L393:
2506:../../MMI/Resource/WriteImgRes.c ****     }
2507:../../MMI/Resource/WriteImgRes.c ****     else if (!(strcmp(buffer, "stretch_no_dither")))
 8026              	LM632:
 8027 4b55 C7442404 		movl	$LC127, 4(%esp)
 8027      6C470000 
 8028 4b5d 8D8568FF 		leal	-152(%ebp), %eax
 8028      FFFF
 8029 4b63 890424   		movl	%eax, (%esp)
 8030 4b66 E8000000 		call	_strcmp
 8030      00
 8031 4b6b 85C0     		testl	%eax, %eax
 8032 4b6d 7516     		jne	L395
2508:../../MMI/Resource/WriteImgRes.c ****     {
2509:../../MMI/Resource/WriteImgRes.c ****         zoom_type = 1;
 8034              	LM633:
 8035 4b6f C78550FF 		movl	$1, -176(%ebp)
 8035      FFFF0100 
 8035      0000
2510:../../MMI/Resource/WriteImgRes.c ****         do_dither = 1;
 8037              	LM634:
 8038 4b79 C7854CFF 		movl	$1, -180(%ebp)
 8038      FFFF0100 
 8038      0000
 8039 4b83 EB2A     		jmp	L392
 8040              	L395:
2511:../../MMI/Resource/WriteImgRes.c ****     }
2512:../../MMI/Resource/WriteImgRes.c ****     else
2513:../../MMI/Resource/WriteImgRes.c ****     {
2514:../../MMI/Resource/WriteImgRes.c ****         RES_PRINT_INFO("\n9slice file err, please write [repeat/stretch/stretch_no_dither], can not
 8042              	LM635:
 8043 4b85 8D8568FF 		leal	-152(%ebp), %eax
 8043      FFFF
 8044 4b8b 89442404 		movl	%eax, 4(%esp)
 8045 4b8f C7042480 		movl	$LC128, (%esp)
 8045      470000
 8046 4b96 E8000000 		call	_MtkResgenTrace
 8046      00
2515:../../MMI/Resource/WriteImgRes.c ****         zoom_type = 0;
 8048              	LM636:
 8049 4b9b C78550FF 		movl	$0, -176(%ebp)
 8049      FFFF0000 
 8049      0000
2516:../../MMI/Resource/WriteImgRes.c ****         do_dither = 0;
 8051              	LM637:
 8052 4ba5 C7854CFF 		movl	$0, -180(%ebp)
 8052      FFFF0000 
 8052      0000
 8053              	L392:
2517:../../MMI/Resource/WriteImgRes.c ****     }
2518:../../MMI/Resource/WriteImgRes.c **** 
GAS LISTING d:/MTK/MTK2503/MTK2503/11CW1418SP4_03_CORETEK03AE_11C_V1_GPRS_MMI/plutommi/Customer/ResGenerator/gcctmp/ccaodaaa.s 			page 162


2519:../../MMI/Resource/WriteImgRes.c ****     if (x1<0 || x1>1024 ||
 8055              	LM638:
 8056 4baf 81BD60FF 		cmpl	$1024, -160(%ebp)
 8056      FFFF0004 
 8056      0000
 8057 4bb9 7726     		ja	L398
 8058 4bbb 81BD5CFF 		cmpl	$1024, -164(%ebp)
 8058      FFFF0004 
 8058      0000
 8059 4bc5 771A     		ja	L398
 8060 4bc7 81BD58FF 		cmpl	$1024, -168(%ebp)
 8060      FFFF0004 
 8060      0000
 8061 4bd1 770E     		ja	L398
 8062 4bd3 81BD54FF 		cmpl	$1024, -172(%ebp)
 8062      FFFF0004 
 8062      0000
 8063 4bdd 7702     		ja	L398
 8064 4bdf EB5E     		jmp	L397
 8065              	L398:
2520:../../MMI/Resource/WriteImgRes.c ****         y1<0 || y1>1024 ||
2521:../../MMI/Resource/WriteImgRes.c ****         x2<0 || x2>1024 ||
2522:../../MMI/Resource/WriteImgRes.c ****         y2<0 || y2>1024)
2523:../../MMI/Resource/WriteImgRes.c ****     {
2524:../../MMI/Resource/WriteImgRes.c ****         fprintf(stderr, "\nErr in 9slice file [%s]\n", _9slice_filename);
 8067              	LM639:
 8068 4be1 8B450C   		movl	12(%ebp), %eax
 8069 4be4 89442408 		movl	%eax, 8(%esp)
 8070 4be8 C7442404 		movl	$LC129, 4(%esp)
 8070      EC470000 
 8071 4bf0 A1000000 		movl	__imp___iob, %eax
 8071      00
 8072 4bf5 83C040   		addl	$64, %eax
 8073 4bf8 890424   		movl	%eax, (%esp)
 8074 4bfb E8000000 		call	_fprintf
 8074      00
2525:../../MMI/Resource/WriteImgRes.c ****         RESIMG_LOG_E("\nErr in 9slice file [%s]\n", _9slice_filename);
 8076              	LM640:
 8077 4c00 8B450C   		movl	12(%ebp), %eax
 8078 4c03 8944240C 		movl	%eax, 12(%esp)
 8079 4c07 C7442408 		movl	$LC129, 8(%esp)
 8079      EC470000 
 8080 4c0f C7442404 		movl	$LC34, 4(%esp)
 8080      64060000 
 8081 4c17 C7042403 		movl	$3, (%esp)
 8081      000000
 8082 4c1e E8000000 		call	_reslog_adaptor_log
 8082      00
2526:../../MMI/Resource/WriteImgRes.c ****         assert(0);
 8084              	LM641:
 8085 4c23 C7442408 		movl	$2526, 8(%esp)
 8085      DE090000 
 8086 4c2b C7442404 		movl	$LC35, 4(%esp)
 8086      80060000 
 8087 4c33 C70424A1 		movl	$LC36, (%esp)
 8087      060000
 8088 4c3a E8000000 		call	__assert
GAS LISTING d:/MTK/MTK2503/MTK2503/11CW1418SP4_03_CORETEK03AE_11C_V1_GPRS_MMI/plutommi/Customer/ResGenerator/gcctmp/ccaodaaa.s 			page 163


 8088      00
 8089              	L397:
2527:../../MMI/Resource/WriteImgRes.c ****         exit(2);
2528:../../MMI/Resource/WriteImgRes.c ****     }
2529:../../MMI/Resource/WriteImgRes.c **** 
2530:../../MMI/Resource/WriteImgRes.c ****     RES_PRINT_INFO("Write 9slice image header [%s]  position=[%d-%d-%d-%d] zoom=[%s]\n", _9slice_fi
 8091              	LM642:
 8092 4c3f 8D8568FF 		leal	-152(%ebp), %eax
 8092      FFFF
 8093 4c45 89442418 		movl	%eax, 24(%esp)
 8094 4c49 8B8554FF 		movl	-172(%ebp), %eax
 8094      FFFF
 8095 4c4f 89442414 		movl	%eax, 20(%esp)
 8096 4c53 8B8558FF 		movl	-168(%ebp), %eax
 8096      FFFF
 8097 4c59 89442410 		movl	%eax, 16(%esp)
 8098 4c5d 8B855CFF 		movl	-164(%ebp), %eax
 8098      FFFF
 8099 4c63 8944240C 		movl	%eax, 12(%esp)
 8100 4c67 8B8560FF 		movl	-160(%ebp), %eax
 8100      FFFF
 8101 4c6d 89442408 		movl	%eax, 8(%esp)
 8102 4c71 8B450C   		movl	12(%ebp), %eax
 8103 4c74 89442404 		movl	%eax, 4(%esp)
 8104 4c78 C7042420 		movl	$LC130, (%esp)
 8104      480000
 8105 4c7f E8000000 		call	_MtkResgenTrace
 8105      00
2531:../../MMI/Resource/WriteImgRes.c ****     if (is_binary)
 8107              	LM643:
 8108 4c84 837D1400 		cmpl	$0, 20(%ebp)
 8109 4c88 0F847301 		je	L399
 8109      0000
 8110              	LBB59:
 8111 4c8e 89E3     		movl	%esp, %ebx
2532:../../MMI/Resource/WriteImgRes.c ****     {
2533:../../MMI/Resource/WriteImgRes.c ****         const size_t buffer_size = 20;
 8113              	LM644:
 8114 4c90 C78548FF 		movl	$20, -184(%ebp)
 8114      FFFF1400 
 8114      0000
2534:../../MMI/Resource/WriteImgRes.c ****         char temp_buffer[buffer_size + 1];
 8116              	LM645:
 8117 4c9a 8B8548FF 		movl	-184(%ebp), %eax
 8117      FFFF
 8118 4ca0 40       		incl	%eax
 8119 4ca1 83C00F   		addl	$15, %eax
 8120 4ca4 C1E804   		shrl	$4, %eax
 8121 4ca7 C1E004   		sall	$4, %eax
 8122 4caa 898544FF 		movl	%eax, -188(%ebp)
 8122      FFFF
 8123 4cb0 8B8544FF 		movl	-188(%ebp), %eax
 8123      FFFF
 8124 4cb6 E8000000 		call	__alloca
 8124      00
 8125 4cbb 8D742458 		leal	88(%esp), %esi
2535:../../MMI/Resource/WriteImgRes.c ****         sprintf(temp_buffer,
GAS LISTING d:/MTK/MTK2503/MTK2503/11CW1418SP4_03_CORETEK03AE_11C_V1_GPRS_MMI/plutommi/Customer/ResGenerator/gcctmp/ccaodaaa.s 			page 164


 8127              	LM646:
 8128 4cbf 8B8554FF 		movl	-172(%ebp), %eax
 8128      FFFF
 8129 4cc5 C1E818   		shrl	$24, %eax
 8130 4cc8 0FB6C0   		movzbl	%al, %eax
 8131 4ccb 89442454 		movl	%eax, 84(%esp)
 8132 4ccf 8B8554FF 		movl	-172(%ebp), %eax
 8132      FFFF
 8133 4cd5 C1E810   		shrl	$16, %eax
 8134 4cd8 0FB6C0   		movzbl	%al, %eax
 8135 4cdb 89442450 		movl	%eax, 80(%esp)
 8136 4cdf 8B8554FF 		movl	-172(%ebp), %eax
 8136      FFFF
 8137 4ce5 C1E808   		shrl	$8, %eax
 8138 4ce8 0FB6C0   		movzbl	%al, %eax
 8139 4ceb 8944244C 		movl	%eax, 76(%esp)
 8140 4cef 0FB68554 		movzbl	-172(%ebp), %eax
 8140      FFFFFF
 8141 4cf6 89442448 		movl	%eax, 72(%esp)
 8142 4cfa 8B8558FF 		movl	-168(%ebp), %eax
 8142      FFFF
 8143 4d00 C1E818   		shrl	$24, %eax
 8144 4d03 0FB6C0   		movzbl	%al, %eax
 8145 4d06 89442444 		movl	%eax, 68(%esp)
 8146 4d0a 8B8558FF 		movl	-168(%ebp), %eax
 8146      FFFF
 8147 4d10 C1E810   		shrl	$16, %eax
 8148 4d13 0FB6C0   		movzbl	%al, %eax
 8149 4d16 89442440 		movl	%eax, 64(%esp)
 8150 4d1a 8B8558FF 		movl	-168(%ebp), %eax
 8150      FFFF
 8151 4d20 C1E808   		shrl	$8, %eax
 8152 4d23 0FB6C0   		movzbl	%al, %eax
 8153 4d26 8944243C 		movl	%eax, 60(%esp)
 8154 4d2a 0FB68558 		movzbl	-168(%ebp), %eax
 8154      FFFFFF
 8155 4d31 89442438 		movl	%eax, 56(%esp)
 8156 4d35 8B855CFF 		movl	-164(%ebp), %eax
 8156      FFFF
 8157 4d3b C1E818   		shrl	$24, %eax
 8158 4d3e 0FB6C0   		movzbl	%al, %eax
 8159 4d41 89442434 		movl	%eax, 52(%esp)
 8160 4d45 8B855CFF 		movl	-164(%ebp), %eax
 8160      FFFF
 8161 4d4b C1E810   		shrl	$16, %eax
 8162 4d4e 0FB6C0   		movzbl	%al, %eax
 8163 4d51 89442430 		movl	%eax, 48(%esp)
 8164 4d55 8B855CFF 		movl	-164(%ebp), %eax
 8164      FFFF
 8165 4d5b C1E808   		shrl	$8, %eax
 8166 4d5e 0FB6C0   		movzbl	%al, %eax
 8167 4d61 8944242C 		movl	%eax, 44(%esp)
 8168 4d65 0FB6855C 		movzbl	-164(%ebp), %eax
 8168      FFFFFF
 8169 4d6c 89442428 		movl	%eax, 40(%esp)
 8170 4d70 8B8560FF 		movl	-160(%ebp), %eax
 8170      FFFF
GAS LISTING d:/MTK/MTK2503/MTK2503/11CW1418SP4_03_CORETEK03AE_11C_V1_GPRS_MMI/plutommi/Customer/ResGenerator/gcctmp/ccaodaaa.s 			page 165


 8171 4d76 C1E818   		shrl	$24, %eax
 8172 4d79 0FB6C0   		movzbl	%al, %eax
 8173 4d7c 89442424 		movl	%eax, 36(%esp)
 8174 4d80 8B8560FF 		movl	-160(%ebp), %eax
 8174      FFFF
 8175 4d86 C1E810   		shrl	$16, %eax
 8176 4d89 0FB6C0   		movzbl	%al, %eax
 8177 4d8c 89442420 		movl	%eax, 32(%esp)
 8178 4d90 8B8560FF 		movl	-160(%ebp), %eax
 8178      FFFF
 8179 4d96 C1E808   		shrl	$8, %eax
 8180 4d99 0FB6C0   		movzbl	%al, %eax
 8181 4d9c 8944241C 		movl	%eax, 28(%esp)
 8182 4da0 0FB68560 		movzbl	-160(%ebp), %eax
 8182      FFFFFF
 8183 4da7 89442418 		movl	%eax, 24(%esp)
 8184 4dab C7442414 		movl	$0, 20(%esp)
 8184      00000000 
 8185 4db3 0FB6854C 		movzbl	-180(%ebp), %eax
 8185      FFFFFF
 8186 4dba 89442410 		movl	%eax, 16(%esp)
 8187 4dbe 0FB68550 		movzbl	-176(%ebp), %eax
 8187      FFFFFF
 8188 4dc5 8944240C 		movl	%eax, 12(%esp)
 8189 4dc9 0FB645F7 		movzbl	-9(%ebp), %eax
 8190 4dcd 89442408 		movl	%eax, 8(%esp)
 8191 4dd1 C7442404 		movl	$LC131, 4(%esp)
 8191      80480000 
 8192 4dd9 893424   		movl	%esi, (%esp)
 8193 4ddc E8000000 		call	_sprintf
 8193      00
2536:../../MMI/Resource/WriteImgRes.c ****                 "%c%c%c%c%c%c%c%c%c%c%c%c%c%c%c%c%c%c%c%c",
2537:../../MMI/Resource/WriteImgRes.c ****                 (U8) real_imagetype,            //type
2538:../../MMI/Resource/WriteImgRes.c ****                 (U8) zoom_type,                 //zoom type
2539:../../MMI/Resource/WriteImgRes.c ****                 (U8) do_dither,                 //do_dither
2540:../../MMI/Resource/WriteImgRes.c ****                 (U8) 0,                         //reserved
2541:../../MMI/Resource/WriteImgRes.c ****                 (U8) ( x1 & 0xff),
2542:../../MMI/Resource/WriteImgRes.c ****                 (U8) ((x1 >> 8) & 0xff),
2543:../../MMI/Resource/WriteImgRes.c ****                 (U8) ((x1 >> 16) & 0xff),
2544:../../MMI/Resource/WriteImgRes.c ****                 (U8) ((x1 >> 24) & 0xff),
2545:../../MMI/Resource/WriteImgRes.c ****                 (U8) ( y1 & 0xff),
2546:../../MMI/Resource/WriteImgRes.c ****                 (U8) ((y1 >> 8) & 0xff),
2547:../../MMI/Resource/WriteImgRes.c ****                 (U8) ((y1 >> 16) & 0xff),
2548:../../MMI/Resource/WriteImgRes.c ****                 (U8) ((y1 >> 24) & 0xff),
2549:../../MMI/Resource/WriteImgRes.c ****                 (U8) ( x2 & 0xff),
2550:../../MMI/Resource/WriteImgRes.c ****                 (U8) ((x2 >> 8) & 0xff),
2551:../../MMI/Resource/WriteImgRes.c ****                 (U8) ((x2 >> 16) & 0xff),
2552:../../MMI/Resource/WriteImgRes.c ****                 (U8) ((x2 >> 24) & 0xff),
2553:../../MMI/Resource/WriteImgRes.c ****                 (U8) ( y2 & 0xff),
2554:../../MMI/Resource/WriteImgRes.c ****                 (U8) ((y2 >> 8) & 0xff),
2555:../../MMI/Resource/WriteImgRes.c ****                 (U8) ((y2 >> 16) & 0xff),
2556:../../MMI/Resource/WriteImgRes.c ****                 (U8) ((y2 >> 24) & 0xff));
2557:../../MMI/Resource/WriteImgRes.c ****         ImageOutStreamAppend(outstream, temp_buffer, buffer_size);
 8195              	LM647:
 8196 4de1 8B8548FF 		movl	-184(%ebp), %eax
 8196      FFFF
 8197 4de7 89442408 		movl	%eax, 8(%esp)
GAS LISTING d:/MTK/MTK2503/MTK2503/11CW1418SP4_03_CORETEK03AE_11C_V1_GPRS_MMI/plutommi/Customer/ResGenerator/gcctmp/ccaodaaa.s 			page 166


 8198 4deb 89742404 		movl	%esi, 4(%esp)
 8199 4def 8B4510   		movl	16(%ebp), %eax
 8200 4df2 890424   		movl	%eax, (%esp)
 8201 4df5 E8000000 		call	_ImageOutStreamAppend
 8201      00
 8202 4dfa 89DC     		movl	%ebx, %esp
 8203              	LBE59:
 8204 4dfc E9250100 		jmp	L389
 8204      00
 8205              	L399:
2558:../../MMI/Resource/WriteImgRes.c ****     }
2559:../../MMI/Resource/WriteImgRes.c ****     else
2560:../../MMI/Resource/WriteImgRes.c ****     {
2561:../../MMI/Resource/WriteImgRes.c ****         ImageOutStreamPrintf(outstream,
 8207              	LM648:
 8208 4e01 8B8554FF 		movl	-172(%ebp), %eax
 8208      FFFF
 8209 4e07 C1E818   		shrl	$24, %eax
 8210 4e0a 0FB6C0   		movzbl	%al, %eax
 8211 4e0d 89442454 		movl	%eax, 84(%esp)
 8212 4e11 8B8554FF 		movl	-172(%ebp), %eax
 8212      FFFF
 8213 4e17 C1E810   		shrl	$16, %eax
 8214 4e1a 0FB6C0   		movzbl	%al, %eax
 8215 4e1d 89442450 		movl	%eax, 80(%esp)
 8216 4e21 8B8554FF 		movl	-172(%ebp), %eax
 8216      FFFF
 8217 4e27 C1E808   		shrl	$8, %eax
 8218 4e2a 0FB6C0   		movzbl	%al, %eax
 8219 4e2d 8944244C 		movl	%eax, 76(%esp)
 8220 4e31 0FB68554 		movzbl	-172(%ebp), %eax
 8220      FFFFFF
 8221 4e38 89442448 		movl	%eax, 72(%esp)
 8222 4e3c 8B8558FF 		movl	-168(%ebp), %eax
 8222      FFFF
 8223 4e42 C1E818   		shrl	$24, %eax
 8224 4e45 0FB6C0   		movzbl	%al, %eax
 8225 4e48 89442444 		movl	%eax, 68(%esp)
 8226 4e4c 8B8558FF 		movl	-168(%ebp), %eax
 8226      FFFF
 8227 4e52 C1E810   		shrl	$16, %eax
 8228 4e55 0FB6C0   		movzbl	%al, %eax
 8229 4e58 89442440 		movl	%eax, 64(%esp)
 8230 4e5c 8B8558FF 		movl	-168(%ebp), %eax
 8230      FFFF
 8231 4e62 C1E808   		shrl	$8, %eax
 8232 4e65 0FB6C0   		movzbl	%al, %eax
 8233 4e68 8944243C 		movl	%eax, 60(%esp)
 8234 4e6c 0FB68558 		movzbl	-168(%ebp), %eax
 8234      FFFFFF
 8235 4e73 89442438 		movl	%eax, 56(%esp)
 8236 4e77 8B855CFF 		movl	-164(%ebp), %eax
 8236      FFFF
 8237 4e7d C1E818   		shrl	$24, %eax
 8238 4e80 0FB6C0   		movzbl	%al, %eax
 8239 4e83 89442434 		movl	%eax, 52(%esp)
 8240 4e87 8B855CFF 		movl	-164(%ebp), %eax
GAS LISTING d:/MTK/MTK2503/MTK2503/11CW1418SP4_03_CORETEK03AE_11C_V1_GPRS_MMI/plutommi/Customer/ResGenerator/gcctmp/ccaodaaa.s 			page 167


 8240      FFFF
 8241 4e8d C1E810   		shrl	$16, %eax
 8242 4e90 0FB6C0   		movzbl	%al, %eax
 8243 4e93 89442430 		movl	%eax, 48(%esp)
 8244 4e97 8B855CFF 		movl	-164(%ebp), %eax
 8244      FFFF
 8245 4e9d C1E808   		shrl	$8, %eax
 8246 4ea0 0FB6C0   		movzbl	%al, %eax
 8247 4ea3 8944242C 		movl	%eax, 44(%esp)
 8248 4ea7 0FB6855C 		movzbl	-164(%ebp), %eax
 8248      FFFFFF
 8249 4eae 89442428 		movl	%eax, 40(%esp)
 8250 4eb2 8B8560FF 		movl	-160(%ebp), %eax
 8250      FFFF
 8251 4eb8 C1E818   		shrl	$24, %eax
 8252 4ebb 0FB6C0   		movzbl	%al, %eax
 8253 4ebe 89442424 		movl	%eax, 36(%esp)
 8254 4ec2 8B8560FF 		movl	-160(%ebp), %eax
 8254      FFFF
 8255 4ec8 C1E810   		shrl	$16, %eax
 8256 4ecb 0FB6C0   		movzbl	%al, %eax
 8257 4ece 89442420 		movl	%eax, 32(%esp)
 8258 4ed2 8B8560FF 		movl	-160(%ebp), %eax
 8258      FFFF
 8259 4ed8 C1E808   		shrl	$8, %eax
 8260 4edb 0FB6C0   		movzbl	%al, %eax
 8261 4ede 8944241C 		movl	%eax, 28(%esp)
 8262 4ee2 0FB68560 		movzbl	-160(%ebp), %eax
 8262      FFFFFF
 8263 4ee9 89442418 		movl	%eax, 24(%esp)
 8264 4eed C7442414 		movl	$0, 20(%esp)
 8264      00000000 
 8265 4ef5 0FB6854C 		movzbl	-180(%ebp), %eax
 8265      FFFFFF
 8266 4efc 89442410 		movl	%eax, 16(%esp)
 8267 4f00 0FB68550 		movzbl	-176(%ebp), %eax
 8267      FFFFFF
 8268 4f07 8944240C 		movl	%eax, 12(%esp)
 8269 4f0b 0FB645F7 		movzbl	-9(%ebp), %eax
 8270 4f0f 89442408 		movl	%eax, 8(%esp)
 8271 4f13 C7442404 		movl	$LC132, 4(%esp)
 8271      C0480000 
 8272 4f1b 8B4510   		movl	16(%ebp), %eax
 8273 4f1e 890424   		movl	%eax, (%esp)
 8274 4f21 E8000000 		call	_ImageOutStreamPrintf
 8274      00
2562:../../MMI/Resource/WriteImgRes.c ****                 "\n\t0x%02X, 0x%02X, 0x%02X, 0x%02X, 0x%02X, 0x%02X, 0x%02X, 0x%02X, 0x%02X, 0x%02X
2563:../../MMI/Resource/WriteImgRes.c ****                 (U8) real_imagetype,            //type
2564:../../MMI/Resource/WriteImgRes.c ****                 (U8) zoom_type,                 //zoom type
2565:../../MMI/Resource/WriteImgRes.c ****                 (U8) do_dither,                 //do_dither
2566:../../MMI/Resource/WriteImgRes.c ****                 (U8) 0,                         //reserved
2567:../../MMI/Resource/WriteImgRes.c ****                 (U8) ( x1 & 0xff),
2568:../../MMI/Resource/WriteImgRes.c ****                 (U8) ((x1 >> 8) & 0xff),
2569:../../MMI/Resource/WriteImgRes.c ****                 (U8) ((x1 >> 16) & 0xff),
2570:../../MMI/Resource/WriteImgRes.c ****                 (U8) ((x1 >> 24) & 0xff),
2571:../../MMI/Resource/WriteImgRes.c ****                 (U8) ( y1 & 0xff),
2572:../../MMI/Resource/WriteImgRes.c ****                 (U8) ((y1 >> 8) & 0xff),
GAS LISTING d:/MTK/MTK2503/MTK2503/11CW1418SP4_03_CORETEK03AE_11C_V1_GPRS_MMI/plutommi/Customer/ResGenerator/gcctmp/ccaodaaa.s 			page 168


2573:../../MMI/Resource/WriteImgRes.c ****                 (U8) ((y1 >> 16) & 0xff),
2574:../../MMI/Resource/WriteImgRes.c ****                 (U8) ((y1 >> 24) & 0xff),
2575:../../MMI/Resource/WriteImgRes.c ****                 (U8) ( x2 & 0xff),
2576:../../MMI/Resource/WriteImgRes.c ****                 (U8) ((x2 >> 8) & 0xff),
2577:../../MMI/Resource/WriteImgRes.c ****                 (U8) ((x2 >> 16) & 0xff),
2578:../../MMI/Resource/WriteImgRes.c ****                 (U8) ((x2 >> 24) & 0xff),
2579:../../MMI/Resource/WriteImgRes.c ****                 (U8) ( y2 & 0xff),
2580:../../MMI/Resource/WriteImgRes.c ****                 (U8) ((y2 >> 8) & 0xff),
2581:../../MMI/Resource/WriteImgRes.c ****                 (U8) ((y2 >> 16) & 0xff),
2582:../../MMI/Resource/WriteImgRes.c ****                 (U8) ((y2 >> 24) & 0xff));
2583:../../MMI/Resource/WriteImgRes.c ****     }
2584:../../MMI/Resource/WriteImgRes.c **** 
2585:../../MMI/Resource/WriteImgRes.c **** }
 8276              	LM649:
 8277              	L389:
 8278 4f26 8D65F8   		leal	-8(%ebp), %esp
 8279 4f29 5B       		popl	%ebx
 8280 4f2a 5E       		popl	%esi
 8281 4f2b 5D       		popl	%ebp
 8282 4f2c C3       		ret
 8283              	LBE58:
 8299              	Lscope13:
 8301 4f2d 90909090 		.align 32
 8301      90909090 
 8301      90909090 
 8301      90909090 
 8301      909090
 8302              	LC133:
 8303 4f40 0A6D6D69 		.ascii "\12mmi_rg_get_9slice_header Err input \"buff\" parameter\0"
 8303      5F72675F 
 8303      6765745F 
 8303      39736C69 
 8303      63655F68 
 8308              	.globl _mmi_rg_get_9slice_header
 8310              	_mmi_rg_get_9slice_header:
2586:../../MMI/Resource/WriteImgRes.c **** 
2587:../../MMI/Resource/WriteImgRes.c **** 
2588:../../MMI/Resource/WriteImgRes.c **** /*****************************************************************************
2589:../../MMI/Resource/WriteImgRes.c ****  * FUNCTION
2590:../../MMI/Resource/WriteImgRes.c ****  *  mmi_rg_get_9slice_header
2591:../../MMI/Resource/WriteImgRes.c ****  * DESCRIPTION
2592:../../MMI/Resource/WriteImgRes.c ****  *  write 9slice header, include position and read file type to output file
2593:../../MMI/Resource/WriteImgRes.c ****  * PARAMETERS
2594:../../MMI/Resource/WriteImgRes.c ****  *  real_imagetype          [IN]        Real image type of 9slice images
2595:../../MMI/Resource/WriteImgRes.c ****  *  buff                         [IN/OUT]        9slice header
2596:../../MMI/Resource/WriteImgRes.c ****  * RETURNS
2597:../../MMI/Resource/WriteImgRes.c ****  *  void
2598:../../MMI/Resource/WriteImgRes.c ****  *****************************************************************************/
2599:../../MMI/Resource/WriteImgRes.c **** MMI_BOOL mmi_rg_get_9slice_header(U8 real_imagetype, U8 *buff/*IN/OUT*/, U8* _9slice_filename)
2600:../../MMI/Resource/WriteImgRes.c **** {
 8312              	LM650:
 8313 4f75 55       		pushl	%ebp
 8314 4f76 89E5     		movl	%esp, %ebp
 8315 4f78 81ECD800 		subl	$216, %esp
 8315      0000
 8316 4f7e 8B4508   		movl	8(%ebp), %eax
 8317 4f81 8845F7   		movb	%al, -9(%ebp)
GAS LISTING d:/MTK/MTK2503/MTK2503/11CW1418SP4_03_CORETEK03AE_11C_V1_GPRS_MMI/plutommi/Customer/ResGenerator/gcctmp/ccaodaaa.s 			page 169


2601:../../MMI/Resource/WriteImgRes.c ****     /*----------------------------------------------------------------*/
2602:../../MMI/Resource/WriteImgRes.c ****     /* Local Variables                                                */
2603:../../MMI/Resource/WriteImgRes.c ****     /*----------------------------------------------------------------*/
2604:../../MMI/Resource/WriteImgRes.c ****     U8 buffer[128];
2605:../../MMI/Resource/WriteImgRes.c ****     FILE *p_9slice_file;
2606:../../MMI/Resource/WriteImgRes.c ****     U32 x1,y1,x2,y2;
2607:../../MMI/Resource/WriteImgRes.c ****     U32 zoom_type;
2608:../../MMI/Resource/WriteImgRes.c ****     U32 do_dither; /* 1: not to do dithering, 0: try to do dithering*/
2609:../../MMI/Resource/WriteImgRes.c **** 
2610:../../MMI/Resource/WriteImgRes.c ****     /*----------------------------------------------------------------*/
2611:../../MMI/Resource/WriteImgRes.c ****     /* Code Body                                                      */
2612:../../MMI/Resource/WriteImgRes.c ****     /*----------------------------------------------------------------*/
2613:../../MMI/Resource/WriteImgRes.c ****     if(buff == 0)
 8319              	LM651:
 8320              	LBB60:
 8321 4f84 837D0C00 		cmpl	$0, 12(%ebp)
 8322 4f88 7528     		jne	L402
2614:../../MMI/Resource/WriteImgRes.c ****     {
2615:../../MMI/Resource/WriteImgRes.c ****         RESIMG_LOG_E("\nmmi_rg_get_9slice_header Err input \"buff\" parameter");
 8324              	LM652:
 8325 4f8a C7442408 		movl	$LC133, 8(%esp)
 8325      404F0000 
 8326 4f92 C7442404 		movl	$LC34, 4(%esp)
 8326      64060000 
 8327 4f9a C7042403 		movl	$3, (%esp)
 8327      000000
 8328 4fa1 E8000000 		call	_reslog_adaptor_log
 8328      00
2616:../../MMI/Resource/WriteImgRes.c ****         exit(2);
 8330              	LM653:
 8331 4fa6 C7042402 		movl	$2, (%esp)
 8331      000000
 8332 4fad E8000000 		call	_exit
 8332      00
 8333              	L402:
2617:../../MMI/Resource/WriteImgRes.c ****     }
2618:../../MMI/Resource/WriteImgRes.c **** 
2619:../../MMI/Resource/WriteImgRes.c ****     p_9slice_file = fopen(_9slice_filename, "r");
 8335              	LM654:
 8336 4fb2 C7442404 		movl	$LC96, 4(%esp)
 8336      C2310000 
 8337 4fba 8B4510   		movl	16(%ebp), %eax
 8338 4fbd 890424   		movl	%eax, (%esp)
 8339 4fc0 E8000000 		call	_fopen
 8339      00
 8340 4fc5 898564FF 		movl	%eax, -156(%ebp)
 8340      FFFF
2620:../../MMI/Resource/WriteImgRes.c ****     if (p_9slice_file == NULL)
 8342              	LM655:
 8343 4fcb 83BD64FF 		cmpl	$0, -156(%ebp)
 8343      FFFF00
 8344 4fd2 754E     		jne	L403
2621:../../MMI/Resource/WriteImgRes.c ****     {
2622:../../MMI/Resource/WriteImgRes.c ****         fprintf(stderr, "\nErr opening %s", _9slice_filename);
 8346              	LM656:
 8347 4fd4 8B4510   		movl	16(%ebp), %eax
 8348 4fd7 89442408 		movl	%eax, 8(%esp)
GAS LISTING d:/MTK/MTK2503/MTK2503/11CW1418SP4_03_CORETEK03AE_11C_V1_GPRS_MMI/plutommi/Customer/ResGenerator/gcctmp/ccaodaaa.s 			page 170


 8349 4fdb C7442404 		movl	$LC124, 4(%esp)
 8349      4D470000 
 8350 4fe3 A1000000 		movl	__imp___iob, %eax
 8350      00
 8351 4fe8 83C040   		addl	$64, %eax
 8352 4feb 890424   		movl	%eax, (%esp)
 8353 4fee E8000000 		call	_fprintf
 8353      00
2623:../../MMI/Resource/WriteImgRes.c ****         RESIMG_LOG_E("\nErr opening %s", _9slice_filename);
 8355              	LM657:
 8356 4ff3 8B4510   		movl	16(%ebp), %eax
 8357 4ff6 8944240C 		movl	%eax, 12(%esp)
 8358 4ffa C7442408 		movl	$LC124, 8(%esp)
 8358      4D470000 
 8359 5002 C7442404 		movl	$LC34, 4(%esp)
 8359      64060000 
 8360 500a C7042403 		movl	$3, (%esp)
 8360      000000
 8361 5011 E8000000 		call	_reslog_adaptor_log
 8361      00
2624:../../MMI/Resource/WriteImgRes.c ****         exit(2);
 8363              	LM658:
 8364 5016 C7042402 		movl	$2, (%esp)
 8364      000000
 8365 501d E8000000 		call	_exit
 8365      00
 8366              	L403:
2625:../../MMI/Resource/WriteImgRes.c ****     }
2626:../../MMI/Resource/WriteImgRes.c **** 
2627:../../MMI/Resource/WriteImgRes.c ****     fgets(buffer, 128, p_9slice_file);
 8368              	LM659:
 8369 5022 8B8564FF 		movl	-156(%ebp), %eax
 8369      FFFF
 8370 5028 89442408 		movl	%eax, 8(%esp)
 8371 502c C7442404 		movl	$128, 4(%esp)
 8371      80000000 
 8372 5034 8D8568FF 		leal	-152(%ebp), %eax
 8372      FFFF
 8373 503a 890424   		movl	%eax, (%esp)
 8374 503d E8000000 		call	_fgets
 8374      00
2628:../../MMI/Resource/WriteImgRes.c ****     x1 = atoi(buffer);
 8376              	LM660:
 8377 5042 8D8568FF 		leal	-152(%ebp), %eax
 8377      FFFF
 8378 5048 890424   		movl	%eax, (%esp)
 8379 504b E8000000 		call	_atoi
 8379      00
 8380 5050 898560FF 		movl	%eax, -160(%ebp)
 8380      FFFF
2629:../../MMI/Resource/WriteImgRes.c ****     fgets(buffer, 128, p_9slice_file);
 8382              	LM661:
 8383 5056 8B8564FF 		movl	-156(%ebp), %eax
 8383      FFFF
 8384 505c 89442408 		movl	%eax, 8(%esp)
 8385 5060 C7442404 		movl	$128, 4(%esp)
 8385      80000000 
GAS LISTING d:/MTK/MTK2503/MTK2503/11CW1418SP4_03_CORETEK03AE_11C_V1_GPRS_MMI/plutommi/Customer/ResGenerator/gcctmp/ccaodaaa.s 			page 171


 8386 5068 8D8568FF 		leal	-152(%ebp), %eax
 8386      FFFF
 8387 506e 890424   		movl	%eax, (%esp)
 8388 5071 E8000000 		call	_fgets
 8388      00
2630:../../MMI/Resource/WriteImgRes.c ****     y1 = atoi(buffer);
 8390              	LM662:
 8391 5076 8D8568FF 		leal	-152(%ebp), %eax
 8391      FFFF
 8392 507c 890424   		movl	%eax, (%esp)
 8393 507f E8000000 		call	_atoi
 8393      00
 8394 5084 89855CFF 		movl	%eax, -164(%ebp)
 8394      FFFF
2631:../../MMI/Resource/WriteImgRes.c ****     fgets(buffer, 128, p_9slice_file);
 8396              	LM663:
 8397 508a 8B8564FF 		movl	-156(%ebp), %eax
 8397      FFFF
 8398 5090 89442408 		movl	%eax, 8(%esp)
 8399 5094 C7442404 		movl	$128, 4(%esp)
 8399      80000000 
 8400 509c 8D8568FF 		leal	-152(%ebp), %eax
 8400      FFFF
 8401 50a2 890424   		movl	%eax, (%esp)
 8402 50a5 E8000000 		call	_fgets
 8402      00
2632:../../MMI/Resource/WriteImgRes.c ****     x2 = atoi(buffer);
 8404              	LM664:
 8405 50aa 8D8568FF 		leal	-152(%ebp), %eax
 8405      FFFF
 8406 50b0 890424   		movl	%eax, (%esp)
 8407 50b3 E8000000 		call	_atoi
 8407      00
 8408 50b8 898558FF 		movl	%eax, -168(%ebp)
 8408      FFFF
2633:../../MMI/Resource/WriteImgRes.c ****     fgets(buffer, 128, p_9slice_file);
 8410              	LM665:
 8411 50be 8B8564FF 		movl	-156(%ebp), %eax
 8411      FFFF
 8412 50c4 89442408 		movl	%eax, 8(%esp)
 8413 50c8 C7442404 		movl	$128, 4(%esp)
 8413      80000000 
 8414 50d0 8D8568FF 		leal	-152(%ebp), %eax
 8414      FFFF
 8415 50d6 890424   		movl	%eax, (%esp)
 8416 50d9 E8000000 		call	_fgets
 8416      00
2634:../../MMI/Resource/WriteImgRes.c ****     y2 = atoi(buffer);  
 8418              	LM666:
 8419 50de 8D8568FF 		leal	-152(%ebp), %eax
 8419      FFFF
 8420 50e4 890424   		movl	%eax, (%esp)
 8421 50e7 E8000000 		call	_atoi
 8421      00
 8422 50ec 898554FF 		movl	%eax, -172(%ebp)
 8422      FFFF
2635:../../MMI/Resource/WriteImgRes.c ****     fgets(buffer, 128, p_9slice_file);  /* zoom type */
GAS LISTING d:/MTK/MTK2503/MTK2503/11CW1418SP4_03_CORETEK03AE_11C_V1_GPRS_MMI/plutommi/Customer/ResGenerator/gcctmp/ccaodaaa.s 			page 172


 8424              	LM667:
 8425 50f2 8B8564FF 		movl	-156(%ebp), %eax
 8425      FFFF
 8426 50f8 89442408 		movl	%eax, 8(%esp)
 8427 50fc C7442404 		movl	$128, 4(%esp)
 8427      80000000 
 8428 5104 8D8568FF 		leal	-152(%ebp), %eax
 8428      FFFF
 8429 510a 890424   		movl	%eax, (%esp)
 8430 510d E8000000 		call	_fgets
 8430      00
2636:../../MMI/Resource/WriteImgRes.c **** 
2637:../../MMI/Resource/WriteImgRes.c ****     fclose(p_9slice_file);
 8432              	LM668:
 8433 5112 8B8564FF 		movl	-156(%ebp), %eax
 8433      FFFF
 8434 5118 890424   		movl	%eax, (%esp)
 8435 511b E8000000 		call	_fclose
 8435      00
2638:../../MMI/Resource/WriteImgRes.c **** 
2639:../../MMI/Resource/WriteImgRes.c ****     if (!(strcmp(buffer, "repeat")))
 8437              	LM669:
 8438 5120 C7442404 		movl	$LC125, 4(%esp)
 8438      5D470000 
 8439 5128 8D8568FF 		leal	-152(%ebp), %eax
 8439      FFFF
 8440 512e 890424   		movl	%eax, (%esp)
 8441 5131 E8000000 		call	_strcmp
 8441      00
 8442 5136 85C0     		testl	%eax, %eax
 8443 5138 7519     		jne	L404
2640:../../MMI/Resource/WriteImgRes.c ****     {
2641:../../MMI/Resource/WriteImgRes.c ****         zoom_type = 0;
 8445              	LM670:
 8446 513a C78550FF 		movl	$0, -176(%ebp)
 8446      FFFF0000 
 8446      0000
2642:../../MMI/Resource/WriteImgRes.c ****         do_dither = 1;
 8448              	LM671:
 8449 5144 C7854CFF 		movl	$1, -180(%ebp)
 8449      FFFF0100 
 8449      0000
 8450 514e E98A0000 		jmp	L405
 8450      00
 8451              	L404:
2643:../../MMI/Resource/WriteImgRes.c ****     }
2644:../../MMI/Resource/WriteImgRes.c ****     else if (!(strcmp(buffer, "stretch")))
 8453              	LM672:
 8454 5153 C7442404 		movl	$LC126, 4(%esp)
 8454      64470000 
 8455 515b 8D8568FF 		leal	-152(%ebp), %eax
 8455      FFFF
 8456 5161 890424   		movl	%eax, (%esp)
 8457 5164 E8000000 		call	_strcmp
 8457      00
 8458 5169 85C0     		testl	%eax, %eax
 8459 516b 7516     		jne	L406
GAS LISTING d:/MTK/MTK2503/MTK2503/11CW1418SP4_03_CORETEK03AE_11C_V1_GPRS_MMI/plutommi/Customer/ResGenerator/gcctmp/ccaodaaa.s 			page 173


2645:../../MMI/Resource/WriteImgRes.c ****     {
2646:../../MMI/Resource/WriteImgRes.c ****         zoom_type = 1;
 8461              	LM673:
 8462 516d C78550FF 		movl	$1, -176(%ebp)
 8462      FFFF0100 
 8462      0000
2647:../../MMI/Resource/WriteImgRes.c ****         do_dither = 0;
 8464              	LM674:
 8465 5177 C7854CFF 		movl	$0, -180(%ebp)
 8465      FFFF0000 
 8465      0000
 8466 5181 EB5A     		jmp	L405
 8467              	L406:
2648:../../MMI/Resource/WriteImgRes.c ****         
2649:../../MMI/Resource/WriteImgRes.c ****     }
2650:../../MMI/Resource/WriteImgRes.c ****     else if (!(strcmp(buffer,"stretch_no_dither")))
 8469              	LM675:
 8470 5183 C7442404 		movl	$LC127, 4(%esp)
 8470      6C470000 
 8471 518b 8D8568FF 		leal	-152(%ebp), %eax
 8471      FFFF
 8472 5191 890424   		movl	%eax, (%esp)
 8473 5194 E8000000 		call	_strcmp
 8473      00
 8474 5199 85C0     		testl	%eax, %eax
 8475 519b 7516     		jne	L408
2651:../../MMI/Resource/WriteImgRes.c ****     {
2652:../../MMI/Resource/WriteImgRes.c ****         zoom_type = 1;
 8477              	LM676:
 8478 519d C78550FF 		movl	$1, -176(%ebp)
 8478      FFFF0100 
 8478      0000
2653:../../MMI/Resource/WriteImgRes.c ****         do_dither = 1;
 8480              	LM677:
 8481 51a7 C7854CFF 		movl	$1, -180(%ebp)
 8481      FFFF0100 
 8481      0000
 8482 51b1 EB2A     		jmp	L405
 8483              	L408:
2654:../../MMI/Resource/WriteImgRes.c ****     }
2655:../../MMI/Resource/WriteImgRes.c ****     else
2656:../../MMI/Resource/WriteImgRes.c ****     {
2657:../../MMI/Resource/WriteImgRes.c ****         RES_PRINT_INFO("\n9slice file err, please write [repeat/stretch/stretch_no_dither], can not
 8485              	LM678:
 8486 51b3 8D8568FF 		leal	-152(%ebp), %eax
 8486      FFFF
 8487 51b9 89442404 		movl	%eax, 4(%esp)
 8488 51bd C7042480 		movl	$LC128, (%esp)
 8488      470000
 8489 51c4 E8000000 		call	_MtkResgenTrace
 8489      00
2658:../../MMI/Resource/WriteImgRes.c ****         zoom_type = 0;
 8491              	LM679:
 8492 51c9 C78550FF 		movl	$0, -176(%ebp)
 8492      FFFF0000 
 8492      0000
2659:../../MMI/Resource/WriteImgRes.c ****         do_dither = 0;
GAS LISTING d:/MTK/MTK2503/MTK2503/11CW1418SP4_03_CORETEK03AE_11C_V1_GPRS_MMI/plutommi/Customer/ResGenerator/gcctmp/ccaodaaa.s 			page 174


 8494              	LM680:
 8495 51d3 C7854CFF 		movl	$0, -180(%ebp)
 8495      FFFF0000 
 8495      0000
 8496              	L405:
2660:../../MMI/Resource/WriteImgRes.c ****     }
2661:../../MMI/Resource/WriteImgRes.c **** 
2662:../../MMI/Resource/WriteImgRes.c ****     if (x1<0 || x1>1024 ||
 8498              	LM681:
 8499 51dd 81BD60FF 		cmpl	$1024, -160(%ebp)
 8499      FFFF0004 
 8499      0000
 8500 51e7 7726     		ja	L411
 8501 51e9 81BD5CFF 		cmpl	$1024, -164(%ebp)
 8501      FFFF0004 
 8501      0000
 8502 51f3 771A     		ja	L411
 8503 51f5 81BD58FF 		cmpl	$1024, -168(%ebp)
 8503      FFFF0004 
 8503      0000
 8504 51ff 770E     		ja	L411
 8505 5201 81BD54FF 		cmpl	$1024, -172(%ebp)
 8505      FFFF0004 
 8505      0000
 8506 520b 7702     		ja	L411
 8507 520d EB4E     		jmp	L410
 8508              	L411:
2663:../../MMI/Resource/WriteImgRes.c ****         y1<0 || y1>1024 ||
2664:../../MMI/Resource/WriteImgRes.c ****         x2<0 || x2>1024 ||
2665:../../MMI/Resource/WriteImgRes.c ****         y2<0 || y2>1024)
2666:../../MMI/Resource/WriteImgRes.c ****     {
2667:../../MMI/Resource/WriteImgRes.c ****         fprintf(stderr, "\nErr in 9slice file [%s]\n", _9slice_filename);
 8510              	LM682:
 8511 520f 8B4510   		movl	16(%ebp), %eax
 8512 5212 89442408 		movl	%eax, 8(%esp)
 8513 5216 C7442404 		movl	$LC129, 4(%esp)
 8513      EC470000 
 8514 521e A1000000 		movl	__imp___iob, %eax
 8514      00
 8515 5223 83C040   		addl	$64, %eax
 8516 5226 890424   		movl	%eax, (%esp)
 8517 5229 E8000000 		call	_fprintf
 8517      00
2668:../../MMI/Resource/WriteImgRes.c ****         RESIMG_LOG_E("\nErr in 9slice file [%s]\n", _9slice_filename);
 8519              	LM683:
 8520 522e 8B4510   		movl	16(%ebp), %eax
 8521 5231 8944240C 		movl	%eax, 12(%esp)
 8522 5235 C7442408 		movl	$LC129, 8(%esp)
 8522      EC470000 
 8523 523d C7442404 		movl	$LC34, 4(%esp)
 8523      64060000 
 8524 5245 C7042403 		movl	$3, (%esp)
 8524      000000
 8525 524c E8000000 		call	_reslog_adaptor_log
 8525      00
2669:../../MMI/Resource/WriteImgRes.c ****         exit(2);
 8527              	LM684:
GAS LISTING d:/MTK/MTK2503/MTK2503/11CW1418SP4_03_CORETEK03AE_11C_V1_GPRS_MMI/plutommi/Customer/ResGenerator/gcctmp/ccaodaaa.s 			page 175


 8528 5251 C7042402 		movl	$2, (%esp)
 8528      000000
 8529 5258 E8000000 		call	_exit
 8529      00
 8530              	L410:
2670:../../MMI/Resource/WriteImgRes.c ****     }
2671:../../MMI/Resource/WriteImgRes.c **** 
2672:../../MMI/Resource/WriteImgRes.c ****     RES_PRINT_INFO("Write 9slice image header [%s]  position=[%d-%d-%d-%d] zoom=[%s]\n", _9slice_fi
 8532              	LM685:
 8533 525d 8D8568FF 		leal	-152(%ebp), %eax
 8533      FFFF
 8534 5263 89442418 		movl	%eax, 24(%esp)
 8535 5267 8B8554FF 		movl	-172(%ebp), %eax
 8535      FFFF
 8536 526d 89442414 		movl	%eax, 20(%esp)
 8537 5271 8B8558FF 		movl	-168(%ebp), %eax
 8537      FFFF
 8538 5277 89442410 		movl	%eax, 16(%esp)
 8539 527b 8B855CFF 		movl	-164(%ebp), %eax
 8539      FFFF
 8540 5281 8944240C 		movl	%eax, 12(%esp)
 8541 5285 8B8560FF 		movl	-160(%ebp), %eax
 8541      FFFF
 8542 528b 89442408 		movl	%eax, 8(%esp)
 8543 528f 8B4510   		movl	16(%ebp), %eax
 8544 5292 89442404 		movl	%eax, 4(%esp)
 8545 5296 C7042420 		movl	$LC130, (%esp)
 8545      480000
 8546 529d E8000000 		call	_MtkResgenTrace
 8546      00
2673:../../MMI/Resource/WriteImgRes.c **** 
2674:../../MMI/Resource/WriteImgRes.c ****     /* 9slice data header */
2675:../../MMI/Resource/WriteImgRes.c ****     buff[0] = (U8) real_imagetype;
 8548              	LM686:
 8549 52a2 8B550C   		movl	12(%ebp), %edx
 8550 52a5 0FB645F7 		movzbl	-9(%ebp), %eax
 8551 52a9 8802     		movb	%al, (%edx)
2676:../../MMI/Resource/WriteImgRes.c ****     buff[1] = (U8) zoom_type;
 8553              	LM687:
 8554 52ab 8B550C   		movl	12(%ebp), %edx
 8555 52ae 42       		incl	%edx
 8556 52af 0FB68550 		movzbl	-176(%ebp), %eax
 8556      FFFFFF
 8557 52b6 8802     		movb	%al, (%edx)
2677:../../MMI/Resource/WriteImgRes.c ****     buff[2] = (U8) do_dither;
 8559              	LM688:
 8560 52b8 8B550C   		movl	12(%ebp), %edx
 8561 52bb 83C202   		addl	$2, %edx
 8562 52be 0FB6854C 		movzbl	-180(%ebp), %eax
 8562      FFFFFF
 8563 52c5 8802     		movb	%al, (%edx)
2678:../../MMI/Resource/WriteImgRes.c ****     buff[3] = (U8) 0;
 8565              	LM689:
 8566 52c7 8B450C   		movl	12(%ebp), %eax
 8567 52ca 83C003   		addl	$3, %eax
 8568 52cd C60000   		movb	$0, (%eax)
2679:../../MMI/Resource/WriteImgRes.c ****     buff[4] = (U8) ( x1 & 0xff);
GAS LISTING d:/MTK/MTK2503/MTK2503/11CW1418SP4_03_CORETEK03AE_11C_V1_GPRS_MMI/plutommi/Customer/ResGenerator/gcctmp/ccaodaaa.s 			page 176


 8570              	LM690:
 8571 52d0 8B550C   		movl	12(%ebp), %edx
 8572 52d3 83C204   		addl	$4, %edx
 8573 52d6 0FB68560 		movzbl	-160(%ebp), %eax
 8573      FFFFFF
 8574 52dd 8802     		movb	%al, (%edx)
2680:../../MMI/Resource/WriteImgRes.c ****     buff[5] = (U8) ((x1 >> 8) & 0xff);
 8576              	LM691:
 8577 52df 8B550C   		movl	12(%ebp), %edx
 8578 52e2 83C205   		addl	$5, %edx
 8579 52e5 8B8560FF 		movl	-160(%ebp), %eax
 8579      FFFF
 8580 52eb C1E808   		shrl	$8, %eax
 8581 52ee 8802     		movb	%al, (%edx)
2681:../../MMI/Resource/WriteImgRes.c ****     buff[6] = (U8) ((x1 >> 16) & 0xff);
 8583              	LM692:
 8584 52f0 8B550C   		movl	12(%ebp), %edx
 8585 52f3 83C206   		addl	$6, %edx
 8586 52f6 8B8560FF 		movl	-160(%ebp), %eax
 8586      FFFF
 8587 52fc C1E810   		shrl	$16, %eax
 8588 52ff 8802     		movb	%al, (%edx)
2682:../../MMI/Resource/WriteImgRes.c ****     buff[7] = (U8) ((x1 >> 24) & 0xff);
 8590              	LM693:
 8591 5301 8B550C   		movl	12(%ebp), %edx
 8592 5304 83C207   		addl	$7, %edx
 8593 5307 8B8560FF 		movl	-160(%ebp), %eax
 8593      FFFF
 8594 530d C1E818   		shrl	$24, %eax
 8595 5310 8802     		movb	%al, (%edx)
2683:../../MMI/Resource/WriteImgRes.c ****     buff[8] = (U8) ( y1 & 0xff);
 8597              	LM694:
 8598 5312 8B550C   		movl	12(%ebp), %edx
 8599 5315 83C208   		addl	$8, %edx
 8600 5318 0FB6855C 		movzbl	-164(%ebp), %eax
 8600      FFFFFF
 8601 531f 8802     		movb	%al, (%edx)
2684:../../MMI/Resource/WriteImgRes.c ****     buff[9] = (U8) ((y1 >> 8) & 0xff);
 8603              	LM695:
 8604 5321 8B550C   		movl	12(%ebp), %edx
 8605 5324 83C209   		addl	$9, %edx
 8606 5327 8B855CFF 		movl	-164(%ebp), %eax
 8606      FFFF
 8607 532d C1E808   		shrl	$8, %eax
 8608 5330 8802     		movb	%al, (%edx)
2685:../../MMI/Resource/WriteImgRes.c ****     buff[10] = (U8) ((y1 >> 16) & 0xff);
 8610              	LM696:
 8611 5332 8B550C   		movl	12(%ebp), %edx
 8612 5335 83C20A   		addl	$10, %edx
 8613 5338 8B855CFF 		movl	-164(%ebp), %eax
 8613      FFFF
 8614 533e C1E810   		shrl	$16, %eax
 8615 5341 8802     		movb	%al, (%edx)
2686:../../MMI/Resource/WriteImgRes.c ****     buff[11] = (U8) ((y1 >> 24) & 0xff);
 8617              	LM697:
 8618 5343 8B550C   		movl	12(%ebp), %edx
 8619 5346 83C20B   		addl	$11, %edx
GAS LISTING d:/MTK/MTK2503/MTK2503/11CW1418SP4_03_CORETEK03AE_11C_V1_GPRS_MMI/plutommi/Customer/ResGenerator/gcctmp/ccaodaaa.s 			page 177


 8620 5349 8B855CFF 		movl	-164(%ebp), %eax
 8620      FFFF
 8621 534f C1E818   		shrl	$24, %eax
 8622 5352 8802     		movb	%al, (%edx)
2687:../../MMI/Resource/WriteImgRes.c ****     buff[12] = (U8) ( x2 & 0xff);
 8624              	LM698:
 8625 5354 8B550C   		movl	12(%ebp), %edx
 8626 5357 83C20C   		addl	$12, %edx
 8627 535a 0FB68558 		movzbl	-168(%ebp), %eax
 8627      FFFFFF
 8628 5361 8802     		movb	%al, (%edx)
2688:../../MMI/Resource/WriteImgRes.c ****     buff[13] = (U8) ((x2 >> 8) & 0xff);
 8630              	LM699:
 8631 5363 8B550C   		movl	12(%ebp), %edx
 8632 5366 83C20D   		addl	$13, %edx
 8633 5369 8B8558FF 		movl	-168(%ebp), %eax
 8633      FFFF
 8634 536f C1E808   		shrl	$8, %eax
 8635 5372 8802     		movb	%al, (%edx)
2689:../../MMI/Resource/WriteImgRes.c ****     buff[14] = (U8) ((x2 >> 16) & 0xff);
 8637              	LM700:
 8638 5374 8B550C   		movl	12(%ebp), %edx
 8639 5377 83C20E   		addl	$14, %edx
 8640 537a 8B8558FF 		movl	-168(%ebp), %eax
 8640      FFFF
 8641 5380 C1E810   		shrl	$16, %eax
 8642 5383 8802     		movb	%al, (%edx)
2690:../../MMI/Resource/WriteImgRes.c ****     buff[15] = (U8) ((x2 >> 24) & 0xff);
 8644              	LM701:
 8645 5385 8B550C   		movl	12(%ebp), %edx
 8646 5388 83C20F   		addl	$15, %edx
 8647 538b 8B8558FF 		movl	-168(%ebp), %eax
 8647      FFFF
 8648 5391 C1E818   		shrl	$24, %eax
 8649 5394 8802     		movb	%al, (%edx)
2691:../../MMI/Resource/WriteImgRes.c ****     buff[16] = (U8) ( y2 & 0xff);
 8651              	LM702:
 8652 5396 8B550C   		movl	12(%ebp), %edx
 8653 5399 83C210   		addl	$16, %edx
 8654 539c 0FB68554 		movzbl	-172(%ebp), %eax
 8654      FFFFFF
 8655 53a3 8802     		movb	%al, (%edx)
2692:../../MMI/Resource/WriteImgRes.c ****     buff[17] = (U8) ((y2 >> 8) & 0xff);
 8657              	LM703:
 8658 53a5 8B550C   		movl	12(%ebp), %edx
 8659 53a8 83C211   		addl	$17, %edx
 8660 53ab 8B8554FF 		movl	-172(%ebp), %eax
 8660      FFFF
 8661 53b1 C1E808   		shrl	$8, %eax
 8662 53b4 8802     		movb	%al, (%edx)
2693:../../MMI/Resource/WriteImgRes.c ****     buff[18] = (U8) ((y2 >> 16) & 0xff);
 8664              	LM704:
 8665 53b6 8B550C   		movl	12(%ebp), %edx
 8666 53b9 83C212   		addl	$18, %edx
 8667 53bc 8B8554FF 		movl	-172(%ebp), %eax
 8667      FFFF
 8668 53c2 C1E810   		shrl	$16, %eax
GAS LISTING d:/MTK/MTK2503/MTK2503/11CW1418SP4_03_CORETEK03AE_11C_V1_GPRS_MMI/plutommi/Customer/ResGenerator/gcctmp/ccaodaaa.s 			page 178


 8669 53c5 8802     		movb	%al, (%edx)
2694:../../MMI/Resource/WriteImgRes.c ****     buff[19] = (U8) ((y2 >> 24) & 0xff);
 8671              	LM705:
 8672 53c7 8B550C   		movl	12(%ebp), %edx
 8673 53ca 83C213   		addl	$19, %edx
 8674 53cd 8B8554FF 		movl	-172(%ebp), %eax
 8674      FFFF
 8675 53d3 C1E818   		shrl	$24, %eax
 8676 53d6 8802     		movb	%al, (%edx)
2695:../../MMI/Resource/WriteImgRes.c **** 
2696:../../MMI/Resource/WriteImgRes.c ****     return MMI_TRUE;
 8678              	LM706:
 8679 53d8 B8010000 		movl	$1, %eax
 8679      00
2697:../../MMI/Resource/WriteImgRes.c **** }
 8681              	LM707:
 8682 53dd C9       		leave
 8683 53de C3       		ret
 8684              	LBE60:
 8696              	Lscope14:
 8698 53df 90       		.align 32
 8699              	LC134:
 8700 53e0 2E2E5C2E 		.ascii "..\\..\\Customer\\CustResource\\CustFontDataHW.h\0"
 8700      2E5C4375 
 8700      73746F6D 
 8700      65725C43 
 8700      75737452 
 8707              	.globl _SetFontResource
 8709              	_SetFontResource:
2698:../../MMI/Resource/WriteImgRes.c **** 
2699:../../MMI/Resource/WriteImgRes.c **** 
2700:../../MMI/Resource/WriteImgRes.c **** #ifdef __MMI_RESOURCE_ENFB_SUPPORT__
2701:../../MMI/Resource/WriteImgRes.c **** 
2702:../../MMI/Resource/WriteImgRes.c **** /*****************************************************************************
2703:../../MMI/Resource/WriteImgRes.c ****  * FUNCTION
2704:../../MMI/Resource/WriteImgRes.c ****  *  SetENFBAssociatedID
2705:../../MMI/Resource/WriteImgRes.c ****  * DESCRIPTION
2706:../../MMI/Resource/WriteImgRes.c ****  *  start to record associated ID list
2707:../../MMI/Resource/WriteImgRes.c ****  * PARAMETERS
2708:../../MMI/Resource/WriteImgRes.c ****  *  void
2709:../../MMI/Resource/WriteImgRes.c ****  * RETURNS
2710:../../MMI/Resource/WriteImgRes.c ****  *  MMI_BOOL		MMI_TRUE or MMI_FALSE
2711:../../MMI/Resource/WriteImgRes.c ****  *****************************************************************************/
2712:../../MMI/Resource/WriteImgRes.c **** static MMI_BOOL SetENFBAssociatedID(void)
2713:../../MMI/Resource/WriteImgRes.c **** {
2714:../../MMI/Resource/WriteImgRes.c **** 	/*----------------------------------------------------------------*/
2715:../../MMI/Resource/WriteImgRes.c **** 	/* Local Variables                                                */
2716:../../MMI/Resource/WriteImgRes.c **** 	/*----------------------------------------------------------------*/
2717:../../MMI/Resource/WriteImgRes.c **** 
2718:../../MMI/Resource/WriteImgRes.c **** 	/*----------------------------------------------------------------*/
2719:../../MMI/Resource/WriteImgRes.c **** 	/* Code Body                                                      */
2720:../../MMI/Resource/WriteImgRes.c **** 	/*----------------------------------------------------------------*/
2721:../../MMI/Resource/WriteImgRes.c **** 	/* if flag = false, set flag = true, allocate memory, and no++ */
2722:../../MMI/Resource/WriteImgRes.c **** 	if (ENFBAssociatedIDFlag == MMI_FALSE)
2723:../../MMI/Resource/WriteImgRes.c **** 	{
2724:../../MMI/Resource/WriteImgRes.c **** 		CUSTOM_ENFB_STR *enfb;
2725:../../MMI/Resource/WriteImgRes.c ****         int str_size = 256;
GAS LISTING d:/MTK/MTK2503/MTK2503/11CW1418SP4_03_CORETEK03AE_11C_V1_GPRS_MMI/plutommi/Customer/ResGenerator/gcctmp/ccaodaaa.s 			page 179


2726:../../MMI/Resource/WriteImgRes.c **** 		int i;
2727:../../MMI/Resource/WriteImgRes.c **** 
2728:../../MMI/Resource/WriteImgRes.c **** 		ENFBAssociatedIDFlag = MMI_TRUE;
2729:../../MMI/Resource/WriteImgRes.c **** 
2730:../../MMI/Resource/WriteImgRes.c **** 		CurrMaxENFBAssociatedIDNum++;
2731:../../MMI/Resource/WriteImgRes.c **** 
2732:../../MMI/Resource/WriteImgRes.c **** 		enfb = &ENFBAssociatedIDList[CurrMaxENFBAssociatedIDNum];
2733:../../MMI/Resource/WriteImgRes.c **** 		enfb->count = 0;
2734:../../MMI/Resource/WriteImgRes.c **** 		enfb->IDs = (U16 *)malloc(MAX_ASSOCIATED_LIST_IDS*sizeof(U16));
2735:../../MMI/Resource/WriteImgRes.c **** 		enfb->Ptr = (S8 **)malloc(MAX_ASSOCIATED_LIST_IDS*sizeof(S8*));
2736:../../MMI/Resource/WriteImgRes.c **** 		for (i = 0; i < MAX_ASSOCIATED_LIST_IDS ; i++)
2737:../../MMI/Resource/WriteImgRes.c **** 		{
2738:../../MMI/Resource/WriteImgRes.c **** 			enfb->Ptr[i] = (S8 *)malloc(str_size*sizeof(S8));
2739:../../MMI/Resource/WriteImgRes.c **** 		}
2740:../../MMI/Resource/WriteImgRes.c **** 
2741:../../MMI/Resource/WriteImgRes.c **** 		return MMI_TRUE;
2742:../../MMI/Resource/WriteImgRes.c **** 	}
2743:../../MMI/Resource/WriteImgRes.c **** 	/* error: cannot set flag twice */
2744:../../MMI/Resource/WriteImgRes.c **** 	else
2745:../../MMI/Resource/WriteImgRes.c **** 	{
2746:../../MMI/Resource/WriteImgRes.c **** 		return MMI_FALSE;
2747:../../MMI/Resource/WriteImgRes.c **** 	}
2748:../../MMI/Resource/WriteImgRes.c **** }
2749:../../MMI/Resource/WriteImgRes.c **** 
2750:../../MMI/Resource/WriteImgRes.c **** 
2751:../../MMI/Resource/WriteImgRes.c **** 
2752:../../MMI/Resource/WriteImgRes.c **** /*****************************************************************************
2753:../../MMI/Resource/WriteImgRes.c ****  * FUNCTION
2754:../../MMI/Resource/WriteImgRes.c ****  *  ResetENFBAssociatedID
2755:../../MMI/Resource/WriteImgRes.c ****  * DESCRIPTION
2756:../../MMI/Resource/WriteImgRes.c ****  *  end of one associated ID list
2757:../../MMI/Resource/WriteImgRes.c ****  * PARAMETERS
2758:../../MMI/Resource/WriteImgRes.c ****  *  void
2759:../../MMI/Resource/WriteImgRes.c ****  * RETURNS
2760:../../MMI/Resource/WriteImgRes.c ****  *  MMI_BOOL		MMI_TRUE or MMI_FALSE
2761:../../MMI/Resource/WriteImgRes.c ****  *****************************************************************************/
2762:../../MMI/Resource/WriteImgRes.c **** static MMI_BOOL ResetENFBAssociatedID(void)
2763:../../MMI/Resource/WriteImgRes.c **** {
2764:../../MMI/Resource/WriteImgRes.c **** 	/*----------------------------------------------------------------*/
2765:../../MMI/Resource/WriteImgRes.c **** 	/* Local Variables                                                */
2766:../../MMI/Resource/WriteImgRes.c **** 	/*----------------------------------------------------------------*/
2767:../../MMI/Resource/WriteImgRes.c **** 
2768:../../MMI/Resource/WriteImgRes.c **** 	/*----------------------------------------------------------------*/
2769:../../MMI/Resource/WriteImgRes.c **** 	/* Code Body                                                      */
2770:../../MMI/Resource/WriteImgRes.c **** 	/*----------------------------------------------------------------*/
2771:../../MMI/Resource/WriteImgRes.c **** 	/* if flag = true, set flag = false */
2772:../../MMI/Resource/WriteImgRes.c **** 	if (ENFBAssociatedIDFlag == MMI_TRUE)
2773:../../MMI/Resource/WriteImgRes.c **** 	{
2774:../../MMI/Resource/WriteImgRes.c **** 		ENFBAssociatedIDFlag = MMI_FALSE;
2775:../../MMI/Resource/WriteImgRes.c **** 
2776:../../MMI/Resource/WriteImgRes.c **** 		/* if current associated list is empty, reuse it for next list */
2777:../../MMI/Resource/WriteImgRes.c **** 		if (ENFBAssociatedIDList[CurrMaxENFBAssociatedIDNum].count == 0)
2778:../../MMI/Resource/WriteImgRes.c **** 		{
2779:../../MMI/Resource/WriteImgRes.c **** 			CurrMaxENFBAssociatedIDNum--;
2780:../../MMI/Resource/WriteImgRes.c **** 		}
2781:../../MMI/Resource/WriteImgRes.c **** 
2782:../../MMI/Resource/WriteImgRes.c **** 		return MMI_TRUE;
GAS LISTING d:/MTK/MTK2503/MTK2503/11CW1418SP4_03_CORETEK03AE_11C_V1_GPRS_MMI/plutommi/Customer/ResGenerator/gcctmp/ccaodaaa.s 			page 180


2783:../../MMI/Resource/WriteImgRes.c **** 	}
2784:../../MMI/Resource/WriteImgRes.c **** 	/* error: can not set flag = false twice */
2785:../../MMI/Resource/WriteImgRes.c **** 	else
2786:../../MMI/Resource/WriteImgRes.c **** 	{
2787:../../MMI/Resource/WriteImgRes.c **** 		return MMI_FALSE;
2788:../../MMI/Resource/WriteImgRes.c **** 	}
2789:../../MMI/Resource/WriteImgRes.c **** }
2790:../../MMI/Resource/WriteImgRes.c **** 
2791:../../MMI/Resource/WriteImgRes.c **** 
2792:../../MMI/Resource/WriteImgRes.c **** /*****************************************************************************
2793:../../MMI/Resource/WriteImgRes.c ****  * FUNCTION
2794:../../MMI/Resource/WriteImgRes.c ****  *  GetCurrENFBAssociatedID
2795:../../MMI/Resource/WriteImgRes.c ****  * DESCRIPTION
2796:../../MMI/Resource/WriteImgRes.c ****  *  end of one associated ID list
2797:../../MMI/Resource/WriteImgRes.c ****  * PARAMETERS
2798:../../MMI/Resource/WriteImgRes.c ****  *  void
2799:../../MMI/Resource/WriteImgRes.c ****  * RETURNS
2800:../../MMI/Resource/WriteImgRes.c ****  *  U32		current associated ID
2801:../../MMI/Resource/WriteImgRes.c ****  *****************************************************************************/
2802:../../MMI/Resource/WriteImgRes.c **** static U16 GetCurrENFBAssociatedID(void)
2803:../../MMI/Resource/WriteImgRes.c **** {
2804:../../MMI/Resource/WriteImgRes.c **** 	/*----------------------------------------------------------------*/
2805:../../MMI/Resource/WriteImgRes.c **** 	/* Local Variables                                                */
2806:../../MMI/Resource/WriteImgRes.c **** 	/*----------------------------------------------------------------*/
2807:../../MMI/Resource/WriteImgRes.c **** 
2808:../../MMI/Resource/WriteImgRes.c **** 	/*----------------------------------------------------------------*/
2809:../../MMI/Resource/WriteImgRes.c **** 	/* Code Body                                                      */
2810:../../MMI/Resource/WriteImgRes.c **** 	/*----------------------------------------------------------------*/
2811:../../MMI/Resource/WriteImgRes.c **** 	if (ENFBAssociatedIDFlag == MMI_TRUE)
2812:../../MMI/Resource/WriteImgRes.c **** 	{
2813:../../MMI/Resource/WriteImgRes.c **** 	    return CurrMaxENFBAssociatedIDNum;
2814:../../MMI/Resource/WriteImgRes.c **** 	}
2815:../../MMI/Resource/WriteImgRes.c **** 	else
2816:../../MMI/Resource/WriteImgRes.c **** 	{
2817:../../MMI/Resource/WriteImgRes.c ****         return 0;
2818:../../MMI/Resource/WriteImgRes.c **** 	}
2819:../../MMI/Resource/WriteImgRes.c **** }
2820:../../MMI/Resource/WriteImgRes.c **** 
2821:../../MMI/Resource/WriteImgRes.c **** /*****************************************************************************
2822:../../MMI/Resource/WriteImgRes.c ****  * FUNCTION
2823:../../MMI/Resource/WriteImgRes.c ****  *  AddENFBAssociatedIDItem
2824:../../MMI/Resource/WriteImgRes.c ****  * DESCRIPTION
2825:../../MMI/Resource/WriteImgRes.c ****  *  add item to current associated list
2826:../../MMI/Resource/WriteImgRes.c ****  * PARAMETERS
2827:../../MMI/Resource/WriteImgRes.c ****  *  ImageID		[IN]
2828:../../MMI/Resource/WriteImgRes.c ****  *  filename	[IN]
2829:../../MMI/Resource/WriteImgRes.c ****  * RETURNS
2830:../../MMI/Resource/WriteImgRes.c ****  *  MMI_BOOL		MMI_TRUE or MMI_FALSE
2831:../../MMI/Resource/WriteImgRes.c ****  *****************************************************************************/
2832:../../MMI/Resource/WriteImgRes.c **** MMI_BOOL AddENFBAssociatedIDItem(U16 ImageID, S8 *filename, image_type_enum ExtImageFlag)
2833:../../MMI/Resource/WriteImgRes.c **** {
2834:../../MMI/Resource/WriteImgRes.c **** 	/*----------------------------------------------------------------*/
2835:../../MMI/Resource/WriteImgRes.c **** 	/* Local Variables                                                */
2836:../../MMI/Resource/WriteImgRes.c **** 	/*----------------------------------------------------------------*/
2837:../../MMI/Resource/WriteImgRes.c **** 
2838:../../MMI/Resource/WriteImgRes.c **** 	/*----------------------------------------------------------------*/
2839:../../MMI/Resource/WriteImgRes.c **** 	/* Code Body                                                      */
GAS LISTING d:/MTK/MTK2503/MTK2503/11CW1418SP4_03_CORETEK03AE_11C_V1_GPRS_MMI/plutommi/Customer/ResGenerator/gcctmp/ccaodaaa.s 			page 181


2840:../../MMI/Resource/WriteImgRes.c **** 	/*----------------------------------------------------------------*/
2841:../../MMI/Resource/WriteImgRes.c **** 	/* if flag = true, record this item: imagd ID & pointer variable */
2842:../../MMI/Resource/WriteImgRes.c **** 	if (ENFBAssociatedIDFlag == MMI_TRUE)
2843:../../MMI/Resource/WriteImgRes.c **** 	{
2844:../../MMI/Resource/WriteImgRes.c **** 		CUSTOM_ENFB_STR *enfb;
2845:../../MMI/Resource/WriteImgRes.c ****         int i;
2846:../../MMI/Resource/WriteImgRes.c **** 
2847:../../MMI/Resource/WriteImgRes.c **** 		enfb = &ENFBAssociatedIDList[CurrMaxENFBAssociatedIDNum];
2848:../../MMI/Resource/WriteImgRes.c **** 		enfb->IDs[enfb->count] = ImageID;
2849:../../MMI/Resource/WriteImgRes.c **** 		Extract_Name(enfb->Ptr[enfb->count], filename, ExtImageFlag);
2850:../../MMI/Resource/WriteImgRes.c ****         str_upper(enfb->Ptr[enfb->count], MAX_ASSOCIATED_LIST_IDS);
2851:../../MMI/Resource/WriteImgRes.c **** 		enfb->count++;
2852:../../MMI/Resource/WriteImgRes.c **** 
2853:../../MMI/Resource/WriteImgRes.c **** 		return MMI_TRUE;
2854:../../MMI/Resource/WriteImgRes.c **** 	}
2855:../../MMI/Resource/WriteImgRes.c **** 	/* if flag = false, do not record this item */
2856:../../MMI/Resource/WriteImgRes.c **** 	else
2857:../../MMI/Resource/WriteImgRes.c **** 	{
2858:../../MMI/Resource/WriteImgRes.c **** 		return MMI_FALSE;
2859:../../MMI/Resource/WriteImgRes.c **** 	}
2860:../../MMI/Resource/WriteImgRes.c **** }
2861:../../MMI/Resource/WriteImgRes.c **** 
2862:../../MMI/Resource/WriteImgRes.c **** /*****************************************************************************
2863:../../MMI/Resource/WriteImgRes.c ****  * FUNCTION
2864:../../MMI/Resource/WriteImgRes.c ****  *  IfItemExistENFBAssociatedID
2865:../../MMI/Resource/WriteImgRes.c ****  * DESCRIPTION
2866:../../MMI/Resource/WriteImgRes.c ****  *  test if the ImageID has already existed in one associated ID list
2867:../../MMI/Resource/WriteImgRes.c ****  * PARAMETERS
2868:../../MMI/Resource/WriteImgRes.c ****  *  ImageID     [IN]
2869:../../MMI/Resource/WriteImgRes.c ****  * RETURNS
2870:../../MMI/Resource/WriteImgRes.c ****  *  MMI_BOOL	MMI_TRUE or MMI_FALSE
2871:../../MMI/Resource/WriteImgRes.c ****  *****************************************************************************/
2872:../../MMI/Resource/WriteImgRes.c **** MMI_BOOL IfItemExistENFBAssociatedID(S8 *filename, image_type_enum ExtImageFlag)
2873:../../MMI/Resource/WriteImgRes.c **** {
2874:../../MMI/Resource/WriteImgRes.c **** 	/*----------------------------------------------------------------*/
2875:../../MMI/Resource/WriteImgRes.c **** 	/* Local Variables                                                */
2876:../../MMI/Resource/WriteImgRes.c **** 	/*----------------------------------------------------------------*/
2877:../../MMI/Resource/WriteImgRes.c ****     int i, j, k;
2878:../../MMI/Resource/WriteImgRes.c ****     int str_size = 256;
2879:../../MMI/Resource/WriteImgRes.c **** 
2880:../../MMI/Resource/WriteImgRes.c **** 	/*----------------------------------------------------------------*/
2881:../../MMI/Resource/WriteImgRes.c **** 	/* Code Body                                                      */
2882:../../MMI/Resource/WriteImgRes.c **** 	/*----------------------------------------------------------------*/
2883:../../MMI/Resource/WriteImgRes.c ****     for (i = 1; i <= (int)CurrMaxENFBAssociatedIDNum; i++)
2884:../../MMI/Resource/WriteImgRes.c ****     {
2885:../../MMI/Resource/WriteImgRes.c **** 		CUSTOM_ENFB_STR *enfb;
2886:../../MMI/Resource/WriteImgRes.c ****         S8 *ptr;
2887:../../MMI/Resource/WriteImgRes.c **** 
2888:../../MMI/Resource/WriteImgRes.c **** 		enfb = &ENFBAssociatedIDList[i];
2889:../../MMI/Resource/WriteImgRes.c ****         for (j = 0; j <= (int)enfb->count; j++)
2890:../../MMI/Resource/WriteImgRes.c ****         {
2891:../../MMI/Resource/WriteImgRes.c ****             ptr = (S8 *)malloc(str_size*sizeof(S8));
2892:../../MMI/Resource/WriteImgRes.c ****             Extract_Name(ptr, filename, ExtImageFlag);
2893:../../MMI/Resource/WriteImgRes.c ****             str_upper(ptr, str_size);
2894:../../MMI/Resource/WriteImgRes.c ****             if (strcmp((char *)ptr, (char *)enfb->Ptr[j]) == 0)
2895:../../MMI/Resource/WriteImgRes.c ****             {
2896:../../MMI/Resource/WriteImgRes.c ****                 return MMI_TRUE;
GAS LISTING d:/MTK/MTK2503/MTK2503/11CW1418SP4_03_CORETEK03AE_11C_V1_GPRS_MMI/plutommi/Customer/ResGenerator/gcctmp/ccaodaaa.s 			page 182


2897:../../MMI/Resource/WriteImgRes.c ****             }
2898:../../MMI/Resource/WriteImgRes.c ****         }
2899:../../MMI/Resource/WriteImgRes.c ****     }
2900:../../MMI/Resource/WriteImgRes.c ****     return MMI_FALSE;
2901:../../MMI/Resource/WriteImgRes.c **** }
2902:../../MMI/Resource/WriteImgRes.c **** #endif // __MMI_RESOURCE_ENFB_SUPPORT__
2903:../../MMI/Resource/WriteImgRes.c **** 
2904:../../MMI/Resource/WriteImgRes.c **** /*****************************************************************************
2905:../../MMI/Resource/WriteImgRes.c ****  * FUNCTION
2906:../../MMI/Resource/WriteImgRes.c ****  *  SetFontResource
2907:../../MMI/Resource/WriteImgRes.c ****  * DESCRIPTION
2908:../../MMI/Resource/WriteImgRes.c ****  *  Function to add font resource
2909:../../MMI/Resource/WriteImgRes.c ****  * PARAMETERS
2910:../../MMI/Resource/WriteImgRes.c ****  *  FontId          [IN] resource ID
2911:../../MMI/Resource/WriteImgRes.c ****  *  filename        [IN] font data file name
2912:../../MMI/Resource/WriteImgRes.c ****  *  userdata        [IN] user data
2913:../../MMI/Resource/WriteImgRes.c ****  *  flags           [IN] additional flags for populating font resource
2914:../../MMI/Resource/WriteImgRes.c ****  * RETURNS
2915:../../MMI/Resource/WriteImgRes.c ****  *  void
2916:../../MMI/Resource/WriteImgRes.c ****  *****************************************************************************/
2917:../../MMI/Resource/WriteImgRes.c **** void SetFontResource(U16 FontID, S8 *filename, U32 userdata, S32 flags, S8 *enum_value)
2918:../../MMI/Resource/WriteImgRes.c **** {
 8711              	LM708:
 8712 540d 55       		pushl	%ebp
 8713 540e 89E5     		movl	%esp, %ebp
 8714 5410 83EC18   		subl	$24, %esp
 8715 5413 8B4508   		movl	8(%ebp), %eax
 8716 5416 668945FE 		movw	%ax, -2(%ebp)
2919:../../MMI/Resource/WriteImgRes.c ****     /*----------------------------------------------------------------*/
2920:../../MMI/Resource/WriteImgRes.c ****     /* Local Variables                                                */
2921:../../MMI/Resource/WriteImgRes.c ****     /*----------------------------------------------------------------*/
2922:../../MMI/Resource/WriteImgRes.c **** 
2923:../../MMI/Resource/WriteImgRes.c ****     /*----------------------------------------------------------------*/
2924:../../MMI/Resource/WriteImgRes.c ****     /* Code Body                                                      */
2925:../../MMI/Resource/WriteImgRes.c ****     /*----------------------------------------------------------------*/
2926:../../MMI/Resource/WriteImgRes.c ****     g_mmi_res_font_id = FontID;
 8718              	LM709:
 8719 541a 0FB745FE 		movzwl	-2(%ebp), %eax
 8720 541e 66A31000 		movw	%ax, _g_mmi_res_font_id
 8720      0000
2927:../../MMI/Resource/WriteImgRes.c ****     g_mmi_res_font_userdata = userdata;
 8722              	LM710:
 8723 5424 8B4510   		movl	16(%ebp), %eax
 8724 5427 A3200000 		movl	%eax, _g_mmi_res_font_userdata
 8724      00
2928:../../MMI/Resource/WriteImgRes.c ****     g_mmi_res_font_flags = flags;
 8726              	LM711:
 8727 542c 8B4514   		movl	20(%ebp), %eax
 8728 542f A3040000 		movl	%eax, _g_mmi_res_font_flags
 8728      00
2929:../../MMI/Resource/WriteImgRes.c **** 
2930:../../MMI/Resource/WriteImgRes.c ****     font_data_file = fopen(FONT_OUTPUT_DATA_FILENAME, "a");
 8730              	LM712:
 8731 5434 C7442404 		movl	$LC24, 4(%esp)
 8731      26030000 
 8732 543c C70424E0 		movl	$LC134, (%esp)
 8732      530000
GAS LISTING d:/MTK/MTK2503/MTK2503/11CW1418SP4_03_CORETEK03AE_11C_V1_GPRS_MMI/plutommi/Customer/ResGenerator/gcctmp/ccaodaaa.s 			page 183


 8733 5443 E8000000 		call	_fopen
 8733      00
 8734 5448 A3000000 		movl	%eax, _font_data_file
 8734      00
2931:../../MMI/Resource/WriteImgRes.c **** 
2932:../../MMI/Resource/WriteImgRes.c ****     SetFontWithBuffer(FontID, filename, enum_value, TRUE);
 8736              	LM713:
 8737 544d C744240C 		movl	$1, 12(%esp)
 8737      01000000 
 8738 5455 8B4518   		movl	24(%ebp), %eax
 8739 5458 89442408 		movl	%eax, 8(%esp)
 8740 545c 8B450C   		movl	12(%ebp), %eax
 8741 545f 89442404 		movl	%eax, 4(%esp)
 8742 5463 0FB745FE 		movzwl	-2(%ebp), %eax
 8743 5467 890424   		movl	%eax, (%esp)
 8744 546a E8460100 		call	_SetFontWithBuffer
 8744      00
2933:../../MMI/Resource/WriteImgRes.c **** 
2934:../../MMI/Resource/WriteImgRes.c ****     MYFCLOSE(font_data_file);
 8746              	LM714:
 8747 546f 833D0000 		cmpl	$0, _font_data_file
 8747      000000
 8748 5476 7417     		je	L413
 8749 5478 A1000000 		movl	_font_data_file, %eax
 8749      00
 8750 547d 890424   		movl	%eax, (%esp)
 8751 5480 E8000000 		call	_fclose
 8751      00
 8752 5485 C7050000 		movl	$0, _font_data_file
 8752      00000000 
 8752      0000
 8753              	L413:
2935:../../MMI/Resource/WriteImgRes.c **** 
2936:../../MMI/Resource/WriteImgRes.c ****     g_mmi_res_font_userdata = 0;
 8755              	LM715:
 8756 548f C7052000 		movl	$0, _g_mmi_res_font_userdata
 8756      00000000 
 8756      0000
2937:../../MMI/Resource/WriteImgRes.c ****     g_mmi_res_font_flags = 0;
 8758              	LM716:
 8759 5499 C7050400 		movl	$0, _g_mmi_res_font_flags
 8759      00000000 
 8759      0000
2938:../../MMI/Resource/WriteImgRes.c **** }
 8761              	LM717:
 8762 54a3 C9       		leave
 8763 54a4 C3       		ret
 8765              	Lscope15:
 8767              	LC135:
 8768 54a5 66696C65 		.ascii "file name%d = %s \12\0"
 8768      206E616D 
 8768      65256420 
 8768      3D202573 
 8768      200A00
 8769              	LC136:
 8770 54b8 466F6E74 		.ascii "Font\0"
 8770      00
GAS LISTING d:/MTK/MTK2503/MTK2503/11CW1418SP4_03_CORETEK03AE_11C_V1_GPRS_MMI/plutommi/Customer/ResGenerator/gcctmp/ccaodaaa.s 			page 184


 8771              	LC137:
 8772 54bd 25640925 		.ascii "%d\11%s\11\11%s\12\0"
 8772      73090925 
 8772      730A00
 8773              	LC138:
 8774 54c8 4E4F5F41 		.ascii "NO_APP\0"
 8774      505000
 8775              	LC139:
 8776 54cf 25730925 		.ascii "%s\11%d\11%d\11%s\11%d\11%s\11NA\12\0"
 8776      64092564 
 8776      09257309 
 8776      25640925 
 8776      73094E41 
 8777              	LC140:
 8778 54e5 466C6F61 		.ascii "Fload failed: %s(%d), PATH=%s\0"
 8778      64206661 
 8778      696C6564 
 8778      3A202573 
 8778      28256429 
 8779 5503 90909090 		.align 32
 8779      90909090 
 8779      90909090 
 8779      90909090 
 8779      90909090 
 8780              	LC141:
 8781 5520 506C6561 		.ascii "Please check the error message of TAG [WRITEIMGRES] in log file:resgen_mtk_resgenerator_ru
 8781      73652063 
 8781      6865636B 
 8781      20746865 
 8781      20657272 
 8782              		.align 32
 8783              	LC142:
 8784 5580 6D746B5F 		.ascii "mtk_resgenerator return error.\0"
 8784      72657367 
 8784      656E6572 
 8784      61746F72 
 8784      20726574 
 8785              	LC143:
 8786 559f 4572726F 		.ascii "Error!! Fload FAIL !!\0"
 8786      72212120 
 8786      466C6F61 
 8786      64204641 
 8786      494C2021 
 8792              	.globl _SetFontWithBuffer
 8794              	_SetFontWithBuffer:
2939:../../MMI/Resource/WriteImgRes.c **** 
2940:../../MMI/Resource/WriteImgRes.c **** 
2941:../../MMI/Resource/WriteImgRes.c **** /*****************************************************************************
2942:../../MMI/Resource/WriteImgRes.c ****  * FUNCTION
2943:../../MMI/Resource/WriteImgRes.c ****  *  SetFontWithBuffer
2944:../../MMI/Resource/WriteImgRes.c ****  * DESCRIPTION
2945:../../MMI/Resource/WriteImgRes.c ****  *  Function to copy the Font file to buffer
2946:../../MMI/Resource/WriteImgRes.c ****  * PARAMETERS
2947:../../MMI/Resource/WriteImgRes.c ****  *  nImgId              [IN]
2948:../../MMI/Resource/WriteImgRes.c ****  *  filename            [?]
2949:../../MMI/Resource/WriteImgRes.c ****  *  enum_value          [?]
2950:../../MMI/Resource/WriteImgRes.c ****  *  res_type            [IN]
GAS LISTING d:/MTK/MTK2503/MTK2503/11CW1418SP4_03_CORETEK03AE_11C_V1_GPRS_MMI/plutommi/Customer/ResGenerator/gcctmp/ccaodaaa.s 			page 185


2951:../../MMI/Resource/WriteImgRes.c ****  *  fontFlag             [IN]
2952:../../MMI/Resource/WriteImgRes.c ****  *  S8(?)               [OUT]       -> filename of the image to be displayed.
2953:../../MMI/Resource/WriteImgRes.c ****  *  U16(?)              [IN]        -> ImageId
2954:../../MMI/Resource/WriteImgRes.c ****  * RETURNS
2955:../../MMI/Resource/WriteImgRes.c ****  *  void
2956:../../MMI/Resource/WriteImgRes.c ****  *****************************************************************************/
2957:../../MMI/Resource/WriteImgRes.c **** void SetFontWithBuffer(U16 nFontId, S8 *filename, S8 *enum_value, BOOL fontFlag)      /* 120304 Cal
2958:../../MMI/Resource/WriteImgRes.c **** {
 8796              	LM718:
 8797 55b5 55       		pushl	%ebp
 8798 55b6 89E5     		movl	%esp, %ebp
 8799 55b8 B8681202 		movl	$135784, %eax
 8799      00
 8800 55bd E8000000 		call	__alloca
 8800      00
 8801 55c2 8B4508   		movl	8(%ebp), %eax
 8802 55c5 668945F6 		movw	%ax, -10(%ebp)
2959:../../MMI/Resource/WriteImgRes.c ****     /*----------------------------------------------------------------*/
2960:../../MMI/Resource/WriteImgRes.c ****     /* Local Variables                                                */
2961:../../MMI/Resource/WriteImgRes.c ****     /*----------------------------------------------------------------*/
2962:../../MMI/Resource/WriteImgRes.c ****     U16 i;
2963:../../MMI/Resource/WriteImgRes.c ****     U16 found = 0;
 8804              	LM719:
 8805              	LBB61:
 8806 55c9 66C745F2 		movw	$0, -14(%ebp)
 8806      0000
2964:../../MMI/Resource/WriteImgRes.c ****     S8 upperFileName[MAX_FILENAME_LEN];
2965:../../MMI/Resource/WriteImgRes.c ****     unsigned short *pCurrMaxFontId;
2966:../../MMI/Resource/WriteImgRes.c ****     unsigned short *pCurrMaxFontNum;
2967:../../MMI/Resource/WriteImgRes.c ****     FONTNAME_LIST *pFontNameList;
2968:../../MMI/Resource/WriteImgRes.c ****     CUSTOM_FONT_MAP *pFontIdMap;
2969:../../MMI/Resource/WriteImgRes.c ****     S8 filename_buffer[BUFFER_SIZE];
2970:../../MMI/Resource/WriteImgRes.c ****     S8 *real_filename = NULL;
 8808              	LM720:
 8809 55cf C785D4ED 		movl	$0, -4652(%ebp)
 8809      FFFF0000 
 8809      0000
2971:../../MMI/Resource/WriteImgRes.c **** 
2972:../../MMI/Resource/WriteImgRes.c ****     /*----------------------------------------------------------------*/
2973:../../MMI/Resource/WriteImgRes.c ****     /* Code Body                                                      */
2974:../../MMI/Resource/WriteImgRes.c ****     /*----------------------------------------------------------------*/
2975:../../MMI/Resource/WriteImgRes.c ****     pCurrMaxFontId = &CurrMaxFontIdEXT;
 8811              	LM721:
 8812 55d9 C785E4FD 		movl	$_CurrMaxFontIdEXT, -540(%ebp)
 8812      FFFF0000 
 8812      0000
2976:../../MMI/Resource/WriteImgRes.c ****     pCurrMaxFontNum = &CurrMaxFontNumEXT;
 8814              	LM722:
 8815 55e3 C785E0FD 		movl	$_CurrMaxFontNumEXT, -544(%ebp)
 8815      FFFF0000 
 8815      0000
2977:../../MMI/Resource/WriteImgRes.c ****     pFontNameList = FontNameListEXT;
 8817              	LM723:
 8818 55ed C785DCFD 		movl	$_FontNameListEXT, -548(%ebp)
 8818      FFFF0000 
 8818      0000
2978:../../MMI/Resource/WriteImgRes.c ****     pFontIdMap = FontIdMapEXT;
GAS LISTING d:/MTK/MTK2503/MTK2503/11CW1418SP4_03_CORETEK03AE_11C_V1_GPRS_MMI/plutommi/Customer/ResGenerator/gcctmp/ccaodaaa.s 			page 186


 8820              	LM724:
 8821 55f7 C785D8FD 		movl	$_FontIdMapEXT, -552(%ebp)
 8821      FFFF0000 
 8821      0000
2979:../../MMI/Resource/WriteImgRes.c **** 
2980:../../MMI/Resource/WriteImgRes.c ****     if (*pCurrMaxFontId >= MAX_IMAGE_IDS_SIZE)
 8823              	LM725:
 8824 5601 8B85E4FD 		movl	-540(%ebp), %eax
 8824      FFFF
 8825 5607 668338FF 		cmpw	$-1, (%eax)
 8826 560b 7505     		jne	L416
2981:../../MMI/Resource/WriteImgRes.c ****     {
2982:../../MMI/Resource/WriteImgRes.c ****         return; /* Can't add more than max number of image ids allowed */
 8828              	LM726:
 8829 560d E9A60500 		jmp	L415
 8829      00
 8830              	L416:
2983:../../MMI/Resource/WriteImgRes.c ****     }
2984:../../MMI/Resource/WriteImgRes.c **** 
2985:../../MMI/Resource/WriteImgRes.c ****     fprintf(OutputImgIDFile, "file name%d = %s \n", image_idx++, filename);
 8832              	LM727:
 8833 5612 8B450C   		movl	12(%ebp), %eax
 8834 5615 8944240C 		movl	%eax, 12(%esp)
 8835 5619 A1000000 		movl	_image_idx, %eax
 8835      00
 8836 561e 89442408 		movl	%eax, 8(%esp)
 8837 5622 FF050000 		incl	_image_idx
 8837      0000
 8838 5628 C7442404 		movl	$LC135, 4(%esp)
 8838      A5540000 
 8839 5630 A1000000 		movl	_OutputImgIDFile, %eax
 8839      00
 8840 5635 890424   		movl	%eax, (%esp)
 8841 5638 E8000000 		call	_fprintf
 8841      00
2986:../../MMI/Resource/WriteImgRes.c **** 
2987:../../MMI/Resource/WriteImgRes.c ****     if (strlen(filename) >= MAX_FILENAME_LEN)
 8843              	LM728:
 8844 563d 8B450C   		movl	12(%ebp), %eax
 8845 5640 890424   		movl	%eax, (%esp)
 8846 5643 E8000000 		call	_strlen
 8846      00
 8847 5648 3DFF0100 		cmpl	$511, %eax
 8847      00
 8848 564d 760B     		jbe	L417
2988:../../MMI/Resource/WriteImgRes.c ****     {
2989:../../MMI/Resource/WriteImgRes.c ****         filename[MAX_FILENAME_LEN - 1] = '\0';
 8850              	LM729:
 8851 564f 8B450C   		movl	12(%ebp), %eax
 8852 5652 05FF0100 		addl	$511, %eax
 8852      00
 8853 5657 C60000   		movb	$0, (%eax)
 8854              	L417:
2990:../../MMI/Resource/WriteImgRes.c ****     }
2991:../../MMI/Resource/WriteImgRes.c ****     if (!(strcmp(filename, "")))
 8856              	LM730:
 8857 565a C7442404 		movl	$LC31, 4(%esp)
GAS LISTING d:/MTK/MTK2503/MTK2503/11CW1418SP4_03_CORETEK03AE_11C_V1_GPRS_MMI/plutommi/Customer/ResGenerator/gcctmp/ccaodaaa.s 			page 187


 8857      12060000 
 8858 5662 8B450C   		movl	12(%ebp), %eax
 8859 5665 890424   		movl	%eax, (%esp)
 8860 5668 E8000000 		call	_strcmp
 8860      00
 8861 566d 85C0     		testl	%eax, %eax
 8862 566f 7516     		jne	L418
2992:../../MMI/Resource/WriteImgRes.c ****     {
2993:../../MMI/Resource/WriteImgRes.c ****         strcpy(filename_buffer, NOIMAGE_FILENAMEBUFFER);
 8864              	LM731:
 8865 5671 C7442404 		movl	$LC32, 4(%esp)
 8865      20060000 
 8866 5679 8D85D8ED 		leal	-4648(%ebp), %eax
 8866      FFFF
 8867 567f 890424   		movl	%eax, (%esp)
 8868 5682 E8000000 		call	_strcpy
 8868      00
 8869              	L418:
2994:../../MMI/Resource/WriteImgRes.c **** 
2995:../../MMI/Resource/WriteImgRes.c ****     }
2996:../../MMI/Resource/WriteImgRes.c ****     strncpy(upperFileName, filename, MAX_FILENAME_LEN);
 8871              	LM732:
 8872 5687 C7442408 		movl	$512, 8(%esp)
 8872      00020000 
 8873 568f 8B450C   		movl	12(%ebp), %eax
 8874 5692 89442404 		movl	%eax, 4(%esp)
 8875 5696 8D85E8FD 		leal	-536(%ebp), %eax
 8875      FFFF
 8876 569c 890424   		movl	%eax, (%esp)
 8877 569f E8000000 		call	_strncpy
 8877      00
2997:../../MMI/Resource/WriteImgRes.c ****     str_upper(upperFileName, MAX_FILENAME_LEN);
 8879              	LM733:
 8880 56a4 C7442404 		movl	$512, 4(%esp)
 8880      00020000 
 8881 56ac 8D85E8FD 		leal	-536(%ebp), %eax
 8881      FFFF
 8882 56b2 890424   		movl	%eax, (%esp)
 8883 56b5 E8000000 		call	_str_upper
 8883      00
2998:../../MMI/Resource/WriteImgRes.c **** 
2999:../../MMI/Resource/WriteImgRes.c ****     if (pFontIdMap[nFontId].nFontNum != (U16)-1)
 8885              	LM734:
 8886 56ba 0FB745F6 		movzwl	-10(%ebp), %eax
 8887 56be 8D1400   		leal	(%eax,%eax), %edx
 8888 56c1 8B85D8FD 		movl	-552(%ebp), %eax
 8888      FFFF
 8889 56c7 66833C10 		cmpw	$-1, (%eax,%edx)
 8889      FF
 8890 56cc 7431     		je	L419
3000:../../MMI/Resource/WriteImgRes.c ****     {
3001:../../MMI/Resource/WriteImgRes.c ****         fprintf(RepeatIDListFile, "%d\t%s\t\t%s\n", nFontId, enum_value, "Font");
 8892              	LM735:
 8893 56ce C7442410 		movl	$LC136, 16(%esp)
 8893      B8540000 
 8894 56d6 8B4510   		movl	16(%ebp), %eax
 8895 56d9 8944240C 		movl	%eax, 12(%esp)
GAS LISTING d:/MTK/MTK2503/MTK2503/11CW1418SP4_03_CORETEK03AE_11C_V1_GPRS_MMI/plutommi/Customer/ResGenerator/gcctmp/ccaodaaa.s 			page 188


 8896 56dd 0FB745F6 		movzwl	-10(%ebp), %eax
 8897 56e1 89442408 		movl	%eax, 8(%esp)
 8898 56e5 C7442404 		movl	$LC137, 4(%esp)
 8898      BD540000 
 8899 56ed A1000000 		movl	_RepeatIDListFile, %eax
 8899      00
 8900 56f2 890424   		movl	%eax, (%esp)
 8901 56f5 E8000000 		call	_fprintf
 8901      00
3002:../../MMI/Resource/WriteImgRes.c ****         return;
 8903              	LM736:
 8904 56fa E9B90400 		jmp	L415
 8904      00
 8905              	L419:
3003:../../MMI/Resource/WriteImgRes.c ****     }
3004:../../MMI/Resource/WriteImgRes.c **** 
3005:../../MMI/Resource/WriteImgRes.c ****     for (i = 0; i < *pCurrMaxFontNum; i++)
 8907              	LM737:
 8908 56ff 66C745F4 		movw	$0, -12(%ebp)
 8908      0000
 8909              	L420:
 8910 5705 8B95E0FD 		movl	-544(%ebp), %edx
 8910      FFFF
 8911 570b 8B45F4   		movl	-12(%ebp), %eax
 8912 570e 663B02   		cmpw	(%edx), %ax
 8913 5711 7202     		jb	L423
 8914 5713 EB35     		jmp	L421
 8915              	L423:
3006:../../MMI/Resource/WriteImgRes.c ****     {
3007:../../MMI/Resource/WriteImgRes.c ****         if (!strcmp(pFontNameList[i].filename, upperFileName))
 8917              	LM738:
 8918 5715 8D85E8FD 		leal	-536(%ebp), %eax
 8918      FFFF
 8919 571b 89442404 		movl	%eax, 4(%esp)
 8920 571f 0FB745F4 		movzwl	-12(%ebp), %eax
 8921 5723 C1E009   		sall	$9, %eax
 8922 5726 0385DCFD 		addl	-548(%ebp), %eax
 8922      FFFF
 8923 572c 890424   		movl	%eax, (%esp)
 8924 572f E8000000 		call	_strcmp
 8924      00
 8925 5734 85C0     		testl	%eax, %eax
 8926 5736 7508     		jne	L422
3008:../../MMI/Resource/WriteImgRes.c ****         {
3009:../../MMI/Resource/WriteImgRes.c ****             found = 1;
 8928              	LM739:
 8929 5738 66C745F2 		movw	$1, -14(%ebp)
 8929      0100
3010:../../MMI/Resource/WriteImgRes.c ****             break;
 8931              	LM740:
 8932 573e EB0A     		jmp	L421
 8934              	LM741:
 8935              	L422:
 8936 5740 8B45F4   		movl	-12(%ebp), %eax
 8937 5743 40       		incl	%eax
 8938 5744 668945F4 		movw	%ax, -12(%ebp)
 8939 5748 EBBB     		jmp	L420
GAS LISTING d:/MTK/MTK2503/MTK2503/11CW1418SP4_03_CORETEK03AE_11C_V1_GPRS_MMI/plutommi/Customer/ResGenerator/gcctmp/ccaodaaa.s 			page 189


 8940              	L421:
3011:../../MMI/Resource/WriteImgRes.c ****         }
3012:../../MMI/Resource/WriteImgRes.c ****     }
3013:../../MMI/Resource/WriteImgRes.c **** 
3014:../../MMI/Resource/WriteImgRes.c ****     g_font_size = 0;
 8942              	LM742:
 8943 574a C7053000 		movl	$0, _g_font_size
 8943      00000000 
 8943      0000
3015:../../MMI/Resource/WriteImgRes.c ****     real_filename = filename;
 8945              	LM743:
 8946 5754 8B450C   		movl	12(%ebp), %eax
 8947 5757 8985D4ED 		movl	%eax, -4652(%ebp)
 8947      FFFF
3016:../../MMI/Resource/WriteImgRes.c **** 
3017:../../MMI/Resource/WriteImgRes.c ****     if (found)
 8949              	LM744:
 8950 575d 66837DF2 		cmpw	$0, -14(%ebp)
 8950      00
 8951 5762 0F840902 		je	L425
 8951      0000
3018:../../MMI/Resource/WriteImgRes.c ****     {
3019:../../MMI/Resource/WriteImgRes.c ****         pFontIdMap[nFontId].nFontNum = i;
 8953              	LM745:
 8954 5768 0FB745F6 		movzwl	-10(%ebp), %eax
 8955 576c 8D0C00   		leal	(%eax,%eax), %ecx
 8956 576f 8B95D8FD 		movl	-552(%ebp), %edx
 8956      FFFF
 8957 5775 8B45F4   		movl	-12(%ebp), %eax
 8958 5778 6689040A 		movw	%ax, (%edx,%ecx)
3020:../../MMI/Resource/WriteImgRes.c ****         (*pCurrMaxFontId)++;
 8960              	LM746:
 8961 577c 8B95E4FD 		movl	-540(%ebp), %edx
 8961      FFFF
 8962 5782 8B85E4FD 		movl	-540(%ebp), %eax
 8962      FFFF
 8963 5788 0FB700   		movzwl	(%eax), %eax
 8964 578b 40       		incl	%eax
 8965 578c 668902   		movw	%ax, (%edx)
3021:../../MMI/Resource/WriteImgRes.c **** 
3022:../../MMI/Resource/WriteImgRes.c ****         {
3023:../../MMI/Resource/WriteImgRes.c ****             S8 str1[MAX_IMAGE_NAMES_SIZE];
3024:../../MMI/Resource/WriteImgRes.c ****             S8 str2[MAX_IMAGE_NAMES_SIZE];
3025:../../MMI/Resource/WriteImgRes.c ****             U32 i, j;
3026:../../MMI/Resource/WriteImgRes.c **** 
3027:../../MMI/Resource/WriteImgRes.c ****             strncpy(str1, filename, MAX_IMAGE_NAMES_SIZE);
 8967              	LM747:
 8968              	LBB62:
 8969 578f C7442408 		movl	$65535, 8(%esp)
 8969      FFFF0000 
 8970 5797 8B450C   		movl	12(%ebp), %eax
 8971 579a 89442404 		movl	%eax, 4(%esp)
 8972 579e 8D85C8ED 		leal	-70200(%ebp), %eax
 8972      FEFF
 8973 57a4 890424   		movl	%eax, (%esp)
 8974 57a7 E8000000 		call	_strncpy
 8974      00
GAS LISTING d:/MTK/MTK2503/MTK2503/11CW1418SP4_03_CORETEK03AE_11C_V1_GPRS_MMI/plutommi/Customer/ResGenerator/gcctmp/ccaodaaa.s 			page 190


3028:../../MMI/Resource/WriteImgRes.c ****             str_upper(str1, MAX_IMAGE_NAMES_SIZE);
 8976              	LM748:
 8977 57ac C7442404 		movl	$65535, 4(%esp)
 8977      FFFF0000 
 8978 57b4 8D85C8ED 		leal	-70200(%ebp), %eax
 8978      FEFF
 8979 57ba 890424   		movl	%eax, (%esp)
 8980 57bd E8000000 		call	_str_upper
 8980      00
3029:../../MMI/Resource/WriteImgRes.c **** 
3030:../../MMI/Resource/WriteImgRes.c ****             for (i = 0; i < g_resimg_count; i++)
 8982              	LM749:
 8983 57c2 C785C4ED 		movl	$0, -135740(%ebp)
 8983      FDFF0000 
 8983      0000
 8984              	L426:
 8985 57cc 8B85C4ED 		movl	-135740(%ebp), %eax
 8985      FDFF
 8986 57d2 3B050000 		cmpl	_g_resimg_count, %eax
 8986      0000
 8987 57d8 7205     		jb	L429
 8988 57da E9A60000 		jmp	L427
 8988      00
 8989              	L429:
3031:../../MMI/Resource/WriteImgRes.c ****             {
3032:../../MMI/Resource/WriteImgRes.c ****                 strncpy(str2, g_resimg_table[i].filename, MAX_IMAGE_NAMES_SIZE);
 8991              	LM750:
 8992 57df C7442408 		movl	$65535, 8(%esp)
 8992      FFFF0000 
 8993 57e7 8B95C4ED 		movl	-135740(%ebp), %edx
 8993      FDFF
 8994 57ed 89D0     		movl	%edx, %eax
 8995 57ef C1E008   		sall	$8, %eax
 8996 57f2 01D0     		addl	%edx, %eax
 8997 57f4 C1E002   		sall	$2, %eax
 8998 57f7 05000000 		addl	$_g_resimg_table, %eax
 8998      00
 8999 57fc 89442404 		movl	%eax, 4(%esp)
 9000 5800 8D85C8ED 		leal	-135736(%ebp), %eax
 9000      FDFF
 9001 5806 890424   		movl	%eax, (%esp)
 9002 5809 E8000000 		call	_strncpy
 9002      00
3033:../../MMI/Resource/WriteImgRes.c ****                 str_upper(str2, MAX_IMAGE_NAMES_SIZE);
 9004              	LM751:
 9005 580e C7442404 		movl	$65535, 4(%esp)
 9005      FFFF0000 
 9006 5816 8D85C8ED 		leal	-135736(%ebp), %eax
 9006      FDFF
 9007 581c 890424   		movl	%eax, (%esp)
 9008 581f E8000000 		call	_str_upper
 9008      00
3034:../../MMI/Resource/WriteImgRes.c ****                 if (strcmp(str1, str2) == 0)
 9010              	LM752:
 9011 5824 8D85C8ED 		leal	-135736(%ebp), %eax
 9011      FDFF
 9012 582a 89442404 		movl	%eax, 4(%esp)
GAS LISTING d:/MTK/MTK2503/MTK2503/11CW1418SP4_03_CORETEK03AE_11C_V1_GPRS_MMI/plutommi/Customer/ResGenerator/gcctmp/ccaodaaa.s 			page 191


 9013 582e 8D85C8ED 		leal	-70200(%ebp), %eax
 9013      FEFF
 9014 5834 890424   		movl	%eax, (%esp)
 9015 5837 E8000000 		call	_strcmp
 9015      00
 9016 583c 85C0     		testl	%eax, %eax
 9017 583e 7538     		jne	L428
3035:../../MMI/Resource/WriteImgRes.c ****                 {
3036:../../MMI/Resource/WriteImgRes.c ****                     g_font_size = g_resimg_table[i].size;
 9019              	LM753:
 9020 5840 8B95C4ED 		movl	-135740(%ebp), %edx
 9020      FDFF
 9021 5846 89D0     		movl	%edx, %eax
 9022 5848 C1E008   		sall	$8, %eax
 9023 584b 01D0     		addl	%edx, %eax
 9024 584d C1E002   		sall	$2, %eax
 9025 5850 8B800004 		movl	_g_resimg_table+1024(%eax), %eax
 9025      0000
 9026 5856 A3300000 		movl	%eax, _g_font_size
 9026      00
3037:../../MMI/Resource/WriteImgRes.c ****                     real_filename = g_resimg_table[i].real_filename;
 9028              	LM754:
 9029 585b 8B95C4ED 		movl	-135740(%ebp), %edx
 9029      FDFF
 9030 5861 89D0     		movl	%edx, %eax
 9031 5863 C1E008   		sall	$8, %eax
 9032 5866 01D0     		addl	%edx, %eax
 9033 5868 C1E002   		sall	$2, %eax
 9034 586b 05000200 		addl	$_g_resimg_table+512, %eax
 9034      00
 9035 5870 8985D4ED 		movl	%eax, -4652(%ebp)
 9035      FFFF
3038:../../MMI/Resource/WriteImgRes.c ****                     break;
 9037              	LM755:
 9038 5876 EB0D     		jmp	L427
 9040              	LM756:
 9041              	L428:
 9042 5878 8D85C4ED 		leal	-135740(%ebp), %eax
 9042      FDFF
 9043 587e FF00     		incl	(%eax)
 9044 5880 E947FFFF 		jmp	L426
 9044      FF
 9045              	L427:
3039:../../MMI/Resource/WriteImgRes.c ****                 }
3040:../../MMI/Resource/WriteImgRes.c ****             }
3041:../../MMI/Resource/WriteImgRes.c ****         }
3042:../../MMI/Resource/WriteImgRes.c ****         RESPRTONERECORD(fpImageResourceUsage, nFontId, real_filename, enum_value, g_font_size);
 9047              	LM757:
 9048              	LBE62:
 9049 5885 833D0000 		cmpl	$0, _fpImageResourceUsage
 9049      000000
 9050 588c 0F842603 		je	L415
 9050      0000
 9051              	LBB63:
 9052 5892 8B4510   		movl	16(%ebp), %eax
 9053 5895 89442404 		movl	%eax, 4(%esp)
 9054 5899 0FB745F6 		movzwl	-10(%ebp), %eax
GAS LISTING d:/MTK/MTK2503/MTK2503/11CW1418SP4_03_CORETEK03AE_11C_V1_GPRS_MMI/plutommi/Customer/ResGenerator/gcctmp/ccaodaaa.s 			page 192


 9055 589d 890424   		movl	%eax, (%esp)
 9056 58a0 E8000000 		call	_GetOffsetFromResourceBase
 9056      00
 9057 58a5 8985C0ED 		movl	%eax, -135744(%ebp)
 9057      FDFF
 9058 58ab 83BDC0ED 		cmpl	$-1, -135744(%ebp)
 9058      FDFFFF
 9059 58b2 754C     		jne	L433
 9060 58b4 8B85D4ED 		movl	-4652(%ebp), %eax
 9060      FFFF
 9061 58ba 8944241C 		movl	%eax, 28(%esp)
 9062 58be A1300000 		movl	_g_font_size, %eax
 9062      00
 9063 58c3 89442418 		movl	%eax, 24(%esp)
 9064 58c7 8B4510   		movl	16(%ebp), %eax
 9065 58ca 89442414 		movl	%eax, 20(%esp)
 9066 58ce 0FB745F6 		movzwl	-10(%ebp), %eax
 9067 58d2 89442410 		movl	%eax, 16(%esp)
 9068 58d6 C744240C 		movl	$-1, 12(%esp)
 9068      FFFFFFFF 
 9069 58de C7442408 		movl	$LC138, 8(%esp)
 9069      C8540000 
 9070 58e6 C7442404 		movl	$LC139, 4(%esp)
 9070      CF540000 
 9071 58ee A1000000 		movl	_fpImageResourceUsage, %eax
 9071      00
 9072 58f3 890424   		movl	%eax, (%esp)
 9073 58f6 E8000000 		call	_fprintf
 9073      00
 9074 58fb E9B80200 		jmp	L415
 9074      00
 9075              	L433:
 9076 5900 8B85D4ED 		movl	-4652(%ebp), %eax
 9076      FFFF
 9077 5906 8944241C 		movl	%eax, 28(%esp)
 9078 590a A1300000 		movl	_g_font_size, %eax
 9078      00
 9079 590f 89442418 		movl	%eax, 24(%esp)
 9080 5913 8B4510   		movl	16(%ebp), %eax
 9081 5916 89442414 		movl	%eax, 20(%esp)
 9082 591a 0FB745F6 		movzwl	-10(%ebp), %eax
 9083 591e 89442410 		movl	%eax, 16(%esp)
 9084 5922 8B95C0ED 		movl	-135744(%ebp), %edx
 9084      FDFF
 9085 5928 89D0     		movl	%edx, %eax
 9086 592a C1E006   		sall	$6, %eax
 9087 592d 01D0     		addl	%edx, %eax
 9088 592f C1E003   		sall	$3, %eax
 9089 5932 0FB78004 		movzwl	_g_mmi_resource_base_table+4(%eax), %eax
 9089      000000
 9090 5939 8944240C 		movl	%eax, 12(%esp)
 9091 593d 8B95C0ED 		movl	-135744(%ebp), %edx
 9091      FDFF
 9092 5943 89D0     		movl	%edx, %eax
 9093 5945 C1E006   		sall	$6, %eax
 9094 5948 01D0     		addl	%edx, %eax
 9095 594a C1E003   		sall	$3, %eax
GAS LISTING d:/MTK/MTK2503/MTK2503/11CW1418SP4_03_CORETEK03AE_11C_V1_GPRS_MMI/plutommi/Customer/ResGenerator/gcctmp/ccaodaaa.s 			page 193


 9096 594d 8B800000 		movl	_g_mmi_resource_base_table(%eax), %eax
 9096      0000
 9097 5953 89442408 		movl	%eax, 8(%esp)
 9098 5957 C7442404 		movl	$LC139, 4(%esp)
 9098      CF540000 
 9099 595f A1000000 		movl	_fpImageResourceUsage, %eax
 9099      00
 9100 5964 890424   		movl	%eax, (%esp)
 9101 5967 E8000000 		call	_fprintf
 9101      00
 9102              	LBE63:
 9103 596c E9470200 		jmp	L415
 9103      00
 9104              	L425:
3043:../../MMI/Resource/WriteImgRes.c ****     }
3044:../../MMI/Resource/WriteImgRes.c ****     else
3045:../../MMI/Resource/WriteImgRes.c ****     {
3046:../../MMI/Resource/WriteImgRes.c ****         if (Fload(upperFileName))
 9106              	LM758:
 9107 5971 8D85E8FD 		leal	-536(%ebp), %eax
 9107      FFFF
 9108 5977 890424   		movl	%eax, (%esp)
 9109 597a E8080500 		call	_Fload
 9109      00
 9110 597f 85C0     		testl	%eax, %eax
 9111 5981 0F84BD01 		je	L438
 9111      0000
3047:../../MMI/Resource/WriteImgRes.c ****         {
3048:../../MMI/Resource/WriteImgRes.c ****             strcpy(pFontNameList[*pCurrMaxFontNum].filename, upperFileName);
 9113              	LM759:
 9114 5987 8D85E8FD 		leal	-536(%ebp), %eax
 9114      FFFF
 9115 598d 89442404 		movl	%eax, 4(%esp)
 9116 5991 8B85E0FD 		movl	-544(%ebp), %eax
 9116      FFFF
 9117 5997 0FB700   		movzwl	(%eax), %eax
 9118 599a C1E009   		sall	$9, %eax
 9119 599d 0385DCFD 		addl	-548(%ebp), %eax
 9119      FFFF
 9120 59a3 890424   		movl	%eax, (%esp)
 9121 59a6 E8000000 		call	_strcpy
 9121      00
3049:../../MMI/Resource/WriteImgRes.c ****             pFontIdMap[nFontId].nFontNum = *pCurrMaxFontNum;
 9123              	LM760:
 9124 59ab 0FB745F6 		movzwl	-10(%ebp), %eax
 9125 59af 8D0C00   		leal	(%eax,%eax), %ecx
 9126 59b2 8B95D8FD 		movl	-552(%ebp), %edx
 9126      FFFF
 9127 59b8 8B85E0FD 		movl	-544(%ebp), %eax
 9127      FFFF
 9128 59be 0FB700   		movzwl	(%eax), %eax
 9129 59c1 6689040A 		movw	%ax, (%edx,%ecx)
3050:../../MMI/Resource/WriteImgRes.c ****             (*pCurrMaxFontNum)++;
 9131              	LM761:
 9132 59c5 8B95E0FD 		movl	-544(%ebp), %edx
 9132      FFFF
 9133 59cb 8B85E0FD 		movl	-544(%ebp), %eax
GAS LISTING d:/MTK/MTK2503/MTK2503/11CW1418SP4_03_CORETEK03AE_11C_V1_GPRS_MMI/plutommi/Customer/ResGenerator/gcctmp/ccaodaaa.s 			page 194


 9133      FFFF
 9134 59d1 0FB700   		movzwl	(%eax), %eax
 9135 59d4 40       		incl	%eax
 9136 59d5 668902   		movw	%ax, (%edx)
3051:../../MMI/Resource/WriteImgRes.c ****             (*pCurrMaxFontId)++;
 9138              	LM762:
 9139 59d8 8B95E4FD 		movl	-540(%ebp), %edx
 9139      FFFF
 9140 59de 8B85E4FD 		movl	-540(%ebp), %eax
 9140      FFFF
 9141 59e4 0FB700   		movzwl	(%eax), %eax
 9142 59e7 40       		incl	%eax
 9143 59e8 668902   		movw	%ax, (%edx)
3052:../../MMI/Resource/WriteImgRes.c **** 
3053:../../MMI/Resource/WriteImgRes.c ****             g_resimg_table[g_resimg_count].size = g_font_size;
 9145              	LM763:
 9146 59eb 8B150000 		movl	_g_resimg_count, %edx
 9146      0000
 9147 59f1 89D0     		movl	%edx, %eax
 9148 59f3 C1E008   		sall	$8, %eax
 9149 59f6 01D0     		addl	%edx, %eax
 9150 59f8 8D148500 		leal	0(,%eax,4), %edx
 9150      000000
 9151 59ff A1300000 		movl	_g_font_size, %eax
 9151      00
 9152 5a04 89820004 		movl	%eax, _g_resimg_table+1024(%edx)
 9152      0000
3054:../../MMI/Resource/WriteImgRes.c ****             strcpy(g_resimg_table[g_resimg_count].filename, filename);
 9154              	LM764:
 9155 5a0a 8B450C   		movl	12(%ebp), %eax
 9156 5a0d 89442404 		movl	%eax, 4(%esp)
 9157 5a11 8B150000 		movl	_g_resimg_count, %edx
 9157      0000
 9158 5a17 89D0     		movl	%edx, %eax
 9159 5a19 C1E008   		sall	$8, %eax
 9160 5a1c 01D0     		addl	%edx, %eax
 9161 5a1e C1E002   		sall	$2, %eax
 9162 5a21 05000000 		addl	$_g_resimg_table, %eax
 9162      00
 9163 5a26 890424   		movl	%eax, (%esp)
 9164 5a29 E8000000 		call	_strcpy
 9164      00
3055:../../MMI/Resource/WriteImgRes.c ****             strcpy(g_resimg_table[g_resimg_count].real_filename, real_filename);
 9166              	LM765:
 9167 5a2e 8B85D4ED 		movl	-4652(%ebp), %eax
 9167      FFFF
 9168 5a34 89442404 		movl	%eax, 4(%esp)
 9169 5a38 8B150000 		movl	_g_resimg_count, %edx
 9169      0000
 9170 5a3e 89D0     		movl	%edx, %eax
 9171 5a40 C1E008   		sall	$8, %eax
 9172 5a43 01D0     		addl	%edx, %eax
 9173 5a45 C1E002   		sall	$2, %eax
 9174 5a48 05000200 		addl	$_g_resimg_table+512, %eax
 9174      00
 9175 5a4d 890424   		movl	%eax, (%esp)
 9176 5a50 E8000000 		call	_strcpy
GAS LISTING d:/MTK/MTK2503/MTK2503/11CW1418SP4_03_CORETEK03AE_11C_V1_GPRS_MMI/plutommi/Customer/ResGenerator/gcctmp/ccaodaaa.s 			page 195


 9176      00
3056:../../MMI/Resource/WriteImgRes.c ****             g_resimg_count ++;
 9178              	LM766:
 9179 5a55 FF050000 		incl	_g_resimg_count
 9179      0000
3057:../../MMI/Resource/WriteImgRes.c ****             RESPRTONERECORD(fpImageResourceUsage, nFontId, real_filename, enum_value, g_font_size);
 9181              	LM767:
 9182 5a5b 833D0000 		cmpl	$0, _fpImageResourceUsage
 9182      000000
 9183 5a62 0F845001 		je	L415
 9183      0000
 9184              	LBB64:
 9185 5a68 8B4510   		movl	16(%ebp), %eax
 9186 5a6b 89442404 		movl	%eax, 4(%esp)
 9187 5a6f 0FB745F6 		movzwl	-10(%ebp), %eax
 9188 5a73 890424   		movl	%eax, (%esp)
 9189 5a76 E8000000 		call	_GetOffsetFromResourceBase
 9189      00
 9190 5a7b 8985C0ED 		movl	%eax, -135744(%ebp)
 9190      FDFF
 9191 5a81 83BDC0ED 		cmpl	$-1, -135744(%ebp)
 9191      FDFFFF
 9192 5a88 754C     		jne	L441
 9193 5a8a 8B85D4ED 		movl	-4652(%ebp), %eax
 9193      FFFF
 9194 5a90 8944241C 		movl	%eax, 28(%esp)
 9195 5a94 A1300000 		movl	_g_font_size, %eax
 9195      00
 9196 5a99 89442418 		movl	%eax, 24(%esp)
 9197 5a9d 8B4510   		movl	16(%ebp), %eax
 9198 5aa0 89442414 		movl	%eax, 20(%esp)
 9199 5aa4 0FB745F6 		movzwl	-10(%ebp), %eax
 9200 5aa8 89442410 		movl	%eax, 16(%esp)
 9201 5aac C744240C 		movl	$-1, 12(%esp)
 9201      FFFFFFFF 
 9202 5ab4 C7442408 		movl	$LC138, 8(%esp)
 9202      C8540000 
 9203 5abc C7442404 		movl	$LC139, 4(%esp)
 9203      CF540000 
 9204 5ac4 A1000000 		movl	_fpImageResourceUsage, %eax
 9204      00
 9205 5ac9 890424   		movl	%eax, (%esp)
 9206 5acc E8000000 		call	_fprintf
 9206      00
 9207 5ad1 E9E20000 		jmp	L415
 9207      00
 9208              	L441:
 9209 5ad6 8B85D4ED 		movl	-4652(%ebp), %eax
 9209      FFFF
 9210 5adc 8944241C 		movl	%eax, 28(%esp)
 9211 5ae0 A1300000 		movl	_g_font_size, %eax
 9211      00
 9212 5ae5 89442418 		movl	%eax, 24(%esp)
 9213 5ae9 8B4510   		movl	16(%ebp), %eax
 9214 5aec 89442414 		movl	%eax, 20(%esp)
 9215 5af0 0FB745F6 		movzwl	-10(%ebp), %eax
 9216 5af4 89442410 		movl	%eax, 16(%esp)
GAS LISTING d:/MTK/MTK2503/MTK2503/11CW1418SP4_03_CORETEK03AE_11C_V1_GPRS_MMI/plutommi/Customer/ResGenerator/gcctmp/ccaodaaa.s 			page 196


 9217 5af8 8B95C0ED 		movl	-135744(%ebp), %edx
 9217      FDFF
 9218 5afe 89D0     		movl	%edx, %eax
 9219 5b00 C1E006   		sall	$6, %eax
 9220 5b03 01D0     		addl	%edx, %eax
 9221 5b05 C1E003   		sall	$3, %eax
 9222 5b08 0FB78004 		movzwl	_g_mmi_resource_base_table+4(%eax), %eax
 9222      000000
 9223 5b0f 8944240C 		movl	%eax, 12(%esp)
 9224 5b13 8B95C0ED 		movl	-135744(%ebp), %edx
 9224      FDFF
 9225 5b19 89D0     		movl	%edx, %eax
 9226 5b1b C1E006   		sall	$6, %eax
 9227 5b1e 01D0     		addl	%edx, %eax
 9228 5b20 C1E003   		sall	$3, %eax
 9229 5b23 8B800000 		movl	_g_mmi_resource_base_table(%eax), %eax
 9229      0000
 9230 5b29 89442408 		movl	%eax, 8(%esp)
 9231 5b2d C7442404 		movl	$LC139, 4(%esp)
 9231      CF540000 
 9232 5b35 A1000000 		movl	_fpImageResourceUsage, %eax
 9232      00
 9233 5b3a 890424   		movl	%eax, (%esp)
 9234 5b3d E8000000 		call	_fprintf
 9234      00
 9235              	LBE64:
 9236 5b42 EB74     		jmp	L415
 9237              	L438:
3058:../../MMI/Resource/WriteImgRes.c ****         }
3059:../../MMI/Resource/WriteImgRes.c ****         /* CustPack: let new set of images share the same resource of default image */
3060:../../MMI/Resource/WriteImgRes.c ****         else
3061:../../MMI/Resource/WriteImgRes.c ****         {
3062:../../MMI/Resource/WriteImgRes.c ****             if (toolFlag)
 9239              	LM768:
 9240 5b44 833D0000 		cmpl	$0, _toolFlag
 9240      000000
 9241 5b4b 740A     		je	L446
3063:../../MMI/Resource/WriteImgRes.c ****             {
3064:../../MMI/Resource/WriteImgRes.c ****                 resultFailFlag = 1;
 9243              	LM769:
 9244 5b4d C7050000 		movl	$1, _resultFailFlag
 9244      00000100 
 9244      0000
 9245              	L446:
3065:../../MMI/Resource/WriteImgRes.c ****             }
3066:../../MMI/Resource/WriteImgRes.c ****             RESIMG_LOG_E("Fload failed: %s(%d), PATH=%s", enum_value, nFontId, upperFileName);
 9247              	LM770:
 9248 5b57 8D85E8FD 		leal	-536(%ebp), %eax
 9248      FFFF
 9249 5b5d 89442414 		movl	%eax, 20(%esp)
 9250 5b61 0FB745F6 		movzwl	-10(%ebp), %eax
 9251 5b65 89442410 		movl	%eax, 16(%esp)
 9252 5b69 8B4510   		movl	16(%ebp), %eax
 9253 5b6c 8944240C 		movl	%eax, 12(%esp)
 9254 5b70 C7442408 		movl	$LC140, 8(%esp)
 9254      E5540000 
 9255 5b78 C7442404 		movl	$LC34, 4(%esp)
GAS LISTING d:/MTK/MTK2503/MTK2503/11CW1418SP4_03_CORETEK03AE_11C_V1_GPRS_MMI/plutommi/Customer/ResGenerator/gcctmp/ccaodaaa.s 			page 197


 9255      64060000 
 9256 5b80 C7042403 		movl	$3, (%esp)
 9256      000000
 9257 5b87 E8000000 		call	_reslog_adaptor_log
 9257      00
3067:../../MMI/Resource/WriteImgRes.c ****             RES_LOG_PENDING_FATAL(RESIMG_TAG, "Error!! Fload FAIL !!","mtk_resgenerator return erro
 9259              	LM771:
 9260 5b8c C7442410 		movl	$LC141, 16(%esp)
 9260      20550000 
 9261 5b94 C744240C 		movl	$LC142, 12(%esp)
 9261      80550000 
 9262 5b9c C7442408 		movl	$LC143, 8(%esp)
 9262      9F550000 
 9263 5ba4 C7442404 		movl	$LC34, 4(%esp)
 9263      64060000 
 9264 5bac C7042403 		movl	$3, (%esp)
 9264      000000
 9265 5bb3 E8000000 		call	_reslog_adaptor_fatal_error_pending_log
 9265      00
3068:../../MMI/Resource/WriteImgRes.c ****             /*
3069:../../MMI/Resource/WriteImgRes.c ****             strcpy(FontNameListEXT[CurrMaxImageNum].filename, DEFAULT_FILEBUFFER);
3070:../../MMI/Resource/WriteImgRes.c ****             ImageIdMap[nFontId].nImageNum = CurrMaxImageNum;
3071:../../MMI/Resource/WriteImgRes.c ****             CurrMaxImageNum++;
3072:../../MMI/Resource/WriteImgRes.c ****             CurrMaxImageId++;*/
3073:../../MMI/Resource/WriteImgRes.c ****         }
3074:../../MMI/Resource/WriteImgRes.c ****     }
3075:../../MMI/Resource/WriteImgRes.c **** }
 9267              	LM772:
 9268              	L415:
 9269 5bb8 C9       		leave
 9270 5bb9 C3       		ret
 9271              	LBE61:
 9296              	Lscope16:
 9298              	LC144:
 9299 5bba 76665F25 		.ascii "vf_%d.tmp\0"
 9299      642E746D 
 9299      7000
 9300              	LC145:
 9301 5bc4 772B6200 		.ascii "w+b\0"
 9302 5bc8 90909090 		.align 32
 9302      90909090 
 9302      90909090 
 9302      90909090 
 9302      90909090 
 9303              	LC146:
 9304 5be0 5B466F6E 		.ascii "[Font]Type=[%d], g_mmi_res_font_userdata=[%d], size=[%d]\12\0"
 9304      745D5479 
 9304      70653D5B 
 9304      25645D2C 
 9304      20675F6D 
 9305 5c1a 8DB60000 		.align 32
 9305      0000
 9306              	LC147:
 9307 5c20 6F626A63 		.ascii "objcopy -I binary -O pe-i386 --rename-section .data=.rdata --set-section-flags .data=conte
 9307      6F707920 
 9307      2D492062 
 9307      696E6172 
GAS LISTING d:/MTK/MTK2503/MTK2503/11CW1418SP4_03_CORETEK03AE_11C_V1_GPRS_MMI/plutommi/Customer/ResGenerator/gcctmp/ccaodaaa.s 			page 198


 9307      79202D4F 
 9308 5ce4 90909090 		.align 32
 9308      90909090 
 9308      90909090 
 9308      90909090 
 9308      90909090 
 9309              	LC148:
 9310 5d00 6F626A63 		.ascii "objcopy -I binary -O elf32-little --rename-section .data=.rdata --set-section-flags .data=
 9310      6F707920 
 9310      2D492062 
 9310      696E6172 
 9310      79202D4F 
 9311              	LC149:
 9312 5dc3 76665F25 		.ascii "vf_%d.obj\0"
 9312      642E6F62 
 9312      6A00
 9313              	LC150:
 9314 5dcd 722B6200 		.ascii "r+b\0"
 9315              	LC151:
 9316 5dd1 5B466F6E 		.ascii "[Font]section offset = [%d]\12\0"
 9316      745D7365 
 9316      6374696F 
 9316      6E206F66 
 9316      66736574 
 9317 5dee 90909090 		.align 32
 9317      90909090 
 9317      90909090 
 9317      90909090 
 9317      9090
 9318              	LC152:
 9319 5e00 706C7574 		.ascii "plutommi\\Customer\\ResGenerator\\vf_%d.obj\12\0"
 9319      6F6D6D69 
 9319      5C437573 
 9319      746F6D65 
 9319      725C5265 
 9320 5e2a 90909090 		.align 32
 9320      90909090 
 9320      90909090 
 9320      90909090 
 9320      90909090 
 9321              	LC153:
 9322 5e40 706C7574 		.ascii "plutommi\\Customer\\ResGenerator\\modis_vf_%d.obj\12\0"
 9322      6F6D6D69 
 9322      5C437573 
 9322      746F6D65 
 9322      725C5265 
 9323              	LC154:
 9324 5e70 65787465 		.ascii "extern const U8 %s[];\12\0"
 9324      726E2063 
 9324      6F6E7374 
 9324      20553820 
 9324      25735B5D 
 9327              	.globl _Fload
 9329              	_Fload:
3076:../../MMI/Resource/WriteImgRes.c **** 
3077:../../MMI/Resource/WriteImgRes.c **** 
3078:../../MMI/Resource/WriteImgRes.c **** /*****************************************************************************
GAS LISTING d:/MTK/MTK2503/MTK2503/11CW1418SP4_03_CORETEK03AE_11C_V1_GPRS_MMI/plutommi/Customer/ResGenerator/gcctmp/ccaodaaa.s 			page 199


3079:../../MMI/Resource/WriteImgRes.c ****  * FUNCTION
3080:../../MMI/Resource/WriteImgRes.c ****  *  Fload
3081:../../MMI/Resource/WriteImgRes.c ****  * DESCRIPTION
3082:../../MMI/Resource/WriteImgRes.c ****  *  load the file image to buffer and writes to CustImgRes.c, etc.
3083:../../MMI/Resource/WriteImgRes.c ****  * PARAMETERS
3084:../../MMI/Resource/WriteImgRes.c ****  *  string      [IN]        string containing file name and path
3085:../../MMI/Resource/WriteImgRes.c ****  * RETURNS
3086:../../MMI/Resource/WriteImgRes.c ****  *  MMI_BOOL
3087:../../MMI/Resource/WriteImgRes.c ****  *****************************************************************************/
3088:../../MMI/Resource/WriteImgRes.c **** MMI_BOOL Fload(S8 *string)
3089:../../MMI/Resource/WriteImgRes.c **** {
 9331              	LM773:
 9332 5e87 55       		pushl	%ebp
 9333 5e88 89E5     		movl	%esp, %ebp
 9334 5e8a B8A81800 		movl	$6312, %eax
 9334      00
 9335 5e8f E8000000 		call	__alloca
 9335      00
3090:../../MMI/Resource/WriteImgRes.c ****     /*----------------------------------------------------------------*/
3091:../../MMI/Resource/WriteImgRes.c ****     /* Local Variables                                                */
3092:../../MMI/Resource/WriteImgRes.c ****     /*----------------------------------------------------------------*/
3093:../../MMI/Resource/WriteImgRes.c ****     FILE *image_data_file = NULL;
 9337              	LM774:
 9338              	LBB65:
 9339 5e94 C745F400 		movl	$0, -12(%ebp)
 9339      000000
3094:../../MMI/Resource/WriteImgRes.c ****     S32 i;
3095:../../MMI/Resource/WriteImgRes.c ****     S8 tempCommand[SHELL_CMD_BUFLEN];
3096:../../MMI/Resource/WriteImgRes.c ****     U8 image_identifier = IMAGE_TYPE_TTF;
 9341              	LM775:
 9342 5e9b C68577FD 		movb	$73, -649(%ebp)
 9342      FFFF49
3097:../../MMI/Resource/WriteImgRes.c ****     U32 file_size;
3098:../../MMI/Resource/WriteImgRes.c ****     U8 ch;
3099:../../MMI/Resource/WriteImgRes.c ****     S8 * output_image_names = NULL;
 9344              	LM776:
 9345 5ea2 C78568FD 		movl	$0, -664(%ebp)
 9345      FFFF0000 
 9345      0000
3100:../../MMI/Resource/WriteImgRes.c ****     S8 filename_buffer[BUFFER_SIZE];
3101:../../MMI/Resource/WriteImgRes.c ****     S8 *real_filename = NULL;
 9347              	LM777:
 9348 5eac C78564ED 		movl	$0, -4764(%ebp)
 9348      FFFF0000 
 9348      0000
3102:../../MMI/Resource/WriteImgRes.c **** #ifdef __MMI_RESOURCE_ENFB_SUPPORT__
3103:../../MMI/Resource/WriteImgRes.c ****     U32 enfb_width, enfb_height;
3104:../../MMI/Resource/WriteImgRes.c ****     S32 enfb_ret;
3105:../../MMI/Resource/WriteImgRes.c ****     int enfb_flag = 0;
3106:../../MMI/Resource/WriteImgRes.c ****     int disable_enfb = 0;
3107:../../MMI/Resource/WriteImgRes.c **** #endif
3108:../../MMI/Resource/WriteImgRes.c **** #ifdef __MMI_FONT_THIRD_ROM_SUPPORT__
3109:../../MMI/Resource/WriteImgRes.c ****     static U8 count = 0;
3110:../../MMI/Resource/WriteImgRes.c ****     static U32 offset = 0;
3111:../../MMI/Resource/WriteImgRes.c **** #endif
3112:../../MMI/Resource/WriteImgRes.c ****     /*----------------------------------------------------------------*/
3113:../../MMI/Resource/WriteImgRes.c ****     /* Code Body                                                      */
GAS LISTING d:/MTK/MTK2503/MTK2503/11CW1418SP4_03_CORETEK03AE_11C_V1_GPRS_MMI/plutommi/Customer/ResGenerator/gcctmp/ccaodaaa.s 			page 200


3114:../../MMI/Resource/WriteImgRes.c ****     /*----------------------------------------------------------------*/
3115:../../MMI/Resource/WriteImgRes.c **** 
3116:../../MMI/Resource/WriteImgRes.c ****     /* set output variable name of the resource */
3117:../../MMI/Resource/WriteImgRes.c ****     output_image_names = (S8*) malloc(MAX_FILENAME_LEN);
 9350              	LM778:
 9351 5eb6 C7042400 		movl	$512, (%esp)
 9351      020000
 9352 5ebd E8000000 		call	_malloc
 9352      00
 9353 5ec2 898568FD 		movl	%eax, -664(%ebp)
 9353      FFFF
3118:../../MMI/Resource/WriteImgRes.c ****     strcpy(filename_buffer, string);
 9355              	LM779:
 9356 5ec8 8B4508   		movl	8(%ebp), %eax
 9357 5ecb 89442404 		movl	%eax, 4(%esp)
 9358 5ecf 8D8568ED 		leal	-4760(%ebp), %eax
 9358      FFFF
 9359 5ed5 890424   		movl	%eax, (%esp)
 9360 5ed8 E8000000 		call	_strcpy
 9360      00
3119:../../MMI/Resource/WriteImgRes.c ****     if (!(strcmp(filename_buffer, "")))
 9362              	LM780:
 9363 5edd C7442404 		movl	$LC31, 4(%esp)
 9363      12060000 
 9364 5ee5 8D8568ED 		leal	-4760(%ebp), %eax
 9364      FFFF
 9365 5eeb 890424   		movl	%eax, (%esp)
 9366 5eee E8000000 		call	_strcmp
 9366      00
 9367 5ef3 85C0     		testl	%eax, %eax
 9368 5ef5 7516     		jne	L448
3120:../../MMI/Resource/WriteImgRes.c ****     {
3121:../../MMI/Resource/WriteImgRes.c ****         strcpy(filename_buffer, NOIMAGE_FILENAMEBUFFER);
 9370              	LM781:
 9371 5ef7 C7442404 		movl	$LC32, 4(%esp)
 9371      20060000 
 9372 5eff 8D8568ED 		leal	-4760(%ebp), %eax
 9372      FFFF
 9373 5f05 890424   		movl	%eax, (%esp)
 9374 5f08 E8000000 		call	_strcpy
 9374      00
 9375              	L448:
3122:../../MMI/Resource/WriteImgRes.c ****     }
3123:../../MMI/Resource/WriteImgRes.c ****     Extract_Name(output_image_names, filename_buffer, EXT_FONT);
 9377              	LM782:
 9378 5f0d C7442408 		movl	$3, 8(%esp)
 9378      03000000 
 9379 5f15 8D8568ED 		leal	-4760(%ebp), %eax
 9379      FFFF
 9380 5f1b 89442404 		movl	%eax, 4(%esp)
 9381 5f1f 8B8568FD 		movl	-664(%ebp), %eax
 9381      FFFF
 9382 5f25 890424   		movl	%eax, (%esp)
 9383 5f28 E8000000 		call	_Extract_Name
 9383      00
3124:../../MMI/Resource/WriteImgRes.c **** 
3125:../../MMI/Resource/WriteImgRes.c ****     real_filename = filename_buffer;
GAS LISTING d:/MTK/MTK2503/MTK2503/11CW1418SP4_03_CORETEK03AE_11C_V1_GPRS_MMI/plutommi/Customer/ResGenerator/gcctmp/ccaodaaa.s 			page 201


 9385              	LM783:
 9386 5f2d 8D8568ED 		leal	-4760(%ebp), %eax
 9386      FFFF
 9387 5f33 898564ED 		movl	%eax, -4764(%ebp)
 9387      FFFF
3126:../../MMI/Resource/WriteImgRes.c **** 
3127:../../MMI/Resource/WriteImgRes.c **** #ifdef __MMI_RESOURCE_ENFB_SUPPORT__
3128:../../MMI/Resource/WriteImgRes.c ****     enfb_ret = Image_Test(filename_buffer, &enfb_width, &enfb_height, disable_enfb);
3129:../../MMI/Resource/WriteImgRes.c ****     if (enfb_ret != ENFB_IMAGE_NONE)
3130:../../MMI/Resource/WriteImgRes.c ****     {
3131:../../MMI/Resource/WriteImgRes.c ****         enfb_flag = 1;
3132:../../MMI/Resource/WriteImgRes.c ****         if (enfb_ret == ENFB_IMAGE_ASSOCIATE)
3133:../../MMI/Resource/WriteImgRes.c ****         {
3134:../../MMI/Resource/WriteImgRes.c ****             ENFBAssociatedIDAdded = MMI_TRUE;
3135:../../MMI/Resource/WriteImgRes.c ****         }
3136:../../MMI/Resource/WriteImgRes.c ****     }
3137:../../MMI/Resource/WriteImgRes.c **** #endif /* __MMI_RESOURCE_ENFB_SUPPORT__ */
3138:../../MMI/Resource/WriteImgRes.c **** 
3139:../../MMI/Resource/WriteImgRes.c ****     image_data_file = fopen(filename_buffer, "rb");
 9389              	LM784:
 9390 5f39 C7442404 		movl	$LC59, 4(%esp)
 9390      130D0000 
 9391 5f41 8D8568ED 		leal	-4760(%ebp), %eax
 9391      FFFF
 9392 5f47 890424   		movl	%eax, (%esp)
 9393 5f4a E8000000 		call	_fopen
 9393      00
 9394 5f4f 8945F4   		movl	%eax, -12(%ebp)
3140:../../MMI/Resource/WriteImgRes.c **** 
3141:../../MMI/Resource/WriteImgRes.c ****     /* Check if file open is successful or not. */
3142:../../MMI/Resource/WriteImgRes.c ****     if(image_data_file == NULL)
 9396              	LM785:
 9397 5f52 837DF400 		cmpl	$0, -12(%ebp)
 9398 5f56 750F     		jne	L449
3143:../../MMI/Resource/WriteImgRes.c ****     {    
3144:../../MMI/Resource/WriteImgRes.c ****         return MMI_FALSE;
 9400              	LM786:
 9401 5f58 C78590E7 		movl	$0, -6256(%ebp)
 9401      FFFF0000 
 9401      0000
 9402 5f62 E96C0600 		jmp	L447
 9402      00
 9403              	L449:
3145:../../MMI/Resource/WriteImgRes.c ****     }
3146:../../MMI/Resource/WriteImgRes.c ****     
3147:../../MMI/Resource/WriteImgRes.c ****     fseek(image_data_file, 0, SEEK_END);
 9405              	LM787:
 9406 5f67 C7442408 		movl	$2, 8(%esp)
 9406      02000000 
 9407 5f6f C7442404 		movl	$0, 4(%esp)
 9407      00000000 
 9408 5f77 8B45F4   		movl	-12(%ebp), %eax
 9409 5f7a 890424   		movl	%eax, (%esp)
 9410 5f7d E8000000 		call	_fseek
 9410      00
3148:../../MMI/Resource/WriteImgRes.c ****     file_size = ftell(image_data_file);
 9412              	LM788:
GAS LISTING d:/MTK/MTK2503/MTK2503/11CW1418SP4_03_CORETEK03AE_11C_V1_GPRS_MMI/plutommi/Customer/ResGenerator/gcctmp/ccaodaaa.s 			page 202


 9413 5f82 8B45F4   		movl	-12(%ebp), %eax
 9414 5f85 890424   		movl	%eax, (%esp)
 9415 5f88 E8000000 		call	_ftell
 9415      00
 9416 5f8d 898570FD 		movl	%eax, -656(%ebp)
 9416      FFFF
3149:../../MMI/Resource/WriteImgRes.c ****     fseek(image_data_file, 0, SEEK_SET);
 9418              	LM789:
 9419 5f93 C7442408 		movl	$0, 8(%esp)
 9419      00000000 
 9420 5f9b C7442404 		movl	$0, 4(%esp)
 9420      00000000 
 9421 5fa3 8B45F4   		movl	-12(%ebp), %eax
 9422 5fa6 890424   		movl	%eax, (%esp)
 9423 5fa9 E8000000 		call	_fseek
 9423      00
3150:../../MMI/Resource/WriteImgRes.c **** 
3151:../../MMI/Resource/WriteImgRes.c ****     if (toolFlag)
 9425              	LM790:
 9426 5fae 833D0000 		cmpl	$0, _toolFlag
 9426      000000
 9427 5fb5 0F84D500 		je	L450
 9427      0000
3152:../../MMI/Resource/WriteImgRes.c ****     {
3153:../../MMI/Resource/WriteImgRes.c ****         fprintf(
 9429              	LM791:
 9430 5fbb 8B8570FD 		movl	-656(%ebp), %eax
 9430      FFFF
 9431 5fc1 25000000 		andl	$-16777216, %eax
 9431      FF
 9432 5fc6 C1E818   		shrl	$24, %eax
 9433 5fc9 89442424 		movl	%eax, 36(%esp)
 9434 5fcd 8B8570FD 		movl	-656(%ebp), %eax
 9434      FFFF
 9435 5fd3 250000FF 		andl	$16711680, %eax
 9435      00
 9436 5fd8 C1E810   		shrl	$16, %eax
 9437 5fdb 89442420 		movl	%eax, 32(%esp)
 9438 5fdf 8B8570FD 		movl	-656(%ebp), %eax
 9438      FFFF
 9439 5fe5 2500FF00 		andl	$65280, %eax
 9439      00
 9440 5fea C1E808   		shrl	$8, %eax
 9441 5fed 8944241C 		movl	%eax, 28(%esp)
 9442 5ff1 0FB68570 		movzbl	-656(%ebp),%eax
 9442      FDFFFF
 9443 5ff8 89442418 		movl	%eax, 24(%esp)
 9444 5ffc A1200000 		movl	_g_mmi_res_font_userdata, %eax
 9444      00
 9445 6001 250000FF 		andl	$16711680, %eax
 9445      00
 9446 6006 C1E810   		shrl	$16, %eax
 9447 6009 89442414 		movl	%eax, 20(%esp)
 9448 600d A1200000 		movl	_g_mmi_res_font_userdata, %eax
 9448      00
 9449 6012 2500FF00 		andl	$65280, %eax
 9449      00
GAS LISTING d:/MTK/MTK2503/MTK2503/11CW1418SP4_03_CORETEK03AE_11C_V1_GPRS_MMI/plutommi/Customer/ResGenerator/gcctmp/ccaodaaa.s 			page 203


 9450 6017 C1E808   		shrl	$8, %eax
 9451 601a 89442410 		movl	%eax, 16(%esp)
 9452 601e 0FB60520 		movzbl	_g_mmi_res_font_userdata,%eax
 9452      000000
 9453 6025 8944240C 		movl	%eax, 12(%esp)
 9454 6029 0FB68577 		movzbl	-649(%ebp), %eax
 9454      FDFFFF
 9455 6030 89442408 		movl	%eax, 8(%esp)
 9456 6034 C7442404 		movl	$LC85, 4(%esp)
 9456      742A0000 
 9457 603c A1000000 		movl	_dest_file, %eax
 9457      00
 9458 6041 890424   		movl	%eax, (%esp)
 9459 6044 E8000000 		call	_fprintf
 9459      00
3154:../../MMI/Resource/WriteImgRes.c ****             dest_file,
3155:../../MMI/Resource/WriteImgRes.c ****             "%c%c%c%c%c%c%c%c",
3156:../../MMI/Resource/WriteImgRes.c ****             image_identifier,
3157:../../MMI/Resource/WriteImgRes.c ****             (g_mmi_res_font_userdata & 0xff),
3158:../../MMI/Resource/WriteImgRes.c ****             (g_mmi_res_font_userdata & 0xff00) >> 8,
3159:../../MMI/Resource/WriteImgRes.c ****             (g_mmi_res_font_userdata & 0xff0000) >> 16,
3160:../../MMI/Resource/WriteImgRes.c ****             (file_size & 0xff),
3161:../../MMI/Resource/WriteImgRes.c ****             (file_size & 0xff00) >> 8,
3162:../../MMI/Resource/WriteImgRes.c ****             (file_size & 0xff0000) >> 16,
3163:../../MMI/Resource/WriteImgRes.c ****             (file_size & 0xff000000) >> 24);
3164:../../MMI/Resource/WriteImgRes.c **** 
3165:../../MMI/Resource/WriteImgRes.c ****         for (i = 0; i < file_size; i++)
 9461              	LM792:
 9462 6049 C745F000 		movl	$0, -16(%ebp)
 9462      000000
 9463              	L451:
 9464 6050 8B45F0   		movl	-16(%ebp), %eax
 9465 6053 3B8570FD 		cmpl	-656(%ebp), %eax
 9465      FFFF
 9466 6059 7205     		jb	L454
 9467 605b E9430500 		jmp	L455
 9467      00
 9468              	L454:
3166:../../MMI/Resource/WriteImgRes.c ****         {
3167:../../MMI/Resource/WriteImgRes.c ****             ch = fgetc(image_data_file);
 9470              	LM793:
 9471 6060 8B45F4   		movl	-12(%ebp), %eax
 9472 6063 890424   		movl	%eax, (%esp)
 9473 6066 E8000000 		call	_fgetc
 9473      00
 9474 606b 88856FFD 		movb	%al, -657(%ebp)
 9474      FFFF
3168:../../MMI/Resource/WriteImgRes.c **** 
3169:../../MMI/Resource/WriteImgRes.c ****             fputc(ch, dest_file);
 9476              	LM794:
 9477 6071 A1000000 		movl	_dest_file, %eax
 9477      00
 9478 6076 89442404 		movl	%eax, 4(%esp)
 9479 607a 0FB6856F 		movzbl	-657(%ebp), %eax
 9479      FDFFFF
 9480 6081 890424   		movl	%eax, (%esp)
 9481 6084 E8000000 		call	_fputc
GAS LISTING d:/MTK/MTK2503/MTK2503/11CW1418SP4_03_CORETEK03AE_11C_V1_GPRS_MMI/plutommi/Customer/ResGenerator/gcctmp/ccaodaaa.s 			page 204


 9481      00
 9483              	LM795:
 9484 6089 8D45F0   		leal	-16(%ebp), %eax
 9485 608c FF00     		incl	(%eax)
 9486 608e EBC0     		jmp	L451
 9487              	L450:
3170:../../MMI/Resource/WriteImgRes.c ****         }
3171:../../MMI/Resource/WriteImgRes.c ****     }
3172:../../MMI/Resource/WriteImgRes.c **** 
3173:../../MMI/Resource/WriteImgRes.c **** #ifdef __MMI_FONT_THIRD_ROM_SUPPORT__
3174:../../MMI/Resource/WriteImgRes.c ****     else if(g_mmi_res_font_flags & MMI_RES_FLAG_FONT_IS_ENFB)
3175:../../MMI/Resource/WriteImgRes.c ****     {
3176:../../MMI/Resource/WriteImgRes.c ****         
3177:../../MMI/Resource/WriteImgRes.c ****         for (i = 0; i < file_size; i++)
3178:../../MMI/Resource/WriteImgRes.c ****         {
3179:../../MMI/Resource/WriteImgRes.c ****             ch = fgetc(image_data_file);
3180:../../MMI/Resource/WriteImgRes.c ****             fputc(ch, enfb_font_data_file);
3181:../../MMI/Resource/WriteImgRes.c ****         }
3182:../../MMI/Resource/WriteImgRes.c **** 
3183:../../MMI/Resource/WriteImgRes.c ****         ENFBFontResInfo[count].offset = offset;
3184:../../MMI/Resource/WriteImgRes.c ****         ENFBFontResInfo[count].size = file_size;
3185:../../MMI/Resource/WriteImgRes.c ****         ENFBFontResInfo[count].res_id = ++count;
3186:../../MMI/Resource/WriteImgRes.c **** 
3187:../../MMI/Resource/WriteImgRes.c ****         offset += file_size;
3188:../../MMI/Resource/WriteImgRes.c ****     }
3189:../../MMI/Resource/WriteImgRes.c **** #endif
3190:../../MMI/Resource/WriteImgRes.c **** 
3191:../../MMI/Resource/WriteImgRes.c **** #ifdef __MMI_RESOURCE_ENFB_SUPPORT__
3192:../../MMI/Resource/WriteImgRes.c ****     else if (enfb_flag == 1) /* write ENFB header to CustFontDataxxx.h and Font header/data to ENFB
3193:../../MMI/Resource/WriteImgRes.c ****     {
3194:../../MMI/Resource/WriteImgRes.c ****         /* write Font header to ENFB Data File */
3195:../../MMI/Resource/WriteImgRes.c ****         fprintf(
3196:../../MMI/Resource/WriteImgRes.c ****             enfb_img_data_file,
3197:../../MMI/Resource/WriteImgRes.c ****             "%c%c%c%c%c%c%c%c",
3198:../../MMI/Resource/WriteImgRes.c ****             image_identifier,
3199:../../MMI/Resource/WriteImgRes.c ****             (g_mmi_res_font_userdata & 0xff),
3200:../../MMI/Resource/WriteImgRes.c ****             (g_mmi_res_font_userdata & 0xff00) >> 8,
3201:../../MMI/Resource/WriteImgRes.c ****             (g_mmi_res_font_userdata & 0xff0000) >> 16,
3202:../../MMI/Resource/WriteImgRes.c ****             (file_size & 0xff),
3203:../../MMI/Resource/WriteImgRes.c ****             (file_size & 0xff00) >> 8,
3204:../../MMI/Resource/WriteImgRes.c ****             (file_size & 0xff0000) >> 16,
3205:../../MMI/Resource/WriteImgRes.c ****             (file_size & 0xff000000) >> 24);
3206:../../MMI/Resource/WriteImgRes.c ****         enfb_size = 8 + file_size;
3207:../../MMI/Resource/WriteImgRes.c **** 
3208:../../MMI/Resource/WriteImgRes.c ****         /* write ENFB header to CustImgDataxxx.h */
3209:../../MMI/Resource/WriteImgRes.c **** 
3210:../../MMI/Resource/WriteImgRes.c ****         fprintf(font_data_file, "const U8 %s%s", output_image_names, OUTPUT_IMAGE_NAMES_END);
3211:../../MMI/Resource/WriteImgRes.c **** 
3212:../../MMI/Resource/WriteImgRes.c ****         fprintf(
3213:../../MMI/Resource/WriteImgRes.c ****             font_data_file,
3214:../../MMI/Resource/WriteImgRes.c ****             "\n\t0x%02X, 0x%02X, 0x%02X, 0x%02X, 0x%02X, 0x%02X, 0x%02X, 0x%02X, 0x%02X, 0x%02X, 0x
3215:../../MMI/Resource/WriteImgRes.c ****             (U8) 255,                   //type
3216:../../MMI/Resource/WriteImgRes.c ****             (U8) ENFBAssociatedIDAdded, //associated id
3217:../../MMI/Resource/WriteImgRes.c ****             (U8) 0,                     //reserved
3218:../../MMI/Resource/WriteImgRes.c ****             (U8) 0,                     //reserved
3219:../../MMI/Resource/WriteImgRes.c ****             (U8) (enfb_offset & 0xff),
3220:../../MMI/Resource/WriteImgRes.c ****             (U8) ((enfb_offset >> 8) & 0xff),
GAS LISTING d:/MTK/MTK2503/MTK2503/11CW1418SP4_03_CORETEK03AE_11C_V1_GPRS_MMI/plutommi/Customer/ResGenerator/gcctmp/ccaodaaa.s 			page 205


3221:../../MMI/Resource/WriteImgRes.c ****             (U8) ((enfb_offset >> 16) & 0xff),
3222:../../MMI/Resource/WriteImgRes.c ****             (U8) ((enfb_offset >> 24) & 0xff),
3223:../../MMI/Resource/WriteImgRes.c ****             (U8) (enfb_size & 0xff),
3224:../../MMI/Resource/WriteImgRes.c ****             (U8) ((enfb_size >> 8) & 0xff),
3225:../../MMI/Resource/WriteImgRes.c ****             (U8) ((enfb_size >> 16) & 0xff),
3226:../../MMI/Resource/WriteImgRes.c ****             (U8) ((enfb_size >> 24) & 0xff));
3227:../../MMI/Resource/WriteImgRes.c **** 
3228:../../MMI/Resource/WriteImgRes.c ****         fprintf(font_data_file, "\n };\n");
3229:../../MMI/Resource/WriteImgRes.c **** 
3230:../../MMI/Resource/WriteImgRes.c ****         enfb_offset += enfb_size;
3231:../../MMI/Resource/WriteImgRes.c **** 
3232:../../MMI/Resource/WriteImgRes.c **** 
3233:../../MMI/Resource/WriteImgRes.c ****         for (i = 0; i < file_size; i++)
3234:../../MMI/Resource/WriteImgRes.c ****         {
3235:../../MMI/Resource/WriteImgRes.c ****             ch = fgetc(image_data_file);
3236:../../MMI/Resource/WriteImgRes.c **** 
3237:../../MMI/Resource/WriteImgRes.c ****             if (toolFlag)
3238:../../MMI/Resource/WriteImgRes.c ****             {
3239:../../MMI/Resource/WriteImgRes.c ****                 fputc(ch, dest_file);
3240:../../MMI/Resource/WriteImgRes.c ****             }
3241:../../MMI/Resource/WriteImgRes.c **** 
3242:../../MMI/Resource/WriteImgRes.c ****         #ifdef __MMI_RESOURCE_ENFB_SUPPORT__
3243:../../MMI/Resource/WriteImgRes.c ****             /* write image data to ENFB image data file */
3244:../../MMI/Resource/WriteImgRes.c ****             else if (enfb_flag == 1)
3245:../../MMI/Resource/WriteImgRes.c ****             {
3246:../../MMI/Resource/WriteImgRes.c ****                 fputc(ch, enfb_img_data_file);
3247:../../MMI/Resource/WriteImgRes.c ****             }
3248:../../MMI/Resource/WriteImgRes.c ****         #endif
3249:../../MMI/Resource/WriteImgRes.c **** 
3250:../../MMI/Resource/WriteImgRes.c ****             else
3251:../../MMI/Resource/WriteImgRes.c ****             {
3252:../../MMI/Resource/WriteImgRes.c ****                 /* Err, only handle ENFB in this function. */
3253:../../MMI/Resource/WriteImgRes.c ****                 fprintf(stderr, "Err, only handle ENFB in this function\n");
3254:../../MMI/Resource/WriteImgRes.c ****                 RESIMG_LOG_E("Err, only handle ENFB in this function\n");  				
3255:../../MMI/Resource/WriteImgRes.c ****                 assert(0);
3256:../../MMI/Resource/WriteImgRes.c ****                 exit(2);
3257:../../MMI/Resource/WriteImgRes.c ****             }
3258:../../MMI/Resource/WriteImgRes.c ****         }
3259:../../MMI/Resource/WriteImgRes.c ****     }
3260:../../MMI/Resource/WriteImgRes.c **** #endif
3261:../../MMI/Resource/WriteImgRes.c **** 
3262:../../MMI/Resource/WriteImgRes.c ****     else
3263:../../MMI/Resource/WriteImgRes.c ****     {
3264:../../MMI/Resource/WriteImgRes.c ****         /* Handle Vector Font */
3265:../../MMI/Resource/WriteImgRes.c ****         /* convert font data to obj file */
3266:../../MMI/Resource/WriteImgRes.c ****         S8 tempCommand[SHELL_CMD_BUFLEN*2];
3267:../../MMI/Resource/WriteImgRes.c ****         FILE *font_obj_file = NULL;
 9489              	LM796:
 9490              	LBB66:
 9491 6090 C78584E8 		movl	$0, -6012(%ebp)
 9491      FFFF0000 
 9491      0000
3268:../../MMI/Resource/WriteImgRes.c ****         FILE *font_org_file = NULL;
 9493              	LM797:
 9494 609a C78580E8 		movl	$0, -6016(%ebp)
 9494      FFFF0000 
 9494      0000
GAS LISTING d:/MTK/MTK2503/MTK2503/11CW1418SP4_03_CORETEK03AE_11C_V1_GPRS_MMI/plutommi/Customer/ResGenerator/gcctmp/ccaodaaa.s 			page 206


3269:../../MMI/Resource/WriteImgRes.c ****         S32 section_offset = 0;
 9496              	LM798:
 9497 60a4 C7857CE8 		movl	$0, -6020(%ebp)
 9497      FFFF0000 
 9497      0000
3270:../../MMI/Resource/WriteImgRes.c ****         U32 size = 0;
 9499              	LM799:
 9500 60ae C78578E8 		movl	$0, -6024(%ebp)
 9500      FFFF0000 
 9500      0000
3271:../../MMI/Resource/WriteImgRes.c ****         U16 nType = 0;
 9502              	LM800:
 9503 60b8 66C78576 		movw	$0, -6026(%ebp)
 9503      E8FFFF00 
 9503      00
3272:../../MMI/Resource/WriteImgRes.c **** 
3273:../../MMI/Resource/WriteImgRes.c ****         nType = ExtractExtension(filename_buffer, RES_FONT);
 9505              	LM801:
 9506 60c1 C7442404 		movl	$4, 4(%esp)
 9506      04000000 
 9507 60c9 8D8568ED 		leal	-4760(%ebp), %eax
 9507      FFFF
 9508 60cf 890424   		movl	%eax, (%esp)
 9509 60d2 E8000000 		call	_ExtractExtension
 9509      00
 9510 60d7 660FB6C0 		movzbw	%al, %ax
 9511 60db 66898576 		movw	%ax, -6026(%ebp)
 9511      E8FFFF
3274:../../MMI/Resource/WriteImgRes.c **** 
3275:../../MMI/Resource/WriteImgRes.c **** 
3276:../../MMI/Resource/WriteImgRes.c ****         /* Write temp ttf file with header */
3277:../../MMI/Resource/WriteImgRes.c ****         sprintf(tempCommand, "vf_%d.tmp", g_mmi_res_font_id);
 9513              	LM802:
 9514 60e2 0FB70510 		movzwl	_g_mmi_res_font_id, %eax
 9514      000000
 9515 60e9 89442408 		movl	%eax, 8(%esp)
 9516 60ed C7442404 		movl	$LC144, 4(%esp)
 9516      BA5B0000 
 9517 60f5 8D8588E8 		leal	-6008(%ebp), %eax
 9517      FFFF
 9518 60fb 890424   		movl	%eax, (%esp)
 9519 60fe E8000000 		call	_sprintf
 9519      00
3278:../../MMI/Resource/WriteImgRes.c ****         font_obj_file = fopen(tempCommand, "w+b");
 9521              	LM803:
 9522 6103 C7442404 		movl	$LC145, 4(%esp)
 9522      C45B0000 
 9523 610b 8D8588E8 		leal	-6008(%ebp), %eax
 9523      FFFF
 9524 6111 890424   		movl	%eax, (%esp)
 9525 6114 E8000000 		call	_fopen
 9525      00
 9526 6119 898584E8 		movl	%eax, -6012(%ebp)
 9526      FFFF
3279:../../MMI/Resource/WriteImgRes.c ****         ASSERT(font_obj_file != NULL);
 9528              	LM804:
 9529 611f 83BD84E8 		cmpl	$0, -6012(%ebp)
GAS LISTING d:/MTK/MTK2503/MTK2503/11CW1418SP4_03_CORETEK03AE_11C_V1_GPRS_MMI/plutommi/Customer/ResGenerator/gcctmp/ccaodaaa.s 			page 207


 9529      FFFF00
 9530 6126 7502     		jne	L460
 9531              	L457:
 9532 6128 EBFE     		jmp	L457
 9533              	L460:
3280:../../MMI/Resource/WriteImgRes.c ****         font_org_file = fopen(real_filename, "rb");
 9535              	LM805:
 9536 612a C7442404 		movl	$LC59, 4(%esp)
 9536      130D0000 
 9537 6132 8B8564ED 		movl	-4764(%ebp), %eax
 9537      FFFF
 9538 6138 890424   		movl	%eax, (%esp)
 9539 613b E8000000 		call	_fopen
 9539      00
 9540 6140 898580E8 		movl	%eax, -6016(%ebp)
 9540      FFFF
3281:../../MMI/Resource/WriteImgRes.c ****         ASSERT(font_org_file != NULL);
 9542              	LM806:
 9543 6146 83BD80E8 		cmpl	$0, -6016(%ebp)
 9543      FFFF00
 9544 614d 7502     		jne	L465
 9545              	L462:
 9546 614f EBFE     		jmp	L462
 9547              	L465:
3282:../../MMI/Resource/WriteImgRes.c **** 
3283:../../MMI/Resource/WriteImgRes.c ****         fseek(font_org_file, 0, SEEK_END);
 9549              	LM807:
 9550 6151 C7442408 		movl	$2, 8(%esp)
 9550      02000000 
 9551 6159 C7442404 		movl	$0, 4(%esp)
 9551      00000000 
 9552 6161 8B8580E8 		movl	-6016(%ebp), %eax
 9552      FFFF
 9553 6167 890424   		movl	%eax, (%esp)
 9554 616a E8000000 		call	_fseek
 9554      00
3284:../../MMI/Resource/WriteImgRes.c ****         size = ftell(font_org_file);
 9556              	LM808:
 9557 616f 8B8580E8 		movl	-6016(%ebp), %eax
 9557      FFFF
 9558 6175 890424   		movl	%eax, (%esp)
 9559 6178 E8000000 		call	_ftell
 9559      00
 9560 617d 898578E8 		movl	%eax, -6024(%ebp)
 9560      FFFF
3285:../../MMI/Resource/WriteImgRes.c ****         fseek(font_org_file, 0, SEEK_SET);
 9562              	LM809:
 9563 6183 C7442408 		movl	$0, 8(%esp)
 9563      00000000 
 9564 618b C7442404 		movl	$0, 4(%esp)
 9564      00000000 
 9565 6193 8B8580E8 		movl	-6016(%ebp), %eax
 9565      FFFF
 9566 6199 890424   		movl	%eax, (%esp)
 9567 619c E8000000 		call	_fseek
 9567      00
3286:../../MMI/Resource/WriteImgRes.c **** 
GAS LISTING d:/MTK/MTK2503/MTK2503/11CW1418SP4_03_CORETEK03AE_11C_V1_GPRS_MMI/plutommi/Customer/ResGenerator/gcctmp/ccaodaaa.s 			page 208


3287:../../MMI/Resource/WriteImgRes.c ****         fprintf(
 9569              	LM810:
 9570 61a1 8B8578E8 		movl	-6024(%ebp), %eax
 9570      FFFF
 9571 61a7 25000000 		andl	$-16777216, %eax
 9571      FF
 9572 61ac C1E818   		shrl	$24, %eax
 9573 61af 89442424 		movl	%eax, 36(%esp)
 9574 61b3 8B8578E8 		movl	-6024(%ebp), %eax
 9574      FFFF
 9575 61b9 250000FF 		andl	$16711680, %eax
 9575      00
 9576 61be C1E810   		shrl	$16, %eax
 9577 61c1 89442420 		movl	%eax, 32(%esp)
 9578 61c5 8B8578E8 		movl	-6024(%ebp), %eax
 9578      FFFF
 9579 61cb 2500FF00 		andl	$65280, %eax
 9579      00
 9580 61d0 C1E808   		shrl	$8, %eax
 9581 61d3 8944241C 		movl	%eax, 28(%esp)
 9582 61d7 0FB68578 		movzbl	-6024(%ebp),%eax
 9582      E8FFFF
 9583 61de 89442418 		movl	%eax, 24(%esp)
 9584 61e2 A1200000 		movl	_g_mmi_res_font_userdata, %eax
 9584      00
 9585 61e7 250000FF 		andl	$16711680, %eax
 9585      00
 9586 61ec C1E810   		shrl	$16, %eax
 9587 61ef 89442414 		movl	%eax, 20(%esp)
 9588 61f3 A1200000 		movl	_g_mmi_res_font_userdata, %eax
 9588      00
 9589 61f8 2500FF00 		andl	$65280, %eax
 9589      00
 9590 61fd C1E808   		shrl	$8, %eax
 9591 6200 89442410 		movl	%eax, 16(%esp)
 9592 6204 0FB60520 		movzbl	_g_mmi_res_font_userdata,%eax
 9592      000000
 9593 620b 8944240C 		movl	%eax, 12(%esp)
 9594 620f 0FB78576 		movzwl	-6026(%ebp), %eax
 9594      E8FFFF
 9595 6216 89442408 		movl	%eax, 8(%esp)
 9596 621a C7442404 		movl	$LC85, 4(%esp)
 9596      742A0000 
 9597 6222 8B8584E8 		movl	-6012(%ebp), %eax
 9597      FFFF
 9598 6228 890424   		movl	%eax, (%esp)
 9599 622b E8000000 		call	_fprintf
 9599      00
3288:../../MMI/Resource/WriteImgRes.c ****             font_obj_file,
3289:../../MMI/Resource/WriteImgRes.c ****             "%c%c%c%c%c%c%c%c",
3290:../../MMI/Resource/WriteImgRes.c ****             nType,
3291:../../MMI/Resource/WriteImgRes.c ****             (g_mmi_res_font_userdata & 0xff),
3292:../../MMI/Resource/WriteImgRes.c ****             (g_mmi_res_font_userdata & 0xff00) >> 8,
3293:../../MMI/Resource/WriteImgRes.c ****             (g_mmi_res_font_userdata & 0xff0000) >> 16,
3294:../../MMI/Resource/WriteImgRes.c ****             (size & 0xff),
3295:../../MMI/Resource/WriteImgRes.c ****             (size & 0xff00) >> 8,
3296:../../MMI/Resource/WriteImgRes.c ****             (size & 0xff0000) >> 16,
GAS LISTING d:/MTK/MTK2503/MTK2503/11CW1418SP4_03_CORETEK03AE_11C_V1_GPRS_MMI/plutommi/Customer/ResGenerator/gcctmp/ccaodaaa.s 			page 209


3297:../../MMI/Resource/WriteImgRes.c ****             (size & 0xff000000) >> 24);
3298:../../MMI/Resource/WriteImgRes.c ****         RES_PRINT_INFO("[Font]Type=[%d], g_mmi_res_font_userdata=[%d], size=[%d]\n", nType, g_mmi_r
 9601              	LM811:
 9602 6230 8B8578E8 		movl	-6024(%ebp), %eax
 9602      FFFF
 9603 6236 8944240C 		movl	%eax, 12(%esp)
 9604 623a A1200000 		movl	_g_mmi_res_font_userdata, %eax
 9604      00
 9605 623f 89442408 		movl	%eax, 8(%esp)
 9606 6243 0FB78576 		movzwl	-6026(%ebp), %eax
 9606      E8FFFF
 9607 624a 89442404 		movl	%eax, 4(%esp)
 9608 624e C70424E0 		movl	$LC146, (%esp)
 9608      5B0000
 9609 6255 E8000000 		call	_MtkResgenTrace
 9609      00
3299:../../MMI/Resource/WriteImgRes.c **** 
3300:../../MMI/Resource/WriteImgRes.c ****         while (!feof(font_org_file))
 9611              	LM812:
 9612              	L466:
 9613 625a 8B8580E8 		movl	-6016(%ebp), %eax
 9613      FFFF
 9614 6260 890424   		movl	%eax, (%esp)
 9615 6263 E8000000 		call	_feof
 9615      00
 9616 6268 85C0     		testl	%eax, %eax
 9617 626a 7402     		je	L468
 9618 626c EB63     		jmp	L467
 9619              	L468:
3301:../../MMI/Resource/WriteImgRes.c ****         {
3302:../../MMI/Resource/WriteImgRes.c ****             S8 buffer[200];
3303:../../MMI/Resource/WriteImgRes.c ****             size_t size;
3304:../../MMI/Resource/WriteImgRes.c **** 
3305:../../MMI/Resource/WriteImgRes.c ****             size = fread(buffer, 1, 200, font_org_file);
 9621              	LM813:
 9622              	LBB67:
 9623 626e 8B8580E8 		movl	-6016(%ebp), %eax
 9623      FFFF
 9624 6274 8944240C 		movl	%eax, 12(%esp)
 9625 6278 C7442408 		movl	$200, 8(%esp)
 9625      C8000000 
 9626 6280 C7442404 		movl	$1, 4(%esp)
 9626      01000000 
 9627 6288 8D8598E7 		leal	-6248(%ebp), %eax
 9627      FFFF
 9628 628e 890424   		movl	%eax, (%esp)
 9629 6291 E8000000 		call	_fread
 9629      00
 9630 6296 898594E7 		movl	%eax, -6252(%ebp)
 9630      FFFF
3306:../../MMI/Resource/WriteImgRes.c ****             if (size)
 9632              	LM814:
 9633 629c 83BD94E7 		cmpl	$0, -6252(%ebp)
 9633      FFFF00
 9634 62a3 74B5     		je	L466
3307:../../MMI/Resource/WriteImgRes.c ****             {
3308:../../MMI/Resource/WriteImgRes.c ****                 fwrite(buffer, 1, size, font_obj_file);
GAS LISTING d:/MTK/MTK2503/MTK2503/11CW1418SP4_03_CORETEK03AE_11C_V1_GPRS_MMI/plutommi/Customer/ResGenerator/gcctmp/ccaodaaa.s 			page 210


 9636              	LM815:
 9637 62a5 8B8584E8 		movl	-6012(%ebp), %eax
 9637      FFFF
 9638 62ab 8944240C 		movl	%eax, 12(%esp)
 9639 62af 8B8594E7 		movl	-6252(%ebp), %eax
 9639      FFFF
 9640 62b5 89442408 		movl	%eax, 8(%esp)
 9641 62b9 C7442404 		movl	$1, 4(%esp)
 9641      01000000 
 9642 62c1 8D8598E7 		leal	-6248(%ebp), %eax
 9642      FFFF
 9643 62c7 890424   		movl	%eax, (%esp)
 9644 62ca E8000000 		call	_fwrite
 9644      00
 9645              	LBE67:
 9646 62cf EB89     		jmp	L466
 9647              	L467:
3309:../../MMI/Resource/WriteImgRes.c ****             }
3310:../../MMI/Resource/WriteImgRes.c ****         }
3311:../../MMI/Resource/WriteImgRes.c **** 
3312:../../MMI/Resource/WriteImgRes.c ****         MYFCLOSE(font_obj_file);
 9649              	LM816:
 9650 62d1 83BD84E8 		cmpl	$0, -6012(%ebp)
 9650      FFFF00
 9651 62d8 7418     		je	L470
 9652 62da 8B8584E8 		movl	-6012(%ebp), %eax
 9652      FFFF
 9653 62e0 890424   		movl	%eax, (%esp)
 9654 62e3 E8000000 		call	_fclose
 9654      00
 9655 62e8 C78584E8 		movl	$0, -6012(%ebp)
 9655      FFFF0000 
 9655      0000
 9656              	L470:
3313:../../MMI/Resource/WriteImgRes.c ****         MYFCLOSE(font_org_file);
 9658              	LM817:
 9659 62f2 83BD80E8 		cmpl	$0, -6016(%ebp)
 9659      FFFF00
 9660 62f9 7418     		je	L472
 9661 62fb 8B8580E8 		movl	-6016(%ebp), %eax
 9661      FFFF
 9662 6301 890424   		movl	%eax, (%esp)
 9663 6304 E8000000 		call	_fclose
 9663      00
 9664 6309 C78580E8 		movl	$0, -6016(%ebp)
 9664      FFFF0000 
 9664      0000
 9665              	L472:
3314:../../MMI/Resource/WriteImgRes.c ****         font_obj_file = NULL;
 9667              	LM818:
 9668 6313 C78584E8 		movl	$0, -6012(%ebp)
 9668      FFFF0000 
 9668      0000
3315:../../MMI/Resource/WriteImgRes.c ****         font_org_file = NULL;
 9670              	LM819:
 9671 631d C78580E8 		movl	$0, -6016(%ebp)
 9671      FFFF0000 
GAS LISTING d:/MTK/MTK2503/MTK2503/11CW1418SP4_03_CORETEK03AE_11C_V1_GPRS_MMI/plutommi/Customer/ResGenerator/gcctmp/ccaodaaa.s 			page 211


 9671      0000
3316:../../MMI/Resource/WriteImgRes.c **** 
3317:../../MMI/Resource/WriteImgRes.c **** 
3318:../../MMI/Resource/WriteImgRes.c ****         /* Get name gen by objcopy */
3319:../../MMI/Resource/WriteImgRes.c ****         sprintf(tempCommand, "objcopy -I binary -O pe-i386 --rename-section .data=.rdata --set-sect
 9673              	LM820:
 9674 6327 0FB70510 		movzwl	_g_mmi_res_font_id, %eax
 9674      000000
 9675 632e 89442414 		movl	%eax, 20(%esp)
 9676 6332 0FB70510 		movzwl	_g_mmi_res_font_id, %eax
 9676      000000
 9677 6339 89442410 		movl	%eax, 16(%esp)
 9678 633d 8B8568FD 		movl	-664(%ebp), %eax
 9678      FFFF
 9679 6343 8944240C 		movl	%eax, 12(%esp)
 9680 6347 0FB70510 		movzwl	_g_mmi_res_font_id, %eax
 9680      000000
 9681 634e 89442408 		movl	%eax, 8(%esp)
 9682 6352 C7442404 		movl	$LC147, 4(%esp)
 9682      205C0000 
 9683 635a 8D8588E8 		leal	-6008(%ebp), %eax
 9683      FFFF
 9684 6360 890424   		movl	%eax, (%esp)
 9685 6363 E8000000 		call	_sprintf
 9685      00
3320:../../MMI/Resource/WriteImgRes.c ****         RES_PRINT_INFO("%s\n", tempCommand);
 9687              	LM821:
 9688 6368 8D8588E8 		leal	-6008(%ebp), %eax
 9688      FFFF
 9689 636e 89442404 		movl	%eax, 4(%esp)
 9690 6372 C7042449 		movl	$LC52, (%esp)
 9690      0C0000
 9691 6379 E8000000 		call	_MtkResgenTrace
 9691      00
3321:../../MMI/Resource/WriteImgRes.c ****         ASSERT(SHELL_CMD_BUFLEN*2 > strlen(tempCommand));
 9693              	LM822:
 9694 637e 8D8588E8 		leal	-6008(%ebp), %eax
 9694      FFFF
 9695 6384 890424   		movl	%eax, (%esp)
 9696 6387 E8000000 		call	_strlen
 9696      00
 9697 638c 3DC70400 		cmpl	$1223, %eax
 9697      00
 9698 6391 7602     		jbe	L478
 9699              	L475:
 9700 6393 EBFE     		jmp	L475
 9701              	L478:
3322:../../MMI/Resource/WriteImgRes.c ****         system(tempCommand);
 9703              	LM823:
 9704 6395 8D8588E8 		leal	-6008(%ebp), %eax
 9704      FFFF
 9705 639b 890424   		movl	%eax, (%esp)
 9706 639e E8000000 		call	_system
 9706      00
3323:../../MMI/Resource/WriteImgRes.c **** 
3324:../../MMI/Resource/WriteImgRes.c ****         sprintf(tempCommand, "objcopy -I binary -O elf32-little --rename-section .data=.rdata --set
 9708              	LM824:
GAS LISTING d:/MTK/MTK2503/MTK2503/11CW1418SP4_03_CORETEK03AE_11C_V1_GPRS_MMI/plutommi/Customer/ResGenerator/gcctmp/ccaodaaa.s 			page 212


 9709 63a3 0FB70510 		movzwl	_g_mmi_res_font_id, %eax
 9709      000000
 9710 63aa 89442414 		movl	%eax, 20(%esp)
 9711 63ae 0FB70510 		movzwl	_g_mmi_res_font_id, %eax
 9711      000000
 9712 63b5 89442410 		movl	%eax, 16(%esp)
 9713 63b9 8B8568FD 		movl	-664(%ebp), %eax
 9713      FFFF
 9714 63bf 8944240C 		movl	%eax, 12(%esp)
 9715 63c3 0FB70510 		movzwl	_g_mmi_res_font_id, %eax
 9715      000000
 9716 63ca 89442408 		movl	%eax, 8(%esp)
 9717 63ce C7442404 		movl	$LC148, 4(%esp)
 9717      005D0000 
 9718 63d6 8D8588E8 		leal	-6008(%ebp), %eax
 9718      FFFF
 9719 63dc 890424   		movl	%eax, (%esp)
 9720 63df E8000000 		call	_sprintf
 9720      00
3325:../../MMI/Resource/WriteImgRes.c ****         RES_PRINT_INFO("%s\n", tempCommand);
 9722              	LM825:
 9723 63e4 8D8588E8 		leal	-6008(%ebp), %eax
 9723      FFFF
 9724 63ea 89442404 		movl	%eax, 4(%esp)
 9725 63ee C7042449 		movl	$LC52, (%esp)
 9725      0C0000
 9726 63f5 E8000000 		call	_MtkResgenTrace
 9726      00
3326:../../MMI/Resource/WriteImgRes.c ****         ASSERT(SHELL_CMD_BUFLEN*2 > strlen(tempCommand));
 9728              	LM826:
 9729 63fa 8D8588E8 		leal	-6008(%ebp), %eax
 9729      FFFF
 9730 6400 890424   		movl	%eax, (%esp)
 9731 6403 E8000000 		call	_strlen
 9731      00
 9732 6408 3DC70400 		cmpl	$1223, %eax
 9732      00
 9733 640d 7602     		jbe	L483
 9734              	L480:
 9735 640f EBFE     		jmp	L480
 9736              	L483:
3327:../../MMI/Resource/WriteImgRes.c ****         system(tempCommand);
 9738              	LM827:
 9739 6411 8D8588E8 		leal	-6008(%ebp), %eax
 9739      FFFF
 9740 6417 890424   		movl	%eax, (%esp)
 9741 641a E8000000 		call	_system
 9741      00
3328:../../MMI/Resource/WriteImgRes.c **** 
3329:../../MMI/Resource/WriteImgRes.c ****         /* Fix obj alignment to 4 bytes */
3330:../../MMI/Resource/WriteImgRes.c ****         /* 1. Open the file just created */
3331:../../MMI/Resource/WriteImgRes.c ****         sprintf(tempCommand, "vf_%d.obj", g_mmi_res_font_id);
 9743              	LM828:
 9744 641f 0FB70510 		movzwl	_g_mmi_res_font_id, %eax
 9744      000000
 9745 6426 89442408 		movl	%eax, 8(%esp)
 9746 642a C7442404 		movl	$LC149, 4(%esp)
GAS LISTING d:/MTK/MTK2503/MTK2503/11CW1418SP4_03_CORETEK03AE_11C_V1_GPRS_MMI/plutommi/Customer/ResGenerator/gcctmp/ccaodaaa.s 			page 213


 9746      C35D0000 
 9747 6432 8D8588E8 		leal	-6008(%ebp), %eax
 9747      FFFF
 9748 6438 890424   		movl	%eax, (%esp)
 9749 643b E8000000 		call	_sprintf
 9749      00
3332:../../MMI/Resource/WriteImgRes.c ****         font_obj_file = fopen(tempCommand, "r+b");
 9751              	LM829:
 9752 6440 C7442404 		movl	$LC150, 4(%esp)
 9752      CD5D0000 
 9753 6448 8D8588E8 		leal	-6008(%ebp), %eax
 9753      FFFF
 9754 644e 890424   		movl	%eax, (%esp)
 9755 6451 E8000000 		call	_fopen
 9755      00
 9756 6456 898584E8 		movl	%eax, -6012(%ebp)
 9756      FFFF
3333:../../MMI/Resource/WriteImgRes.c ****         if (font_obj_file != NULL)
 9758              	LM830:
 9759 645c 83BD84E8 		cmpl	$0, -6012(%ebp)
 9759      FFFF00
 9760 6463 0F84BC00 		je	L484
 9760      0000
3334:../../MMI/Resource/WriteImgRes.c ****         {
3335:../../MMI/Resource/WriteImgRes.c ****             /* 2. Read header offset */
3336:../../MMI/Resource/WriteImgRes.c ****             fseek(font_obj_file, 32, SEEK_SET);
 9762              	LM831:
 9763 6469 C7442408 		movl	$0, 8(%esp)
 9763      00000000 
 9764 6471 C7442404 		movl	$32, 4(%esp)
 9764      20000000 
 9765 6479 8B8584E8 		movl	-6012(%ebp), %eax
 9765      FFFF
 9766 647f 890424   		movl	%eax, (%esp)
 9767 6482 E8000000 		call	_fseek
 9767      00
3337:../../MMI/Resource/WriteImgRes.c ****             size = fread(&section_offset, 4, 1, font_obj_file);
 9769              	LM832:
 9770 6487 8B8584E8 		movl	-6012(%ebp), %eax
 9770      FFFF
 9771 648d 8944240C 		movl	%eax, 12(%esp)
 9772 6491 C7442408 		movl	$1, 8(%esp)
 9772      01000000 
 9773 6499 C7442404 		movl	$4, 4(%esp)
 9773      04000000 
 9774 64a1 8D857CE8 		leal	-6020(%ebp), %eax
 9774      FFFF
 9775 64a7 890424   		movl	%eax, (%esp)
 9776 64aa E8000000 		call	_fread
 9776      00
 9777 64af 898578E8 		movl	%eax, -6024(%ebp)
 9777      FFFF
3338:../../MMI/Resource/WriteImgRes.c ****             RES_PRINT_INFO("[Font]section offset = [%d]\n", section_offset);
 9779              	LM833:
 9780 64b5 8B857CE8 		movl	-6020(%ebp), %eax
 9780      FFFF
 9781 64bb 89442404 		movl	%eax, 4(%esp)
GAS LISTING d:/MTK/MTK2503/MTK2503/11CW1418SP4_03_CORETEK03AE_11C_V1_GPRS_MMI/plutommi/Customer/ResGenerator/gcctmp/ccaodaaa.s 			page 214


 9782 64bf C70424D1 		movl	$LC151, (%esp)
 9782      5D0000
 9783 64c6 E8000000 		call	_MtkResgenTrace
 9783      00
3339:../../MMI/Resource/WriteImgRes.c **** 
3340:../../MMI/Resource/WriteImgRes.c ****             /* 3. Jump to the position and modify it to 4. */
3341:../../MMI/Resource/WriteImgRes.c ****             fseek(font_obj_file, section_offset + 40 + 32, SEEK_SET);
 9785              	LM834:
 9786 64cb C7442408 		movl	$0, 8(%esp)
 9786      00000000 
 9787 64d3 8B857CE8 		movl	-6020(%ebp), %eax
 9787      FFFF
 9788 64d9 83C048   		addl	$72, %eax
 9789 64dc 89442404 		movl	%eax, 4(%esp)
 9790 64e0 8B8584E8 		movl	-6012(%ebp), %eax
 9790      FFFF
 9791 64e6 890424   		movl	%eax, (%esp)
 9792 64e9 E8000000 		call	_fseek
 9792      00
3342:../../MMI/Resource/WriteImgRes.c ****             fputc(4, font_obj_file);
 9794              	LM835:
 9795 64ee 8B8584E8 		movl	-6012(%ebp), %eax
 9795      FFFF
 9796 64f4 89442404 		movl	%eax, 4(%esp)
 9797 64f8 C7042404 		movl	$4, (%esp)
 9797      000000
 9798 64ff E8000000 		call	_fputc
 9798      00
3343:../../MMI/Resource/WriteImgRes.c **** 
3344:../../MMI/Resource/WriteImgRes.c ****             /* 4. Close the file */
3345:../../MMI/Resource/WriteImgRes.c ****             MYFCLOSE(font_obj_file);
 9800              	LM836:
 9801 6504 83BD84E8 		cmpl	$0, -6012(%ebp)
 9801      FFFF00
 9802 650b 7418     		je	L484
 9803 650d 8B8584E8 		movl	-6012(%ebp), %eax
 9803      FFFF
 9804 6513 890424   		movl	%eax, (%esp)
 9805 6516 E8000000 		call	_fclose
 9805      00
 9806 651b C78584E8 		movl	$0, -6012(%ebp)
 9806      FFFF0000 
 9806      0000
 9807              	L484:
3346:../../MMI/Resource/WriteImgRes.c ****         }
3347:../../MMI/Resource/WriteImgRes.c **** 
3348:../../MMI/Resource/WriteImgRes.c ****         fprintf(font_data_lis, "plutommi\\Customer\\ResGenerator\\vf_%d.obj\n", g_mmi_res_font_id);
 9809              	LM837:
 9810 6525 0FB70510 		movzwl	_g_mmi_res_font_id, %eax
 9810      000000
 9811 652c 89442408 		movl	%eax, 8(%esp)
 9812 6530 C7442404 		movl	$LC152, 4(%esp)
 9812      005E0000 
 9813 6538 A1000000 		movl	_font_data_lis, %eax
 9813      00
 9814 653d 890424   		movl	%eax, (%esp)
 9815 6540 E8000000 		call	_fprintf
GAS LISTING d:/MTK/MTK2503/MTK2503/11CW1418SP4_03_CORETEK03AE_11C_V1_GPRS_MMI/plutommi/Customer/ResGenerator/gcctmp/ccaodaaa.s 			page 215


 9815      00
3349:../../MMI/Resource/WriteImgRes.c ****         fprintf(font_data_modis_lis, "plutommi\\Customer\\ResGenerator\\modis_vf_%d.obj\n", g_mmi_r
 9817              	LM838:
 9818 6545 0FB70510 		movzwl	_g_mmi_res_font_id, %eax
 9818      000000
 9819 654c 89442408 		movl	%eax, 8(%esp)
 9820 6550 C7442404 		movl	$LC153, 4(%esp)
 9820      405E0000 
 9821 6558 A1000000 		movl	_font_data_modis_lis, %eax
 9821      00
 9822 655d 890424   		movl	%eax, (%esp)
 9823 6560 E8000000 		call	_fprintf
 9823      00
3350:../../MMI/Resource/WriteImgRes.c ****         fprintf(font_ttf_lis, "%s\n", filename_buffer);
 9825              	LM839:
 9826 6565 8D8568ED 		leal	-4760(%ebp), %eax
 9826      FFFF
 9827 656b 89442408 		movl	%eax, 8(%esp)
 9828 656f C7442404 		movl	$LC52, 4(%esp)
 9828      490C0000 
 9829 6577 A1000000 		movl	_font_ttf_lis, %eax
 9829      00
 9830 657c 890424   		movl	%eax, (%esp)
 9831 657f E8000000 		call	_fprintf
 9831      00
3351:../../MMI/Resource/WriteImgRes.c ****         fprintf(font_data_file, "extern const U8 %s[];\n", output_image_names);
 9833              	LM840:
 9834 6584 8B8568FD 		movl	-664(%ebp), %eax
 9834      FFFF
 9835 658a 89442408 		movl	%eax, 8(%esp)
 9836 658e C7442404 		movl	$LC154, 4(%esp)
 9836      705E0000 
 9837 6596 A1000000 		movl	_font_data_file, %eax
 9837      00
 9838 659b 890424   		movl	%eax, (%esp)
 9839 659e E8000000 		call	_fprintf
 9839      00
 9840              	L455:
3352:../../MMI/Resource/WriteImgRes.c ****     }
3353:../../MMI/Resource/WriteImgRes.c **** 
3354:../../MMI/Resource/WriteImgRes.c **** #ifdef __MMI_RESOURCE_ENFB_SUPPORT__
3355:../../MMI/Resource/WriteImgRes.c ****     enfb_flag = 0;
3356:../../MMI/Resource/WriteImgRes.c **** #endif
3357:../../MMI/Resource/WriteImgRes.c ****     MYFCLOSE(image_data_file);
 9842              	LM841:
 9843              	LBE66:
 9844 65a3 837DF400 		cmpl	$0, -12(%ebp)
 9845 65a7 7412     		je	L487
 9846 65a9 8B45F4   		movl	-12(%ebp), %eax
 9847 65ac 890424   		movl	%eax, (%esp)
 9848 65af E8000000 		call	_fclose
 9848      00
 9849 65b4 C745F400 		movl	$0, -12(%ebp)
 9849      000000
 9850              	L487:
3358:../../MMI/Resource/WriteImgRes.c ****     free(output_image_names);
 9852              	LM842:
GAS LISTING d:/MTK/MTK2503/MTK2503/11CW1418SP4_03_CORETEK03AE_11C_V1_GPRS_MMI/plutommi/Customer/ResGenerator/gcctmp/ccaodaaa.s 			page 216


 9853 65bb 8B8568FD 		movl	-664(%ebp), %eax
 9853      FFFF
 9854 65c1 890424   		movl	%eax, (%esp)
 9855 65c4 E8000000 		call	_free
 9855      00
3359:../../MMI/Resource/WriteImgRes.c **** 
3360:../../MMI/Resource/WriteImgRes.c ****     return TRUE;
 9857              	LM843:
 9858 65c9 C78590E7 		movl	$1, -6256(%ebp)
 9858      FFFF0100 
 9858      0000
3361:../../MMI/Resource/WriteImgRes.c **** }
 9860              	LM844:
 9861              	L447:
 9862              	LBE65:
 9863 65d3 8B8590E7 		movl	-6256(%ebp), %eax
 9863      FFFF
 9864 65d9 C9       		leave
 9865 65da C3       		ret
 9889              	Lscope17:
 9891              	LC155:
 9892 65db 4D41494E 		.ascii "MAINLCD\\\\SUBMENU\0"
 9892      4C43445C 
 9892      5C535542 
 9892      4D454E55 
 9892      00
 9896              	_isSubmenuImage:
3362:../../MMI/Resource/WriteImgRes.c **** 
3363:../../MMI/Resource/WriteImgRes.c **** 
3364:../../MMI/Resource/WriteImgRes.c **** /*****************************************************************************
3365:../../MMI/Resource/WriteImgRes.c ****  * FUNCTION
3366:../../MMI/Resource/WriteImgRes.c ****  *  isSubmenuImage
3367:../../MMI/Resource/WriteImgRes.c ****  * DESCRIPTION
3368:../../MMI/Resource/WriteImgRes.c ****  *  Decide if the iamge is used for Submenu picture
3369:../../MMI/Resource/WriteImgRes.c ****  *
3370:../../MMI/Resource/WriteImgRes.c ****  *  use SUBMENU_IMAGE_PATH (defined in CustDataRes.h) to decide if a EMS picture
3371:../../MMI/Resource/WriteImgRes.c ****  * PARAMETERS
3372:../../MMI/Resource/WriteImgRes.c ****  *  path        [IN]        -> string containing file name and path
3373:../../MMI/Resource/WriteImgRes.c ****  * RETURNS
3374:../../MMI/Resource/WriteImgRes.c ****  *  U8 --> 1: Submenu picture, 0: Not Submenu picture
3375:../../MMI/Resource/WriteImgRes.c ****  *****************************************************************************/
3376:../../MMI/Resource/WriteImgRes.c **** static U8 isSubmenuImage(S8 *path)
3377:../../MMI/Resource/WriteImgRes.c **** {
 9898              	LM845:
 9899 65ec 55       		pushl	%ebp
 9900 65ed 89E5     		movl	%esp, %ebp
 9901 65ef 83EC48   		subl	$72, %esp
3378:../../MMI/Resource/WriteImgRes.c **** #ifndef __MMI_SLIM_LISTMENU_NUMBER__
3379:../../MMI/Resource/WriteImgRes.c ****     /*----------------------------------------------------------------*/
3380:../../MMI/Resource/WriteImgRes.c ****     /* Local Variables                                                */
3381:../../MMI/Resource/WriteImgRes.c ****     /*----------------------------------------------------------------*/
3382:../../MMI/Resource/WriteImgRes.c **** 
3383:../../MMI/Resource/WriteImgRes.c ****     /*----------------------------------------------------------------*/
3384:../../MMI/Resource/WriteImgRes.c ****     /* Code Body                                                      */
3385:../../MMI/Resource/WriteImgRes.c ****     /*----------------------------------------------------------------*/
3386:../../MMI/Resource/WriteImgRes.c ****     return 0;
3387:../../MMI/Resource/WriteImgRes.c **** #else /* __MMI_SLIM_LISTMENU_NUMBER__ */
GAS LISTING d:/MTK/MTK2503/MTK2503/11CW1418SP4_03_CORETEK03AE_11C_V1_GPRS_MMI/plutommi/Customer/ResGenerator/gcctmp/ccaodaaa.s 			page 217


3388:../../MMI/Resource/WriteImgRes.c ****     S8 submenu_path[] = SUBMENU_IMAGE_PATH;
 9903              	LM846:
 9904              	LBB68:
 9905 65f2 A1DB6500 		movl	LC155, %eax
 9905      00
 9906 65f7 8945D8   		movl	%eax, -40(%ebp)
 9907 65fa A1DF6500 		movl	LC155+4, %eax
 9907      00
 9908 65ff 8945DC   		movl	%eax, -36(%ebp)
 9909 6602 A1E36500 		movl	LC155+8, %eax
 9909      00
 9910 6607 8945E0   		movl	%eax, -32(%ebp)
 9911 660a A1E76500 		movl	LC155+12, %eax
 9911      00
 9912 660f 8945E4   		movl	%eax, -28(%ebp)
 9913 6612 0FB605EB 		movzbl	LC155+16, %eax
 9913      650000
 9914 6619 8845E8   		movb	%al, -24(%ebp)
3389:../../MMI/Resource/WriteImgRes.c ****     U8 pos = 0, submenu_len = 0, i = 0;
 9916              	LM847:
 9917 661c C645D700 		movb	$0, -41(%ebp)
 9918 6620 C645D600 		movb	$0, -42(%ebp)
 9919 6624 C645D500 		movb	$0, -43(%ebp)
3390:../../MMI/Resource/WriteImgRes.c **** 
3391:../../MMI/Resource/WriteImgRes.c ****     if (strstr(path, submenu_path) != NULL)
 9921              	LM848:
 9922 6628 8D45D8   		leal	-40(%ebp), %eax
 9923 662b 89442404 		movl	%eax, 4(%esp)
 9924 662f 8B4508   		movl	8(%ebp), %eax
 9925 6632 890424   		movl	%eax, (%esp)
 9926 6635 E8000000 		call	_strstr
 9926      00
 9927 663a 85C0     		testl	%eax, %eax
 9928 663c 7409     		je	L490
3392:../../MMI/Resource/WriteImgRes.c ****     {
3393:../../MMI/Resource/WriteImgRes.c ****         return 1;
 9930              	LM849:
 9931 663e C745D001 		movl	$1, -48(%ebp)
 9931      000000
 9932 6645 EB07     		jmp	L489
 9933              	L490:
3394:../../MMI/Resource/WriteImgRes.c ****     }
3395:../../MMI/Resource/WriteImgRes.c ****     else
3396:../../MMI/Resource/WriteImgRes.c ****     {
3397:../../MMI/Resource/WriteImgRes.c ****         return 0;
 9935              	LM850:
 9936 6647 C745D000 		movl	$0, -48(%ebp)
 9936      000000
3398:../../MMI/Resource/WriteImgRes.c ****     }
3399:../../MMI/Resource/WriteImgRes.c ****     /*
3400:../../MMI/Resource/WriteImgRes.c ****      * submenu_len = strlen(submenu_path);
3401:../../MMI/Resource/WriteImgRes.c ****      * pos = strlen (path)-1;
3402:../../MMI/Resource/WriteImgRes.c ****      * while (path[pos]!='\\') pos--;
3403:../../MMI/Resource/WriteImgRes.c ****      * pos-=submenu_len+1;
3404:../../MMI/Resource/WriteImgRes.c ****      * for ( i=0; i<submenu_len; i++){
3405:../../MMI/Resource/WriteImgRes.c ****      * if ( submenu_path[i] != path[pos] ) return 0;
3406:../../MMI/Resource/WriteImgRes.c ****      * else pos++;
GAS LISTING d:/MTK/MTK2503/MTK2503/11CW1418SP4_03_CORETEK03AE_11C_V1_GPRS_MMI/plutommi/Customer/ResGenerator/gcctmp/ccaodaaa.s 			page 218


3407:../../MMI/Resource/WriteImgRes.c ****      * }
3408:../../MMI/Resource/WriteImgRes.c ****      * return 1;
3409:../../MMI/Resource/WriteImgRes.c ****      */
3410:../../MMI/Resource/WriteImgRes.c **** #endif /* __MMI_SLIM_LISTMENU_NUMBER__ */
3411:../../MMI/Resource/WriteImgRes.c **** }
 9938              	LM851:
 9939              	L489:
 9940              	LBE68:
 9941 664e 8B45D0   		movl	-48(%ebp), %eax
 9942 6651 C9       		leave
 9943 6652 C3       		ret
 9950              	Lscope18:
 9956              	_get_available_image_filename:
3412:../../MMI/Resource/WriteImgRes.c **** 
3413:../../MMI/Resource/WriteImgRes.c **** 
3414:../../MMI/Resource/WriteImgRes.c **** #if defined(__MULTIPLE_BINARY_FILES__) && defined(__MMI_RESOURCE_ENFB_SUPPORT__)
3415:../../MMI/Resource/WriteImgRes.c **** /*****************************************************************************
3416:../../MMI/Resource/WriteImgRes.c ****  * FUNCTION
3417:../../MMI/Resource/WriteImgRes.c ****  *  CustPack_ENFB_image_test
3418:../../MMI/Resource/WriteImgRes.c ****  * DESCRIPTION
3419:../../MMI/Resource/WriteImgRes.c ****  *  For E-NFB image, we will compulsorily put it into custpack.
3420:../../MMI/Resource/WriteImgRes.c ****  * PARAMETERS
3421:../../MMI/Resource/WriteImgRes.c ****  *  filename            [IN]
3422:../../MMI/Resource/WriteImgRes.c ****  * RETURNS
3423:../../MMI/Resource/WriteImgRes.c ****  *  BOOL
3424:../../MMI/Resource/WriteImgRes.c ****  *****************************************************************************/
3425:../../MMI/Resource/WriteImgRes.c **** MMI_BOOL CustPack_ENFB_image_test(const S8 *filename, int disable_enfb)
3426:../../MMI/Resource/WriteImgRes.c **** {
3427:../../MMI/Resource/WriteImgRes.c ****     /*----------------------------------------------------------------*/
3428:../../MMI/Resource/WriteImgRes.c ****     /* Local Variables                                                */
3429:../../MMI/Resource/WriteImgRes.c ****     /*----------------------------------------------------------------*/
3430:../../MMI/Resource/WriteImgRes.c ****     U32 w, h;
3431:../../MMI/Resource/WriteImgRes.c ****     S32 ret, i, j;
3432:../../MMI/Resource/WriteImgRes.c ****     MMI_BOOL test = MMI_FALSE;
3433:../../MMI/Resource/WriteImgRes.c ****     S8 tempfilename[MAX_FILENAME_LEN] = {0};
3434:../../MMI/Resource/WriteImgRes.c **** 
3435:../../MMI/Resource/WriteImgRes.c ****     /*----------------------------------------------------------------*/
3436:../../MMI/Resource/WriteImgRes.c ****     /* Code Body                                                      */
3437:../../MMI/Resource/WriteImgRes.c ****     /*----------------------------------------------------------------*/
3438:../../MMI/Resource/WriteImgRes.c ****     memset(tempfilename, 0, (MAX_FILENAME_LEN*sizeof(S8)));
3439:../../MMI/Resource/WriteImgRes.c **** 
3440:../../MMI/Resource/WriteImgRes.c ****     get_available_image_filename(filename, tempfilename);
3441:../../MMI/Resource/WriteImgRes.c ****     if (file_exist(tempfilename) == MMI_TRUE)
3442:../../MMI/Resource/WriteImgRes.c ****     {
3443:../../MMI/Resource/WriteImgRes.c ****         ret = Image_Test(tempfilename, &w, &h, disable_enfb);
3444:../../MMI/Resource/WriteImgRes.c ****         test = (ret != ENFB_IMAGE_NONE) ? (MMI_TRUE) : (MMI_FALSE);
3445:../../MMI/Resource/WriteImgRes.c ****     }
3446:../../MMI/Resource/WriteImgRes.c ****     else
3447:../../MMI/Resource/WriteImgRes.c ****     {   /* for sequence image */
3448:../../MMI/Resource/WriteImgRes.c ****         memset(tempfilename, 0, (MAX_FILENAME_LEN*sizeof(S8)));
3449:../../MMI/Resource/WriteImgRes.c **** #if defined(__MMI_ALPHA_LAYER_SUPPORT__) || defined(__MMI_ALPHA_BLENDING__)
3450:../../MMI/Resource/WriteImgRes.c ****         for (i = SUPPORT_N_SEQUENTIAL_IMAGE_TYPE - 1 ; i >= 0 ; i--)    /* search from PNG */
3451:../../MMI/Resource/WriteImgRes.c **** #else /* defined(__MMI_ALPHA_LAYER_SUPPORT__) || defined(__MMI_ALPHA_BLENDING__) */
3452:../../MMI/Resource/WriteImgRes.c ****         for (i = 0 ; i < SUPPORT_N_SEQUENTIAL_IMAGE_TYPE ; i++)         /* search from BMP */
3453:../../MMI/Resource/WriteImgRes.c **** #endif /* defined(__MMI_ALPHA_LAYER_SUPPORT__) || defined(__MMI_ALPHA_BLENDING__) */
3454:../../MMI/Resource/WriteImgRes.c ****         {
3455:../../MMI/Resource/WriteImgRes.c ****             sprintf(tempfilename, "%s\\\\0.%s", filename, sequential_image[i].filename_ext);
GAS LISTING d:/MTK/MTK2503/MTK2503/11CW1418SP4_03_CORETEK03AE_11C_V1_GPRS_MMI/plutommi/Customer/ResGenerator/gcctmp/ccaodaaa.s 			page 219


3456:../../MMI/Resource/WriteImgRes.c ****             str_upper(tempfilename, MAX_FILENAME_LEN);
3457:../../MMI/Resource/WriteImgRes.c ****             if (file_exist(tempfilename) == MMI_TRUE)   break;
3458:../../MMI/Resource/WriteImgRes.c ****         }
3459:../../MMI/Resource/WriteImgRes.c ****         if (file_exist(tempfilename) == MMI_TRUE)
3460:../../MMI/Resource/WriteImgRes.c ****         {
3461:../../MMI/Resource/WriteImgRes.c ****             ret = Image_Test(tempfilename, &w, &h, disable_enfb);
3462:../../MMI/Resource/WriteImgRes.c ****             test = (ret != ENFB_IMAGE_NONE) ? (MMI_TRUE) : (MMI_FALSE);
3463:../../MMI/Resource/WriteImgRes.c ****         }
3464:../../MMI/Resource/WriteImgRes.c ****     }
3465:../../MMI/Resource/WriteImgRes.c **** 
3466:../../MMI/Resource/WriteImgRes.c ****     return test;
3467:../../MMI/Resource/WriteImgRes.c **** }
3468:../../MMI/Resource/WriteImgRes.c **** #endif /* defined(__MULTIPLE_BINARY_FILES__) && defined(__MMI_RESOURCE_ENFB_SUPPORT__) */
3469:../../MMI/Resource/WriteImgRes.c **** 
3470:../../MMI/Resource/WriteImgRes.c **** 
3471:../../MMI/Resource/WriteImgRes.c **** /*****************************************************************************
3472:../../MMI/Resource/WriteImgRes.c ****  * FUNCTION
3473:../../MMI/Resource/WriteImgRes.c ****  *  get_available_image_filename
3474:../../MMI/Resource/WriteImgRes.c ****  * DESCRIPTION
3475:../../MMI/Resource/WriteImgRes.c ****  *  change the filename extension for available image file
3476:../../MMI/Resource/WriteImgRes.c ****  *  TODO: should inlcude sequence file and return type
3477:../../MMI/Resource/WriteImgRes.c ****  * PARAMETERS
3478:../../MMI/Resource/WriteImgRes.c ****  *  in_filename     [IN]
3479:../../MMI/Resource/WriteImgRes.c ****  *  out_filename    [OUT]
3480:../../MMI/Resource/WriteImgRes.c ****  * RETURNS
3481:../../MMI/Resource/WriteImgRes.c ****  *  void
3482:../../MMI/Resource/WriteImgRes.c ****  *****************************************************************************/
3483:../../MMI/Resource/WriteImgRes.c **** static void get_available_image_filename(const S8 *in_filename, S8* out_filename)
3484:../../MMI/Resource/WriteImgRes.c **** {
 9958              	LM852:
 9959 6653 55       		pushl	%ebp
 9960 6654 89E5     		movl	%esp, %ebp
 9961 6656 83EC28   		subl	$40, %esp
3485:../../MMI/Resource/WriteImgRes.c ****     /*----------------------------------------------------------------*/
3486:../../MMI/Resource/WriteImgRes.c ****     /* Local Variables                                                */
3487:../../MMI/Resource/WriteImgRes.c ****     /*----------------------------------------------------------------*/
3488:../../MMI/Resource/WriteImgRes.c ****     S32 ext_type = -1, i, count;
 9963              	LM853:
 9964              	LBB69:
 9965 6659 C745FCFF 		movl	$-1, -4(%ebp)
 9965      FFFFFF
3489:../../MMI/Resource/WriteImgRes.c **** 
3490:../../MMI/Resource/WriteImgRes.c ****     /*----------------------------------------------------------------*/
3491:../../MMI/Resource/WriteImgRes.c ****     /* Code Body                                                      */
3492:../../MMI/Resource/WriteImgRes.c ****     /*----------------------------------------------------------------*/
3493:../../MMI/Resource/WriteImgRes.c ****     strncpy(out_filename, in_filename, MAX_FILENAME_LEN);
 9967              	LM854:
 9968 6660 C7442408 		movl	$512, 8(%esp)
 9968      00020000 
 9969 6668 8B4508   		movl	8(%ebp), %eax
 9970 666b 89442404 		movl	%eax, 4(%esp)
 9971 666f 8B450C   		movl	12(%ebp), %eax
 9972 6672 890424   		movl	%eax, (%esp)
 9973 6675 E8000000 		call	_strncpy
 9973      00
3494:../../MMI/Resource/WriteImgRes.c ****     str_upper(out_filename, MAX_FILENAME_LEN);
 9975              	LM855:
GAS LISTING d:/MTK/MTK2503/MTK2503/11CW1418SP4_03_CORETEK03AE_11C_V1_GPRS_MMI/plutommi/Customer/ResGenerator/gcctmp/ccaodaaa.s 			page 220


 9976 667a C7442404 		movl	$512, 4(%esp)
 9976      00020000 
 9977 6682 8B450C   		movl	12(%ebp), %eax
 9978 6685 890424   		movl	%eax, (%esp)
 9979 6688 E8000000 		call	_str_upper
 9979      00
3495:../../MMI/Resource/WriteImgRes.c **** 
3496:../../MMI/Resource/WriteImgRes.c ****     do
3497:../../MMI/Resource/WriteImgRes.c ****     {
3498:../../MMI/Resource/WriteImgRes.c ****         if (file_exist(out_filename) == MMI_TRUE)   break;
 9981              	LM856:
 9982 668d 8B450C   		movl	12(%ebp), %eax
 9983 6690 890424   		movl	%eax, (%esp)
 9984 6693 E8000000 		call	_file_exist
 9984      00
 9985 6698 83F801   		cmpl	$1, %eax
 9986 669b 7505     		jne	L494
 9987 669d E9570100 		jmp	L492
 9987      00
 9988              	L494:
3499:../../MMI/Resource/WriteImgRes.c **** 
3500:../../MMI/Resource/WriteImgRes.c ****         ext_type = ExtractExtension(out_filename, RES_IMAGE);
 9990              	LM857:
 9991 66a2 C7442404 		movl	$0, 4(%esp)
 9991      00000000 
 9992 66aa 8B450C   		movl	12(%ebp), %eax
 9993 66ad 890424   		movl	%eax, (%esp)
 9994 66b0 E8000000 		call	_ExtractExtension
 9994      00
 9995 66b5 0FB6C0   		movzbl	%al, %eax
 9996 66b8 8945FC   		movl	%eax, -4(%ebp)
3501:../../MMI/Resource/WriteImgRes.c **** 
3502:../../MMI/Resource/WriteImgRes.c ****         /* check PNG -> all type */
3503:../../MMI/Resource/WriteImgRes.c ****         if (ext_type == IMAGE_TYPE_PNG)
 9998              	LM858:
 9999 66bb 837DFC13 		cmpl	$19, -4(%ebp)
 10000 66bf 7560     		jne	L495
3504:../../MMI/Resource/WriteImgRes.c ****         {
3505:../../MMI/Resource/WriteImgRes.c ****             count = sizeof(image_resource_info)/sizeof(RESOURCE_INFO);
 10002              	LM859:
 10003 66c1 C745F415 		movl	$21, -12(%ebp)
 10003      000000
3506:../../MMI/Resource/WriteImgRes.c ****             for (i = 0 ; i < count ; i++)
 10005              	LM860:
 10006 66c8 C745F800 		movl	$0, -8(%ebp)
 10006      000000
 10007              	L496:
 10008 66cf 8B45F8   		movl	-8(%ebp), %eax
 10009 66d2 3B45F4   		cmpl	-12(%ebp), %eax
 10010 66d5 7C02     		jl	L499
 10011 66d7 EB3B     		jmp	L497
 10012              	L499:
3507:../../MMI/Resource/WriteImgRes.c ****             {
3508:../../MMI/Resource/WriteImgRes.c ****                 ChangeExtension(out_filename, RES_IMAGE, image_resource_info[i].file_type);
 10014              	LM861:
 10015 66d9 8B45F8   		movl	-8(%ebp), %eax
 10016 66dc 0FB604C5 		movzbl	_image_resource_info+4(,%eax,8), %eax
GAS LISTING d:/MTK/MTK2503/MTK2503/11CW1418SP4_03_CORETEK03AE_11C_V1_GPRS_MMI/plutommi/Customer/ResGenerator/gcctmp/ccaodaaa.s 			page 221


 10016      64000000 
 10017 66e4 89442408 		movl	%eax, 8(%esp)
 10018 66e8 C7442404 		movl	$0, 4(%esp)
 10018      00000000 
 10019 66f0 8B450C   		movl	12(%ebp), %eax
 10020 66f3 890424   		movl	%eax, (%esp)
 10021 66f6 E8000000 		call	_ChangeExtension
 10021      00
3509:../../MMI/Resource/WriteImgRes.c ****                 if (file_exist(out_filename) == MMI_TRUE)   break;
 10023              	LM862:
 10024 66fb 8B450C   		movl	12(%ebp), %eax
 10025 66fe 890424   		movl	%eax, (%esp)
 10026 6701 E8000000 		call	_file_exist
 10026      00
 10027 6706 83F801   		cmpl	$1, %eax
 10028 6709 7502     		jne	L498
 10029 670b EB07     		jmp	L497
 10031              	LM863:
 10032              	L498:
 10033 670d 8D45F8   		leal	-8(%ebp), %eax
 10034 6710 FF00     		incl	(%eax)
 10035 6712 EBBB     		jmp	L496
 10036              	L497:
3510:../../MMI/Resource/WriteImgRes.c ****             }
3511:../../MMI/Resource/WriteImgRes.c ****             if (i != count) break;
 10038              	LM864:
 10039 6714 8B45F8   		movl	-8(%ebp), %eax
 10040 6717 3B45F4   		cmpl	-12(%ebp), %eax
 10041 671a 7405     		je	L495
 10042 671c E9D80000 		jmp	L492
 10042      00
 10043              	L495:
3512:../../MMI/Resource/WriteImgRes.c ****         }
3513:../../MMI/Resource/WriteImgRes.c **** 
3514:../../MMI/Resource/WriteImgRes.c **** #if defined(__MMI_ALPHA_LAYER_SUPPORT__)
3515:../../MMI/Resource/WriteImgRes.c ****         /* check GIF / BMP -> PNG */
3516:../../MMI/Resource/WriteImgRes.c ****         if ((ext_type == IMAGE_TYPE_GIF) || (ext_type == IMAGE_TYPE_BMP))
3517:../../MMI/Resource/WriteImgRes.c ****         {
3518:../../MMI/Resource/WriteImgRes.c ****             ChangeExtension(out_filename, RES_IMAGE, IMAGE_TYPE_PNG);
3519:../../MMI/Resource/WriteImgRes.c ****             if (file_exist(out_filename) == MMI_TRUE)   break;
3520:../../MMI/Resource/WriteImgRes.c ****         }
3521:../../MMI/Resource/WriteImgRes.c **** 
3522:../../MMI/Resource/WriteImgRes.c ****         /* check PBMP -> PPN */
3523:../../MMI/Resource/WriteImgRes.c ****         if (ext_type == IMAGE_TYPE_DEVICE_BITMAP)
3524:../../MMI/Resource/WriteImgRes.c ****         {
3525:../../MMI/Resource/WriteImgRes.c ****             ChangeExtension(out_filename, RES_IMAGE, IMAGE_TYPE_PPN);
3526:../../MMI/Resource/WriteImgRes.c ****             if (file_exist(out_filename) == MMI_TRUE)   break;
3527:../../MMI/Resource/WriteImgRes.c ****         }
3528:../../MMI/Resource/WriteImgRes.c **** #endif /* defined(__MMI_ALPHA_LAYER_SUPPORT__) */
3529:../../MMI/Resource/WriteImgRes.c **** 
3530:../../MMI/Resource/WriteImgRes.c ****         /* check BMP -> GIF */
3531:../../MMI/Resource/WriteImgRes.c ****         if (ext_type == IMAGE_TYPE_BMP)
 10045              	LM865:
 10046 6721 837DFC01 		cmpl	$1, -4(%ebp)
 10047 6725 7530     		jne	L502
3532:../../MMI/Resource/WriteImgRes.c ****         {
3533:../../MMI/Resource/WriteImgRes.c ****             ChangeExtension(out_filename, RES_IMAGE, IMAGE_TYPE_GIF);
GAS LISTING d:/MTK/MTK2503/MTK2503/11CW1418SP4_03_CORETEK03AE_11C_V1_GPRS_MMI/plutommi/Customer/ResGenerator/gcctmp/ccaodaaa.s 			page 222


 10049              	LM866:
 10050 6727 C7442408 		movl	$3, 8(%esp)
 10050      03000000 
 10051 672f C7442404 		movl	$0, 4(%esp)
 10051      00000000 
 10052 6737 8B450C   		movl	12(%ebp), %eax
 10053 673a 890424   		movl	%eax, (%esp)
 10054 673d E8000000 		call	_ChangeExtension
 10054      00
3534:../../MMI/Resource/WriteImgRes.c ****             if (file_exist(out_filename) == MMI_TRUE)   break;
 10056              	LM867:
 10057 6742 8B450C   		movl	12(%ebp), %eax
 10058 6745 890424   		movl	%eax, (%esp)
 10059 6748 E8000000 		call	_file_exist
 10059      00
 10060 674d 83F801   		cmpl	$1, %eax
 10061 6750 7505     		jne	L502
 10062 6752 E9A20000 		jmp	L492
 10062      00
 10063              	L502:
3535:../../MMI/Resource/WriteImgRes.c ****         }
3536:../../MMI/Resource/WriteImgRes.c **** 
3537:../../MMI/Resource/WriteImgRes.c ****         /* check GIF -> BMP */
3538:../../MMI/Resource/WriteImgRes.c ****         if (ext_type == IMAGE_TYPE_GIF)
 10065              	LM868:
 10066 6757 837DFC03 		cmpl	$3, -4(%ebp)
 10067 675b 752D     		jne	L504
3539:../../MMI/Resource/WriteImgRes.c ****         {
3540:../../MMI/Resource/WriteImgRes.c ****             ChangeExtension(out_filename, RES_IMAGE, IMAGE_TYPE_BMP);
 10069              	LM869:
 10070 675d C7442408 		movl	$1, 8(%esp)
 10070      01000000 
 10071 6765 C7442404 		movl	$0, 4(%esp)
 10071      00000000 
 10072 676d 8B450C   		movl	12(%ebp), %eax
 10073 6770 890424   		movl	%eax, (%esp)
 10074 6773 E8000000 		call	_ChangeExtension
 10074      00
3541:../../MMI/Resource/WriteImgRes.c ****             if (file_exist(out_filename) == MMI_TRUE)   break;
 10076              	LM870:
 10077 6778 8B450C   		movl	12(%ebp), %eax
 10078 677b 890424   		movl	%eax, (%esp)
 10079 677e E8000000 		call	_file_exist
 10079      00
 10080 6783 83F801   		cmpl	$1, %eax
 10081 6786 7502     		jne	L504
 10082 6788 EB6F     		jmp	L492
 10083              	L504:
3542:../../MMI/Resource/WriteImgRes.c ****         }
3543:../../MMI/Resource/WriteImgRes.c **** 
3544:../../MMI/Resource/WriteImgRes.c ****         /* check video */
3545:../../MMI/Resource/WriteImgRes.c ****         for (i = 0 ; i < SUPPORT_N_MEDIA_TYPE ; i++)
 10085              	LM871:
 10086 678a C745F800 		movl	$0, -8(%ebp)
 10086      000000
 10087              	L506:
 10088 6791 837DF805 		cmpl	$5, -8(%ebp)
GAS LISTING d:/MTK/MTK2503/MTK2503/11CW1418SP4_03_CORETEK03AE_11C_V1_GPRS_MMI/plutommi/Customer/ResGenerator/gcctmp/ccaodaaa.s 			page 223


 10089 6795 7E02     		jle	L509
 10090 6797 EB60     		jmp	L507
 10091              	L509:
3546:../../MMI/Resource/WriteImgRes.c ****         {
3547:../../MMI/Resource/WriteImgRes.c ****             S32 j, len;
3548:../../MMI/Resource/WriteImgRes.c **** 
3549:../../MMI/Resource/WriteImgRes.c ****             len = strlen(out_filename);
 10093              	LM872:
 10094              	LBB70:
 10095 6799 8B450C   		movl	12(%ebp), %eax
 10096 679c 890424   		movl	%eax, (%esp)
 10097 679f E8000000 		call	_strlen
 10097      00
 10098 67a4 8945EC   		movl	%eax, -20(%ebp)
3550:../../MMI/Resource/WriteImgRes.c ****             for (j = 0 ; j < 3 ; j++)
 10100              	LM873:
 10101 67a7 C745F000 		movl	$0, -16(%ebp)
 10101      000000
 10102              	L510:
 10103 67ae 837DF002 		cmpl	$2, -16(%ebp)
 10104 67b2 7E02     		jle	L513
 10105 67b4 EB2A     		jmp	L511
 10106              	L513:
3551:../../MMI/Resource/WriteImgRes.c ****             {
3552:../../MMI/Resource/WriteImgRes.c ****                 out_filename[len - 1 - j] = support_media_ext[i][2 - j];
 10108              	LM874:
 10109 67b6 8B55F0   		movl	-16(%ebp), %edx
 10110 67b9 8B45EC   		movl	-20(%ebp), %eax
 10111 67bc 29D0     		subl	%edx, %eax
 10112 67be 03450C   		addl	12(%ebp), %eax
 10113 67c1 8D48FF   		leal	-1(%eax), %ecx
 10114 67c4 8B45F8   		movl	-8(%ebp), %eax
 10115 67c7 8B55F0   		movl	-16(%ebp), %edx
 10116 67ca 8B048500 		movl	_support_media_ext(,%eax,4), %eax
 10116      000000
 10117 67d1 29D0     		subl	%edx, %eax
 10118 67d3 0FB64002 		movzbl	2(%eax), %eax
 10119 67d7 8801     		movb	%al, (%ecx)
 10121              	LM875:
 10122 67d9 8D45F0   		leal	-16(%ebp), %eax
 10123 67dc FF00     		incl	(%eax)
 10124 67de EBCE     		jmp	L510
 10125              	L511:
3553:../../MMI/Resource/WriteImgRes.c ****             }
3554:../../MMI/Resource/WriteImgRes.c ****             if (file_exist(out_filename) == MMI_TRUE)   break;
 10127              	LM876:
 10128 67e0 8B450C   		movl	12(%ebp), %eax
 10129 67e3 890424   		movl	%eax, (%esp)
 10130 67e6 E8000000 		call	_file_exist
 10130      00
 10131 67eb 83F801   		cmpl	$1, %eax
 10132 67ee 7502     		jne	L508
 10133 67f0 EB07     		jmp	L507
 10135              	LM877:
 10136              	L508:
 10137 67f2 8D45F8   		leal	-8(%ebp), %eax
 10138              	LBE70:
GAS LISTING d:/MTK/MTK2503/MTK2503/11CW1418SP4_03_CORETEK03AE_11C_V1_GPRS_MMI/plutommi/Customer/ResGenerator/gcctmp/ccaodaaa.s 			page 224


 10139 67f5 FF00     		incl	(%eax)
 10140 67f7 EB98     		jmp	L506
 10141              	L507:
3555:../../MMI/Resource/WriteImgRes.c ****         }
3556:../../MMI/Resource/WriteImgRes.c ****         if (i != SUPPORT_N_MEDIA_TYPE)  break;
3557:../../MMI/Resource/WriteImgRes.c ****     } while (0);
3558:../../MMI/Resource/WriteImgRes.c **** }
 10143              	LM878:
 10144              	L492:
 10145 67f9 C9       		leave
 10146 67fa C3       		ret
 10147              	LBE69:
 10157              	Lscope19:
 10159              		.comm	_g_resimg_table, 67369984	 # 67369980
 10169              		.text
 10171              	Letext:
GAS LISTING d:/MTK/MTK2503/MTK2503/11CW1418SP4_03_CORETEK03AE_11C_V1_GPRS_MMI/plutommi/Customer/ResGenerator/gcctmp/ccaodaaa.s 			page 225


DEFINED SYMBOLS
                            *ABS*:00000000 WriteImgRes.c
d:/MTK/MTK2503/MTK2503/11CW1418SP4_03_CORETEK03AE_11C_V1_GPRS_MMI/plutommi/Customer/ResGenerator/gcctmp/ccaodaaa.s:2478   .text:00000060 _image_resource_info
d:/MTK/MTK2503/MTK2503/11CW1418SP4_03_CORETEK03AE_11C_V1_GPRS_MMI/plutommi/Customer/ResGenerator/gcctmp/ccaodaaa.s:2561   .data:00000000 _image_idx
d:/MTK/MTK2503/MTK2503/11CW1418SP4_03_CORETEK03AE_11C_V1_GPRS_MMI/plutommi/Customer/ResGenerator/gcctmp/ccaodaaa.s:2566   .bss:00000000 _g_resimg_count
d:/MTK/MTK2503/MTK2503/11CW1418SP4_03_CORETEK03AE_11C_V1_GPRS_MMI/plutommi/Customer/ResGenerator/gcctmp/ccaodaaa.s:2568   .bss:00000010 _g_mmi_res_font_id
d:/MTK/MTK2503/MTK2503/11CW1418SP4_03_CORETEK03AE_11C_V1_GPRS_MMI/plutommi/Customer/ResGenerator/gcctmp/ccaodaaa.s:2571   .bss:00000004 _g_mmi_res_font_flags
d:/MTK/MTK2503/MTK2503/11CW1418SP4_03_CORETEK03AE_11C_V1_GPRS_MMI/plutommi/Customer/ResGenerator/gcctmp/ccaodaaa.s:2573   .bss:00000020 _g_mmi_res_font_userdata
d:/MTK/MTK2503/MTK2503/11CW1418SP4_03_CORETEK03AE_11C_V1_GPRS_MMI/plutommi/Customer/ResGenerator/gcctmp/ccaodaaa.s:2574   .bss:00000030 _g_font_size
d:/MTK/MTK2503/MTK2503/11CW1418SP4_03_CORETEK03AE_11C_V1_GPRS_MMI/plutommi/Customer/ResGenerator/gcctmp/ccaodaaa.s:2577   .bss:00000008 _g_mmi_res_nfb_used
d:/MTK/MTK2503/MTK2503/11CW1418SP4_03_CORETEK03AE_11C_V1_GPRS_MMI/plutommi/Customer/ResGenerator/gcctmp/ccaodaaa.s:2609   .text:000003ef _LogILoadFail
d:/MTK/MTK2503/MTK2503/11CW1418SP4_03_CORETEK03AE_11C_V1_GPRS_MMI/plutommi/Customer/ResGenerator/gcctmp/ccaodaaa.s:2781   .text:000005e8 _LogNFBILoadFail
d:/MTK/MTK2503/MTK2503/11CW1418SP4_03_CORETEK03AE_11C_V1_GPRS_MMI/plutommi/Customer/ResGenerator/gcctmp/ccaodaaa.s:2821   .text:000006a3 _SetNFBImageImp
d:/MTK/MTK2503/MTK2503/11CW1418SP4_03_CORETEK03AE_11C_V1_GPRS_MMI/plutommi/Customer/ResGenerator/gcctmp/ccaodaaa.s:2958   .text:000008a7 _SetImageWithBufferExImp
d:/MTK/MTK2503/MTK2503/11CW1418SP4_03_CORETEK03AE_11C_V1_GPRS_MMI/plutommi/Customer/ResGenerator/gcctmp/ccaodaaa.s:4423   .text:00001cbe _isEmsImage
d:/MTK/MTK2503/MTK2503/11CW1418SP4_03_CORETEK03AE_11C_V1_GPRS_MMI/plutommi/Customer/ResGenerator/gcctmp/ccaodaaa.s:4584   .text:00001efe _Write_Processed_Data
d:/MTK/MTK2503/MTK2503/11CW1418SP4_03_CORETEK03AE_11C_V1_GPRS_MMI/plutommi/Customer/ResGenerator/gcctmp/ccaodaaa.s:5167   .text:000026c5 _Write_Unprocessed_Data
d:/MTK/MTK2503/MTK2503/11CW1418SP4_03_CORETEK03AE_11C_V1_GPRS_MMI/plutommi/Customer/ResGenerator/gcctmp/ccaodaaa.s:5571   .text:00002b62 _Write_Sequential_Image_Header
d:/MTK/MTK2503/MTK2503/11CW1418SP4_03_CORETEK03AE_11C_V1_GPRS_MMI/plutommi/Customer/ResGenerator/gcctmp/ccaodaaa.s:5963   .text:00003011 _Write_Sequential_Image_File
d:/MTK/MTK2503/MTK2503/11CW1418SP4_03_CORETEK03AE_11C_V1_GPRS_MMI/plutommi/Customer/ResGenerator/gcctmp/ccaodaaa.s:6235   .text:0000345e _Write_Sequential_Image
d:/MTK/MTK2503/MTK2503/11CW1418SP4_03_CORETEK03AE_11C_V1_GPRS_MMI/plutommi/Customer/ResGenerator/gcctmp/ccaodaaa.s:7304   .text:000041a5 _Load_Image_Data_Tool
d:/MTK/MTK2503/MTK2503/11CW1418SP4_03_CORETEK03AE_11C_V1_GPRS_MMI/plutommi/Customer/ResGenerator/gcctmp/ccaodaaa.s:7504   .text:00004416 _Load_Image_Data
d:/MTK/MTK2503/MTK2503/11CW1418SP4_03_CORETEK03AE_11C_V1_GPRS_MMI/plutommi/Customer/ResGenerator/gcctmp/ccaodaaa.s:8310   .text:00004f75 _mmi_rg_get_9slice_header
d:/MTK/MTK2503/MTK2503/11CW1418SP4_03_CORETEK03AE_11C_V1_GPRS_MMI/plutommi/Customer/ResGenerator/gcctmp/ccaodaaa.s:8709   .text:0000540d _SetFontResource
                            *COM*:0403fc00 _g_resimg_table
d:/MTK/MTK2503/MTK2503/11CW1418SP4_03_CORETEK03AE_11C_V1_GPRS_MMI/plutommi/Customer/ResGenerator/gcctmp/ccaodaaa.s:9896   .text:000065ec _isSubmenuImage
d:/MTK/MTK2503/MTK2503/11CW1418SP4_03_CORETEK03AE_11C_V1_GPRS_MMI/plutommi/Customer/ResGenerator/gcctmp/ccaodaaa.s:9956   .text:00006653 _get_available_image_filename
d:/MTK/MTK2503/MTK2503/11CW1418SP4_03_CORETEK03AE_11C_V1_GPRS_MMI/plutommi/Customer/ResGenerator/gcctmp/ccaodaaa.s:9329   .text:00005e87 _Fload
d:/MTK/MTK2503/MTK2503/11CW1418SP4_03_CORETEK03AE_11C_V1_GPRS_MMI/plutommi/Customer/ResGenerator/gcctmp/ccaodaaa.s:8794   .text:000055b5 _SetFontWithBuffer
d:/MTK/MTK2503/MTK2503/11CW1418SP4_03_CORETEK03AE_11C_V1_GPRS_MMI/plutommi/Customer/ResGenerator/gcctmp/ccaodaaa.s:7878   .text:00004963 _mmi_rg_write_9slice_header
d:/MTK/MTK2503/MTK2503/11CW1418SP4_03_CORETEK03AE_11C_V1_GPRS_MMI/plutommi/Customer/ResGenerator/gcctmp/ccaodaaa.s:3129   .text:00000d16 _Iload

UNDEFINED SYMBOLS
__alloca
__imp___iob
_toolFlag
_resultFailFlag
_support_media_ext
_dest_file
_sequential_image
_font_data_file
_CurrMaxFontIdEXT
_CurrMaxFontNumEXT
_FontNameListEXT
_FontIdMapEXT
_OutputImgIDFile
_RepeatIDListFile
_fpImageResourceUsage
_g_mmi_resource_base_table
_font_data_lis
_font_data_modis_lis
_font_ttf_lis
_reslog_adaptor_fatal_error_pending_log
_GetOffsetFromResourceBase
_atoi
_fgets
_fputc
GAS LISTING d:/MTK/MTK2503/MTK2503/11CW1418SP4_03_CORETEK03AE_11C_V1_GPRS_MMI/plutommi/Customer/ResGenerator/gcctmp/ccaodaaa.s 			page 226


_fwrite
_ABM_load
_fscanf
_fgetc
_Image_Get_Dimensions
_ImageOutStreamAppend
_fread
_feof
_ABMLoader
_BMPLoader
_GIFLoader
_ftell
_fseek
_bmp2ems
_ImageOutStreamPrintf
_is16BitBMP
_system
_sprintf
_resgen_compare_file_time
_MtkResgenTrace
_ChangeExtension
_ExtractExtension
_free
_strcat
_strstr
_Extract_Name
_malloc
_fflush
_str_upper
_exit
__assert
_reslog_adaptor_log
_strcmp
_strcpy
_strlen
_fclose
_strncpy
_memset
_fprintf
_fopen
_file_exist
