GAS LISTING d:/MTK/MTK2503/MTK2503/11CW1418SP4_03_CORETEK03AE_11C_V1_GPRS_MMI/plutommi/Customer/ResGenerator/gcctmp/cck7daaa.s 			page 1


   1              		.file	"WriteProcess.cpp"
   4              		.text
   5              	Ltext0:
 2780              	.lcomm __ZSt8__ioinit,16
 2829              		.align 32
 2830              	LC0:
 2831 0000 2E2E2F2E 		.ascii "../../MMI/Resource/WriteProcess.cpp\0"
 2831      2E2F4D4D 
 2831      492F5265 
 2831      736F7572 
 2831      63652F57 
 2832              	LC1:
 2833 0024 66616C73 		.ascii "false\0"
 2833      6500
 2834              	LC2:
 2835 002a 00       		.ascii "\0"
 2836 002b 90       		.align 2
 2839              	.globl _initImageProcessData
 2841              	_initImageProcessData:
   1:../../MMI/Resource/WriteProcess.cpp **** /*****************************************************************************
   2:../../MMI/Resource/WriteProcess.cpp **** *  Copyright Statement:
   3:../../MMI/Resource/WriteProcess.cpp **** *  --------------------
   4:../../MMI/Resource/WriteProcess.cpp **** *  This software is protected by Copyright and the information contained
   5:../../MMI/Resource/WriteProcess.cpp **** *  herein is confidential. The software may not be copied and the information
   6:../../MMI/Resource/WriteProcess.cpp **** *  contained herein may not be used or disclosed except with the written
   7:../../MMI/Resource/WriteProcess.cpp **** *  permission of MediaTek Inc. (C) 2005
   8:../../MMI/Resource/WriteProcess.cpp **** *
   9:../../MMI/Resource/WriteProcess.cpp **** *  BY OPENING THIS FILE, BUYER HEREBY UNEQUIVOCALLY ACKNOWLEDGES AND AGREES
  10:../../MMI/Resource/WriteProcess.cpp **** *  THAT THE SOFTWARE/FIRMWARE AND ITS DOCUMENTATIONS ("MEDIATEK SOFTWARE")
  11:../../MMI/Resource/WriteProcess.cpp **** *  RECEIVED FROM MEDIATEK AND/OR ITS REPRESENTATIVES ARE PROVIDED TO BUYER ON
  12:../../MMI/Resource/WriteProcess.cpp **** *  AN "AS-IS" BASIS ONLY. MEDIATEK EXPRESSLY DISCLAIMS ANY AND ALL WARRANTIES,
  13:../../MMI/Resource/WriteProcess.cpp **** *  EXPRESS OR IMPLIED, INCLUDING BUT NOT LIMITED TO THE IMPLIED WARRANTIES OF
  14:../../MMI/Resource/WriteProcess.cpp **** *  MERCHANTABILITY, FITNESS FOR A PARTICULAR PURPOSE OR NONINFRINGEMENT.
  15:../../MMI/Resource/WriteProcess.cpp **** *  NEITHER DOES MEDIATEK PROVIDE ANY WARRANTY WHATSOEVER WITH RESPECT TO THE
  16:../../MMI/Resource/WriteProcess.cpp **** *  SOFTWARE OF ANY THIRD PARTY WHICH MAY BE USED BY, INCORPORATED IN, OR
  17:../../MMI/Resource/WriteProcess.cpp **** *  SUPPLIED WITH THE MEDIATEK SOFTWARE, AND BUYER AGREES TO LOOK ONLY TO SUCH
  18:../../MMI/Resource/WriteProcess.cpp **** *  THIRD PARTY FOR ANY WARRANTY CLAIM RELATING THERETO. MEDIATEK SHALL ALSO
  19:../../MMI/Resource/WriteProcess.cpp **** *  NOT BE RESPONSIBLE FOR ANY MEDIATEK SOFTWARE RELEASES MADE TO BUYER'S
  20:../../MMI/Resource/WriteProcess.cpp **** *  SPECIFICATION OR TO CONFORM TO A PARTICULAR STANDARD OR OPEN FORUM.
  21:../../MMI/Resource/WriteProcess.cpp **** *
  22:../../MMI/Resource/WriteProcess.cpp **** *  BUYER'S SOLE AND EXCLUSIVE REMEDY AND MEDIATEK'S ENTIRE AND CUMULATIVE
  23:../../MMI/Resource/WriteProcess.cpp **** *  LIABILITY WITH RESPECT TO THE MEDIATEK SOFTWARE RELEASED HEREUNDER WILL BE,
  24:../../MMI/Resource/WriteProcess.cpp **** *  AT MEDIATEK'S OPTION, TO REVISE OR REPLACE THE MEDIATEK SOFTWARE AT ISSUE,
  25:../../MMI/Resource/WriteProcess.cpp **** *  OR REFUND ANY SOFTWARE LICENSE FEES OR SERVICE CHARGE PAID BY BUYER TO
  26:../../MMI/Resource/WriteProcess.cpp **** *  MEDIATEK FOR SUCH MEDIATEK SOFTWARE AT ISSUE.
  27:../../MMI/Resource/WriteProcess.cpp **** *
  28:../../MMI/Resource/WriteProcess.cpp **** *  THE TRANSACTION CONTEMPLATED HEREUNDER SHALL BE CONSTRUED IN ACCORDANCE
  29:../../MMI/Resource/WriteProcess.cpp **** *  WITH THE LAWS OF THE STATE OF CALIFORNIA, USA, EXCLUDING ITS CONFLICT OF
  30:../../MMI/Resource/WriteProcess.cpp **** *  LAWS PRINCIPLES.  ANY DISPUTES, CONTROVERSIES OR CLAIMS ARISING THEREOF AND
  31:../../MMI/Resource/WriteProcess.cpp **** *  RELATED THERETO SHALL BE SETTLED BY ARBITRATION IN SAN FRANCISCO, CA, UNDER
  32:../../MMI/Resource/WriteProcess.cpp **** *  THE RULES OF THE INTERNATIONAL CHAMBER OF COMMERCE (ICC).
  33:../../MMI/Resource/WriteProcess.cpp **** *
  34:../../MMI/Resource/WriteProcess.cpp **** *****************************************************************************/
  35:../../MMI/Resource/WriteProcess.cpp **** 
  36:../../MMI/Resource/WriteProcess.cpp **** /*****************************************************************************
  37:../../MMI/Resource/WriteProcess.cpp ****  *
  38:../../MMI/Resource/WriteProcess.cpp ****  * Filename:
GAS LISTING d:/MTK/MTK2503/MTK2503/11CW1418SP4_03_CORETEK03AE_11C_V1_GPRS_MMI/plutommi/Customer/ResGenerator/gcctmp/cck7daaa.s 			page 2


  39:../../MMI/Resource/WriteProcess.cpp ****  * ---------
  40:../../MMI/Resource/WriteProcess.cpp ****  *   WriteProcess.c
  41:../../MMI/Resource/WriteProcess.cpp ****  *
  42:../../MMI/Resource/WriteProcess.cpp ****  * Project:
  43:../../MMI/Resource/WriteProcess.cpp ****  * --------
  44:../../MMI/Resource/WriteProcess.cpp ****  *   MAUI
  45:../../MMI/Resource/WriteProcess.cpp ****  *
  46:../../MMI/Resource/WriteProcess.cpp ****  * Description:
  47:../../MMI/Resource/WriteProcess.cpp ****  * ------------
  48:../../MMI/Resource/WriteProcess.cpp ****  *
  49:../../MMI/Resource/WriteProcess.cpp ****  *
  50:../../MMI/Resource/WriteProcess.cpp ****  * Author:
  51:../../MMI/Resource/WriteProcess.cpp ****  * -------
  52:../../MMI/Resource/WriteProcess.cpp ****  * -------
  53:../../MMI/Resource/WriteProcess.cpp ****  *
  54:../../MMI/Resource/WriteProcess.cpp ****  *============================================================================
  55:../../MMI/Resource/WriteProcess.cpp ****  *             HISTORY
  56:../../MMI/Resource/WriteProcess.cpp ****  * Below this line, this part is controlled by PVCS VM. DO NOT MODIFY!!
  57:../../MMI/Resource/WriteProcess.cpp ****  *------------------------------------------------------------------------------
  58:../../MMI/Resource/WriteProcess.cpp ****  * removed!
  59:../../MMI/Resource/WriteProcess.cpp ****  *
  60:../../MMI/Resource/WriteProcess.cpp ****  * removed!
  61:../../MMI/Resource/WriteProcess.cpp ****  * removed!
  62:../../MMI/Resource/WriteProcess.cpp ****  * removed!
  63:../../MMI/Resource/WriteProcess.cpp ****  *
  64:../../MMI/Resource/WriteProcess.cpp ****  * removed!
  65:../../MMI/Resource/WriteProcess.cpp ****  * removed!
  66:../../MMI/Resource/WriteProcess.cpp ****  * removed!
  67:../../MMI/Resource/WriteProcess.cpp ****  *
  68:../../MMI/Resource/WriteProcess.cpp ****  * removed!
  69:../../MMI/Resource/WriteProcess.cpp ****  * removed!
  70:../../MMI/Resource/WriteProcess.cpp ****  * removed!
  71:../../MMI/Resource/WriteProcess.cpp ****  *
  72:../../MMI/Resource/WriteProcess.cpp ****  * removed!
  73:../../MMI/Resource/WriteProcess.cpp ****  * removed!
  74:../../MMI/Resource/WriteProcess.cpp ****  * removed!
  75:../../MMI/Resource/WriteProcess.cpp ****  *
  76:../../MMI/Resource/WriteProcess.cpp ****  * removed!
  77:../../MMI/Resource/WriteProcess.cpp ****  * removed!
  78:../../MMI/Resource/WriteProcess.cpp ****  * removed!
  79:../../MMI/Resource/WriteProcess.cpp ****  *
  80:../../MMI/Resource/WriteProcess.cpp ****  * removed!
  81:../../MMI/Resource/WriteProcess.cpp ****  * removed!
  82:../../MMI/Resource/WriteProcess.cpp ****  * removed!
  83:../../MMI/Resource/WriteProcess.cpp ****  *
  84:../../MMI/Resource/WriteProcess.cpp ****  * removed!
  85:../../MMI/Resource/WriteProcess.cpp ****  * removed!
  86:../../MMI/Resource/WriteProcess.cpp ****  * removed!
  87:../../MMI/Resource/WriteProcess.cpp ****  *
  88:../../MMI/Resource/WriteProcess.cpp ****  * removed!
  89:../../MMI/Resource/WriteProcess.cpp ****  * removed!
  90:../../MMI/Resource/WriteProcess.cpp ****  * removed!
  91:../../MMI/Resource/WriteProcess.cpp ****  *
  92:../../MMI/Resource/WriteProcess.cpp ****  * removed!
  93:../../MMI/Resource/WriteProcess.cpp ****  * removed!
  94:../../MMI/Resource/WriteProcess.cpp ****  * removed!
  95:../../MMI/Resource/WriteProcess.cpp ****  *
GAS LISTING d:/MTK/MTK2503/MTK2503/11CW1418SP4_03_CORETEK03AE_11C_V1_GPRS_MMI/plutommi/Customer/ResGenerator/gcctmp/cck7daaa.s 			page 3


  96:../../MMI/Resource/WriteProcess.cpp ****  * removed!
  97:../../MMI/Resource/WriteProcess.cpp ****  * removed!
  98:../../MMI/Resource/WriteProcess.cpp ****  * removed!
  99:../../MMI/Resource/WriteProcess.cpp ****  *
 100:../../MMI/Resource/WriteProcess.cpp ****  * removed!
 101:../../MMI/Resource/WriteProcess.cpp ****  * removed!
 102:../../MMI/Resource/WriteProcess.cpp ****  * removed!
 103:../../MMI/Resource/WriteProcess.cpp ****  *
 104:../../MMI/Resource/WriteProcess.cpp ****  * removed!
 105:../../MMI/Resource/WriteProcess.cpp ****  * removed!
 106:../../MMI/Resource/WriteProcess.cpp ****  * removed!
 107:../../MMI/Resource/WriteProcess.cpp ****  *
 108:../../MMI/Resource/WriteProcess.cpp ****  * removed!
 109:../../MMI/Resource/WriteProcess.cpp ****  * removed!
 110:../../MMI/Resource/WriteProcess.cpp ****  * removed!
 111:../../MMI/Resource/WriteProcess.cpp ****  *
 112:../../MMI/Resource/WriteProcess.cpp ****  * removed!
 113:../../MMI/Resource/WriteProcess.cpp ****  * removed!
 114:../../MMI/Resource/WriteProcess.cpp ****  * removed!
 115:../../MMI/Resource/WriteProcess.cpp ****  *
 116:../../MMI/Resource/WriteProcess.cpp ****  * removed!
 117:../../MMI/Resource/WriteProcess.cpp ****  * removed!
 118:../../MMI/Resource/WriteProcess.cpp ****  * removed!
 119:../../MMI/Resource/WriteProcess.cpp ****  *
 120:../../MMI/Resource/WriteProcess.cpp ****  * removed!
 121:../../MMI/Resource/WriteProcess.cpp ****  * removed!
 122:../../MMI/Resource/WriteProcess.cpp ****  * removed!
 123:../../MMI/Resource/WriteProcess.cpp ****  *
 124:../../MMI/Resource/WriteProcess.cpp ****  * removed!
 125:../../MMI/Resource/WriteProcess.cpp ****  * removed!
 126:../../MMI/Resource/WriteProcess.cpp ****  * removed!
 127:../../MMI/Resource/WriteProcess.cpp ****  *
 128:../../MMI/Resource/WriteProcess.cpp ****  * removed!
 129:../../MMI/Resource/WriteProcess.cpp ****  * removed!
 130:../../MMI/Resource/WriteProcess.cpp ****  * removed!
 131:../../MMI/Resource/WriteProcess.cpp ****  *
 132:../../MMI/Resource/WriteProcess.cpp ****  * removed!
 133:../../MMI/Resource/WriteProcess.cpp ****  * removed!
 134:../../MMI/Resource/WriteProcess.cpp ****  * removed!
 135:../../MMI/Resource/WriteProcess.cpp ****  *
 136:../../MMI/Resource/WriteProcess.cpp ****  * removed!
 137:../../MMI/Resource/WriteProcess.cpp ****  * removed!
 138:../../MMI/Resource/WriteProcess.cpp ****  * removed!
 139:../../MMI/Resource/WriteProcess.cpp ****  *
 140:../../MMI/Resource/WriteProcess.cpp ****  * removed!
 141:../../MMI/Resource/WriteProcess.cpp ****  * removed!
 142:../../MMI/Resource/WriteProcess.cpp ****  * removed!
 143:../../MMI/Resource/WriteProcess.cpp ****  *
 144:../../MMI/Resource/WriteProcess.cpp ****  * removed!
 145:../../MMI/Resource/WriteProcess.cpp ****  * removed!
 146:../../MMI/Resource/WriteProcess.cpp ****  * removed!
 147:../../MMI/Resource/WriteProcess.cpp ****  * removed!
 148:../../MMI/Resource/WriteProcess.cpp ****  * removed!
 149:../../MMI/Resource/WriteProcess.cpp ****  *
 150:../../MMI/Resource/WriteProcess.cpp ****  * removed!
 151:../../MMI/Resource/WriteProcess.cpp ****  * removed!
 152:../../MMI/Resource/WriteProcess.cpp ****  * removed!
GAS LISTING d:/MTK/MTK2503/MTK2503/11CW1418SP4_03_CORETEK03AE_11C_V1_GPRS_MMI/plutommi/Customer/ResGenerator/gcctmp/cck7daaa.s 			page 4


 153:../../MMI/Resource/WriteProcess.cpp ****  *
 154:../../MMI/Resource/WriteProcess.cpp ****  * removed!
 155:../../MMI/Resource/WriteProcess.cpp ****  * removed!
 156:../../MMI/Resource/WriteProcess.cpp ****  * removed!
 157:../../MMI/Resource/WriteProcess.cpp ****  *
 158:../../MMI/Resource/WriteProcess.cpp ****  * removed!
 159:../../MMI/Resource/WriteProcess.cpp ****  * removed!
 160:../../MMI/Resource/WriteProcess.cpp ****  * removed!
 161:../../MMI/Resource/WriteProcess.cpp ****  *
 162:../../MMI/Resource/WriteProcess.cpp ****  * removed!
 163:../../MMI/Resource/WriteProcess.cpp ****  * removed!
 164:../../MMI/Resource/WriteProcess.cpp ****  * removed!
 165:../../MMI/Resource/WriteProcess.cpp ****  *
 166:../../MMI/Resource/WriteProcess.cpp ****  * removed!
 167:../../MMI/Resource/WriteProcess.cpp ****  * removed!
 168:../../MMI/Resource/WriteProcess.cpp ****  * removed!
 169:../../MMI/Resource/WriteProcess.cpp ****  *
 170:../../MMI/Resource/WriteProcess.cpp ****  * removed!
 171:../../MMI/Resource/WriteProcess.cpp ****  * removed!
 172:../../MMI/Resource/WriteProcess.cpp ****  * removed!
 173:../../MMI/Resource/WriteProcess.cpp ****  *
 174:../../MMI/Resource/WriteProcess.cpp ****  * removed!
 175:../../MMI/Resource/WriteProcess.cpp ****  * removed!
 176:../../MMI/Resource/WriteProcess.cpp ****  * removed!
 177:../../MMI/Resource/WriteProcess.cpp ****  *
 178:../../MMI/Resource/WriteProcess.cpp ****  * removed!
 179:../../MMI/Resource/WriteProcess.cpp ****  * removed!
 180:../../MMI/Resource/WriteProcess.cpp ****  * removed!
 181:../../MMI/Resource/WriteProcess.cpp ****  *
 182:../../MMI/Resource/WriteProcess.cpp ****  * removed!
 183:../../MMI/Resource/WriteProcess.cpp ****  * removed!
 184:../../MMI/Resource/WriteProcess.cpp ****  * removed!
 185:../../MMI/Resource/WriteProcess.cpp ****  *
 186:../../MMI/Resource/WriteProcess.cpp ****  * removed!
 187:../../MMI/Resource/WriteProcess.cpp ****  * removed!
 188:../../MMI/Resource/WriteProcess.cpp ****  * removed!
 189:../../MMI/Resource/WriteProcess.cpp ****  *
 190:../../MMI/Resource/WriteProcess.cpp ****  *
 191:../../MMI/Resource/WriteProcess.cpp ****  *
 192:../../MMI/Resource/WriteProcess.cpp ****  *------------------------------------------------------------------------------
 193:../../MMI/Resource/WriteProcess.cpp ****  * Upper this line, this part is controlled by PVCS VM. DO NOT MODIFY!!
 194:../../MMI/Resource/WriteProcess.cpp ****  *============================================================================
 195:../../MMI/Resource/WriteProcess.cpp ****  *******************************************************************************/
 196:../../MMI/Resource/WriteProcess.cpp **** 
 197:../../MMI/Resource/WriteProcess.cpp **** //#include "mmi_features.h"
 198:../../MMI/Resource/WriteProcess.cpp **** extern "C"
 199:../../MMI/Resource/WriteProcess.cpp **** {
 200:../../MMI/Resource/WriteProcess.cpp **** #include "CustDataRes.h"
 201:../../MMI/Resource/WriteProcess.cpp **** #include "CustDataProts.h" // for AUTO_TYPE
 202:../../MMI/Resource/WriteProcess.cpp **** #include "WriteResUtil.h"
 203:../../MMI/Resource/WriteProcess.cpp **** #include "ExternalCMDManagerCAPI.h"
 204:../../MMI/Resource/WriteProcess.cpp **** #include "ResgenLogCAPI.h"
 205:../../MMI/Resource/WriteProcess.cpp **** #include "ResgenConfiguratorCAPI.h"
 206:../../MMI/Resource/WriteProcess.cpp **** }
 207:../../MMI/Resource/WriteProcess.cpp **** 
 208:../../MMI/Resource/WriteProcess.cpp **** #include <string>
 209:../../MMI/Resource/WriteProcess.cpp **** //#include <cctype>
GAS LISTING d:/MTK/MTK2503/MTK2503/11CW1418SP4_03_CORETEK03AE_11C_V1_GPRS_MMI/plutommi/Customer/ResGenerator/gcctmp/cck7daaa.s 			page 5


 210:../../MMI/Resource/WriteProcess.cpp **** #include <vector>
 211:../../MMI/Resource/WriteProcess.cpp **** #include <list>
 212:../../MMI/Resource/WriteProcess.cpp **** #include <assert.h>
 213:../../MMI/Resource/WriteProcess.cpp **** 
 214:../../MMI/Resource/WriteProcess.cpp **** #define WIN32_LEAN_AND_MEAN
 215:../../MMI/Resource/WriteProcess.cpp **** #include "windows.h"
 216:../../MMI/Resource/WriteProcess.cpp **** 
 217:../../MMI/Resource/WriteProcess.cpp **** #include "ThreadPool.h"
 218:../../MMI/Resource/WriteProcess.cpp **** #include "OfflineResParam.h"
 219:../../MMI/Resource/WriteProcess.cpp **** 
 220:../../MMI/Resource/WriteProcess.cpp **** #include "ImageGroupCreator.h"
 221:../../MMI/Resource/WriteProcess.cpp **** using namespace std;
 222:../../MMI/Resource/WriteProcess.cpp **** 
 223:../../MMI/Resource/WriteProcess.cpp **** 
 224:../../MMI/Resource/WriteProcess.cpp **** #define DEFAULT_FILEBUFFER          "________CUSTOMER__IMAGES__DEFAULT_BMP"
 225:../../MMI/Resource/WriteProcess.cpp **** #define DEFAULT_IAMGE_DATA          "..\\..\\Customer\\Images\\Default.bmp"
 226:../../MMI/Resource/WriteProcess.cpp **** #define OUTPUT_DATA_FILENAME        "..\\..\\Customer\\CustResource\\CustImgDataHW.h"
 227:../../MMI/Resource/WriteProcess.cpp **** #define OUTPUT_DATA_FILENAME_EXT    "..\\..\\Customer\\CustResource\\CustImgDataHWExt.h"
 228:../../MMI/Resource/WriteProcess.cpp **** #define OUTPUT_IMG_GROUP_CONTENT_META_FILENAME "..\\..\\Customer\\CustResource\\CustImgDataMeta.txt
 229:../../MMI/Resource/WriteProcess.cpp **** 
 230:../../MMI/Resource/WriteProcess.cpp **** 
 231:../../MMI/Resource/WriteProcess.cpp **** #define IMGPROC_TAG  "WRITEPROCESS"
 232:../../MMI/Resource/WriteProcess.cpp **** 
 233:../../MMI/Resource/WriteProcess.cpp **** #define IMGPROC_LOG_D(format, args...) RES_LOG_D((IMGPROC_TAG), (format) , ##args)
 234:../../MMI/Resource/WriteProcess.cpp **** #define IMGPROC_LOG_V(format, args...) RES_LOG_V((IMGPROC_TAG), (format) , ##args)
 235:../../MMI/Resource/WriteProcess.cpp **** #define IMGPROC_LOG_W(format, args...) RES_LOG_W((IMGPROC_TAG), (format) , ##args)
 236:../../MMI/Resource/WriteProcess.cpp **** #define IMGPROC_LOG_E(format, args...) RES_LOG_E((IMGPROC_TAG), (format) , ##args)
 237:../../MMI/Resource/WriteProcess.cpp **** 
 238:../../MMI/Resource/WriteProcess.cpp **** 
 239:../../MMI/Resource/WriteProcess.cpp **** // global variables
 240:../../MMI/Resource/WriteProcess.cpp **** extern FILE *OutputImgIDFile; // defined in PopulateRes.c
 241:../../MMI/Resource/WriteProcess.cpp **** extern CUSTOM_IMAGE_MAP ImageIdMapEXT[]; // defined in CustResDeclare.c
 242:../../MMI/Resource/WriteProcess.cpp **** extern CUSTOM_IMAGE_MAP ImageIdMap[]; // defined in CustResDeclare.c
 243:../../MMI/Resource/WriteProcess.cpp **** 
 244:../../MMI/Resource/WriteProcess.cpp **** extern IMAGENAME_LIST ImageNameList[]; // also used in WriteImgRes.c
 245:../../MMI/Resource/WriteProcess.cpp **** extern IMAGENAME_LIST ImageNameListEXT[]; // also used in WriteImgRes.c
 246:../../MMI/Resource/WriteProcess.cpp **** extern U16 CurrMaxImageNumEXT; // also used in WriteImgRes.c
 247:../../MMI/Resource/WriteProcess.cpp **** extern U16 CurrMaxImageNum; // also used in WriteRes.c
 248:../../MMI/Resource/WriteProcess.cpp **** 
 249:../../MMI/Resource/WriteProcess.cpp **** extern U32 image_idx; // XXX, defined in WriteImgRes.c
 250:../../MMI/Resource/WriteProcess.cpp **** extern U16 CurrMaxImageId; // also used in WriteImgRes.c
 251:../../MMI/Resource/WriteProcess.cpp **** extern U32 g_resimg_count; // XXX, defined in WriteImgRes.c
 252:../../MMI/Resource/WriteProcess.cpp **** extern CUSTOM_RESOURCE_SIZE g_resimg_table[MAX_IMAGE_IDS_SIZE]; // XXX, defined in WriteImgRes.c
 253:../../MMI/Resource/WriteProcess.cpp **** 
 254:../../MMI/Resource/WriteProcess.cpp **** extern FILE *fpImageResourceUsage; // defined in PopulateRes.c
 255:../../MMI/Resource/WriteProcess.cpp **** extern FILE *fpImageResourceUsageExt; // defined in PopulateRes.c
 256:../../MMI/Resource/WriteProcess.cpp **** extern "C" U32 GetOffsetFromResourceBase(U16 ImageID, U8* enum_value); // in WriteRes.c
 257:../../MMI/Resource/WriteProcess.cpp **** extern mmi_resource_base_struct g_mmi_resource_base_table[]; // for RESPRTONERECORD()
 258:../../MMI/Resource/WriteProcess.cpp **** 
 259:../../MMI/Resource/WriteProcess.cpp **** extern U16 CurrMaxImageIdEXT;
 260:../../MMI/Resource/WriteProcess.cpp **** 
 261:../../MMI/Resource/WriteProcess.cpp **** extern FILE *RepeatIDListFile; // also used in WriteRes.c
 262:../../MMI/Resource/WriteProcess.cpp **** 
 263:../../MMI/Resource/WriteProcess.cpp **** // ENFB
 264:../../MMI/Resource/WriteProcess.cpp **** #if defined(__MULTIPLE_BINARY_FILES__) && defined(__MMI_RESOURCE_ENFB_SUPPORT__)
 265:../../MMI/Resource/WriteProcess.cpp **** extern "C" MMI_BOOL CustPack_ENFB_image_test(const S8 *filename, int disable_enfb);
 266:../../MMI/Resource/WriteProcess.cpp **** 
GAS LISTING d:/MTK/MTK2503/MTK2503/11CW1418SP4_03_CORETEK03AE_11C_V1_GPRS_MMI/plutommi/Customer/ResGenerator/gcctmp/cck7daaa.s 			page 6


 267:../../MMI/Resource/WriteProcess.cpp **** #endif /* defined(__MULTIPLE_BINARY_FILES__) && defined(__MMI_RESOURCE_ENFB_SUPPORT__) */
 268:../../MMI/Resource/WriteProcess.cpp **** 
 269:../../MMI/Resource/WriteProcess.cpp **** #ifdef __MMI_RESOURCE_ENFB_SUPPORT__
 270:../../MMI/Resource/WriteProcess.cpp **** extern int disableENFB;
 271:../../MMI/Resource/WriteProcess.cpp **** #endif // __MMI_RESOURCE_ENFB_SUPPORT__
 272:../../MMI/Resource/WriteProcess.cpp **** 
 273:../../MMI/Resource/WriteProcess.cpp **** // local functions
 274:../../MMI/Resource/WriteProcess.cpp **** static void ProcessBinaryData();
 275:../../MMI/Resource/WriteProcess.cpp **** 
 276:../../MMI/Resource/WriteProcess.cpp **** struct _ResgenImageOutStream
 277:../../MMI/Resource/WriteProcess.cpp **** {
 278:../../MMI/Resource/WriteProcess.cpp ****     int data_size;
 279:../../MMI/Resource/WriteProcess.cpp ****     char * data;
 280:../../MMI/Resource/WriteProcess.cpp **** 
 281:../../MMI/Resource/WriteProcess.cpp ****     _ResgenImageOutStream():data_size(0), data(NULL)
 282:../../MMI/Resource/WriteProcess.cpp ****     {
 283:../../MMI/Resource/WriteProcess.cpp ****     }
 284:../../MMI/Resource/WriteProcess.cpp **** 
 285:../../MMI/Resource/WriteProcess.cpp ****     ~_ResgenImageOutStream()
 286:../../MMI/Resource/WriteProcess.cpp ****     {
 287:../../MMI/Resource/WriteProcess.cpp ****         delete data;
 288:../../MMI/Resource/WriteProcess.cpp ****     }
 289:../../MMI/Resource/WriteProcess.cpp **** };
 290:../../MMI/Resource/WriteProcess.cpp **** 
 291:../../MMI/Resource/WriteProcess.cpp **** void SetImageWithBufferEx(
 292:../../MMI/Resource/WriteProcess.cpp ****                           U16 nImgId,
 293:../../MMI/Resource/WriteProcess.cpp ****                           S8 *filename,
 294:../../MMI/Resource/WriteProcess.cpp ****                           S8 *enum_value,
 295:../../MMI/Resource/WriteProcess.cpp ****                           BOOL imgFlag,
 296:../../MMI/Resource/WriteProcess.cpp ****                           S32 force_type);
 297:../../MMI/Resource/WriteProcess.cpp **** 
 298:../../MMI/Resource/WriteProcess.cpp **** void SetImageQWithBufferEx(
 299:../../MMI/Resource/WriteProcess.cpp ****                            U16 nImgId,
 300:../../MMI/Resource/WriteProcess.cpp ****                            S8 *filename,
 301:../../MMI/Resource/WriteProcess.cpp ****                            S8 *enum_value,
 302:../../MMI/Resource/WriteProcess.cpp ****                            BOOL imgFlag,
 303:../../MMI/Resource/WriteProcess.cpp ****                            S32 force_type,
 304:../../MMI/Resource/WriteProcess.cpp ****                            S32 quality);
 305:../../MMI/Resource/WriteProcess.cpp **** 
 306:../../MMI/Resource/WriteProcess.cpp **** void initImageProcessData(SetImageProcessData * data)
 307:../../MMI/Resource/WriteProcess.cpp **** {
 2843              	LM1:
 2844 002c 55       		pushl	%ebp
 2845 002d 89E5     		movl	%esp, %ebp
 2846 002f 83EC18   		subl	$24, %esp
 308:../../MMI/Resource/WriteProcess.cpp ****     if (data == NULL)
 2848              	LM2:
 2849              	LBB2:
 2850 0032 837D0800 		cmpl	$0, 8(%ebp)
 2851 0036 751C     		jne	L2
 309:../../MMI/Resource/WriteProcess.cpp ****     {
 310:../../MMI/Resource/WriteProcess.cpp ****         assert(false);
 2853              	LM3:
 2854 0038 C7442408 		movl	$310, 8(%esp)
 2854      36010000 
 2855 0040 C7442404 		movl	$LC0, 4(%esp)
 2855      00000000 
GAS LISTING d:/MTK/MTK2503/MTK2503/11CW1418SP4_03_CORETEK03AE_11C_V1_GPRS_MMI/plutommi/Customer/ResGenerator/gcctmp/cck7daaa.s 			page 7


 2856 0048 C7042424 		movl	$LC1, (%esp)
 2856      000000
 2857 004f E8000000 		call	__assert
 2857      00
 2858              	L2:
 311:../../MMI/Resource/WriteProcess.cpp ****         return;
 312:../../MMI/Resource/WriteProcess.cpp ****     }
 313:../../MMI/Resource/WriteProcess.cpp ****     strcpy(data->real_filename, "");
 2860              	LM4:
 2861 0054 C7442404 		movl	$LC2, 4(%esp)
 2861      2A000000 
 2862 005c 8B4508   		movl	8(%ebp), %eax
 2863 005f 890424   		movl	%eax, (%esp)
 2864 0062 E8000000 		call	_strcpy
 2864      00
 314:../../MMI/Resource/WriteProcess.cpp ****     data->res_size = 0;
 2866              	LM5:
 2867 0067 8B4508   		movl	8(%ebp), %eax
 2868 006a C7800002 		movl	$0, 512(%eax)
 2868      00000000 
 2868      0000
 315:../../MMI/Resource/WriteProcess.cpp ****     data->failed = MMI_FALSE;
 2870              	LM6:
 2871 0074 8B4508   		movl	8(%ebp), %eax
 2872 0077 C7800802 		movl	$0, 520(%eax)
 2872      00000000 
 2872      0000
 316:../../MMI/Resource/WriteProcess.cpp ****     data->duplicated = MMI_FALSE;
 2874              	LM7:
 2875 0081 8B4508   		movl	8(%ebp), %eax
 2876 0084 C7800C02 		movl	$0, 524(%eax)
 2876      00000000 
 2876      0000
 317:../../MMI/Resource/WriteProcess.cpp ****     data->duplicatedInstance = NULL;
 2878              	LM8:
 2879 008e 8B4508   		movl	8(%ebp), %eax
 2880 0091 C7801002 		movl	$0, 528(%eax)
 2880      00000000 
 2880      0000
 318:../../MMI/Resource/WriteProcess.cpp ****     data->quality=ImageResParam::QUALITY_MEDIUM;
 2882              	LM9:
 2883 009b 8B5508   		movl	8(%ebp), %edx
 2884 009e A1000000 		movl	__ZN13ImageResParam14QUALITY_MEDIUME, %eax
 2884      00
 2885 00a3 89821402 		movl	%eax, 532(%edx)
 2885      0000
 319:../../MMI/Resource/WriteProcess.cpp ****     data->color_num = RES_IMG_COLOR_NUM_UNKNOWN;
 2887              	LM10:
 2888 00a9 8B4508   		movl	8(%ebp), %eax
 2889 00ac C7801802 		movl	$-1, 536(%eax)
 2889      0000FFFF 
 2889      FFFF
 320:../../MMI/Resource/WriteProcess.cpp **** #ifdef __MMI_RESOURCE_ENFB_SUPPORT__
 321:../../MMI/Resource/WriteProcess.cpp ****     data->enfb_flag = 0;
 322:../../MMI/Resource/WriteProcess.cpp ****     data->disable_enfb = 0;
 323:../../MMI/Resource/WriteProcess.cpp **** #endif
 324:../../MMI/Resource/WriteProcess.cpp **** }
GAS LISTING d:/MTK/MTK2503/MTK2503/11CW1418SP4_03_CORETEK03AE_11C_V1_GPRS_MMI/plutommi/Customer/ResGenerator/gcctmp/cck7daaa.s 			page 8


 2891              	LM11:
 2892 00b6 C9       		leave
 2893 00b7 C3       		ret
 2894              	LBE2:
 2895              	Lscope0:
 2901 00b8 908DB426 		.align 32
 2901      00000000 
 2902              	LC3:
 2903 00c0 5365744E 		.ascii "SetNFBImage: Populate NFB image: %s\0"
 2903      4642496D 
 2903      6167653A 
 2903      20506F70 
 2903      756C6174 
 2904              	LC4:
 2905 00e4 57524954 		.ascii "WRITEPROCESS\0"
 2905      4550524F 
 2905      43455353 
 2905      00
 2906 00f1 EB0D9090 		.align 32
 2906      90909090 
 2906      90909090 
 2906      909090
 2907              	LC5:
 2908 0100 2E2E5C2E 		.ascii "..\\..\\Customer\\CustResource\\CustNFBProgressImg.h\0"
 2908      2E5C4375 
 2908      73746F6D 
 2908      65725C43 
 2908      75737452 
 2909              	LC6:
 2910 0131 616200   		.ascii "ab\0"
 2911 0134 8DB60000 		.align 32
 2911      00008DBF 
 2911      00000000 
 2912              	LC7:
 2913 0140 5365744E 		.ascii "SetNFBImage: Open NFB image output file: %s, file descriptor: 0x%x\0"
 2913      4642496D 
 2913      6167653A 
 2913      204F7065 
 2913      6E204E46 
 2914 0183 90909090 		.align 32
 2914      90909090 
 2914      90909090 
 2914      90909090 
 2914      90909090 
 2915              	LC8:
 2916 01a0 5365744E 		.ascii "SetNFBImage: File descriptor can't be NULL for %s, retry... \0"
 2916      4642496D 
 2916      6167653A 
 2916      2046696C 
 2916      65206465 
 2917 01dd 8D7600   		.align 32
 2918              	LC9:
 2919 01e0 5365744E 		.ascii "SetNFBImage: Write NFB image data to %s, file descriptor: 0x%x\0"
 2919      4642496D 
 2919      6167653A 
 2919      20577269 
 2919      7465204E 
GAS LISTING d:/MTK/MTK2503/MTK2503/11CW1418SP4_03_CORETEK03AE_11C_V1_GPRS_MMI/plutommi/Customer/ResGenerator/gcctmp/cck7daaa.s 			page 9


 2920 021f 90       		.align 32
 2921              	LC10:
 2922 0220 5365744E 		.ascii "SetNFBImage: Close NFB image output file: %s, file descriptor: 0x%x\0"
 2922      4642496D 
 2922      6167653A 
 2922      20436C6F 
 2922      7365204E 
 2923              		.align 2
 2926              	.globl _SetNFBImage
 2928              	_SetNFBImage:
 325:../../MMI/Resource/WriteProcess.cpp **** 
 326:../../MMI/Resource/WriteProcess.cpp **** extern "C" void SetNFBImage(S8 *filename)
 327:../../MMI/Resource/WriteProcess.cpp **** {
 2930              	LM12:
 2931 0264 55       		pushl	%ebp
 2932 0265 89E5     		movl	%esp, %ebp
 2933 0267 57       		pushl	%edi
 2934 0268 56       		pushl	%esi
 2935 0269 53       		pushl	%ebx
 2936 026a 81EC9C02 		subl	$668, %esp
 2936      0000
 2937 0270 C7859CFD 		movl	$___gxx_personality_sj0, -612(%ebp)
 2937      FFFF0000 
 2937      0000
 2938 027a C785A0FD 		movl	$LLSDA2137, -608(%ebp)
 2938      FFFF0000 
 2938      0000
 2939 0284 8D85A4FD 		leal	-604(%ebp), %eax
 2939      FFFF
 2940 028a 8D55E8   		leal	-24(%ebp), %edx
 2941 028d 8910     		movl	%edx, (%eax)
 2942 028f BAD80400 		movl	$L13, %edx
 2942      00
 2943 0294 895004   		movl	%edx, 4(%eax)
 2944 0297 896008   		movl	%esp, 8(%eax)
 2945 029a 8D8584FD 		leal	-636(%ebp), %eax
 2945      FFFF
 2946 02a0 890424   		movl	%eax, (%esp)
 2947 02a3 E8000000 		call	__Unwind_SjLj_Register
 2947      00
 328:../../MMI/Resource/WriteProcess.cpp ****     IMGPROC_LOG_V("SetNFBImage: Populate NFB image: %s", filename);
 2949              	LM13:
 2950              	LBB3:
 2951 02a8 8B4508   		movl	8(%ebp), %eax
 2952 02ab 8944240C 		movl	%eax, 12(%esp)
 2953 02af C7442408 		movl	$LC3, 8(%esp)
 2953      C0000000 
 2954 02b7 C7442404 		movl	$LC4, 4(%esp)
 2954      E4000000 
 2955 02bf C7042401 		movl	$1, (%esp)
 2955      000000
 2956 02c6 C78588FD 		movl	$-1, -632(%ebp)
 2956      FFFFFFFF 
 2956      FFFF
 2957 02d0 E8000000 		call	_reslog_adaptor_log
 2957      00
 329:../../MMI/Resource/WriteProcess.cpp ****     fflush(stdout);
GAS LISTING d:/MTK/MTK2503/MTK2503/11CW1418SP4_03_CORETEK03AE_11C_V1_GPRS_MMI/plutommi/Customer/ResGenerator/gcctmp/cck7daaa.s 			page 10


 2959              	LM14:
 2960 02d5 A1000000 		movl	__imp___iob, %eax
 2960      00
 2961 02da 83C020   		addl	$32, %eax
 2962 02dd 890424   		movl	%eax, (%esp)
 2963 02e0 E8000000 		call	_fflush
 2963      00
 330:../../MMI/Resource/WriteProcess.cpp **** 
 331:../../MMI/Resource/WriteProcess.cpp ****     SetImageProcessData processData;
 332:../../MMI/Resource/WriteProcess.cpp ****     ResgenImageOutStream outstream;
 2965              	LM15:
 2966 02e5 8D85B8FD 		leal	-584(%ebp), %eax
 2966      FFFF
 2967 02eb 890424   		movl	%eax, (%esp)
 2968 02ee E8000000 		call	__ZN21_ResgenImageOutStreamC1Ev
 2968      00
 333:../../MMI/Resource/WriteProcess.cpp ****     processData.outstream = &outstream;
 2970              	LM16:
 2971 02f3 8D85B8FD 		leal	-584(%ebp), %eax
 2971      FFFF
 2972 02f9 8945CC   		movl	%eax, -52(%ebp)
 334:../../MMI/Resource/WriteProcess.cpp ****     initImageProcessData(&processData);
 2974              	LM17:
 2975 02fc 8D85C8FD 		leal	-568(%ebp), %eax
 2975      FFFF
 2976 0302 890424   		movl	%eax, (%esp)
 2977 0305 C78588FD 		movl	$1, -632(%ebp)
 2977      FFFF0100 
 2977      0000
 2978 030f E818FDFF 		call	_initImageProcessData
 2978      FF
 335:../../MMI/Resource/WriteProcess.cpp **** #ifdef __MMI_RESOURCE_ENFB_SUPPORT__
 336:../../MMI/Resource/WriteProcess.cpp ****     processData.disable_enfb = 1;
 337:../../MMI/Resource/WriteProcess.cpp **** #endif
 338:../../MMI/Resource/WriteProcess.cpp ****     SetNFBImageImp(filename, &processData);
 2980              	LM18:
 2981 0314 8D85C8FD 		leal	-568(%ebp), %eax
 2981      FFFF
 2982 031a 89442404 		movl	%eax, 4(%esp)
 2983 031e 8B4508   		movl	8(%ebp), %eax
 2984 0321 890424   		movl	%eax, (%esp)
 2985 0324 E8000000 		call	_SetNFBImageImp
 2985      00
 339:../../MMI/Resource/WriteProcess.cpp **** 
 340:../../MMI/Resource/WriteProcess.cpp ****     char *curr_output_data_filename = NFB_IMAGE_DATA_FILENAME;
 2987              	LM19:
 2988 0329 C785B4FD 		movl	$LC5, -588(%ebp)
 2988      FFFF0001 
 2988      0000
 341:../../MMI/Resource/WriteProcess.cpp ****     FILE *output_data_file = NULL;
 2990              	LM20:
 2991 0333 C785B0FD 		movl	$0, -592(%ebp)
 2991      FFFF0000 
 2991      0000
 342:../../MMI/Resource/WriteProcess.cpp ****     output_data_file = fopen(curr_output_data_filename, "ab");
 2993              	LM21:
 2994 033d C7442404 		movl	$LC6, 4(%esp)
GAS LISTING d:/MTK/MTK2503/MTK2503/11CW1418SP4_03_CORETEK03AE_11C_V1_GPRS_MMI/plutommi/Customer/ResGenerator/gcctmp/cck7daaa.s 			page 11


 2994      31010000 
 2995 0345 8B85B4FD 		movl	-588(%ebp), %eax
 2995      FFFF
 2996 034b 890424   		movl	%eax, (%esp)
 2997 034e E8000000 		call	_fopen
 2997      00
 2998 0353 8985B0FD 		movl	%eax, -592(%ebp)
 2998      FFFF
 343:../../MMI/Resource/WriteProcess.cpp ****     IMGPROC_LOG_V("SetNFBImage: Open NFB image output file: %s, file descriptor: 0x%x", NFB_IMAGE_D
 3000              	LM22:
 3001 0359 8B85B0FD 		movl	-592(%ebp), %eax
 3001      FFFF
 3002 035f 89442410 		movl	%eax, 16(%esp)
 3003 0363 C744240C 		movl	$LC5, 12(%esp)
 3003      00010000 
 3004 036b C7442408 		movl	$LC7, 8(%esp)
 3004      40010000 
 3005 0373 C7442404 		movl	$LC4, 4(%esp)
 3005      E4000000 
 3006 037b C7042401 		movl	$1, (%esp)
 3006      000000
 3007 0382 E8000000 		call	_reslog_adaptor_log
 3007      00
 344:../../MMI/Resource/WriteProcess.cpp ****     fflush(stdout);
 3009              	LM23:
 3010 0387 A1000000 		movl	__imp___iob, %eax
 3010      00
 3011 038c 83C020   		addl	$32, %eax
 3012 038f 890424   		movl	%eax, (%esp)
 3013 0392 E8000000 		call	_fflush
 3013      00
 345:../../MMI/Resource/WriteProcess.cpp **** 
 346:../../MMI/Resource/WriteProcess.cpp ****     while (output_data_file == NULL)
 3015              	LM24:
 3016              	L4:
 3017 0397 83BDB0FD 		cmpl	$0, -592(%ebp)
 3017      FFFF00
 3018 039e 7402     		je	L6
 3019 03a0 EB75     		jmp	L5
 3020              	L6:
 347:../../MMI/Resource/WriteProcess.cpp ****     {
 348:../../MMI/Resource/WriteProcess.cpp ****         IMGPROC_LOG_V("SetNFBImage: File descriptor can't be NULL for %s, retry... ", output_data_f
 3022              	LM25:
 3023 03a2 C7442410 		movl	$LC5, 16(%esp)
 3023      00010000 
 3024 03aa 8B85B0FD 		movl	-592(%ebp), %eax
 3024      FFFF
 3025 03b0 8944240C 		movl	%eax, 12(%esp)
 3026 03b4 C7442408 		movl	$LC8, 8(%esp)
 3026      A0010000 
 3027 03bc C7442404 		movl	$LC4, 4(%esp)
 3027      E4000000 
 3028 03c4 C7042401 		movl	$1, (%esp)
 3028      000000
 3029 03cb C78588FD 		movl	$1, -632(%ebp)
 3029      FFFF0100 
 3029      0000
GAS LISTING d:/MTK/MTK2503/MTK2503/11CW1418SP4_03_CORETEK03AE_11C_V1_GPRS_MMI/plutommi/Customer/ResGenerator/gcctmp/cck7daaa.s 			page 12


 3030 03d5 E8000000 		call	_reslog_adaptor_log
 3030      00
 349:../../MMI/Resource/WriteProcess.cpp ****         fflush(stdout);
 3032              	LM26:
 3033 03da A1000000 		movl	__imp___iob, %eax
 3033      00
 3034 03df 83C020   		addl	$32, %eax
 3035 03e2 890424   		movl	%eax, (%esp)
 3036 03e5 E8000000 		call	_fflush
 3036      00
 350:../../MMI/Resource/WriteProcess.cpp ****         Sleep(50);
 3038              	LM27:
 3039 03ea C7042432 		movl	$50, (%esp)
 3039      000000
 3040 03f1 E8000000 		call	_Sleep@4
 3040      00
 3041 03f6 83EC04   		subl	$4, %esp
 351:../../MMI/Resource/WriteProcess.cpp ****         output_data_file = fopen(curr_output_data_filename, "ab");
 3043              	LM28:
 3044 03f9 C7442404 		movl	$LC6, 4(%esp)
 3044      31010000 
 3045 0401 8B85B4FD 		movl	-588(%ebp), %eax
 3045      FFFF
 3046 0407 890424   		movl	%eax, (%esp)
 3047 040a E8000000 		call	_fopen
 3047      00
 3048 040f 8985B0FD 		movl	%eax, -592(%ebp)
 3048      FFFF
 3049 0415 EB80     		jmp	L4
 3050              	L5:
 352:../../MMI/Resource/WriteProcess.cpp ****     }
 353:../../MMI/Resource/WriteProcess.cpp **** 
 354:../../MMI/Resource/WriteProcess.cpp ****     IMGPROC_LOG_V("SetNFBImage: Write NFB image data to %s, file descriptor: 0x%x", NFB_IMAGE_DATA_
 3052              	LM29:
 3053 0417 8B85B0FD 		movl	-592(%ebp), %eax
 3053      FFFF
 3054 041d 89442410 		movl	%eax, 16(%esp)
 3055 0421 C744240C 		movl	$LC5, 12(%esp)
 3055      00010000 
 3056 0429 C7442408 		movl	$LC9, 8(%esp)
 3056      E0010000 
 3057 0431 C7442404 		movl	$LC4, 4(%esp)
 3057      E4000000 
 3058 0439 C7042401 		movl	$1, (%esp)
 3058      000000
 3059 0440 C78588FD 		movl	$1, -632(%ebp)
 3059      FFFF0100 
 3059      0000
 3060 044a E8000000 		call	_reslog_adaptor_log
 3060      00
 355:../../MMI/Resource/WriteProcess.cpp ****     fflush(stdout);
 3062              	LM30:
 3063 044f A1000000 		movl	__imp___iob, %eax
 3063      00
 3064 0454 83C020   		addl	$32, %eax
 3065 0457 890424   		movl	%eax, (%esp)
 3066 045a E8000000 		call	_fflush
GAS LISTING d:/MTK/MTK2503/MTK2503/11CW1418SP4_03_CORETEK03AE_11C_V1_GPRS_MMI/plutommi/Customer/ResGenerator/gcctmp/cck7daaa.s 			page 13


 3066      00
 356:../../MMI/Resource/WriteProcess.cpp ****     ImageOutStreamOutputFile(&outstream, output_data_file);
 3068              	LM31:
 3069 045f 8B85B0FD 		movl	-592(%ebp), %eax
 3069      FFFF
 3070 0465 89442404 		movl	%eax, 4(%esp)
 3071 0469 8D85B8FD 		leal	-584(%ebp), %eax
 3071      FFFF
 3072 046f 890424   		movl	%eax, (%esp)
 3073 0472 E8FF0D00 		call	_ImageOutStreamOutputFile
 3073      00
 357:../../MMI/Resource/WriteProcess.cpp **** 
 358:../../MMI/Resource/WriteProcess.cpp ****     IMGPROC_LOG_V("SetNFBImage: Close NFB image output file: %s, file descriptor: 0x%x", NFB_IMAGE_
 3075              	LM32:
 3076 0477 8B85B0FD 		movl	-592(%ebp), %eax
 3076      FFFF
 3077 047d 89442410 		movl	%eax, 16(%esp)
 3078 0481 C744240C 		movl	$LC5, 12(%esp)
 3078      00010000 
 3079 0489 C7442408 		movl	$LC10, 8(%esp)
 3079      20020000 
 3080 0491 C7442404 		movl	$LC4, 4(%esp)
 3080      E4000000 
 3081 0499 C7042401 		movl	$1, (%esp)
 3081      000000
 3082 04a0 E8000000 		call	_reslog_adaptor_log
 3082      00
 359:../../MMI/Resource/WriteProcess.cpp ****     fflush(stdout);
 3084              	LM33:
 3085 04a5 A1000000 		movl	__imp___iob, %eax
 3085      00
 3086 04aa 83C020   		addl	$32, %eax
 3087 04ad 890424   		movl	%eax, (%esp)
 3088 04b0 E8000000 		call	_fflush
 3088      00
 360:../../MMI/Resource/WriteProcess.cpp ****     MYFCLOSE(output_data_file);
 3090              	LM34:
 3091 04b5 83BDB0FD 		cmpl	$0, -592(%ebp)
 3091      FFFF00
 3092 04bc 7467     		je	L10
 3093 04be 8B85B0FD 		movl	-592(%ebp), %eax
 3093      FFFF
 3094 04c4 890424   		movl	%eax, (%esp)
 3095 04c7 E8000000 		call	_fclose
 3095      00
 3096 04cc C785B0FD 		movl	$0, -592(%ebp)
 3096      FFFF0000 
 3096      0000
 3097 04d6 EB4D     		jmp	L10
 3098              	L13:
 3099 04d8 8D6D18   		leal	24(%ebp), %ebp
 3100 04db 8B858CFD 		movl	-628(%ebp), %eax
 3100      FFFF
 3101 04e1 89857CFD 		movl	%eax, -644(%ebp)
 3101      FFFF
 3102              	L9:
 3103 04e7 8B957CFD 		movl	-644(%ebp), %edx
GAS LISTING d:/MTK/MTK2503/MTK2503/11CW1418SP4_03_CORETEK03AE_11C_V1_GPRS_MMI/plutommi/Customer/ResGenerator/gcctmp/cck7daaa.s 			page 14


 3103      FFFF
 3104 04ed 899580FD 		movl	%edx, -640(%ebp)
 3104      FFFF
 3105 04f3 8D85B8FD 		leal	-584(%ebp), %eax
 3105      FFFF
 3106 04f9 890424   		movl	%eax, (%esp)
 3107 04fc E8000000 		call	__ZN21_ResgenImageOutStreamD1Ev
 3107      00
 3108 0501 8B8580FD 		movl	-640(%ebp), %eax
 3108      FFFF
 3109 0507 89857CFD 		movl	%eax, -644(%ebp)
 3109      FFFF
 3110              	L11:
 3111 050d 8B957CFD 		movl	-644(%ebp), %edx
 3111      FFFF
 3112 0513 891424   		movl	%edx, (%esp)
 3113 0516 C78588FD 		movl	$-1, -632(%ebp)
 3113      FFFFFFFF 
 3113      FFFF
 3114 0520 E8000000 		call	__Unwind_SjLj_Resume
 3114      00
 3115              	L10:
 3116 0525 8D85B8FD 		leal	-584(%ebp), %eax
 3116      FFFF
 3117 052b 890424   		movl	%eax, (%esp)
 3118 052e E8000000 		call	__ZN21_ResgenImageOutStreamD1Ev
 3118      00
 361:../../MMI/Resource/WriteProcess.cpp **** }
 3120              	LM35:
 3121              	L3:
 3122 0533 8D8584FD 		leal	-636(%ebp), %eax
 3122      FFFF
 3123 0539 890424   		movl	%eax, (%esp)
 3124 053c E8000000 		call	__Unwind_SjLj_Unregister
 3124      00
 3125 0541 8D65F4   		leal	-12(%ebp), %esp
 3126 0544 5B       		popl	%ebx
 3127 0545 5E       		popl	%esi
 3128 0546 5F       		popl	%edi
 3129 0547 5D       		popl	%ebp
 3130 0548 C3       		ret
 3131              	LBE3:
 3132              		.section	.gcc_except_table,""
 3133              	LLSDA2137:
 3134 0000 FF       		.byte	0xff
 3135 0001 FF       		.byte	0xff
 3136 0002 01       		.byte	0x1
 3137 0003 02       		.uleb128 LLSDACSE2137-LLSDACSB2137
 3138              	LLSDACSB2137:
 3139 0004 00       		.uleb128 0x0
 3140 0005 00       		.uleb128 0x0
 3141              	LLSDACSE2137:
 3142              		.text
 3149              	Lscope1:
 3151 0549 90       		.align 2
 3156              	.globl _SetImage
 3158              	_SetImage:
GAS LISTING d:/MTK/MTK2503/MTK2503/11CW1418SP4_03_CORETEK03AE_11C_V1_GPRS_MMI/plutommi/Customer/ResGenerator/gcctmp/cck7daaa.s 			page 15


 362:../../MMI/Resource/WriteProcess.cpp **** 
 363:../../MMI/Resource/WriteProcess.cpp **** /*****************************************************************************
 364:../../MMI/Resource/WriteProcess.cpp **** * FUNCTION
 365:../../MMI/Resource/WriteProcess.cpp **** *  SetImage
 366:../../MMI/Resource/WriteProcess.cpp **** * DESCRIPTION
 367:../../MMI/Resource/WriteProcess.cpp **** *  Function to Update the Customizable Image Filename & Mapping Array.
 368:../../MMI/Resource/WriteProcess.cpp **** * PARAMETERS
 369:../../MMI/Resource/WriteProcess.cpp **** *  ImgId           [IN]
 370:../../MMI/Resource/WriteProcess.cpp **** *  filename        [?]
 371:../../MMI/Resource/WriteProcess.cpp **** *  enum_value      [?]
 372:../../MMI/Resource/WriteProcess.cpp **** *  U16(?)          [OUT]       Image Number which is Mapped with the ImageId.
 373:../../MMI/Resource/WriteProcess.cpp **** * RETURNS
 374:../../MMI/Resource/WriteProcess.cpp **** *  Image Number which is mapped with the ImageId.(?)
 375:../../MMI/Resource/WriteProcess.cpp **** *****************************************************************************/
 376:../../MMI/Resource/WriteProcess.cpp **** extern "C" void SetImage(U16 ImgId, S8 *filename, S8 *enum_value)  /* 120304 Calvin modified for me
 377:../../MMI/Resource/WriteProcess.cpp **** {
 3160              	LM36:
 3161 054a 55       		pushl	%ebp
 3162 054b 89E5     		movl	%esp, %ebp
 3163 054d 83EC18   		subl	$24, %esp
 3164 0550 8B4508   		movl	8(%ebp), %eax
 3165 0553 668945FE 		movw	%ax, -2(%ebp)
 378:../../MMI/Resource/WriteProcess.cpp ****     /*----------------------------------------------------------------*/
 379:../../MMI/Resource/WriteProcess.cpp ****     /* Local Variables                                                */
 380:../../MMI/Resource/WriteProcess.cpp ****     /*----------------------------------------------------------------*/
 381:../../MMI/Resource/WriteProcess.cpp **** 
 382:../../MMI/Resource/WriteProcess.cpp ****     /*----------------------------------------------------------------*/
 383:../../MMI/Resource/WriteProcess.cpp ****     /* Code Body                                                      */
 384:../../MMI/Resource/WriteProcess.cpp ****     /*----------------------------------------------------------------*/
 385:../../MMI/Resource/WriteProcess.cpp ****     SetImageWithBuffer(ImgId, filename, enum_value, FALSE);       /* 040805 CustPack: Calvin revise
 3167              	LM37:
 3168              	LBB4:
 3169 0557 C744240C 		movl	$0, 12(%esp)
 3169      00000000 
 3170 055f 8B4510   		movl	16(%ebp), %eax
 3171 0562 89442408 		movl	%eax, 8(%esp)
 3172 0566 8B450C   		movl	12(%ebp), %eax
 3173 0569 89442404 		movl	%eax, 4(%esp)
 3174 056d 0FB745FE 		movzwl	-2(%ebp), %eax
 3175 0571 890424   		movl	%eax, (%esp)
 3176 0574 E83B0000 		call	_SetImageWithBuffer
 3176      00
 386:../../MMI/Resource/WriteProcess.cpp **** }
 3178              	LM38:
 3179 0579 C9       		leave
 3180 057a C3       		ret
 3181              	LBE4:
 3183              	Lscope2:
 3185 057b 90       		.align 2
 3192              	.globl _SetImageWithBufferForceType
 3194              	_SetImageWithBufferForceType:
 387:../../MMI/Resource/WriteProcess.cpp **** 
 388:../../MMI/Resource/WriteProcess.cpp **** /*****************************************************************************
 389:../../MMI/Resource/WriteProcess.cpp **** * FUNCTION
 390:../../MMI/Resource/WriteProcess.cpp **** *  SetImageWithBufferForceType
 391:../../MMI/Resource/WriteProcess.cpp **** * DESCRIPTION
 392:../../MMI/Resource/WriteProcess.cpp **** *  Function to copy the image file to buffer use force type
GAS LISTING d:/MTK/MTK2503/MTK2503/11CW1418SP4_03_CORETEK03AE_11C_V1_GPRS_MMI/plutommi/Customer/ResGenerator/gcctmp/cck7daaa.s 			page 16


 393:../../MMI/Resource/WriteProcess.cpp **** * PARAMETERS
 394:../../MMI/Resource/WriteProcess.cpp **** *  nImgId              [IN]
 395:../../MMI/Resource/WriteProcess.cpp **** *  filename            [?]
 396:../../MMI/Resource/WriteProcess.cpp **** *  enum_value          [?]
 397:../../MMI/Resource/WriteProcess.cpp **** *  imgFlag             [IN]
 398:../../MMI/Resource/WriteProcess.cpp **** *  S8(?)               [OUT]       -> filename of the image to be displayed.
 399:../../MMI/Resource/WriteProcess.cpp **** *  U16(?)              [IN]        -> ImageId
 400:../../MMI/Resource/WriteProcess.cpp **** * RETURNS
 401:../../MMI/Resource/WriteProcess.cpp **** *  void
 402:../../MMI/Resource/WriteProcess.cpp **** *****************************************************************************/
 403:../../MMI/Resource/WriteProcess.cpp **** extern "C" void SetImageWithBufferForceType(U16 nImgId, S8 *filename, S8 *enum_value, BOOL imgFlag,
 404:../../MMI/Resource/WriteProcess.cpp **** {
 3196              	LM39:
 3197 057c 55       		pushl	%ebp
 3198 057d 89E5     		movl	%esp, %ebp
 3199 057f 83EC18   		subl	$24, %esp
 3200 0582 8B4508   		movl	8(%ebp), %eax
 3201 0585 668945FE 		movw	%ax, -2(%ebp)
 405:../../MMI/Resource/WriteProcess.cpp ****     SetImageWithBufferEx(nImgId, filename, enum_value, imgFlag, force_type);
 3203              	LM40:
 3204              	LBB5:
 3205 0589 8B4518   		movl	24(%ebp), %eax
 3206 058c 89442410 		movl	%eax, 16(%esp)
 3207 0590 8B4514   		movl	20(%ebp), %eax
 3208 0593 8944240C 		movl	%eax, 12(%esp)
 3209 0597 8B4510   		movl	16(%ebp), %eax
 3210 059a 89442408 		movl	%eax, 8(%esp)
 3211 059e 8B450C   		movl	12(%ebp), %eax
 3212 05a1 89442404 		movl	%eax, 4(%esp)
 3213 05a5 0FB745FE 		movzwl	-2(%ebp), %eax
 3214 05a9 890424   		movl	%eax, (%esp)
 3215 05ac E8370100 		call	__Z20SetImageWithBufferExtPcS_ii
 3215      00
 406:../../MMI/Resource/WriteProcess.cpp **** }
 3217              	LM41:
 3218 05b1 C9       		leave
 3219 05b2 C3       		ret
 3220              	LBE5:
 3222              	Lscope3:
 3224 05b3 90       		.align 2
 3230              	.globl _SetImageWithBuffer
 3232              	_SetImageWithBuffer:
 407:../../MMI/Resource/WriteProcess.cpp **** 
 408:../../MMI/Resource/WriteProcess.cpp **** /*****************************************************************************
 409:../../MMI/Resource/WriteProcess.cpp **** * FUNCTION
 410:../../MMI/Resource/WriteProcess.cpp **** *  SetImageWithBuffer
 411:../../MMI/Resource/WriteProcess.cpp **** * DESCRIPTION
 412:../../MMI/Resource/WriteProcess.cpp **** *  Function to copy the image file to buffer
 413:../../MMI/Resource/WriteProcess.cpp **** * PARAMETERS
 414:../../MMI/Resource/WriteProcess.cpp **** *  nImgId              [IN]
 415:../../MMI/Resource/WriteProcess.cpp **** *  filename            [?]
 416:../../MMI/Resource/WriteProcess.cpp **** *  enum_value          [?]
 417:../../MMI/Resource/WriteProcess.cpp **** *  imgFlag             [IN]
 418:../../MMI/Resource/WriteProcess.cpp **** *  S8(?)               [OUT]       -> filename of the image to be displayed.
 419:../../MMI/Resource/WriteProcess.cpp **** *  U16(?)              [IN]        -> ImageId
 420:../../MMI/Resource/WriteProcess.cpp **** * RETURNS
 421:../../MMI/Resource/WriteProcess.cpp **** *  void
GAS LISTING d:/MTK/MTK2503/MTK2503/11CW1418SP4_03_CORETEK03AE_11C_V1_GPRS_MMI/plutommi/Customer/ResGenerator/gcctmp/cck7daaa.s 			page 17


 422:../../MMI/Resource/WriteProcess.cpp **** *****************************************************************************/
 423:../../MMI/Resource/WriteProcess.cpp **** extern "C" void SetImageWithBuffer(U16 nImgId, S8 *filename, S8 *enum_value, BOOL imgFlag)      /* 
 424:../../MMI/Resource/WriteProcess.cpp **** {
 3234              	LM42:
 3235 05b4 55       		pushl	%ebp
 3236 05b5 89E5     		movl	%esp, %ebp
 3237 05b7 83EC18   		subl	$24, %esp
 3238 05ba 8B4508   		movl	8(%ebp), %eax
 3239 05bd 668945FE 		movw	%ax, -2(%ebp)
 425:../../MMI/Resource/WriteProcess.cpp ****     SetImageWithBufferEx(nImgId, filename, enum_value, imgFlag, AUTO_TYPE);
 3241              	LM43:
 3242              	LBB6:
 3243 05c1 C7442410 		movl	$0, 16(%esp)
 3243      00000000 
 3244 05c9 8B4514   		movl	20(%ebp), %eax
 3245 05cc 8944240C 		movl	%eax, 12(%esp)
 3246 05d0 8B4510   		movl	16(%ebp), %eax
 3247 05d3 89442408 		movl	%eax, 8(%esp)
 3248 05d7 8B450C   		movl	12(%ebp), %eax
 3249 05da 89442404 		movl	%eax, 4(%esp)
 3250 05de 0FB745FE 		movzwl	-2(%ebp), %eax
 3251 05e2 890424   		movl	%eax, (%esp)
 3252 05e5 E8FE0000 		call	__Z20SetImageWithBufferExtPcS_ii
 3252      00
 426:../../MMI/Resource/WriteProcess.cpp **** }
 3254              	LM44:
 3255 05ea C9       		leave
 3256 05eb C3       		ret
 3257              	LBE6:
 3259              	Lscope4:
 3261              		.align 2
 3268              	.globl _SetImageQWithBuffer
 3270              	_SetImageQWithBuffer:
 427:../../MMI/Resource/WriteProcess.cpp **** 
 428:../../MMI/Resource/WriteProcess.cpp **** extern "C" void SetImageQWithBuffer(U16 nImgId, S8 *filename, S8 *enum_value, BOOL imgFlag, S32 qua
 429:../../MMI/Resource/WriteProcess.cpp **** {
 3272              	LM45:
 3273 05ec 55       		pushl	%ebp
 3274 05ed 89E5     		movl	%esp, %ebp
 3275 05ef 83EC28   		subl	$40, %esp
 3276 05f2 8B4508   		movl	8(%ebp), %eax
 3277 05f5 668945FE 		movw	%ax, -2(%ebp)
 430:../../MMI/Resource/WriteProcess.cpp ****     SetImageQWithBufferEx(nImgId, filename, enum_value, imgFlag, AUTO_TYPE, quality);
 3279              	LM46:
 3280              	LBB7:
 3281 05f9 8B4518   		movl	24(%ebp), %eax
 3282 05fc 89442414 		movl	%eax, 20(%esp)
 3283 0600 C7442410 		movl	$0, 16(%esp)
 3283      00000000 
 3284 0608 8B4514   		movl	20(%ebp), %eax
 3285 060b 8944240C 		movl	%eax, 12(%esp)
 3286 060f 8B4510   		movl	16(%ebp), %eax
 3287 0612 89442408 		movl	%eax, 8(%esp)
 3288 0616 8B450C   		movl	12(%ebp), %eax
 3289 0619 89442404 		movl	%eax, 4(%esp)
 3290 061d 0FB745FE 		movzwl	-2(%ebp), %eax
 3291 0621 890424   		movl	%eax, (%esp)
GAS LISTING d:/MTK/MTK2503/MTK2503/11CW1418SP4_03_CORETEK03AE_11C_V1_GPRS_MMI/plutommi/Customer/ResGenerator/gcctmp/cck7daaa.s 			page 18


 3292 0624 E8230100 		call	__Z21SetImageQWithBufferExtPcS_iii
 3292      00
 431:../../MMI/Resource/WriteProcess.cpp **** }
 3294              	LM47:
 3295 0629 C9       		leave
 3296 062a C3       		ret
 3297              	LBE7:
 3299              	Lscope5:
 3301 062b 90       		.align 2
 3309              	.globl _SetImageQWithBufferForceType
 3311              	_SetImageQWithBufferForceType:
 432:../../MMI/Resource/WriteProcess.cpp **** 
 433:../../MMI/Resource/WriteProcess.cpp **** extern "C" void SetImageQWithBufferForceType(U16 nImgId, S8 *filename, S8 *enum_value, BOOL imgFlag
 434:../../MMI/Resource/WriteProcess.cpp **** {
 3313              	LM48:
 3314 062c 55       		pushl	%ebp
 3315 062d 89E5     		movl	%esp, %ebp
 3316 062f 83EC28   		subl	$40, %esp
 3317 0632 8B4508   		movl	8(%ebp), %eax
 3318 0635 668945FE 		movw	%ax, -2(%ebp)
 435:../../MMI/Resource/WriteProcess.cpp ****     SetImageQWithBufferEx(nImgId, filename, enum_value, imgFlag, force_type,quality);
 3320              	LM49:
 3321              	LBB8:
 3322 0639 8B451C   		movl	28(%ebp), %eax
 3323 063c 89442414 		movl	%eax, 20(%esp)
 3324 0640 8B4518   		movl	24(%ebp), %eax
 3325 0643 89442410 		movl	%eax, 16(%esp)
 3326 0647 8B4514   		movl	20(%ebp), %eax
 3327 064a 8944240C 		movl	%eax, 12(%esp)
 3328 064e 8B4510   		movl	16(%ebp), %eax
 3329 0651 89442408 		movl	%eax, 8(%esp)
 3330 0655 8B450C   		movl	12(%ebp), %eax
 3331 0658 89442404 		movl	%eax, 4(%esp)
 3332 065c 0FB745FE 		movzwl	-2(%ebp), %eax
 3333 0660 890424   		movl	%eax, (%esp)
 3334 0663 E8E40000 		call	__Z21SetImageQWithBufferExtPcS_iii
 3334      00
 436:../../MMI/Resource/WriteProcess.cpp **** }
 3336              	LM50:
 3337 0668 C9       		leave
 3338 0669 C3       		ret
 3339              	LBE8:
 3341              	Lscope6:
 3351              	.lcomm _g_resgen_png_image_list,16
 3360              	.lcomm _g_log_binary_data_list,16
 3361              		.align 2
 3365              	__Z13stringToUpperSs:
 437:../../MMI/Resource/WriteProcess.cpp **** 
 438:../../MMI/Resource/WriteProcess.cpp **** struct ProcessImageData
 439:../../MMI/Resource/WriteProcess.cpp **** {
 440:../../MMI/Resource/WriteProcess.cpp ****     ProcessImageData(U16 nImgId, S8 *filename, S8 *enum_value, BOOL imgFlag, S32 force_type):
 441:../../MMI/Resource/WriteProcess.cpp **** m_nImgId(nImgId),
 442:../../MMI/Resource/WriteProcess.cpp **** m_filename(filename),
 443:../../MMI/Resource/WriteProcess.cpp **** m_enum_value(enum_value),
 444:../../MMI/Resource/WriteProcess.cpp **** m_imgFlag(imgFlag),
 445:../../MMI/Resource/WriteProcess.cpp **** m_force_type(force_type)
 446:../../MMI/Resource/WriteProcess.cpp **** {
GAS LISTING d:/MTK/MTK2503/MTK2503/11CW1418SP4_03_CORETEK03AE_11C_V1_GPRS_MMI/plutommi/Customer/ResGenerator/gcctmp/cck7daaa.s 			page 19


 447:../../MMI/Resource/WriteProcess.cpp ****     initImageProcessData(&m_processData);
 448:../../MMI/Resource/WriteProcess.cpp ****     m_processData.outstream = &m_outstream;
 449:../../MMI/Resource/WriteProcess.cpp **** }
 450:../../MMI/Resource/WriteProcess.cpp **** 
 451:../../MMI/Resource/WriteProcess.cpp **** ProcessImageData(U16 nImgId, S8 *filename, S8 *enum_value, BOOL imgFlag, S32 force_type, S32 qualit
 452:../../MMI/Resource/WriteProcess.cpp **** m_nImgId(nImgId),
 453:../../MMI/Resource/WriteProcess.cpp **** m_filename(filename),
 454:../../MMI/Resource/WriteProcess.cpp **** m_enum_value(enum_value),
 455:../../MMI/Resource/WriteProcess.cpp **** m_imgFlag(imgFlag),
 456:../../MMI/Resource/WriteProcess.cpp **** m_force_type(force_type)
 457:../../MMI/Resource/WriteProcess.cpp **** {
 458:../../MMI/Resource/WriteProcess.cpp ****     initImageProcessData(&m_processData);
 459:../../MMI/Resource/WriteProcess.cpp ****     m_processData.outstream = &m_outstream;
 460:../../MMI/Resource/WriteProcess.cpp ****     m_processData.quality = quality;
 461:../../MMI/Resource/WriteProcess.cpp **** }
 462:../../MMI/Resource/WriteProcess.cpp **** 
 463:../../MMI/Resource/WriteProcess.cpp **** 
 464:../../MMI/Resource/WriteProcess.cpp **** ProcessImageData(const ProcessImageData & src)
 465:../../MMI/Resource/WriteProcess.cpp **** {
 466:../../MMI/Resource/WriteProcess.cpp ****     m_nImgId = src.m_nImgId;
 467:../../MMI/Resource/WriteProcess.cpp ****     m_filename = src.m_filename;
 468:../../MMI/Resource/WriteProcess.cpp ****     m_enum_value = src.m_enum_value;
 469:../../MMI/Resource/WriteProcess.cpp ****     m_imgFlag = src.m_imgFlag;
 470:../../MMI/Resource/WriteProcess.cpp ****     m_force_type = src.m_force_type;
 471:../../MMI/Resource/WriteProcess.cpp ****     m_processData = src.m_processData;
 472:../../MMI/Resource/WriteProcess.cpp ****     m_outstream = src.m_outstream;
 473:../../MMI/Resource/WriteProcess.cpp ****     m_processData.outstream = &m_outstream;
 474:../../MMI/Resource/WriteProcess.cpp ****     m_processData.quality =src.m_processData.quality;
 475:../../MMI/Resource/WriteProcess.cpp **** 
 476:../../MMI/Resource/WriteProcess.cpp **** }
 477:../../MMI/Resource/WriteProcess.cpp **** ProcessImageData & operator= (const ProcessImageData & src)
 478:../../MMI/Resource/WriteProcess.cpp **** {
 479:../../MMI/Resource/WriteProcess.cpp ****     m_nImgId = src.m_nImgId;
 480:../../MMI/Resource/WriteProcess.cpp ****     m_filename = src.m_filename;
 481:../../MMI/Resource/WriteProcess.cpp ****     m_enum_value = src.m_enum_value;
 482:../../MMI/Resource/WriteProcess.cpp ****     m_imgFlag = src.m_imgFlag;
 483:../../MMI/Resource/WriteProcess.cpp ****     m_force_type = src.m_force_type;
 484:../../MMI/Resource/WriteProcess.cpp ****     m_processData = src.m_processData;
 485:../../MMI/Resource/WriteProcess.cpp ****     m_outstream = src.m_outstream;
 486:../../MMI/Resource/WriteProcess.cpp ****     m_processData.outstream = &m_outstream;
 487:../../MMI/Resource/WriteProcess.cpp ****     m_processData.quality =src.m_processData.quality;
 488:../../MMI/Resource/WriteProcess.cpp **** 
 489:../../MMI/Resource/WriteProcess.cpp ****     return *this;
 490:../../MMI/Resource/WriteProcess.cpp **** }
 491:../../MMI/Resource/WriteProcess.cpp **** 
 492:../../MMI/Resource/WriteProcess.cpp **** U16     m_nImgId;
 493:../../MMI/Resource/WriteProcess.cpp **** string  m_filename;
 494:../../MMI/Resource/WriteProcess.cpp **** string  m_enum_value;
 495:../../MMI/Resource/WriteProcess.cpp **** BOOL    m_imgFlag;
 496:../../MMI/Resource/WriteProcess.cpp **** S32     m_force_type;
 497:../../MMI/Resource/WriteProcess.cpp **** SetImageProcessData m_processData;
 498:../../MMI/Resource/WriteProcess.cpp **** ResgenImageOutStream m_outstream;
 499:../../MMI/Resource/WriteProcess.cpp **** };
 500:../../MMI/Resource/WriteProcess.cpp **** 
 501:../../MMI/Resource/WriteProcess.cpp **** typedef list<ProcessImageData> ProcessImageList;
 502:../../MMI/Resource/WriteProcess.cpp **** static ProcessImageList g_resgen_png_image_list;
 503:../../MMI/Resource/WriteProcess.cpp **** 
GAS LISTING d:/MTK/MTK2503/MTK2503/11CW1418SP4_03_CORETEK03AE_11C_V1_GPRS_MMI/plutommi/Customer/ResGenerator/gcctmp/cck7daaa.s 			page 20


 504:../../MMI/Resource/WriteProcess.cpp **** struct LogBinaryData
 505:../../MMI/Resource/WriteProcess.cpp **** {
 506:../../MMI/Resource/WriteProcess.cpp ****     U16     m_res_id;
 507:../../MMI/Resource/WriteProcess.cpp ****     string  m_filename;
 508:../../MMI/Resource/WriteProcess.cpp ****     int     m_binary_type;
 509:../../MMI/Resource/WriteProcess.cpp **** 
 510:../../MMI/Resource/WriteProcess.cpp ****     LogBinaryData(U16 res_id, char * filename, int binary_type):
 511:../../MMI/Resource/WriteProcess.cpp ****     m_res_id(res_id),
 512:../../MMI/Resource/WriteProcess.cpp ****         m_filename(filename),
 513:../../MMI/Resource/WriteProcess.cpp ****         m_binary_type(binary_type)
 514:../../MMI/Resource/WriteProcess.cpp ****     {
 515:../../MMI/Resource/WriteProcess.cpp ****     }
 516:../../MMI/Resource/WriteProcess.cpp **** };
 517:../../MMI/Resource/WriteProcess.cpp **** 
 518:../../MMI/Resource/WriteProcess.cpp **** typedef list<LogBinaryData> LogBinaryDataList;
 519:../../MMI/Resource/WriteProcess.cpp **** static LogBinaryDataList g_log_binary_data_list;
 520:../../MMI/Resource/WriteProcess.cpp **** 
 521:../../MMI/Resource/WriteProcess.cpp **** static string stringToUpper(string str)
 522:../../MMI/Resource/WriteProcess.cpp **** {
 3367              	LM51:
 3368 066a 55       		pushl	%ebp
 3369 066b 89E5     		movl	%esp, %ebp
 3370 066d 53       		pushl	%ebx
 3371 066e 83EC14   		subl	$20, %esp
 523:../../MMI/Resource/WriteProcess.cpp ****     const int length = str.length();
 3373              	LM52:
 3374 0671 8B450C   		movl	12(%ebp), %eax
 3375              	LBB9:
 3376 0674 890424   		movl	%eax, (%esp)
 3377 0677 E8000000 		call	__ZNKSs6lengthEv
 3377      00
 3378 067c 8945F8   		movl	%eax, -8(%ebp)
 524:../../MMI/Resource/WriteProcess.cpp ****     for(int i=0; i!=length ; ++i)
 3380              	LM53:
 3381              	LBB10:
 3382 067f C745F400 		movl	$0, -12(%ebp)
 3382      000000
 3383              	L20:
 3384 0686 8B45F4   		movl	-12(%ebp), %eax
 3385 0689 3B45F8   		cmpl	-8(%ebp), %eax
 3386 068c 7502     		jne	L23
 3387 068e EB3A     		jmp	L21
 3388              	L23:
 525:../../MMI/Resource/WriteProcess.cpp ****     {
 526:../../MMI/Resource/WriteProcess.cpp ****         str[i] = toupper(str[i]);
 3390              	LM54:
 3391 0690 8B45F4   		movl	-12(%ebp), %eax
 3392 0693 89442404 		movl	%eax, 4(%esp)
 3393 0697 8B450C   		movl	12(%ebp), %eax
 3394 069a 890424   		movl	%eax, (%esp)
 3395 069d E8000000 		call	__ZNSsixEj
 3395      00
 3396 06a2 89C3     		movl	%eax, %ebx
 3397 06a4 8B45F4   		movl	-12(%ebp), %eax
 3398 06a7 89442404 		movl	%eax, 4(%esp)
 3399 06ab 8B450C   		movl	12(%ebp), %eax
 3400 06ae 890424   		movl	%eax, (%esp)
GAS LISTING d:/MTK/MTK2503/MTK2503/11CW1418SP4_03_CORETEK03AE_11C_V1_GPRS_MMI/plutommi/Customer/ResGenerator/gcctmp/cck7daaa.s 			page 21


 3401 06b1 E8000000 		call	__ZNSsixEj
 3401      00
 3402 06b6 0FBE00   		movsbl	(%eax),%eax
 3403 06b9 890424   		movl	%eax, (%esp)
 3404 06bc E8000000 		call	_toupper
 3404      00
 3405 06c1 8803     		movb	%al, (%ebx)
 3407              	LM55:
 3408 06c3 8D45F4   		leal	-12(%ebp), %eax
 3409 06c6 FF00     		incl	(%eax)
 3410 06c8 EBBC     		jmp	L20
 3411              	L21:
 527:../../MMI/Resource/WriteProcess.cpp ****     }
 528:../../MMI/Resource/WriteProcess.cpp ****     return str;
 3413              	LM56:
 3414 06ca 8B450C   		movl	12(%ebp), %eax
 3415              	LBE10:
 3416 06cd 89442404 		movl	%eax, 4(%esp)
 3417 06d1 8B4508   		movl	8(%ebp), %eax
 3418 06d4 890424   		movl	%eax, (%esp)
 3419 06d7 E8000000 		call	__ZNSsC1ERKSs
 3419      00
 529:../../MMI/Resource/WriteProcess.cpp **** }
 3421              	LM57:
 3422              	LBE9:
 3423 06dc 8B4508   		movl	8(%ebp), %eax
 3424 06df 83C414   		addl	$20, %esp
 3425 06e2 5B       		popl	%ebx
 3426 06e3 5D       		popl	%ebp
 3427 06e4 C20400   		ret	$4
 3435              	Lscope7:
 3437 06e7 90       		.align 2
 3444              	.globl __Z20SetImageWithBufferExtPcS_ii
 3446              	__Z20SetImageWithBufferExtPcS_ii:
 530:../../MMI/Resource/WriteProcess.cpp **** 
 531:../../MMI/Resource/WriteProcess.cpp **** void SetImageWithBufferEx(U16 nImgId, S8 *filename, S8 *enum_value, BOOL imgFlag, S32 force_type){
 3448              	LM58:
 3449 06e8 55       		pushl	%ebp
 3450 06e9 89E5     		movl	%esp, %ebp
 3451 06eb 83EC28   		subl	$40, %esp
 3452 06ee 8B4508   		movl	8(%ebp), %eax
 3453 06f1 668945FE 		movw	%ax, -2(%ebp)
 532:../../MMI/Resource/WriteProcess.cpp ****     SetImageQWithBufferEx(nImgId,filename,enum_value,imgFlag,force_type,OFFLINE_IMAGE_PARAM_QUALITY
 3455              	LM59:
 3456              	LBB11:
 3457 06f5 C7442414 		movl	$1, 20(%esp)
 3457      01000000 
 3458 06fd 8B4518   		movl	24(%ebp), %eax
 3459 0700 89442410 		movl	%eax, 16(%esp)
 3460 0704 8B4514   		movl	20(%ebp), %eax
 3461 0707 8944240C 		movl	%eax, 12(%esp)
 3462 070b 8B4510   		movl	16(%ebp), %eax
 3463 070e 89442408 		movl	%eax, 8(%esp)
 3464 0712 8B450C   		movl	12(%ebp), %eax
 3465 0715 89442404 		movl	%eax, 4(%esp)
 3466 0719 0FB745FE 		movzwl	-2(%ebp), %eax
 3467 071d 890424   		movl	%eax, (%esp)
GAS LISTING d:/MTK/MTK2503/MTK2503/11CW1418SP4_03_CORETEK03AE_11C_V1_GPRS_MMI/plutommi/Customer/ResGenerator/gcctmp/cck7daaa.s 			page 22


 3468 0720 E8270000 		call	__Z21SetImageQWithBufferExtPcS_iii
 3468      00
 533:../../MMI/Resource/WriteProcess.cpp **** 
 534:../../MMI/Resource/WriteProcess.cpp **** }
 3470              	LM60:
 3471 0725 C9       		leave
 3472 0726 C3       		ret
 3473              	LBE11:
 3475              	Lscope8:
 3478              	LC11:
 3479 0727 66696C65 		.ascii "file name%d = %s \12\0"
 3479      206E616D 
 3479      65256420 
 3479      3D202573 
 3479      200A00
 3480              	LC12:
 3481 073a 496D6167 		.ascii "Image\0"
 3481      6500
 3482              	LC13:
 3483 0740 25640925 		.ascii "%d\11%s\11\11%s\12\0"
 3483      73090925 
 3483      730A00
 3484 074b 90       		.align 2
 3492              	.globl __Z21SetImageQWithBufferExtPcS_iii
 3494              	__Z21SetImageQWithBufferExtPcS_iii:
 535:../../MMI/Resource/WriteProcess.cpp **** void SetImageQWithBufferEx(U16 nImgId, S8 *filename, S8 *enum_value, BOOL imgFlag, S32 force_type, 
 536:../../MMI/Resource/WriteProcess.cpp **** {
 3496              	LM61:
 3497 074c 55       		pushl	%ebp
 3498 074d 89E5     		movl	%esp, %ebp
 3499 074f 57       		pushl	%edi
 3500 0750 56       		pushl	%esi
 3501 0751 53       		pushl	%ebx
 3502 0752 81ECFC04 		subl	$1276, %esp
 3502      0000
 3503 0758 8B4508   		movl	8(%ebp), %eax
 3504 075b 668945E6 		movw	%ax, -26(%ebp)
 3505 075f C78540FB 		movl	$___gxx_personality_sj0, -1216(%ebp)
 3505      FFFF0000 
 3505      0000
 3506 0769 C78544FB 		movl	$LLSDA2191, -1212(%ebp)
 3506      FFFF0600 
 3506      0000
 3507 0773 8D8548FB 		leal	-1208(%ebp), %eax
 3507      FFFF
 3508 0779 8D55E8   		leal	-24(%ebp), %edx
 3509 077c 8910     		movl	%edx, (%eax)
 3510 077e BA5D0A00 		movl	$L42, %edx
 3510      00
 3511 0783 895004   		movl	%edx, 4(%eax)
 3512 0786 896008   		movl	%esp, 8(%eax)
 3513 0789 8D8528FB 		leal	-1240(%ebp), %eax
 3513      FFFF
 3514 078f 890424   		movl	%eax, (%esp)
 3515 0792 E8000000 		call	__Unwind_SjLj_Register
 3515      00
 537:../../MMI/Resource/WriteProcess.cpp ****     // preprocess
GAS LISTING d:/MTK/MTK2503/MTK2503/11CW1418SP4_03_CORETEK03AE_11C_V1_GPRS_MMI/plutommi/Customer/ResGenerator/gcctmp/cck7daaa.s 			page 23


 538:../../MMI/Resource/WriteProcess.cpp **** #if defined(__MULTIPLE_BINARY_FILES__) && defined(__MMI_RESOURCE_ENFB_SUPPORT__)
 539:../../MMI/Resource/WriteProcess.cpp ****     if (CustPack_ENFB_image_test(filename, 0 /* disable_enfb */) == MMI_TRUE)
 540:../../MMI/Resource/WriteProcess.cpp ****     {
 541:../../MMI/Resource/WriteProcess.cpp ****         imgFlag = MMI_TRUE;
 542:../../MMI/Resource/WriteProcess.cpp ****     }
 543:../../MMI/Resource/WriteProcess.cpp **** #endif /* defined(__MULTIPLE_BINARY_FILES__) && defined(__MMI_RESOURCE_ENFB_SUPPORT__) */
 544:../../MMI/Resource/WriteProcess.cpp **** 
 545:../../MMI/Resource/WriteProcess.cpp ****     CUSTOM_IMAGE_MAP *pImageIdMap;
 546:../../MMI/Resource/WriteProcess.cpp ****     unsigned short *pCurrMaxImageNum;
 547:../../MMI/Resource/WriteProcess.cpp ****     IMAGENAME_LIST *pImageNameList;
 548:../../MMI/Resource/WriteProcess.cpp **** 
 549:../../MMI/Resource/WriteProcess.cpp ****     if (imgFlag == TRUE)
 3517              	LM62:
 3518              	LBB12:
 3519 0797 837D1401 		cmpl	$1, 20(%ebp)
 3520 079b 7517     		jne	L26
 550:../../MMI/Resource/WriteProcess.cpp ****     {
 551:../../MMI/Resource/WriteProcess.cpp ****         pImageIdMap = ImageIdMapEXT;
 3522              	LM63:
 3523 079d C745E000 		movl	$_ImageIdMapEXT, -32(%ebp)
 3523      000000
 552:../../MMI/Resource/WriteProcess.cpp ****         pImageNameList = ImageNameListEXT;
 3525              	LM64:
 3526 07a4 C745D800 		movl	$_ImageNameListEXT, -40(%ebp)
 3526      000000
 553:../../MMI/Resource/WriteProcess.cpp ****         pCurrMaxImageNum = &CurrMaxImageNumEXT;
 3528              	LM65:
 3529 07ab C745DC00 		movl	$_CurrMaxImageNumEXT, -36(%ebp)
 3529      000000
 3530 07b2 EB15     		jmp	L27
 3531              	L26:
 554:../../MMI/Resource/WriteProcess.cpp ****     }
 555:../../MMI/Resource/WriteProcess.cpp ****     else
 556:../../MMI/Resource/WriteProcess.cpp ****     {
 557:../../MMI/Resource/WriteProcess.cpp ****         pImageIdMap = ImageIdMap;
 3533              	LM66:
 3534 07b4 C745E000 		movl	$_ImageIdMap, -32(%ebp)
 3534      000000
 558:../../MMI/Resource/WriteProcess.cpp ****         pImageNameList = ImageNameList;
 3536              	LM67:
 3537 07bb C745D800 		movl	$_ImageNameList, -40(%ebp)
 3537      000000
 559:../../MMI/Resource/WriteProcess.cpp ****         pCurrMaxImageNum = &CurrMaxImageNum;
 3539              	LM68:
 3540 07c2 C745DC00 		movl	$_CurrMaxImageNum, -36(%ebp)
 3540      000000
 3541              	L27:
 560:../../MMI/Resource/WriteProcess.cpp ****     }
 561:../../MMI/Resource/WriteProcess.cpp **** 
 562:../../MMI/Resource/WriteProcess.cpp ****     fprintf(OutputImgIDFile, "file name%d = %s \n", image_idx++, filename);
 3543              	LM69:
 3544 07c9 8B450C   		movl	12(%ebp), %eax
 3545 07cc 8944240C 		movl	%eax, 12(%esp)
 3546 07d0 A1000000 		movl	_image_idx, %eax
 3546      00
 3547 07d5 89442408 		movl	%eax, 8(%esp)
 3548 07d9 FF050000 		incl	_image_idx
GAS LISTING d:/MTK/MTK2503/MTK2503/11CW1418SP4_03_CORETEK03AE_11C_V1_GPRS_MMI/plutommi/Customer/ResGenerator/gcctmp/cck7daaa.s 			page 24


 3548      0000
 3549 07df C7442404 		movl	$LC11, 4(%esp)
 3549      27070000 
 3550 07e7 A1000000 		movl	_OutputImgIDFile, %eax
 3550      00
 3551 07ec 890424   		movl	%eax, (%esp)
 3552 07ef E8000000 		call	_fprintf
 3552      00
 563:../../MMI/Resource/WriteProcess.cpp **** #ifdef __IOT__
 564:../../MMI/Resource/WriteProcess.cpp ****     strncpy(filename,DEFAULT_IAMGE_DATA,sizeof(DEFAULT_IAMGE_DATA));
 565:../../MMI/Resource/WriteProcess.cpp **** #endif
 566:../../MMI/Resource/WriteProcess.cpp ****     if (strlen(filename) >= MAX_FILENAME_LEN)
 3554              	LM70:
 3555 07f4 8B450C   		movl	12(%ebp), %eax
 3556 07f7 890424   		movl	%eax, (%esp)
 3557 07fa E8000000 		call	_strlen
 3557      00
 3558 07ff 3DFF0100 		cmpl	$511, %eax
 3558      00
 3559 0804 760B     		jbe	L28
 567:../../MMI/Resource/WriteProcess.cpp ****     {
 568:../../MMI/Resource/WriteProcess.cpp ****         filename[MAX_FILENAME_LEN - 1] = '\0';
 3561              	LM71:
 3562 0806 8B450C   		movl	12(%ebp), %eax
 3563 0809 05FF0100 		addl	$511, %eax
 3563      00
 3564 080e C60000   		movb	$0, (%eax)
 3565              	L28:
 569:../../MMI/Resource/WriteProcess.cpp ****     }
 570:../../MMI/Resource/WriteProcess.cpp **** 
 571:../../MMI/Resource/WriteProcess.cpp ****     if (pImageIdMap[nImgId].nImageNum != (U16)-1)
 3567              	LM72:
 3568 0811 0FB745E6 		movzwl	-26(%ebp), %eax
 3569 0815 8D1400   		leal	(%eax,%eax), %edx
 3570 0818 8B45E0   		movl	-32(%ebp), %eax
 3571 081b 66833C10 		cmpw	$-1, (%eax,%edx)
 3571      FF
 3572 0820 7431     		je	L29
 572:../../MMI/Resource/WriteProcess.cpp ****     {
 573:../../MMI/Resource/WriteProcess.cpp ****         fprintf(RepeatIDListFile, "%d\t%s\t\t%s\n", nImgId, enum_value, "Image");
 3574              	LM73:
 3575 0822 C7442410 		movl	$LC12, 16(%esp)
 3575      3A070000 
 3576 082a 8B4510   		movl	16(%ebp), %eax
 3577 082d 8944240C 		movl	%eax, 12(%esp)
 3578 0831 0FB745E6 		movzwl	-26(%ebp), %eax
 3579 0835 89442408 		movl	%eax, 8(%esp)
 3580 0839 C7442404 		movl	$LC13, 4(%esp)
 3580      40070000 
 3581 0841 A1000000 		movl	_RepeatIDListFile, %eax
 3581      00
 3582 0846 890424   		movl	%eax, (%esp)
 3583 0849 E8000000 		call	_fprintf
 3583      00
 574:../../MMI/Resource/WriteProcess.cpp ****         return;
 3585              	LM74:
 3586 084e E9650200 		jmp	L25
GAS LISTING d:/MTK/MTK2503/MTK2503/11CW1418SP4_03_CORETEK03AE_11C_V1_GPRS_MMI/plutommi/Customer/ResGenerator/gcctmp/cck7daaa.s 			page 25


 3586      00
 3587              	L29:
 575:../../MMI/Resource/WriteProcess.cpp ****     }
 576:../../MMI/Resource/WriteProcess.cpp **** 
 577:../../MMI/Resource/WriteProcess.cpp ****     S16 nStrlen = strlen(filename);
 3589              	LM75:
 3590 0853 8B450C   		movl	12(%ebp), %eax
 3591 0856 890424   		movl	%eax, (%esp)
 3592 0859 E8000000 		call	_strlen
 3592      00
 3593 085e 668945D6 		movw	%ax, -42(%ebp)
 578:../../MMI/Resource/WriteProcess.cpp ****     S8 upperFileName[MAX_FILENAME_LEN];
 579:../../MMI/Resource/WriteProcess.cpp ****     while (nStrlen >= 0)
 3595              	LM76:
 3596              	L30:
 3597 0862 66837DD6 		cmpw	$0, -42(%ebp)
 3597      00
 3598 0867 7902     		jns	L32
 3599 0869 EB35     		jmp	L31
 3600              	L32:
 580:../../MMI/Resource/WriteProcess.cpp ****     {
 581:../../MMI/Resource/WriteProcess.cpp ****         upperFileName[nStrlen] = toupper(filename[nStrlen]);
 3602              	LM77:
 3603 086b 0FBF45D6 		movswl	-42(%ebp),%eax
 3604 086f 898524FB 		movl	%eax, -1244(%ebp)
 3604      FFFF
 3605 0875 0FBF55D6 		movswl	-42(%ebp),%edx
 3606 0879 8B450C   		movl	12(%ebp), %eax
 3607 087c 0FBE0402 		movsbl	(%edx,%eax),%eax
 3608 0880 890424   		movl	%eax, (%esp)
 3609 0883 E8000000 		call	_toupper
 3609      00
 3610 0888 8B9524FB 		movl	-1244(%ebp), %edx
 3610      FFFF
 3611 088e 888415C8 		movb	%al, -568(%ebp,%edx)
 3611      FDFFFF
 582:../../MMI/Resource/WriteProcess.cpp ****         --nStrlen;
 3613              	LM78:
 3614 0895 0FB745D6 		movzwl	-42(%ebp), %eax
 3615 0899 48       		decl	%eax
 3616 089a 668945D6 		movw	%ax, -42(%ebp)
 3617 089e EBC2     		jmp	L30
 3618              	L31:
 583:../../MMI/Resource/WriteProcess.cpp ****     }
 584:../../MMI/Resource/WriteProcess.cpp **** 
 585:../../MMI/Resource/WriteProcess.cpp ****     pImageIdMap[nImgId].nImageNum = 0;
 3620              	LM79:
 3621 08a0 0FB745E6 		movzwl	-26(%ebp), %eax
 3622 08a4 8D1400   		leal	(%eax,%eax), %edx
 3623 08a7 8B45E0   		movl	-32(%ebp), %eax
 3624 08aa 66C70410 		movw	$0, (%eax,%edx)
 3624      0000
 586:../../MMI/Resource/WriteProcess.cpp **** 
 587:../../MMI/Resource/WriteProcess.cpp ****     ProcessImageData data(nImgId, upperFileName, enum_value, imgFlag, force_type, quality);
 3626              	LM80:
 3627 08b0 8B451C   		movl	28(%ebp), %eax
 3628 08b3 89442418 		movl	%eax, 24(%esp)
GAS LISTING d:/MTK/MTK2503/MTK2503/11CW1418SP4_03_CORETEK03AE_11C_V1_GPRS_MMI/plutommi/Customer/ResGenerator/gcctmp/cck7daaa.s 			page 26


 3629 08b7 8B4518   		movl	24(%ebp), %eax
 3630 08ba 89442414 		movl	%eax, 20(%esp)
 3631 08be 8B4514   		movl	20(%ebp), %eax
 3632 08c1 89442410 		movl	%eax, 16(%esp)
 3633 08c5 8B4510   		movl	16(%ebp), %eax
 3634 08c8 8944240C 		movl	%eax, 12(%esp)
 3635 08cc 8D85C8FD 		leal	-568(%ebp), %eax
 3635      FFFF
 3636 08d2 89442408 		movl	%eax, 8(%esp)
 3637 08d6 0FB745E6 		movzwl	-26(%ebp), %eax
 3638 08da 89442404 		movl	%eax, 4(%esp)
 3639 08de 8D8588FB 		leal	-1144(%ebp), %eax
 3639      FFFF
 3640 08e4 890424   		movl	%eax, (%esp)
 3641 08e7 C7852CFB 		movl	$-1, -1236(%ebp)
 3641      FFFFFFFF 
 3641      FFFF
 3642 08f1 E8000000 		call	__ZN16ProcessImageDataC1EtPcS0_iii
 3642      00
 588:../../MMI/Resource/WriteProcess.cpp **** #ifdef __MMI_RESOURCE_ENFB_SUPPORT__
 589:../../MMI/Resource/WriteProcess.cpp ****     if (disableENFB)
 590:../../MMI/Resource/WriteProcess.cpp ****     {
 591:../../MMI/Resource/WriteProcess.cpp ****         data.m_processData.disable_enfb = 1;
 592:../../MMI/Resource/WriteProcess.cpp ****     }
 593:../../MMI/Resource/WriteProcess.cpp **** #endif
 594:../../MMI/Resource/WriteProcess.cpp **** 
 595:../../MMI/Resource/WriteProcess.cpp ****     // init the process data
 596:../../MMI/Resource/WriteProcess.cpp ****     data.m_processData.res_size = 0;
 3644              	LM81:
 3645 08f6 C7859CFD 		movl	$0, -612(%ebp)
 3645      FFFF0000 
 3645      0000
 597:../../MMI/Resource/WriteProcess.cpp ****     strcpy(data.m_processData.real_filename, filename);
 3647              	LM82:
 3648 0900 8B450C   		movl	12(%ebp), %eax
 3649 0903 89442404 		movl	%eax, 4(%esp)
 3650 0907 8D8588FB 		leal	-1144(%ebp), %eax
 3650      FFFF
 3651 090d 83C014   		addl	$20, %eax
 3652 0910 890424   		movl	%eax, (%esp)
 3653 0913 E8000000 		call	_strcpy
 3653      00
 598:../../MMI/Resource/WriteProcess.cpp **** 
 599:../../MMI/Resource/WriteProcess.cpp ****     ProcessImageList::iterator i = g_resgen_png_image_list.begin();
 3655              	LM83:
 3656 0918 8D8578FB 		leal	-1160(%ebp), %eax
 3656      FFFF
 3657 091e C7442404 		movl	$_g_resgen_png_image_list, 4(%esp)
 3657      10000000 
 3658 0926 890424   		movl	%eax, (%esp)
 3659 0929 C7852CFB 		movl	$1, -1236(%ebp)
 3659      FFFF0100 
 3659      0000
 3660 0933 E8000000 		call	__ZNSt4listI16ProcessImageDataSaIS0_EE5beginEv
 3660      00
 3661 0938 83EC04   		subl	$4, %esp
 600:../../MMI/Resource/WriteProcess.cpp ****     U32 index = 0;
GAS LISTING d:/MTK/MTK2503/MTK2503/11CW1418SP4_03_CORETEK03AE_11C_V1_GPRS_MMI/plutommi/Customer/ResGenerator/gcctmp/cck7daaa.s 			page 27


 3663              	LM84:
 3664 093b C78574FB 		movl	$0, -1164(%ebp)
 3664      FFFF0000 
 3664      0000
 601:../../MMI/Resource/WriteProcess.cpp ****     for (; i != g_resgen_png_image_list.end(); ++i, ++index)
 3666              	LM85:
 3667              	L33:
 3668              	LBB13:
 3669 0945 8D8558FB 		leal	-1192(%ebp), %eax
 3669      FFFF
 3670 094b C7442404 		movl	$_g_resgen_png_image_list, 4(%esp)
 3670      10000000 
 3671 0953 890424   		movl	%eax, (%esp)
 3672 0956 C7852CFB 		movl	$1, -1236(%ebp)
 3672      FFFF0100 
 3672      0000
 3673 0960 E8000000 		call	__ZNSt4listI16ProcessImageDataSaIS0_EE3endEv
 3673      00
 3674 0965 83EC04   		subl	$4, %esp
 3675 0968 8D8558FB 		leal	-1192(%ebp), %eax
 3675      FFFF
 3676 096e 89442404 		movl	%eax, 4(%esp)
 3677 0972 8D8578FB 		leal	-1160(%ebp), %eax
 3677      FFFF
 3678 0978 890424   		movl	%eax, (%esp)
 3679 097b E8000000 		call	__ZNKSt19_List_iterator_baseneERKS_
 3679      00
 3680 0980 84C0     		testb	%al, %al
 3681 0982 7505     		jne	L36
 3682 0984 E9930000 		jmp	L34
 3682      00
 3683              	L36:
 602:../../MMI/Resource/WriteProcess.cpp ****     {
 603:../../MMI/Resource/WriteProcess.cpp ****         ProcessImageData & ref = *i;
 3685              	LM86:
 3686              	LBB14:
 3687              	LBB15:
 3688 0989 8D8578FB 		leal	-1160(%ebp), %eax
 3688      FFFF
 3689 098f 890424   		movl	%eax, (%esp)
 3690 0992 C7852CFB 		movl	$1, -1236(%ebp)
 3690      FFFF0100 
 3690      0000
 3691 099c E8000000 		call	__ZNKSt14_List_iteratorI16ProcessImageDataRS0_PS0_EdeEv
 3691      00
 3692 09a1 898554FB 		movl	%eax, -1196(%ebp)
 3692      FFFF
 604:../../MMI/Resource/WriteProcess.cpp ****         if (ref.m_imgFlag == imgFlag && strcmp(ref.m_filename.c_str(), upperFileName) == 0)
 3694              	LM87:
 3695 09a7 8B8554FB 		movl	-1196(%ebp), %eax
 3695      FFFF
 3696 09ad 8B400C   		movl	12(%eax), %eax
 3697 09b0 3B4514   		cmpl	20(%ebp), %eax
 3698 09b3 7542     		jne	L35
 3699 09b5 8B8554FB 		movl	-1196(%ebp), %eax
 3699      FFFF
 3700 09bb 83C004   		addl	$4, %eax
GAS LISTING d:/MTK/MTK2503/MTK2503/11CW1418SP4_03_CORETEK03AE_11C_V1_GPRS_MMI/plutommi/Customer/ResGenerator/gcctmp/cck7daaa.s 			page 28


 3701 09be 890424   		movl	%eax, (%esp)
 3702 09c1 E8000000 		call	__ZNKSs5c_strEv
 3702      00
 3703 09c6 8D95C8FD 		leal	-568(%ebp), %edx
 3703      FFFF
 3704 09cc 89542404 		movl	%edx, 4(%esp)
 3705 09d0 890424   		movl	%eax, (%esp)
 3706 09d3 E8000000 		call	_strcmp
 3706      00
 3707 09d8 85C0     		testl	%eax, %eax
 3708 09da 751B     		jne	L35
 605:../../MMI/Resource/WriteProcess.cpp ****         {
 606:../../MMI/Resource/WriteProcess.cpp ****             data.m_processData.duplicated = MMI_TRUE;
 3710              	LM88:
 3711 09dc C785A8FD 		movl	$1, -600(%ebp)
 3711      FFFF0100 
 3711      0000
 607:../../MMI/Resource/WriteProcess.cpp ****             data.m_processData.duplicatedInstance = &ref.m_processData;
 3713              	LM89:
 3714 09e6 8B8554FB 		movl	-1196(%ebp), %eax
 3714      FFFF
 3715 09ec 83C014   		addl	$20, %eax
 3716 09ef 8985ACFD 		movl	%eax, -596(%ebp)
 3716      FFFF
 608:../../MMI/Resource/WriteProcess.cpp ****             break;
 3718              	LM90:
 3719 09f5 EB25     		jmp	L34
 3721              	LM91:
 3722              	L35:
 3723              	LBE15:
 3724              	LBE14:
 3725 09f7 8D8578FB 		leal	-1160(%ebp), %eax
 3725      FFFF
 3726 09fd 890424   		movl	%eax, (%esp)
 3727 0a00 C7852CFB 		movl	$1, -1236(%ebp)
 3727      FFFF0100 
 3727      0000
 3728 0a0a E8000000 		call	__ZNSt14_List_iteratorI16ProcessImageDataRS0_PS0_EppEv
 3728      00
 3729 0a0f 8D8574FB 		leal	-1164(%ebp), %eax
 3729      FFFF
 3730 0a15 FF00     		incl	(%eax)
 3731 0a17 E929FFFF 		jmp	L33
 3731      FF
 3732              	L34:
 609:../../MMI/Resource/WriteProcess.cpp ****         }
 610:../../MMI/Resource/WriteProcess.cpp ****     }
 611:../../MMI/Resource/WriteProcess.cpp **** 
 612:../../MMI/Resource/WriteProcess.cpp ****     //if (getResgenImgPostProcess() )
 613:../../MMI/Resource/WriteProcess.cpp **** #define RESGEN_IMG_POST_PROCESS
 614:../../MMI/Resource/WriteProcess.cpp **** 
 615:../../MMI/Resource/WriteProcess.cpp **** #ifdef RESGEN_IMG_POST_PROCESS
 616:../../MMI/Resource/WriteProcess.cpp ****     S32 ext_type = ExtractExtension(upperFileName, RES_IMAGE);
 3734              	LM92:
 3735              	LBE13:
 3736 0a1c C7442404 		movl	$0, 4(%esp)
 3736      00000000 
GAS LISTING d:/MTK/MTK2503/MTK2503/11CW1418SP4_03_CORETEK03AE_11C_V1_GPRS_MMI/plutommi/Customer/ResGenerator/gcctmp/cck7daaa.s 			page 29


 3737 0a24 8D85C8FD 		leal	-568(%ebp), %eax
 3737      FFFF
 3738 0a2a 890424   		movl	%eax, (%esp)
 3739 0a2d C7852CFB 		movl	$1, -1236(%ebp)
 3739      FFFF0100 
 3739      0000
 3740 0a37 E8000000 		call	_ExtractExtension
 3740      00
 3741 0a3c 0FB6C0   		movzbl	%al, %eax
 3742 0a3f 898554FB 		movl	%eax, -1196(%ebp)
 3742      FFFF
 617:../../MMI/Resource/WriteProcess.cpp **** 
 618:../../MMI/Resource/WriteProcess.cpp ****     // add to list
 619:../../MMI/Resource/WriteProcess.cpp ****     g_resgen_png_image_list.push_back(data);
 3744              	LM93:
 3745 0a45 8D8588FB 		leal	-1144(%ebp), %eax
 3745      FFFF
 3746 0a4b 89442404 		movl	%eax, 4(%esp)
 3747 0a4f C7042410 		movl	$_g_resgen_png_image_list, (%esp)
 3747      000000
 3748 0a56 E8000000 		call	__ZNSt4listI16ProcessImageDataSaIS0_EE9push_backERKS0_
 3748      00
 3749 0a5b EB4D     		jmp	L39
 3750              	L42:
 3751 0a5d 8D6D18   		leal	24(%ebp), %ebp
 3752 0a60 8B8530FB 		movl	-1232(%ebp), %eax
 3752      FFFF
 3753 0a66 89851CFB 		movl	%eax, -1252(%ebp)
 3753      FFFF
 3754              	L38:
 3755 0a6c 8B951CFB 		movl	-1252(%ebp), %edx
 3755      FFFF
 3756 0a72 899520FB 		movl	%edx, -1248(%ebp)
 3756      FFFF
 3757 0a78 8D8588FB 		leal	-1144(%ebp), %eax
 3757      FFFF
 3758 0a7e 890424   		movl	%eax, (%esp)
 3759 0a81 E8000000 		call	__ZN16ProcessImageDataD1Ev
 3759      00
 3760 0a86 8B8520FB 		movl	-1248(%ebp), %eax
 3760      FFFF
 3761 0a8c 89851CFB 		movl	%eax, -1252(%ebp)
 3761      FFFF
 3762              	L40:
 3763 0a92 8B951CFB 		movl	-1252(%ebp), %edx
 3763      FFFF
 3764 0a98 891424   		movl	%edx, (%esp)
 3765 0a9b C7852CFB 		movl	$-1, -1236(%ebp)
 3765      FFFFFFFF 
 3765      FFFF
 3766 0aa5 E8000000 		call	__Unwind_SjLj_Resume
 3766      00
 3767              	L39:
 3768 0aaa 8D8588FB 		leal	-1144(%ebp), %eax
 3768      FFFF
 3769 0ab0 890424   		movl	%eax, (%esp)
 3770 0ab3 E8000000 		call	__ZN16ProcessImageDataD1Ev
GAS LISTING d:/MTK/MTK2503/MTK2503/11CW1418SP4_03_CORETEK03AE_11C_V1_GPRS_MMI/plutommi/Customer/ResGenerator/gcctmp/cck7daaa.s 			page 30


 3770      00
 620:../../MMI/Resource/WriteProcess.cpp **** 
 621:../../MMI/Resource/WriteProcess.cpp **** #else // RESGEN_IMG_POST_PROCESS
 622:../../MMI/Resource/WriteProcess.cpp ****     SetImageWithBufferExImp(data.m_nImgId, (S8*)data.m_filename.c_str(),
 623:../../MMI/Resource/WriteProcess.cpp ****         (S8*)data.m_enum_value.c_str(), data.m_imgFlag,
 624:../../MMI/Resource/WriteProcess.cpp ****         data.m_force_type, &data.m_processData);
 625:../../MMI/Resource/WriteProcess.cpp **** 
 626:../../MMI/Resource/WriteProcess.cpp **** #endif // RESGEN_IMG_POST_PROCESS
 627:../../MMI/Resource/WriteProcess.cpp **** }
 3772              	LM94:
 3773              	L25:
 3774 0ab8 8D8528FB 		leal	-1240(%ebp), %eax
 3774      FFFF
 3775 0abe 890424   		movl	%eax, (%esp)
 3776 0ac1 E8000000 		call	__Unwind_SjLj_Unregister
 3776      00
 3777 0ac6 8D65F4   		leal	-12(%ebp), %esp
 3778 0ac9 5B       		popl	%ebx
 3779 0aca 5E       		popl	%esi
 3780 0acb 5F       		popl	%edi
 3781 0acc 5D       		popl	%ebp
 3782 0acd C3       		ret
 3783              	LBE12:
 3784              		.section	.gcc_except_table,""
 3785              	LLSDA2191:
 3786 0006 FF       		.byte	0xff
 3787 0007 FF       		.byte	0xff
 3788 0008 01       		.byte	0x1
 3789 0009 02       		.uleb128 LLSDACSE2191-LLSDACSB2191
 3790              	LLSDACSB2191:
 3791 000a 00       		.uleb128 0x0
 3792 000b 00       		.uleb128 0x0
 3793              	LLSDACSE2191:
 3794              		.text
 3810              	Lscope9:
 3812 0ace 90909090 		.align 32
 3812      90909090 
 3812      90909090 
 3812      90909090 
 3812      9090
 3813              	LC14:
 3814 0ae0 5F5F5F5F 		.ascii "________CUSTOMER__IMAGES__DEFAULT_BMP\0"
 3814      5F5F5F5F 
 3814      43555354 
 3814      4F4D4552 
 3814      5F5F494D 
 3815              	LC15:
 3816 0b06 4E4F5F41 		.ascii "NO_APP\0"
 3816      505000
 3817              	LC16:
 3818 0b0d 25730925 		.ascii "%s\11%d\11%d\11%s\11%d\11%s\11NA\12\0"
 3818      64092564 
 3818      09257309 
 3818      25640925 
 3818      73094E41 
 3819              	LC17:
 3820 0b23 25730925 		.ascii "%s\11%d\11%d\12\0"
GAS LISTING d:/MTK/MTK2503/MTK2503/11CW1418SP4_03_CORETEK03AE_11C_V1_GPRS_MMI/plutommi/Customer/ResGenerator/gcctmp/cck7daaa.s 			page 31


 3820      64092564 
 3820      0A00
 3821 0b2d 90       		.align 2
 3824              	.globl __Z28ProcessResgenPngImagesMapIdsR16ProcessImageData
 3826              	__Z28ProcessResgenPngImagesMapIdsR16ProcessImageData:
 628:../../MMI/Resource/WriteProcess.cpp **** 
 629:../../MMI/Resource/WriteProcess.cpp **** void ProcessResgenPngImagesMapIds(ProcessImageData & data)
 630:../../MMI/Resource/WriteProcess.cpp **** {
 3828              	LM95:
 3829 0b2e 55       		pushl	%ebp
 3830 0b2f 89E5     		movl	%esp, %ebp
 3831 0b31 83EC48   		subl	$72, %esp
 631:../../MMI/Resource/WriteProcess.cpp ****     unsigned short *pCurrMaxImageNum;
 632:../../MMI/Resource/WriteProcess.cpp ****     CUSTOM_IMAGE_MAP *pImageIdMap;
 633:../../MMI/Resource/WriteProcess.cpp ****     IMAGENAME_LIST *pImageNameList;
 634:../../MMI/Resource/WriteProcess.cpp ****     unsigned short *pCurrMaxImageId;
 635:../../MMI/Resource/WriteProcess.cpp ****     image_type_enum extImageFlag = SYSTEM_IMAGE;
 3833              	LM96:
 3834              	LBB16:
 3835 0b34 C745EC00 		movl	$0, -20(%ebp)
 3835      000000
 636:../../MMI/Resource/WriteProcess.cpp **** 
 637:../../MMI/Resource/WriteProcess.cpp ****     if (data.m_imgFlag == TRUE)
 3837              	LM97:
 3838 0b3b 8B4508   		movl	8(%ebp), %eax
 3839 0b3e 83780C01 		cmpl	$1, 12(%eax)
 3840 0b42 7525     		jne	L44
 638:../../MMI/Resource/WriteProcess.cpp ****     {
 639:../../MMI/Resource/WriteProcess.cpp ****         extImageFlag = EXT_IMAGE;
 3842              	LM98:
 3843 0b44 C745EC01 		movl	$1, -20(%ebp)
 3843      000000
 640:../../MMI/Resource/WriteProcess.cpp ****         pCurrMaxImageId = &CurrMaxImageIdEXT;
 3845              	LM99:
 3846 0b4b C745F000 		movl	$_CurrMaxImageIdEXT, -16(%ebp)
 3846      000000
 641:../../MMI/Resource/WriteProcess.cpp ****         pCurrMaxImageNum = &CurrMaxImageNumEXT;
 3848              	LM100:
 3849 0b52 C745FC00 		movl	$_CurrMaxImageNumEXT, -4(%ebp)
 3849      000000
 642:../../MMI/Resource/WriteProcess.cpp ****         pImageNameList = ImageNameListEXT;
 3851              	LM101:
 3852 0b59 C745F400 		movl	$_ImageNameListEXT, -12(%ebp)
 3852      000000
 643:../../MMI/Resource/WriteProcess.cpp ****         pImageIdMap = ImageIdMapEXT;
 3854              	LM102:
 3855 0b60 C745F800 		movl	$_ImageIdMapEXT, -8(%ebp)
 3855      000000
 3856 0b67 EB23     		jmp	L45
 3857              	L44:
 644:../../MMI/Resource/WriteProcess.cpp ****     }
 645:../../MMI/Resource/WriteProcess.cpp ****     else
 646:../../MMI/Resource/WriteProcess.cpp ****     {
 647:../../MMI/Resource/WriteProcess.cpp ****         extImageFlag = SYSTEM_IMAGE;
 3859              	LM103:
 3860 0b69 C745EC00 		movl	$0, -20(%ebp)
 3860      000000
GAS LISTING d:/MTK/MTK2503/MTK2503/11CW1418SP4_03_CORETEK03AE_11C_V1_GPRS_MMI/plutommi/Customer/ResGenerator/gcctmp/cck7daaa.s 			page 32


 648:../../MMI/Resource/WriteProcess.cpp ****         pCurrMaxImageId = &CurrMaxImageId;
 3862              	LM104:
 3863 0b70 C745F000 		movl	$_CurrMaxImageId, -16(%ebp)
 3863      000000
 649:../../MMI/Resource/WriteProcess.cpp ****         pCurrMaxImageNum = &CurrMaxImageNum;
 3865              	LM105:
 3866 0b77 C745FC00 		movl	$_CurrMaxImageNum, -4(%ebp)
 3866      000000
 650:../../MMI/Resource/WriteProcess.cpp ****         pImageNameList = ImageNameList;
 3868              	LM106:
 3869 0b7e C745F400 		movl	$_ImageNameList, -12(%ebp)
 3869      000000
 651:../../MMI/Resource/WriteProcess.cpp ****         pImageIdMap = ImageIdMap;
 3871              	LM107:
 3872 0b85 C745F800 		movl	$_ImageIdMap, -8(%ebp)
 3872      000000
 3873              	L45:
 652:../../MMI/Resource/WriteProcess.cpp ****     }
 653:../../MMI/Resource/WriteProcess.cpp **** 
 654:../../MMI/Resource/WriteProcess.cpp ****     if (data.m_processData.failed)
 3875              	LM108:
 3876              	LBB17:
 3877 0b8c 8B4508   		movl	8(%ebp), %eax
 3878 0b8f 83B81C02 		cmpl	$0, 540(%eax)
 3878      000000
 3879 0b96 7474     		je	L46
 655:../../MMI/Resource/WriteProcess.cpp ****     {
 656:../../MMI/Resource/WriteProcess.cpp ****         strcpy(ImageNameList[CurrMaxImageNum].filename, DEFAULT_FILEBUFFER);
 3881              	LM109:
 3882 0b98 C7442404 		movl	$LC14, 4(%esp)
 3882      E00A0000 
 3883 0ba0 0FB70500 		movzwl	_CurrMaxImageNum, %eax
 3883      000000
 3884 0ba7 C1E009   		sall	$9, %eax
 3885 0baa 05000000 		addl	$_ImageNameList, %eax
 3885      00
 3886 0baf 890424   		movl	%eax, (%esp)
 3887 0bb2 E8000000 		call	_strcpy
 3887      00
 657:../../MMI/Resource/WriteProcess.cpp ****         ImageIdMap[data.m_nImgId].nImageNum = CurrMaxImageNum;
 3889              	LM110:
 3890 0bb7 8B4508   		movl	8(%ebp), %eax
 3891 0bba 0FB710   		movzwl	(%eax), %edx
 3892 0bbd 0FB70500 		movzwl	_CurrMaxImageNum, %eax
 3892      000000
 3893 0bc4 66898412 		movw	%ax, _ImageIdMap(%edx,%edx)
 3893      00000000 
 658:../../MMI/Resource/WriteProcess.cpp ****         CurrMaxImageNum++;
 3895              	LM111:
 3896 0bcc 0FB70500 		movzwl	_CurrMaxImageNum, %eax
 3896      000000
 3897 0bd3 40       		incl	%eax
 3898 0bd4 66A30000 		movw	%ax, _CurrMaxImageNum
 3898      0000
 659:../../MMI/Resource/WriteProcess.cpp ****         CurrMaxImageId++;
 3900              	LM112:
 3901 0bda 0FB70500 		movzwl	_CurrMaxImageId, %eax
GAS LISTING d:/MTK/MTK2503/MTK2503/11CW1418SP4_03_CORETEK03AE_11C_V1_GPRS_MMI/plutommi/Customer/ResGenerator/gcctmp/cck7daaa.s 			page 33


 3901      000000
 3902 0be1 40       		incl	%eax
 3903 0be2 66A30000 		movw	%ax, _CurrMaxImageId
 3903      0000
 660:../../MMI/Resource/WriteProcess.cpp ****         if (data.m_imgFlag == TRUE)
 3905              	LM113:
 3906 0be8 8B4508   		movl	8(%ebp), %eax
 3907 0beb 83780C01 		cmpl	$1, 12(%eax)
 3908 0bef 0F858C04 		jne	L43
 3908      0000
 661:../../MMI/Resource/WriteProcess.cpp ****         {
 662:../../MMI/Resource/WriteProcess.cpp ****             pImageIdMap[data.m_nImgId].nImageNum = -1;
 3910              	LM114:
 3911 0bf5 8B4508   		movl	8(%ebp), %eax
 3912 0bf8 0FB700   		movzwl	(%eax), %eax
 3913 0bfb 8D1400   		leal	(%eax,%eax), %edx
 3914 0bfe 8B45F8   		movl	-8(%ebp), %eax
 3915 0c01 66C70410 		movw	$-1, (%eax,%edx)
 3915      FFFF
 3916 0c07 E9750400 		jmp	L43
 3916      00
 3917              	L46:
 663:../../MMI/Resource/WriteProcess.cpp ****         }
 664:../../MMI/Resource/WriteProcess.cpp ****     }
 665:../../MMI/Resource/WriteProcess.cpp ****     else if (data.m_processData.duplicated)
 3919              	LM115:
 3920              	LBB18:
 3921              	LBB19:
 3922 0c0c 8B4508   		movl	8(%ebp), %eax
 3923 0c0f 83B82002 		cmpl	$0, 544(%eax)
 3923      000000
 3924 0c16 0F844C02 		je	L49
 3924      0000
 666:../../MMI/Resource/WriteProcess.cpp ****     {
 667:../../MMI/Resource/WriteProcess.cpp **** 
 668:../../MMI/Resource/WriteProcess.cpp ****         U32 i;
 669:../../MMI/Resource/WriteProcess.cpp ****         for (i = 0; i < *pCurrMaxImageNum; i++)
 3926              	LM116:
 3927              	LBB20:
 3928 0c1c C745E800 		movl	$0, -24(%ebp)
 3928      000000
 3929              	L50:
 3930 0c23 8B45FC   		movl	-4(%ebp), %eax
 3931 0c26 0FB700   		movzwl	(%eax), %eax
 3932 0c29 3945E8   		cmpl	%eax, -24(%ebp)
 3933 0c2c 7202     		jb	L53
 3934 0c2e EB3D     		jmp	L51
 3935              	L53:
 670:../../MMI/Resource/WriteProcess.cpp ****         {
 671:../../MMI/Resource/WriteProcess.cpp ****             if (!strcmp(pImageNameList[i].filename, data.m_filename.c_str()))
 3937              	LM117:
 3938 0c30 8B4508   		movl	8(%ebp), %eax
 3939 0c33 83C004   		addl	$4, %eax
 3940 0c36 890424   		movl	%eax, (%esp)
 3941 0c39 E8000000 		call	__ZNKSs5c_strEv
 3941      00
 3942 0c3e 89442404 		movl	%eax, 4(%esp)
GAS LISTING d:/MTK/MTK2503/MTK2503/11CW1418SP4_03_CORETEK03AE_11C_V1_GPRS_MMI/plutommi/Customer/ResGenerator/gcctmp/cck7daaa.s 			page 34


 3943 0c42 8B45E8   		movl	-24(%ebp), %eax
 3944 0c45 C1E009   		sall	$9, %eax
 3945 0c48 0345F4   		addl	-12(%ebp), %eax
 3946 0c4b 890424   		movl	%eax, (%esp)
 3947 0c4e E8000000 		call	_strcmp
 3947      00
 3948 0c53 85C0     		testl	%eax, %eax
 3949 0c55 750F     		jne	L52
 672:../../MMI/Resource/WriteProcess.cpp ****             {
 673:../../MMI/Resource/WriteProcess.cpp ****                 data.m_processData.duplicated = MMI_TRUE;
 3951              	LM118:
 3952 0c57 8B4508   		movl	8(%ebp), %eax
 3953 0c5a C7802002 		movl	$1, 544(%eax)
 3953      00000100 
 3953      0000
 674:../../MMI/Resource/WriteProcess.cpp ****                 break;
 3955              	LM119:
 3956 0c64 EB07     		jmp	L51
 3958              	LM120:
 3959              	L52:
 3960 0c66 8D45E8   		leal	-24(%ebp), %eax
 3961 0c69 FF00     		incl	(%eax)
 3962 0c6b EBB6     		jmp	L50
 3963              	L51:
 675:../../MMI/Resource/WriteProcess.cpp ****             }
 676:../../MMI/Resource/WriteProcess.cpp ****         }
 677:../../MMI/Resource/WriteProcess.cpp **** 
 678:../../MMI/Resource/WriteProcess.cpp ****         //pImageIdMap[data.m_nImgId].nImageNum = data.m_processData.duplicatedIndex;
 679:../../MMI/Resource/WriteProcess.cpp ****         pImageIdMap[data.m_nImgId].nImageNum = i;
 3965              	LM121:
 3966 0c6d 8B4508   		movl	8(%ebp), %eax
 3967 0c70 0FB700   		movzwl	(%eax), %eax
 3968 0c73 8D0C00   		leal	(%eax,%eax), %ecx
 3969 0c76 8B55F8   		movl	-8(%ebp), %edx
 3970 0c79 8B45E8   		movl	-24(%ebp), %eax
 3971 0c7c 6689040A 		movw	%ax, (%edx,%ecx)
 680:../../MMI/Resource/WriteProcess.cpp ****         (*pCurrMaxImageId)++;
 3973              	LM122:
 3974 0c80 8B55F0   		movl	-16(%ebp), %edx
 3975 0c83 8B45F0   		movl	-16(%ebp), %eax
 3976 0c86 0FB700   		movzwl	(%eax), %eax
 3977 0c89 40       		incl	%eax
 3978 0c8a 668902   		movw	%ax, (%edx)
 681:../../MMI/Resource/WriteProcess.cpp **** 
 682:../../MMI/Resource/WriteProcess.cpp ****         {
 683:../../MMI/Resource/WriteProcess.cpp ****             U32 i;
 684:../../MMI/Resource/WriteProcess.cpp **** 
 685:../../MMI/Resource/WriteProcess.cpp ****             for (i = 0; i < g_resimg_count; i++)
 3980              	LM123:
 3981              	LBB21:
 3982 0c8d C745E400 		movl	$0, -28(%ebp)
 3982      000000
 3983              	L55:
 3984 0c94 8B45E4   		movl	-28(%ebp), %eax
 3985 0c97 3B050000 		cmpl	_g_resimg_count, %eax
 3985      0000
 3986 0c9d 7202     		jb	L58
GAS LISTING d:/MTK/MTK2503/MTK2503/11CW1418SP4_03_CORETEK03AE_11C_V1_GPRS_MMI/plutommi/Customer/ResGenerator/gcctmp/cck7daaa.s 			page 35


 3987 0c9f EB7E     		jmp	L56
 3988              	L58:
 686:../../MMI/Resource/WriteProcess.cpp ****             {
 687:../../MMI/Resource/WriteProcess.cpp ****                 if (strcmp(data.m_filename.c_str(), g_resimg_table[i].filename) == 0)
 3990              	LM124:
 3991 0ca1 8B4508   		movl	8(%ebp), %eax
 3992 0ca4 83C004   		addl	$4, %eax
 3993 0ca7 890424   		movl	%eax, (%esp)
 3994 0caa E8000000 		call	__ZNKSs5c_strEv
 3994      00
 3995 0caf 89C1     		movl	%eax, %ecx
 3996 0cb1 8B55E4   		movl	-28(%ebp), %edx
 3997 0cb4 89D0     		movl	%edx, %eax
 3998 0cb6 C1E008   		sall	$8, %eax
 3999 0cb9 01D0     		addl	%edx, %eax
 4000 0cbb C1E002   		sall	$2, %eax
 4001 0cbe 05000000 		addl	$_g_resimg_table, %eax
 4001      00
 4002 0cc3 89442404 		movl	%eax, 4(%esp)
 4003 0cc7 890C24   		movl	%ecx, (%esp)
 4004 0cca E8000000 		call	_strcmp
 4004      00
 4005 0ccf 85C0     		testl	%eax, %eax
 4006 0cd1 7542     		jne	L57
 688:../../MMI/Resource/WriteProcess.cpp ****                 {
 689:../../MMI/Resource/WriteProcess.cpp ****                     data.m_processData.res_size = g_resimg_table[i].size;
 4008              	LM125:
 4009 0cd3 8B4D08   		movl	8(%ebp), %ecx
 4010 0cd6 8B55E4   		movl	-28(%ebp), %edx
 4011 0cd9 89D0     		movl	%edx, %eax
 4012 0cdb C1E008   		sall	$8, %eax
 4013 0cde 01D0     		addl	%edx, %eax
 4014 0ce0 C1E002   		sall	$2, %eax
 4015 0ce3 8B800004 		movl	_g_resimg_table+1024(%eax), %eax
 4015      0000
 4016 0ce9 89811402 		movl	%eax, 532(%ecx)
 4016      0000
 690:../../MMI/Resource/WriteProcess.cpp ****                     strcpy(data.m_processData.real_filename, g_resimg_table[i].real_filename);
 4018              	LM126:
 4019 0cef 8B55E4   		movl	-28(%ebp), %edx
 4020 0cf2 89D0     		movl	%edx, %eax
 4021 0cf4 C1E008   		sall	$8, %eax
 4022 0cf7 01D0     		addl	%edx, %eax
 4023 0cf9 C1E002   		sall	$2, %eax
 4024 0cfc 05000200 		addl	$_g_resimg_table+512, %eax
 4024      00
 4025 0d01 89442404 		movl	%eax, 4(%esp)
 4026 0d05 8B4508   		movl	8(%ebp), %eax
 4027 0d08 83C014   		addl	$20, %eax
 4028 0d0b 890424   		movl	%eax, (%esp)
 4029 0d0e E8000000 		call	_strcpy
 4029      00
 691:../../MMI/Resource/WriteProcess.cpp ****                     break;
 4031              	LM127:
 4032 0d13 EB0A     		jmp	L56
 4034              	LM128:
 4035              	L57:
GAS LISTING d:/MTK/MTK2503/MTK2503/11CW1418SP4_03_CORETEK03AE_11C_V1_GPRS_MMI/plutommi/Customer/ResGenerator/gcctmp/cck7daaa.s 			page 36


 4036 0d15 8D45E4   		leal	-28(%ebp), %eax
 4037 0d18 FF00     		incl	(%eax)
 4038 0d1a E975FFFF 		jmp	L55
 4038      FF
 4039              	L56:
 692:../../MMI/Resource/WriteProcess.cpp ****                 }
 693:../../MMI/Resource/WriteProcess.cpp ****             }
 694:../../MMI/Resource/WriteProcess.cpp ****         }
 695:../../MMI/Resource/WriteProcess.cpp ****         RESPRTONERECORD_IMG_EXT(fpImageResourceUsage, fpImageResourceUsageExt, data.m_nImgId, data.
 4041              	LM129:
 4042              	LBE21:
 4043              	LBB22:
 4044              	LBB23:
 4045              	LBB24:
 4046 0d1f 833D0000 		cmpl	$0, _fpImageResourceUsage
 4046      000000
 4047 0d26 0F84FE00 		je	L61
 4047      0000
 4048 0d2c 8B4508   		movl	8(%ebp), %eax
 4049              	LBB25:
 4050 0d2f 83C008   		addl	$8, %eax
 4051 0d32 890424   		movl	%eax, (%esp)
 4052 0d35 E8000000 		call	__ZNKSs5c_strEv
 4052      00
 4053 0d3a 89442404 		movl	%eax, 4(%esp)
 4054 0d3e 8B4508   		movl	8(%ebp), %eax
 4055 0d41 0FB700   		movzwl	(%eax), %eax
 4056 0d44 890424   		movl	%eax, (%esp)
 4057 0d47 E8000000 		call	_GetOffsetFromResourceBase
 4057      00
 4058 0d4c 8945E4   		movl	%eax, -28(%ebp)
 4059 0d4f 837DE4FF 		cmpl	$-1, -28(%ebp)
 4060 0d53 755C     		jne	L63
 4061 0d55 8B4508   		movl	8(%ebp), %eax
 4062 0d58 83C008   		addl	$8, %eax
 4063 0d5b 890424   		movl	%eax, (%esp)
 4064 0d5e E8000000 		call	__ZNKSs5c_strEv
 4064      00
 4065 0d63 89C2     		movl	%eax, %edx
 4066 0d65 8B4508   		movl	8(%ebp), %eax
 4067 0d68 83C014   		addl	$20, %eax
 4068 0d6b 8944241C 		movl	%eax, 28(%esp)
 4069 0d6f 8B4508   		movl	8(%ebp), %eax
 4070 0d72 8B801402 		movl	532(%eax), %eax
 4070      0000
 4071 0d78 89442418 		movl	%eax, 24(%esp)
 4072 0d7c 89542414 		movl	%edx, 20(%esp)
 4073 0d80 8B4508   		movl	8(%ebp), %eax
 4074 0d83 0FB700   		movzwl	(%eax), %eax
 4075 0d86 89442410 		movl	%eax, 16(%esp)
 4076 0d8a C744240C 		movl	$-1, 12(%esp)
 4076      FFFFFFFF 
 4077 0d92 C7442408 		movl	$LC15, 8(%esp)
 4077      060B0000 
 4078 0d9a C7442404 		movl	$LC16, 4(%esp)
 4078      0D0B0000 
 4079 0da2 A1000000 		movl	_fpImageResourceUsage, %eax
GAS LISTING d:/MTK/MTK2503/MTK2503/11CW1418SP4_03_CORETEK03AE_11C_V1_GPRS_MMI/plutommi/Customer/ResGenerator/gcctmp/cck7daaa.s 			page 37


 4079      00
 4080 0da7 890424   		movl	%eax, (%esp)
 4081 0daa E8000000 		call	_fprintf
 4081      00
 4082 0daf EB79     		jmp	L61
 4083              	L63:
 4084 0db1 8B4508   		movl	8(%ebp), %eax
 4085 0db4 83C008   		addl	$8, %eax
 4086 0db7 890424   		movl	%eax, (%esp)
 4087 0dba E8000000 		call	__ZNKSs5c_strEv
 4087      00
 4088 0dbf 89C2     		movl	%eax, %edx
 4089 0dc1 8B4508   		movl	8(%ebp), %eax
 4090 0dc4 83C014   		addl	$20, %eax
 4091 0dc7 8944241C 		movl	%eax, 28(%esp)
 4092 0dcb 8B4508   		movl	8(%ebp), %eax
 4093 0dce 8B801402 		movl	532(%eax), %eax
 4093      0000
 4094 0dd4 89442418 		movl	%eax, 24(%esp)
 4095 0dd8 89542414 		movl	%edx, 20(%esp)
 4096 0ddc 8B4508   		movl	8(%ebp), %eax
 4097 0ddf 0FB700   		movzwl	(%eax), %eax
 4098 0de2 89442410 		movl	%eax, 16(%esp)
 4099 0de6 8B55E4   		movl	-28(%ebp), %edx
 4100 0de9 89D0     		movl	%edx, %eax
 4101 0deb C1E006   		sall	$6, %eax
 4102 0dee 01D0     		addl	%edx, %eax
 4103 0df0 C1E003   		sall	$3, %eax
 4104 0df3 0FB78004 		movzwl	_g_mmi_resource_base_table+4(%eax), %eax
 4104      000000
 4105 0dfa 8944240C 		movl	%eax, 12(%esp)
 4106 0dfe 8B55E4   		movl	-28(%ebp), %edx
 4107 0e01 89D0     		movl	%edx, %eax
 4108 0e03 C1E006   		sall	$6, %eax
 4109 0e06 01D0     		addl	%edx, %eax
 4110 0e08 C1E003   		sall	$3, %eax
 4111 0e0b 8B800000 		movl	_g_mmi_resource_base_table(%eax), %eax
 4111      0000
 4112 0e11 89442408 		movl	%eax, 8(%esp)
 4113 0e15 C7442404 		movl	$LC16, 4(%esp)
 4113      0D0B0000 
 4114 0e1d A1000000 		movl	_fpImageResourceUsage, %eax
 4114      00
 4115 0e22 890424   		movl	%eax, (%esp)
 4116 0e25 E8000000 		call	_fprintf
 4116      00
 4117              	L61:
 4118              	LBE25:
 4119              	LBE24:
 4120              	LBE23:
 4121 0e2a 8B4508   		movl	8(%ebp), %eax
 4122 0e2d 8B801402 		movl	532(%eax), %eax
 4122      0000
 4123 0e33 89442410 		movl	%eax, 16(%esp)
 4124 0e37 8B4508   		movl	8(%ebp), %eax
 4125 0e3a 8B802C02 		movl	556(%eax), %eax
 4125      0000
GAS LISTING d:/MTK/MTK2503/MTK2503/11CW1418SP4_03_CORETEK03AE_11C_V1_GPRS_MMI/plutommi/Customer/ResGenerator/gcctmp/cck7daaa.s 			page 38


 4126 0e40 8944240C 		movl	%eax, 12(%esp)
 4127 0e44 8B4508   		movl	8(%ebp), %eax
 4128 0e47 83C014   		addl	$20, %eax
 4129 0e4a 89442408 		movl	%eax, 8(%esp)
 4130 0e4e C7442404 		movl	$LC17, 4(%esp)
 4130      230B0000 
 4131 0e56 A1000000 		movl	_fpImageResourceUsageExt, %eax
 4131      00
 4132 0e5b 890424   		movl	%eax, (%esp)
 4133 0e5e E8000000 		call	_fprintf
 4133      00
 4134              	LBE22:
 4135              	LBE20:
 4136 0e63 E9190200 		jmp	L43
 4136      00
 4137              	L49:
 696:../../MMI/Resource/WriteProcess.cpp ****     }
 697:../../MMI/Resource/WriteProcess.cpp ****     else
 698:../../MMI/Resource/WriteProcess.cpp ****     {
 699:../../MMI/Resource/WriteProcess.cpp ****         strcpy(pImageNameList[*pCurrMaxImageNum].filename, data.m_filename.c_str());
 4139              	LM130:
 4140 0e68 8B4508   		movl	8(%ebp), %eax
 4141              	LBB26:
 4142 0e6b 83C004   		addl	$4, %eax
 4143 0e6e 890424   		movl	%eax, (%esp)
 4144 0e71 E8000000 		call	__ZNKSs5c_strEv
 4144      00
 4145 0e76 89442404 		movl	%eax, 4(%esp)
 4146 0e7a 8B45FC   		movl	-4(%ebp), %eax
 4147 0e7d 0FB700   		movzwl	(%eax), %eax
 4148 0e80 C1E009   		sall	$9, %eax
 4149 0e83 0345F4   		addl	-12(%ebp), %eax
 4150 0e86 890424   		movl	%eax, (%esp)
 4151 0e89 E8000000 		call	_strcpy
 4151      00
 700:../../MMI/Resource/WriteProcess.cpp ****         pImageIdMap[data.m_nImgId].nImageNum = *pCurrMaxImageNum;
 4153              	LM131:
 4154 0e8e 8B4508   		movl	8(%ebp), %eax
 4155 0e91 0FB700   		movzwl	(%eax), %eax
 4156 0e94 8D0C00   		leal	(%eax,%eax), %ecx
 4157 0e97 8B55F8   		movl	-8(%ebp), %edx
 4158 0e9a 8B45FC   		movl	-4(%ebp), %eax
 4159 0e9d 0FB700   		movzwl	(%eax), %eax
 4160 0ea0 6689040A 		movw	%ax, (%edx,%ecx)
 701:../../MMI/Resource/WriteProcess.cpp ****         (*pCurrMaxImageNum)++;
 4162              	LM132:
 4163 0ea4 8B55FC   		movl	-4(%ebp), %edx
 4164 0ea7 8B45FC   		movl	-4(%ebp), %eax
 4165 0eaa 0FB700   		movzwl	(%eax), %eax
 4166 0ead 40       		incl	%eax
 4167 0eae 668902   		movw	%ax, (%edx)
 702:../../MMI/Resource/WriteProcess.cpp ****         (*pCurrMaxImageId)++;
 4169              	LM133:
 4170 0eb1 8B55F0   		movl	-16(%ebp), %edx
 4171 0eb4 8B45F0   		movl	-16(%ebp), %eax
 4172 0eb7 0FB700   		movzwl	(%eax), %eax
 4173 0eba 40       		incl	%eax
GAS LISTING d:/MTK/MTK2503/MTK2503/11CW1418SP4_03_CORETEK03AE_11C_V1_GPRS_MMI/plutommi/Customer/ResGenerator/gcctmp/cck7daaa.s 			page 39


 4174 0ebb 668902   		movw	%ax, (%edx)
 703:../../MMI/Resource/WriteProcess.cpp **** 
 704:../../MMI/Resource/WriteProcess.cpp ****         g_resimg_table[g_resimg_count].size = data.m_processData.res_size;
 4176              	LM134:
 4177 0ebe 8B150000 		movl	_g_resimg_count, %edx
 4177      0000
 4178 0ec4 89D0     		movl	%edx, %eax
 4179 0ec6 C1E008   		sall	$8, %eax
 4180 0ec9 01D0     		addl	%edx, %eax
 4181 0ecb 8D148500 		leal	0(,%eax,4), %edx
 4181      000000
 4182 0ed2 8B4508   		movl	8(%ebp), %eax
 4183 0ed5 8B801402 		movl	532(%eax), %eax
 4183      0000
 4184 0edb 89820004 		movl	%eax, _g_resimg_table+1024(%edx)
 4184      0000
 705:../../MMI/Resource/WriteProcess.cpp ****         strcpy(g_resimg_table[g_resimg_count].filename, data.m_filename.c_str());
 4186              	LM135:
 4187 0ee1 8B4508   		movl	8(%ebp), %eax
 4188 0ee4 83C004   		addl	$4, %eax
 4189 0ee7 890424   		movl	%eax, (%esp)
 4190 0eea E8000000 		call	__ZNKSs5c_strEv
 4190      00
 4191 0eef 89442404 		movl	%eax, 4(%esp)
 4192 0ef3 8B150000 		movl	_g_resimg_count, %edx
 4192      0000
 4193 0ef9 89D0     		movl	%edx, %eax
 4194 0efb C1E008   		sall	$8, %eax
 4195 0efe 01D0     		addl	%edx, %eax
 4196 0f00 C1E002   		sall	$2, %eax
 4197 0f03 05000000 		addl	$_g_resimg_table, %eax
 4197      00
 4198 0f08 890424   		movl	%eax, (%esp)
 4199 0f0b E8000000 		call	_strcpy
 4199      00
 706:../../MMI/Resource/WriteProcess.cpp ****         strcpy(g_resimg_table[g_resimg_count].real_filename, data.m_processData.real_filename);
 4201              	LM136:
 4202 0f10 8B4508   		movl	8(%ebp), %eax
 4203 0f13 83C014   		addl	$20, %eax
 4204 0f16 89442404 		movl	%eax, 4(%esp)
 4205 0f1a 8B150000 		movl	_g_resimg_count, %edx
 4205      0000
 4206 0f20 89D0     		movl	%edx, %eax
 4207 0f22 C1E008   		sall	$8, %eax
 4208 0f25 01D0     		addl	%edx, %eax
 4209 0f27 C1E002   		sall	$2, %eax
 4210 0f2a 05000200 		addl	$_g_resimg_table+512, %eax
 4210      00
 4211 0f2f 890424   		movl	%eax, (%esp)
 4212 0f32 E8000000 		call	_strcpy
 4212      00
 707:../../MMI/Resource/WriteProcess.cpp ****         g_resimg_count ++;
 4214              	LM137:
 4215 0f37 FF050000 		incl	_g_resimg_count
 4215      0000
 708:../../MMI/Resource/WriteProcess.cpp ****         RESPRTONERECORD_IMG_EXT(fpImageResourceUsage, fpImageResourceUsageExt, data.m_nImgId, data.
 4217              	LM138:
GAS LISTING d:/MTK/MTK2503/MTK2503/11CW1418SP4_03_CORETEK03AE_11C_V1_GPRS_MMI/plutommi/Customer/ResGenerator/gcctmp/cck7daaa.s 			page 40


 4218              	LBB27:
 4219              	LBB28:
 4220              	LBB29:
 4221 0f3d 833D0000 		cmpl	$0, _fpImageResourceUsage
 4221      000000
 4222 0f44 0F84FE00 		je	L70
 4222      0000
 4223 0f4a 8B4508   		movl	8(%ebp), %eax
 4224              	LBB30:
 4225 0f4d 83C008   		addl	$8, %eax
 4226 0f50 890424   		movl	%eax, (%esp)
 4227 0f53 E8000000 		call	__ZNKSs5c_strEv
 4227      00
 4228 0f58 89442404 		movl	%eax, 4(%esp)
 4229 0f5c 8B4508   		movl	8(%ebp), %eax
 4230 0f5f 0FB700   		movzwl	(%eax), %eax
 4231 0f62 890424   		movl	%eax, (%esp)
 4232 0f65 E8000000 		call	_GetOffsetFromResourceBase
 4232      00
 4233 0f6a 8945E4   		movl	%eax, -28(%ebp)
 4234 0f6d 837DE4FF 		cmpl	$-1, -28(%ebp)
 4235 0f71 755C     		jne	L72
 4236 0f73 8B4508   		movl	8(%ebp), %eax
 4237 0f76 83C008   		addl	$8, %eax
 4238 0f79 890424   		movl	%eax, (%esp)
 4239 0f7c E8000000 		call	__ZNKSs5c_strEv
 4239      00
 4240 0f81 89C2     		movl	%eax, %edx
 4241 0f83 8B4508   		movl	8(%ebp), %eax
 4242 0f86 83C014   		addl	$20, %eax
 4243 0f89 8944241C 		movl	%eax, 28(%esp)
 4244 0f8d 8B4508   		movl	8(%ebp), %eax
 4245 0f90 8B801402 		movl	532(%eax), %eax
 4245      0000
 4246 0f96 89442418 		movl	%eax, 24(%esp)
 4247 0f9a 89542414 		movl	%edx, 20(%esp)
 4248 0f9e 8B4508   		movl	8(%ebp), %eax
 4249 0fa1 0FB700   		movzwl	(%eax), %eax
 4250 0fa4 89442410 		movl	%eax, 16(%esp)
 4251 0fa8 C744240C 		movl	$-1, 12(%esp)
 4251      FFFFFFFF 
 4252 0fb0 C7442408 		movl	$LC15, 8(%esp)
 4252      060B0000 
 4253 0fb8 C7442404 		movl	$LC16, 4(%esp)
 4253      0D0B0000 
 4254 0fc0 A1000000 		movl	_fpImageResourceUsage, %eax
 4254      00
 4255 0fc5 890424   		movl	%eax, (%esp)
 4256 0fc8 E8000000 		call	_fprintf
 4256      00
 4257 0fcd EB79     		jmp	L70
 4258              	L72:
 4259 0fcf 8B4508   		movl	8(%ebp), %eax
 4260 0fd2 83C008   		addl	$8, %eax
 4261 0fd5 890424   		movl	%eax, (%esp)
 4262 0fd8 E8000000 		call	__ZNKSs5c_strEv
 4262      00
GAS LISTING d:/MTK/MTK2503/MTK2503/11CW1418SP4_03_CORETEK03AE_11C_V1_GPRS_MMI/plutommi/Customer/ResGenerator/gcctmp/cck7daaa.s 			page 41


 4263 0fdd 89C2     		movl	%eax, %edx
 4264 0fdf 8B4508   		movl	8(%ebp), %eax
 4265 0fe2 83C014   		addl	$20, %eax
 4266 0fe5 8944241C 		movl	%eax, 28(%esp)
 4267 0fe9 8B4508   		movl	8(%ebp), %eax
 4268 0fec 8B801402 		movl	532(%eax), %eax
 4268      0000
 4269 0ff2 89442418 		movl	%eax, 24(%esp)
 4270 0ff6 89542414 		movl	%edx, 20(%esp)
 4271 0ffa 8B4508   		movl	8(%ebp), %eax
 4272 0ffd 0FB700   		movzwl	(%eax), %eax
 4273 1000 89442410 		movl	%eax, 16(%esp)
 4274 1004 8B55E4   		movl	-28(%ebp), %edx
 4275 1007 89D0     		movl	%edx, %eax
 4276 1009 C1E006   		sall	$6, %eax
 4277 100c 01D0     		addl	%edx, %eax
 4278 100e C1E003   		sall	$3, %eax
 4279 1011 0FB78004 		movzwl	_g_mmi_resource_base_table+4(%eax), %eax
 4279      000000
 4280 1018 8944240C 		movl	%eax, 12(%esp)
 4281 101c 8B55E4   		movl	-28(%ebp), %edx
 4282 101f 89D0     		movl	%edx, %eax
 4283 1021 C1E006   		sall	$6, %eax
 4284 1024 01D0     		addl	%edx, %eax
 4285 1026 C1E003   		sall	$3, %eax
 4286 1029 8B800000 		movl	_g_mmi_resource_base_table(%eax), %eax
 4286      0000
 4287 102f 89442408 		movl	%eax, 8(%esp)
 4288 1033 C7442404 		movl	$LC16, 4(%esp)
 4288      0D0B0000 
 4289 103b A1000000 		movl	_fpImageResourceUsage, %eax
 4289      00
 4290 1040 890424   		movl	%eax, (%esp)
 4291 1043 E8000000 		call	_fprintf
 4291      00
 4292              	L70:
 4293              	LBE30:
 4294              	LBE29:
 4295              	LBE28:
 4296 1048 8B4508   		movl	8(%ebp), %eax
 4297 104b 8B801402 		movl	532(%eax), %eax
 4297      0000
 4298 1051 89442410 		movl	%eax, 16(%esp)
 4299 1055 8B4508   		movl	8(%ebp), %eax
 4300 1058 8B802C02 		movl	556(%eax), %eax
 4300      0000
 4301 105e 8944240C 		movl	%eax, 12(%esp)
 4302 1062 8B4508   		movl	8(%ebp), %eax
 4303 1065 83C014   		addl	$20, %eax
 4304 1068 89442408 		movl	%eax, 8(%esp)
 4305 106c C7442404 		movl	$LC17, 4(%esp)
 4305      230B0000 
 4306 1074 A1000000 		movl	_fpImageResourceUsageExt, %eax
 4306      00
 4307 1079 890424   		movl	%eax, (%esp)
 4308 107c E8000000 		call	_fprintf
 4308      00
GAS LISTING d:/MTK/MTK2503/MTK2503/11CW1418SP4_03_CORETEK03AE_11C_V1_GPRS_MMI/plutommi/Customer/ResGenerator/gcctmp/cck7daaa.s 			page 42


 709:../../MMI/Resource/WriteProcess.cpp ****     }
 710:../../MMI/Resource/WriteProcess.cpp **** }
 4310              	LM139:
 4311              	L43:
 4312 1081 C9       		leave
 4313 1082 C3       		ret
 4314              	LBE27:
 4315              	LBE26:
 4316              	LBE19:
 4317              	LBE18:
 4318              	LBE17:
 4319              	LBE16:
 4339              	Lscope10:
 4341 1083 90       		.align 2
 4344              	__Z18getMaxThreadNumberv:
 711:../../MMI/Resource/WriteProcess.cpp **** 
 712:../../MMI/Resource/WriteProcess.cpp **** class ConvertRequest : public ThreadPool::IRunObject
 713:../../MMI/Resource/WriteProcess.cpp **** {
 714:../../MMI/Resource/WriteProcess.cpp **** public:
 715:../../MMI/Resource/WriteProcess.cpp ****     ConvertRequest(ProcessImageData & data) : m_data(data)
 716:../../MMI/Resource/WriteProcess.cpp ****     {
 717:../../MMI/Resource/WriteProcess.cpp ****     }
 718:../../MMI/Resource/WriteProcess.cpp **** 
 719:../../MMI/Resource/WriteProcess.cpp ****     void Run()
 720:../../MMI/Resource/WriteProcess.cpp ****     {
 721:../../MMI/Resource/WriteProcess.cpp ****         SetImageWithBufferExImp(m_data.m_nImgId, (S8*)m_data.m_filename.c_str(),
 722:../../MMI/Resource/WriteProcess.cpp ****             (S8*)m_data.m_enum_value.c_str(), m_data.m_imgFlag,
 723:../../MMI/Resource/WriteProcess.cpp ****             m_data.m_force_type, &m_data.m_processData);
 724:../../MMI/Resource/WriteProcess.cpp ****         delete this;
 725:../../MMI/Resource/WriteProcess.cpp ****     }
 726:../../MMI/Resource/WriteProcess.cpp **** 
 727:../../MMI/Resource/WriteProcess.cpp ****     bool AutoDelete()
 728:../../MMI/Resource/WriteProcess.cpp ****     {
 729:../../MMI/Resource/WriteProcess.cpp ****         return false;
 730:../../MMI/Resource/WriteProcess.cpp ****     }
 731:../../MMI/Resource/WriteProcess.cpp **** 
 732:../../MMI/Resource/WriteProcess.cpp **** private:
 733:../../MMI/Resource/WriteProcess.cpp ****     ProcessImageData & m_data;
 734:../../MMI/Resource/WriteProcess.cpp **** };
 735:../../MMI/Resource/WriteProcess.cpp **** 
 736:../../MMI/Resource/WriteProcess.cpp **** static DWORD getMaxThreadNumber(){
 4346              	LM140:
 4347 1084 55       		pushl	%ebp
 4348 1085 89E5     		movl	%esp, %ebp
 4349 1087 83EC58   		subl	$88, %esp
 737:../../MMI/Resource/WriteProcess.cpp ****     DWORD threadCount = 1;
 4351              	LM141:
 4352              	LBB31:
 4353 108a C745F401 		movl	$1, -12(%ebp)
 4353      000000
 738:../../MMI/Resource/WriteProcess.cpp ****     DWORD maxThreadCount = 1;
 4355              	LM142:
 4356 1091 C745F001 		movl	$1, -16(%ebp)
 4356      000000
 739:../../MMI/Resource/WriteProcess.cpp ****     // Set max numebr of concurrent threads in image processing thread pool
 740:../../MMI/Resource/WriteProcess.cpp ****     SYSTEM_INFO sysinfo;
 741:../../MMI/Resource/WriteProcess.cpp ****     GetSystemInfo( &sysinfo );
GAS LISTING d:/MTK/MTK2503/MTK2503/11CW1418SP4_03_CORETEK03AE_11C_V1_GPRS_MMI/plutommi/Customer/ResGenerator/gcctmp/cck7daaa.s 			page 43


 4358              	LM143:
 4359 1098 8D45B8   		leal	-72(%ebp), %eax
 4360 109b 890424   		movl	%eax, (%esp)
 4361 109e E8000000 		call	_GetSystemInfo@4
 4361      00
 4362 10a3 83EC04   		subl	$4, %esp
 742:../../MMI/Resource/WriteProcess.cpp ****     maxThreadCount = resconfig_adaptor_get_max_thread_numebr();
 4364              	LM144:
 4365 10a6 E8000000 		call	_resconfig_adaptor_get_max_thread_numebr
 4365      00
 4366 10ab 8945F0   		movl	%eax, -16(%ebp)
 743:../../MMI/Resource/WriteProcess.cpp ****     if(sysinfo.dwNumberOfProcessors * 2 > maxThreadCount)
 4368              	LM145:
 4369 10ae 8B45CC   		movl	-52(%ebp), %eax
 4370 10b1 01C0     		addl	%eax, %eax
 4371 10b3 3B45F0   		cmpl	-16(%ebp), %eax
 4372 10b6 7608     		jbe	L78
 744:../../MMI/Resource/WriteProcess.cpp ****     {
 745:../../MMI/Resource/WriteProcess.cpp ****         threadCount = maxThreadCount;
 4374              	LM146:
 4375 10b8 8B45F0   		movl	-16(%ebp), %eax
 4376 10bb 8945F4   		movl	%eax, -12(%ebp)
 4377 10be EB08     		jmp	L79
 4378              	L78:
 746:../../MMI/Resource/WriteProcess.cpp ****     }
 747:../../MMI/Resource/WriteProcess.cpp ****     else
 748:../../MMI/Resource/WriteProcess.cpp ****     {
 749:../../MMI/Resource/WriteProcess.cpp ****         threadCount = sysinfo.dwNumberOfProcessors * 2;;
 4380              	LM147:
 4381 10c0 8B45CC   		movl	-52(%ebp), %eax
 4382 10c3 01C0     		addl	%eax, %eax
 4383 10c5 8945F4   		movl	%eax, -12(%ebp)
 4384              	L79:
 750:../../MMI/Resource/WriteProcess.cpp ****     }
 751:../../MMI/Resource/WriteProcess.cpp **** 
 752:../../MMI/Resource/WriteProcess.cpp **** #ifdef __MMI_RESOURCE_ENFB_SUPPORT__
 753:../../MMI/Resource/WriteProcess.cpp ****     threadCount = 1;
 754:../../MMI/Resource/WriteProcess.cpp **** #endif
 755:../../MMI/Resource/WriteProcess.cpp **** 
 756:../../MMI/Resource/WriteProcess.cpp ****     return threadCount;
 4386              	LM148:
 4387 10c8 8B45F4   		movl	-12(%ebp), %eax
 757:../../MMI/Resource/WriteProcess.cpp **** }
 4389              	LM149:
 4390 10cb C9       		leave
 4391 10cc C3       		ret
 4392              	LBE31:
 4398              	Lscope11:
 4400 10cd 90       		.align 2
 4402              	.globl _ProcessResgenPngImages
 4404              	_ProcessResgenPngImages:
 758:../../MMI/Resource/WriteProcess.cpp **** 
 759:../../MMI/Resource/WriteProcess.cpp **** void ProcessResgenPngImages()
 760:../../MMI/Resource/WriteProcess.cpp **** {
 4406              	LM150:
 4407 10ce 55       		pushl	%ebp
 4408 10cf 89E5     		movl	%esp, %ebp
GAS LISTING d:/MTK/MTK2503/MTK2503/11CW1418SP4_03_CORETEK03AE_11C_V1_GPRS_MMI/plutommi/Customer/ResGenerator/gcctmp/cck7daaa.s 			page 44


 4409 10d1 83EC08   		subl	$8, %esp
 761:../../MMI/Resource/WriteProcess.cpp **** #ifndef __POPULATE_NO_IMAGE_DATA__
 762:../../MMI/Resource/WriteProcess.cpp ****     //Max numebr of concurrent threads in image processing thread pool
 763:../../MMI/Resource/WriteProcess.cpp ****     DWORD threadCount = getMaxThreadNumber();
 764:../../MMI/Resource/WriteProcess.cpp **** 
 765:../../MMI/Resource/WriteProcess.cpp **** 	ImageGroupContentMetaCreator * contentMetacreator = new ImageGroupContentMetaCreator();
 766:../../MMI/Resource/WriteProcess.cpp **** #endif //__POPULATE_NO_IMAGE_DATA__
 767:../../MMI/Resource/WriteProcess.cpp ****     // process binary data
 768:../../MMI/Resource/WriteProcess.cpp ****     ProcessBinaryData();
 4411              	LM151:
 4412              	LBB32:
 4413 10d4 E8030600 		call	__Z17ProcessBinaryDatav
 4413      00
 769:../../MMI/Resource/WriteProcess.cpp **** #ifndef __POPULATE_NO_IMAGE_DATA__
 770:../../MMI/Resource/WriteProcess.cpp ****     // execute_ext_command("echo resgen_time before Iloads %time%");
 771:../../MMI/Resource/WriteProcess.cpp **** 
 772:../../MMI/Resource/WriteProcess.cpp ****     // Create thread pool
 773:../../MMI/Resource/WriteProcess.cpp ****     IMGPROC_LOG_V("Creating Thread pool, threadCount = %d", threadCount);
 774:../../MMI/Resource/WriteProcess.cpp ****     ThreadPool * myPool = new ThreadPool(threadCount);
 775:../../MMI/Resource/WriteProcess.cpp ****     if(!myPool) 
 776:../../MMI/Resource/WriteProcess.cpp ****     {
 777:../../MMI/Resource/WriteProcess.cpp ****         IMGPROC_LOG_E("Thread pool was not created due to lack of memory available by the compilati
 778:../../MMI/Resource/WriteProcess.cpp ****     }
 779:../../MMI/Resource/WriteProcess.cpp ****     else
 780:../../MMI/Resource/WriteProcess.cpp ****     {
 781:../../MMI/Resource/WriteProcess.cpp ****         IMGPROC_LOG_V("Thread pool is created successfully");
 782:../../MMI/Resource/WriteProcess.cpp ****     }
 783:../../MMI/Resource/WriteProcess.cpp **** 
 784:../../MMI/Resource/WriteProcess.cpp ****     fflush(stdout);
 785:../../MMI/Resource/WriteProcess.cpp **** 
 786:../../MMI/Resource/WriteProcess.cpp ****     ProcessImageList::iterator i = g_resgen_png_image_list.begin();
 787:../../MMI/Resource/WriteProcess.cpp ****     for (; i != g_resgen_png_image_list.end(); ++i)
 788:../../MMI/Resource/WriteProcess.cpp ****     {
 789:../../MMI/Resource/WriteProcess.cpp ****         ProcessImageData & data = *i;
 790:../../MMI/Resource/WriteProcess.cpp ****         myPool->Run(new ConvertRequest(data) );
 791:../../MMI/Resource/WriteProcess.cpp ****     }
 792:../../MMI/Resource/WriteProcess.cpp **** 
 793:../../MMI/Resource/WriteProcess.cpp ****     //execute_ext_command("echo resgen_time waiting for threads %time%");
 794:../../MMI/Resource/WriteProcess.cpp ****     int waitCount = 0;
 795:../../MMI/Resource/WriteProcess.cpp ****     while (true)
 796:../../MMI/Resource/WriteProcess.cpp ****     {
 797:../../MMI/Resource/WriteProcess.cpp ****         if (myPool->GetWorkingThreadCount() == 0)
 798:../../MMI/Resource/WriteProcess.cpp ****         {
 799:../../MMI/Resource/WriteProcess.cpp ****             break;
 800:../../MMI/Resource/WriteProcess.cpp ****         }
 801:../../MMI/Resource/WriteProcess.cpp ****         ::Sleep(500);
 802:../../MMI/Resource/WriteProcess.cpp ****         waitCount += 1;
 803:../../MMI/Resource/WriteProcess.cpp ****         if (waitCount > 7200)
 804:../../MMI/Resource/WriteProcess.cpp ****         {
 805:../../MMI/Resource/WriteProcess.cpp ****             IMGPROC_LOG_E("mtk_resgenerator.exe Wait for threads timed out");
 806:../../MMI/Resource/WriteProcess.cpp ****             delete myPool;
 807:../../MMI/Resource/WriteProcess.cpp ****             exit(2);
 808:../../MMI/Resource/WriteProcess.cpp ****         }
 809:../../MMI/Resource/WriteProcess.cpp ****     }
 810:../../MMI/Resource/WriteProcess.cpp **** 
 811:../../MMI/Resource/WriteProcess.cpp ****     //execute_ext_command("echo resgen_time after Iloads %time%");
 812:../../MMI/Resource/WriteProcess.cpp ****     FILE *output = fopen(OUTPUT_DATA_FILENAME, "ab");
GAS LISTING d:/MTK/MTK2503/MTK2503/11CW1418SP4_03_CORETEK03AE_11C_V1_GPRS_MMI/plutommi/Customer/ResGenerator/gcctmp/cck7daaa.s 			page 45


 813:../../MMI/Resource/WriteProcess.cpp ****     FILE *outputExt = fopen(OUTPUT_DATA_FILENAME_EXT, "ab");
 814:../../MMI/Resource/WriteProcess.cpp ****     while (output == NULL)
 815:../../MMI/Resource/WriteProcess.cpp ****     {
 816:../../MMI/Resource/WriteProcess.cpp ****         Sleep(50);
 817:../../MMI/Resource/WriteProcess.cpp ****         output = fopen(OUTPUT_DATA_FILENAME, "ab");
 818:../../MMI/Resource/WriteProcess.cpp ****     }
 819:../../MMI/Resource/WriteProcess.cpp ****     while (outputExt == NULL)
 820:../../MMI/Resource/WriteProcess.cpp ****     {
 821:../../MMI/Resource/WriteProcess.cpp ****         Sleep(50);
 822:../../MMI/Resource/WriteProcess.cpp ****         outputExt = fopen(OUTPUT_DATA_FILENAME_EXT, "ab");
 823:../../MMI/Resource/WriteProcess.cpp ****     }
 824:../../MMI/Resource/WriteProcess.cpp ****     for (i = g_resgen_png_image_list.begin(); i != g_resgen_png_image_list.end(); ++i)
 825:../../MMI/Resource/WriteProcess.cpp ****     {
 826:../../MMI/Resource/WriteProcess.cpp ****         ProcessImageData & data = *i;
 827:../../MMI/Resource/WriteProcess.cpp **** 
 828:../../MMI/Resource/WriteProcess.cpp ****         // Show progress log in console
 829:../../MMI/Resource/WriteProcess.cpp ****         if(!data.m_filename.empty())
 830:../../MMI/Resource/WriteProcess.cpp ****         {
 831:../../MMI/Resource/WriteProcess.cpp ****             if(!data.m_filename.empty())
 832:../../MMI/Resource/WriteProcess.cpp ****             {
 833:../../MMI/Resource/WriteProcess.cpp ****                 IMGPROC_LOG_V("Process IMG %d(%s), file: %s", data.m_nImgId, data.m_enum_value.c_st
 834:../../MMI/Resource/WriteProcess.cpp ****             }
 835:../../MMI/Resource/WriteProcess.cpp ****             else
 836:../../MMI/Resource/WriteProcess.cpp ****             {
 837:../../MMI/Resource/WriteProcess.cpp ****                 IMGPROC_LOG_V("Process IMG %d, file: %s", data.m_nImgId, data.m_enum_value.c_str(),
 838:../../MMI/Resource/WriteProcess.cpp ****             }
 839:../../MMI/Resource/WriteProcess.cpp ****             fflush(stdout);
 840:../../MMI/Resource/WriteProcess.cpp ****         }
 841:../../MMI/Resource/WriteProcess.cpp **** 
 842:../../MMI/Resource/WriteProcess.cpp ****         if (data.m_processData.duplicated)
 843:../../MMI/Resource/WriteProcess.cpp ****         {
 844:../../MMI/Resource/WriteProcess.cpp ****             IMGPROC_LOG_V("Duplicated Image: ID = %d.", data.m_nImgId);
 845:../../MMI/Resource/WriteProcess.cpp ****             //if (g_resgen_png_image_list[data.m_processData.duplicatedIndex].failed)
 846:../../MMI/Resource/WriteProcess.cpp ****             if (data.m_processData.duplicatedInstance->failed)
 847:../../MMI/Resource/WriteProcess.cpp ****             {
 848:../../MMI/Resource/WriteProcess.cpp ****                 data.m_processData.failed = MMI_TRUE;
 849:../../MMI/Resource/WriteProcess.cpp ****             }
 850:../../MMI/Resource/WriteProcess.cpp ****         }
 851:../../MMI/Resource/WriteProcess.cpp **** 
 852:../../MMI/Resource/WriteProcess.cpp ****         ProcessResgenPngImagesMapIds(data);
 853:../../MMI/Resource/WriteProcess.cpp **** 
 854:../../MMI/Resource/WriteProcess.cpp **** 		// Add the image content to Generator object
 855:../../MMI/Resource/WriteProcess.cpp ****         if (data.m_processData.failed)
 856:../../MMI/Resource/WriteProcess.cpp ****         {
 857:../../MMI/Resource/WriteProcess.cpp ****             continue;
 858:../../MMI/Resource/WriteProcess.cpp ****         }
 859:../../MMI/Resource/WriteProcess.cpp **** 		// Let contenMetaCreator handle the duplicated issue
 860:../../MMI/Resource/WriteProcess.cpp **** 		if(data.m_processData.duplicated){
 861:../../MMI/Resource/WriteProcess.cpp **** 			contentMetacreator->addImage(data.m_filename.c_str(),data.m_outstream.data, data.m_outstream.dat
 862:../../MMI/Resource/WriteProcess.cpp **** 			continue;
 863:../../MMI/Resource/WriteProcess.cpp **** 		}
 864:../../MMI/Resource/WriteProcess.cpp ****         if (data.m_imgFlag)
 865:../../MMI/Resource/WriteProcess.cpp ****         {
 866:../../MMI/Resource/WriteProcess.cpp ****             ImageOutStreamOutputFile(&data.m_outstream, outputExt);
 867:../../MMI/Resource/WriteProcess.cpp ****         }
 868:../../MMI/Resource/WriteProcess.cpp ****         else
 869:../../MMI/Resource/WriteProcess.cpp ****         {
GAS LISTING d:/MTK/MTK2503/MTK2503/11CW1418SP4_03_CORETEK03AE_11C_V1_GPRS_MMI/plutommi/Customer/ResGenerator/gcctmp/cck7daaa.s 			page 46


 870:../../MMI/Resource/WriteProcess.cpp **** 			contentMetacreator->addImage(data.m_filename.c_str(),data.m_outstream.data, data.m_outstream.dat
 871:../../MMI/Resource/WriteProcess.cpp ****             ImageOutStreamOutputFile(&data.m_outstream, output);
 872:../../MMI/Resource/WriteProcess.cpp ****         }
 873:../../MMI/Resource/WriteProcess.cpp ****     }
 874:../../MMI/Resource/WriteProcess.cpp **** 	IMGPROC_LOG_V("Output Image Group Content Meta: %s",OUTPUT_IMG_GROUP_CONTENT_META_FILENAME);
 875:../../MMI/Resource/WriteProcess.cpp **** 	contentMetacreator->generateMetaFile(OUTPUT_IMG_GROUP_CONTENT_META_FILENAME);
 876:../../MMI/Resource/WriteProcess.cpp **** 
 877:../../MMI/Resource/WriteProcess.cpp ****     IMGPROC_LOG_V("Close FILE: %s",OUTPUT_DATA_FILENAME);
 878:../../MMI/Resource/WriteProcess.cpp ****     fflush(stdout);
 879:../../MMI/Resource/WriteProcess.cpp ****     MYFCLOSE(output);
 880:../../MMI/Resource/WriteProcess.cpp **** 
 881:../../MMI/Resource/WriteProcess.cpp ****     IMGPROC_LOG_V("Close FILE: %s",OUTPUT_DATA_FILENAME_EXT);
 882:../../MMI/Resource/WriteProcess.cpp ****     fflush(stdout);
 883:../../MMI/Resource/WriteProcess.cpp ****     MYFCLOSE(outputExt);
 884:../../MMI/Resource/WriteProcess.cpp **** 
 885:../../MMI/Resource/WriteProcess.cpp ****     IMGPROC_LOG_V("Clean g_resgen_png_image_list");
 886:../../MMI/Resource/WriteProcess.cpp ****     fflush(stdout);
 887:../../MMI/Resource/WriteProcess.cpp ****     g_resgen_png_image_list.clear();
 888:../../MMI/Resource/WriteProcess.cpp **** 
 889:../../MMI/Resource/WriteProcess.cpp **** 	delete contentMetacreator;
 890:../../MMI/Resource/WriteProcess.cpp ****     delete(myPool);
 891:../../MMI/Resource/WriteProcess.cpp **** #endif //__POPULATE_NO_IMAGE_DATA__
 892:../../MMI/Resource/WriteProcess.cpp ****     //execute_ext_command("echo resgen_time after output data %time%");
 893:../../MMI/Resource/WriteProcess.cpp **** }
 4415              	LM152:
 4416 10d9 C9       		leave
 4417 10da C3       		ret
 4418              	LBE32:
 4419              	Lscope12:
 4421 10db 90       		.align 2
 4424              	.globl _ImageOutStreamInit
 4426              	_ImageOutStreamInit:
 894:../../MMI/Resource/WriteProcess.cpp **** 
 895:../../MMI/Resource/WriteProcess.cpp **** 
 896:../../MMI/Resource/WriteProcess.cpp **** void ImageOutStreamInit(ResgenImageOutStream ** pStream)
 897:../../MMI/Resource/WriteProcess.cpp **** {
 4428              	LM153:
 4429 10dc 55       		pushl	%ebp
 4430 10dd 89E5     		movl	%esp, %ebp
 4431 10df 56       		pushl	%esi
 4432 10e0 53       		pushl	%ebx
 4433 10e1 83EC10   		subl	$16, %esp
 898:../../MMI/Resource/WriteProcess.cpp ****     *pStream = new ResgenImageOutStream();
 4435              	LM154:
 4436              	LBB33:
 4437 10e4 8B7508   		movl	8(%ebp), %esi
 4438 10e7 C7042408 		movl	$8, (%esp)
 4438      000000
 4439 10ee E8000000 		call	__Znwj
 4439      00
 4440 10f3 89C3     		movl	%eax, %ebx
 4441 10f5 891C24   		movl	%ebx, (%esp)
 4442 10f8 E8000000 		call	__ZN21_ResgenImageOutStreamC1Ev
 4442      00
 4443 10fd 89D8     		movl	%ebx, %eax
 4444 10ff 8906     		movl	%eax, (%esi)
 899:../../MMI/Resource/WriteProcess.cpp **** }
GAS LISTING d:/MTK/MTK2503/MTK2503/11CW1418SP4_03_CORETEK03AE_11C_V1_GPRS_MMI/plutommi/Customer/ResGenerator/gcctmp/cck7daaa.s 			page 47


 4446              	LM155:
 4447 1101 83C410   		addl	$16, %esp
 4448 1104 5B       		popl	%ebx
 4449 1105 5E       		popl	%esi
 4450 1106 5D       		popl	%ebp
 4451 1107 C3       		ret
 4452              	L82:
 4453              	L81:
 4454              	LBE33:
 4455              	Lscope13:
 4457              		.align 2
 4460              	.globl _ImageOutStreamDeinit
 4462              	_ImageOutStreamDeinit:
 900:../../MMI/Resource/WriteProcess.cpp **** 
 901:../../MMI/Resource/WriteProcess.cpp **** void ImageOutStreamDeinit(ResgenImageOutStream ** pStream)
 902:../../MMI/Resource/WriteProcess.cpp **** {
 4464              	LM156:
 4465 1108 55       		pushl	%ebp
 4466 1109 89E5     		movl	%esp, %ebp
 4467 110b 83EC08   		subl	$8, %esp
 903:../../MMI/Resource/WriteProcess.cpp ****     delete *pStream;
 4469              	LM157:
 4470              	LBB34:
 4471 110e 8B4508   		movl	8(%ebp), %eax
 4472 1111 8B00     		movl	(%eax), %eax
 4473 1113 8945FC   		movl	%eax, -4(%ebp)
 4474 1116 837DFC00 		cmpl	$0, -4(%ebp)
 4475 111a 7416     		je	L86
 4476 111c 8B45FC   		movl	-4(%ebp), %eax
 4477 111f 890424   		movl	%eax, (%esp)
 4478 1122 E8000000 		call	__ZN21_ResgenImageOutStreamD1Ev
 4478      00
 4479 1127 8B45FC   		movl	-4(%ebp), %eax
 4480 112a 890424   		movl	%eax, (%esp)
 4481 112d E8000000 		call	__ZdlPv
 4481      00
 4482              	L86:
 904:../../MMI/Resource/WriteProcess.cpp ****     pStream = NULL;
 4484              	LM158:
 4485 1132 C7450800 		movl	$0, 8(%ebp)
 4485      000000
 905:../../MMI/Resource/WriteProcess.cpp **** }
 4487              	LM159:
 4488 1139 C9       		leave
 4489 113a C3       		ret
 4490              	LBE34:
 4491              	Lscope14:
 4493 113b 90       		.align 2
 4497              	.globl _ImageOutStreamPrintf
 4499              	_ImageOutStreamPrintf:
 906:../../MMI/Resource/WriteProcess.cpp **** 
 907:../../MMI/Resource/WriteProcess.cpp **** void ImageOutStreamPrintf(ResgenImageOutStream * stream, char* fmt, ...)
 908:../../MMI/Resource/WriteProcess.cpp **** {
 4501              	LM160:
 4502 113c 55       		pushl	%ebp
 4503 113d 89E5     		movl	%esp, %ebp
 4504 113f 81EC3804 		subl	$1080, %esp
GAS LISTING d:/MTK/MTK2503/MTK2503/11CW1418SP4_03_CORETEK03AE_11C_V1_GPRS_MMI/plutommi/Customer/ResGenerator/gcctmp/cck7daaa.s 			page 48


 4504      0000
 909:../../MMI/Resource/WriteProcess.cpp ****     va_list myList;
 910:../../MMI/Resource/WriteProcess.cpp ****     char buffer[1024];
 911:../../MMI/Resource/WriteProcess.cpp **** 
 912:../../MMI/Resource/WriteProcess.cpp ****     va_start(myList,fmt);
 4506              	LM161:
 4507              	LBB35:
 4508 1145 8D4510   		leal	16(%ebp), %eax
 4509 1148 8945F4   		movl	%eax, -12(%ebp)
 913:../../MMI/Resource/WriteProcess.cpp ****     vsprintf(buffer, fmt, myList);
 4511              	LM162:
 4512 114b 8B45F4   		movl	-12(%ebp), %eax
 4513 114e 89442408 		movl	%eax, 8(%esp)
 4514 1152 8B450C   		movl	12(%ebp), %eax
 4515 1155 89442404 		movl	%eax, 4(%esp)
 4516 1159 8D85E8FB 		leal	-1048(%ebp), %eax
 4516      FFFF
 4517 115f 890424   		movl	%eax, (%esp)
 4518 1162 E8000000 		call	_vsprintf
 4518      00
 914:../../MMI/Resource/WriteProcess.cpp ****     va_end(myList);
 915:../../MMI/Resource/WriteProcess.cpp **** 
 916:../../MMI/Resource/WriteProcess.cpp ****     size_t size = strlen(buffer);
 4520              	LM163:
 4521 1167 8D85E8FB 		leal	-1048(%ebp), %eax
 4521      FFFF
 4522 116d 890424   		movl	%eax, (%esp)
 4523 1170 E8000000 		call	_strlen
 4523      00
 4524 1175 8985E4FB 		movl	%eax, -1052(%ebp)
 4524      FFFF
 917:../../MMI/Resource/WriteProcess.cpp ****     ImageOutStreamAppend(stream, buffer, size);
 4526              	LM164:
 4527 117b 8B85E4FB 		movl	-1052(%ebp), %eax
 4527      FFFF
 4528 1181 89442408 		movl	%eax, 8(%esp)
 4529 1185 8D85E8FB 		leal	-1048(%ebp), %eax
 4529      FFFF
 4530 118b 89442404 		movl	%eax, 4(%esp)
 4531 118f 8B4508   		movl	8(%ebp), %eax
 4532 1192 890424   		movl	%eax, (%esp)
 4533 1195 E8020000 		call	_ImageOutStreamAppend
 4533      00
 918:../../MMI/Resource/WriteProcess.cpp **** 
 919:../../MMI/Resource/WriteProcess.cpp **** }
 4535              	LM165:
 4536 119a C9       		leave
 4537 119b C3       		ret
 4538              	LBE35:
 4544              	Lscope15:
 4546              		.align 2
 4551              	.globl _ImageOutStreamAppend
 4553              	_ImageOutStreamAppend:
 920:../../MMI/Resource/WriteProcess.cpp **** 
 921:../../MMI/Resource/WriteProcess.cpp **** void ImageOutStreamAppend(ResgenImageOutStream * stream, char* buffer, U32 size)
 922:../../MMI/Resource/WriteProcess.cpp **** {
 4555              	LM166:
GAS LISTING d:/MTK/MTK2503/MTK2503/11CW1418SP4_03_CORETEK03AE_11C_V1_GPRS_MMI/plutommi/Customer/ResGenerator/gcctmp/cck7daaa.s 			page 49


 4556 119c 55       		pushl	%ebp
 4557 119d 89E5     		movl	%esp, %ebp
 4558 119f 53       		pushl	%ebx
 4559 11a0 83EC14   		subl	$20, %esp
 923:../../MMI/Resource/WriteProcess.cpp ****     if (size == 0)
 4561              	LM167:
 4562              	LBB36:
 4563 11a3 837D1000 		cmpl	$0, 16(%ebp)
 4564 11a7 7502     		jne	L89
 924:../../MMI/Resource/WriteProcess.cpp ****     {
 925:../../MMI/Resource/WriteProcess.cpp ****         return;
 4566              	LM168:
 4567 11a9 EB50     		jmp	L88
 4568              	L89:
 926:../../MMI/Resource/WriteProcess.cpp ****     }
 927:../../MMI/Resource/WriteProcess.cpp ****     size_t org_size = stream->data_size;
 4570              	LM169:
 4571 11ab 8B4508   		movl	8(%ebp), %eax
 4572 11ae 8B00     		movl	(%eax), %eax
 4573 11b0 8945F8   		movl	%eax, -8(%ebp)
 928:../../MMI/Resource/WriteProcess.cpp ****     stream->data_size = org_size + size;
 4575              	LM170:
 4576 11b3 8B5508   		movl	8(%ebp), %edx
 4577 11b6 8B4510   		movl	16(%ebp), %eax
 4578 11b9 0345F8   		addl	-8(%ebp), %eax
 4579 11bc 8902     		movl	%eax, (%edx)
 929:../../MMI/Resource/WriteProcess.cpp ****     stream->data = (char*)realloc(stream->data, org_size + size);
 4581              	LM171:
 4582 11be 8B5D08   		movl	8(%ebp), %ebx
 4583 11c1 8B4510   		movl	16(%ebp), %eax
 4584 11c4 0345F8   		addl	-8(%ebp), %eax
 4585 11c7 89442404 		movl	%eax, 4(%esp)
 4586 11cb 8B4508   		movl	8(%ebp), %eax
 4587 11ce 8B4004   		movl	4(%eax), %eax
 4588 11d1 890424   		movl	%eax, (%esp)
 4589 11d4 E8000000 		call	_realloc
 4589      00
 4590 11d9 894304   		movl	%eax, 4(%ebx)
 930:../../MMI/Resource/WriteProcess.cpp **** 
 931:../../MMI/Resource/WriteProcess.cpp ****     memcpy(stream->data + org_size, buffer, size);
 4592              	LM172:
 4593 11dc 8B4510   		movl	16(%ebp), %eax
 4594 11df 89442408 		movl	%eax, 8(%esp)
 4595 11e3 8B450C   		movl	12(%ebp), %eax
 4596 11e6 89442404 		movl	%eax, 4(%esp)
 4597 11ea 8B5508   		movl	8(%ebp), %edx
 4598 11ed 8B45F8   		movl	-8(%ebp), %eax
 4599 11f0 034204   		addl	4(%edx), %eax
 4600 11f3 890424   		movl	%eax, (%esp)
 4601 11f6 E8000000 		call	_memcpy
 4601      00
 932:../../MMI/Resource/WriteProcess.cpp **** }
 4603              	LM173:
 4604              	L88:
 4605 11fb 83C414   		addl	$20, %esp
 4606 11fe 5B       		popl	%ebx
 4607 11ff 5D       		popl	%ebp
GAS LISTING d:/MTK/MTK2503/MTK2503/11CW1418SP4_03_CORETEK03AE_11C_V1_GPRS_MMI/plutommi/Customer/ResGenerator/gcctmp/cck7daaa.s 			page 50


 4608 1200 C3       		ret
 4609              	LBE36:
 4613              	Lscope16:
 4615 1201 90909090 		.align 32
 4615      90909090 
 4615      90909090 
 4615      90909090 
 4615      90909090 
 4616              	LC18:
 4617 1220 496D6167 		.ascii "ImageOutStreamOutputFile: ResgenImageOutStream(0x%x) or out_file(0x%x) can't be NULL\0"
 4617      654F7574 
 4617      53747265 
 4617      616D4F75 
 4617      74707574 
 4618 1275 90       		.align 2
 4622              	.globl _ImageOutStreamOutputFile
 4624              	_ImageOutStreamOutputFile:
 933:../../MMI/Resource/WriteProcess.cpp **** 
 934:../../MMI/Resource/WriteProcess.cpp **** void ImageOutStreamOutputFile(ResgenImageOutStream * stream, FILE * out_file)
 935:../../MMI/Resource/WriteProcess.cpp **** {
 4626              	LM174:
 4627 1276 55       		pushl	%ebp
 4628 1277 89E5     		movl	%esp, %ebp
 4629 1279 83EC18   		subl	$24, %esp
 936:../../MMI/Resource/WriteProcess.cpp ****     if(ImageOutStreamOutputFile == NULL || ImageOutStreamOutputFile == NULL )
 4631              	LM175:
 4632              	LBB37:
 4633 127c B8761200 		movl	$_ImageOutStreamOutputFile, %eax
 4633      00
 4634 1281 85C0     		testl	%eax, %eax
 4635 1283 7409     		je	L92
 4636 1285 B8761200 		movl	$_ImageOutStreamOutputFile, %eax
 4636      00
 4637 128a 85C0     		testl	%eax, %eax
 4638 128c 753A     		jne	L91
 4639              	L92:
 937:../../MMI/Resource/WriteProcess.cpp ****     {
 938:../../MMI/Resource/WriteProcess.cpp ****         IMGPROC_LOG_V("ImageOutStreamOutputFile: ResgenImageOutStream(0x%x) or out_file(0x%x) can't
 4641              	LM176:
 4642 128e 8B450C   		movl	12(%ebp), %eax
 4643 1291 89442410 		movl	%eax, 16(%esp)
 4644 1295 8B4508   		movl	8(%ebp), %eax
 4645 1298 8944240C 		movl	%eax, 12(%esp)
 4646 129c C7442408 		movl	$LC18, 8(%esp)
 4646      20120000 
 4647 12a4 C7442404 		movl	$LC4, 4(%esp)
 4647      E4000000 
 4648 12ac C7042401 		movl	$1, (%esp)
 4648      000000
 4649 12b3 E8000000 		call	_reslog_adaptor_log
 4649      00
 939:../../MMI/Resource/WriteProcess.cpp ****         fflush(stdout);
 4651              	LM177:
 4652 12b8 A1000000 		movl	__imp___iob, %eax
 4652      00
 4653 12bd 83C020   		addl	$32, %eax
 4654 12c0 890424   		movl	%eax, (%esp)
GAS LISTING d:/MTK/MTK2503/MTK2503/11CW1418SP4_03_CORETEK03AE_11C_V1_GPRS_MMI/plutommi/Customer/ResGenerator/gcctmp/cck7daaa.s 			page 51


 4655 12c3 E8000000 		call	_fflush
 4655      00
 4656              	L91:
 940:../../MMI/Resource/WriteProcess.cpp ****     }
 941:../../MMI/Resource/WriteProcess.cpp **** 
 942:../../MMI/Resource/WriteProcess.cpp ****     if (stream->data_size > 0)
 4658              	LM178:
 4659 12c8 8B4508   		movl	8(%ebp), %eax
 4660 12cb 833800   		cmpl	$0, (%eax)
 4661 12ce 7E26     		jle	L90
 943:../../MMI/Resource/WriteProcess.cpp ****     {
 944:../../MMI/Resource/WriteProcess.cpp ****         fwrite(stream->data, stream->data_size, 1, out_file);
 4663              	LM179:
 4664 12d0 8B450C   		movl	12(%ebp), %eax
 4665 12d3 8944240C 		movl	%eax, 12(%esp)
 4666 12d7 C7442408 		movl	$1, 8(%esp)
 4666      01000000 
 4667 12df 8B4508   		movl	8(%ebp), %eax
 4668 12e2 8B00     		movl	(%eax), %eax
 4669 12e4 89442404 		movl	%eax, 4(%esp)
 4670 12e8 8B4508   		movl	8(%ebp), %eax
 4671 12eb 8B4004   		movl	4(%eax), %eax
 4672 12ee 890424   		movl	%eax, (%esp)
 4673 12f1 E8000000 		call	_fwrite
 4673      00
 945:../../MMI/Resource/WriteProcess.cpp ****     }
 946:../../MMI/Resource/WriteProcess.cpp **** }
 4675              	LM180:
 4676              	L90:
 4677 12f6 C9       		leave
 4678 12f7 C3       		ret
 4679              	LBE37:
 4680              	Lscope17:
 4682              		.align 2
 4687              	.globl _LogSetBinaryWithBuffer
 4689              	_LogSetBinaryWithBuffer:
 947:../../MMI/Resource/WriteProcess.cpp **** 
 948:../../MMI/Resource/WriteProcess.cpp **** void LogSetBinaryWithBuffer(
 949:../../MMI/Resource/WriteProcess.cpp ****                             U16 res_id,
 950:../../MMI/Resource/WriteProcess.cpp ****                             S8 *filename,
 951:../../MMI/Resource/WriteProcess.cpp ****                             int binary_type_flag)
 952:../../MMI/Resource/WriteProcess.cpp **** {
 4691              	LM181:
 4692 12f8 55       		pushl	%ebp
 4693 12f9 89E5     		movl	%esp, %ebp
 4694 12fb 57       		pushl	%edi
 4695 12fc 56       		pushl	%esi
 4696 12fd 53       		pushl	%ebx
 4697 12fe 83EC7C   		subl	$124, %esp
 4698 1301 8B4508   		movl	8(%ebp), %eax
 4699 1304 668945E6 		movw	%ax, -26(%ebp)
 4700 1308 C745B400 		movl	$___gxx_personality_sj0, -76(%ebp)
 4700      000000
 4701 130f C745B80C 		movl	$LLSDA2226, -72(%ebp)
 4701      000000
 4702 1316 8D45BC   		leal	-68(%ebp), %eax
 4703 1319 8D55E8   		leal	-24(%ebp), %edx
GAS LISTING d:/MTK/MTK2503/MTK2503/11CW1418SP4_03_CORETEK03AE_11C_V1_GPRS_MMI/plutommi/Customer/ResGenerator/gcctmp/cck7daaa.s 			page 52


 4704 131c 8910     		movl	%edx, (%eax)
 4705 131e BA781300 		movl	$L99, %edx
 4705      00
 4706 1323 895004   		movl	%edx, 4(%eax)
 4707 1326 896008   		movl	%esp, 8(%eax)
 4708 1329 8D459C   		leal	-100(%ebp), %eax
 4709 132c 890424   		movl	%eax, (%esp)
 4710 132f E8000000 		call	__Unwind_SjLj_Register
 4710      00
 953:../../MMI/Resource/WriteProcess.cpp ****     LogBinaryData data(res_id, filename, binary_type_flag);
 4712              	LM182:
 4713              	LBB38:
 4714 1334 8B4510   		movl	16(%ebp), %eax
 4715 1337 8944240C 		movl	%eax, 12(%esp)
 4716 133b 8B450C   		movl	12(%ebp), %eax
 4717 133e 89442408 		movl	%eax, 8(%esp)
 4718 1342 0FB745E6 		movzwl	-26(%ebp), %eax
 4719 1346 89442404 		movl	%eax, 4(%esp)
 4720 134a 8D45C8   		leal	-56(%ebp), %eax
 4721 134d 890424   		movl	%eax, (%esp)
 4722 1350 C745A0FF 		movl	$-1, -96(%ebp)
 4722      FFFFFF
 4723 1357 E8000000 		call	__ZN13LogBinaryDataC1EtPci
 4723      00
 954:../../MMI/Resource/WriteProcess.cpp ****     g_log_binary_data_list.push_back(data);
 4725              	LM183:
 4726 135c 8D45C8   		leal	-56(%ebp), %eax
 4727 135f 89442404 		movl	%eax, 4(%esp)
 4728 1363 C7042420 		movl	$_g_log_binary_data_list, (%esp)
 4728      000000
 4729 136a C745A001 		movl	$1, -96(%ebp)
 4729      000000
 4730 1371 E8000000 		call	__ZNSt4listI13LogBinaryDataSaIS0_EE9push_backERKS0_
 4730      00
 4731 1376 EB32     		jmp	L96
 4732              	L99:
 4733 1378 8D6D18   		leal	24(%ebp), %ebp
 4734 137b 8B45A4   		movl	-92(%ebp), %eax
 4735 137e 894594   		movl	%eax, -108(%ebp)
 4736              	L95:
 4737 1381 8B5594   		movl	-108(%ebp), %edx
 4738 1384 895598   		movl	%edx, -104(%ebp)
 4739 1387 8D45C8   		leal	-56(%ebp), %eax
 4740 138a 890424   		movl	%eax, (%esp)
 4741 138d E8000000 		call	__ZN13LogBinaryDataD1Ev
 4741      00
 4742 1392 8B4598   		movl	-104(%ebp), %eax
 4743 1395 894594   		movl	%eax, -108(%ebp)
 4744              	L97:
 4745 1398 8B5594   		movl	-108(%ebp), %edx
 4746 139b 891424   		movl	%edx, (%esp)
 4747 139e C745A0FF 		movl	$-1, -96(%ebp)
 4747      FFFFFF
 4748 13a5 E8000000 		call	__Unwind_SjLj_Resume
 4748      00
 4749              	L96:
 4750 13aa 8D45C8   		leal	-56(%ebp), %eax
GAS LISTING d:/MTK/MTK2503/MTK2503/11CW1418SP4_03_CORETEK03AE_11C_V1_GPRS_MMI/plutommi/Customer/ResGenerator/gcctmp/cck7daaa.s 			page 53


 4751 13ad 890424   		movl	%eax, (%esp)
 4752 13b0 E8000000 		call	__ZN13LogBinaryDataD1Ev
 4752      00
 955:../../MMI/Resource/WriteProcess.cpp **** }
 4754              	LM184:
 4755              	L94:
 4756 13b5 8D459C   		leal	-100(%ebp), %eax
 4757 13b8 890424   		movl	%eax, (%esp)
 4758 13bb E8000000 		call	__Unwind_SjLj_Unregister
 4758      00
 4759 13c0 83C47C   		addl	$124, %esp
 4760 13c3 5B       		popl	%ebx
 4761 13c4 5E       		popl	%esi
 4762 13c5 5F       		popl	%edi
 4763 13c6 5D       		popl	%ebp
 4764 13c7 C3       		ret
 4765              	LBE38:
 4766              		.section	.gcc_except_table,""
 4767              	LLSDA2226:
 4768 000c FF       		.byte	0xff
 4769 000d FF       		.byte	0xff
 4770 000e 01       		.byte	0x1
 4771 000f 02       		.uleb128 LLSDACSE2226-LLSDACSB2226
 4772              	LLSDACSB2226:
 4773 0010 00       		.uleb128 0x0
 4774 0011 00       		.uleb128 0x0
 4775              	LLSDACSE2226:
 4776              		.text
 4781              	Lscope18:
 4783 13c8 90909090 		.align 32
 4783      90909090 
 4783      90909090 
 4783      90909090 
 4783      90909090 
 4784              	LC19:
 4785 13e0 2E2E5C2E 		.ascii "..\\..\\..\\tools\\python25\\python resgen_populate.py\0"
 4785      2E5C2E2E 
 4785      5C746F6F 
 4785      6C735C70 
 4785      7974686F 
 4786 1412 8DB42600 		.align 32
 4786      0000008D 
 4786      BC270000 
 4786      0000
 4787              	LC20:
 4788 1420 4572726F 		.ascii "Error!! 3D resource generation FAIL !!\0"
 4788      72212120 
 4788      33442072 
 4788      65736F75 
 4788      72636520 
 4789 1447 90909090 		.align 32
 4789      90909090 
 4789      90909090 
 4789      90909090 
 4789      90909090 
 4790              	LC21:
 4791 1460 506C6561 		.ascii "Please check the error message of TAG Py-RESGEN_POPULATE in this log file. Failed resource
GAS LISTING d:/MTK/MTK2503/MTK2503/11CW1418SP4_03_CORETEK03AE_11C_V1_GPRS_MMI/plutommi/Customer/ResGenerator/gcctmp/cck7daaa.s 			page 54


 4791      73652063 
 4791      6865636B 
 4791      20746865 
 4791      20657272 
 4792 1516 8D76008D 		.align 32
 4792      BC270000 
 4792      0000
 4793              	LC22:
 4794 1520 45787465 		.ascii "External python script resgen_populate.py return error.\0"
 4794      726E616C 
 4794      20707974 
 4794      686F6E20 
 4794      73637269 
 4795 1558 908DB426 		.align 32
 4795      00000000 
 4796              	LC23:
 4797 1560 4572726F 		.ascii "Error!! 3D Resource generation FAIL !!\0"
 4797      72212120 
 4797      33442052 
 4797      65736F75 
 4797      72636520 
 4798 1587 90909090 		.align 32
 4798      90909090 
 4798      90909090 
 4798      90909090 
 4798      90909090 
 4799              	LC24:
 4800 15a0 0A2A2A20 		.ascii "\12** Fatal Error!! 3D Resource generation FAIL !!\12** Failed resource declaration are lo
 4800      46617461 
 4800      6C204572 
 4800      726F7221 
 4800      21203344 
 4801              		.align 2
 4804              	__Z17ProcessBinaryDatav:
 956:../../MMI/Resource/WriteProcess.cpp **** 
 957:../../MMI/Resource/WriteProcess.cpp **** static void ProcessBinaryData()
 958:../../MMI/Resource/WriteProcess.cpp **** {
 4806              	LM185:
 4807 16dc 55       		pushl	%ebp
 4808 16dd 89E5     		movl	%esp, %ebp
 4809 16df 83EC18   		subl	$24, %esp
 959:../../MMI/Resource/WriteProcess.cpp ****     // Binary resource population are saved in offline DB
 960:../../MMI/Resource/WriteProcess.cpp ****     // , and it can be read by resgen_populate.py directly
 961:../../MMI/Resource/WriteProcess.cpp ****     int result = execute_ext_command("..\\..\\..\\" "tools\\python25\\python" " resgen_populate.py"
 4811              	LM186:
 4812              	LBB39:
 4813 16e2 C70424E0 		movl	$LC19, (%esp)
 4813      130000
 4814 16e9 E8000000 		call	_execute_ext_command
 4814      00
 4815 16ee 8945FC   		movl	%eax, -4(%ebp)
 962:../../MMI/Resource/WriteProcess.cpp ****     if (result == 2)
 4817              	LM187:
 4818 16f1 837DFC02 		cmpl	$2, -4(%ebp)
 4819 16f5 7560     		jne	L100
 963:../../MMI/Resource/WriteProcess.cpp ****     {
 964:../../MMI/Resource/WriteProcess.cpp ****         //mtk_resgen_set_error();
GAS LISTING d:/MTK/MTK2503/MTK2503/11CW1418SP4_03_CORETEK03AE_11C_V1_GPRS_MMI/plutommi/Customer/ResGenerator/gcctmp/cck7daaa.s 			page 55


 965:../../MMI/Resource/WriteProcess.cpp ****         IMGPROC_LOG_E("Error!! 3D resource generation FAIL !!");
 4821              	LM188:
 4822 16f7 C7442408 		movl	$LC20, 8(%esp)
 4822      20140000 
 4823 16ff C7442404 		movl	$LC4, 4(%esp)
 4823      E4000000 
 4824 1707 C7042403 		movl	$3, (%esp)
 4824      000000
 4825 170e E8000000 		call	_reslog_adaptor_log
 4825      00
 966:../../MMI/Resource/WriteProcess.cpp ****         RES_LOG_PENDING_FATAL(IMGPROC_TAG, "Error!! 3D Resource generation FAIL !!","External pytho
 4827              	LM189:
 4828 1713 C7442410 		movl	$LC21, 16(%esp)
 4828      60140000 
 4829 171b C744240C 		movl	$LC22, 12(%esp)
 4829      20150000 
 4830 1723 C7442408 		movl	$LC23, 8(%esp)
 4830      60150000 
 4831 172b C7442404 		movl	$LC4, 4(%esp)
 4831      E4000000 
 4832 1733 C7042403 		movl	$3, (%esp)
 4832      000000
 4833 173a E8000000 		call	_reslog_adaptor_fatal_error_pending_log
 4833      00
 967:../../MMI/Resource/WriteProcess.cpp ****         fprintf(stderr, "\n** Fatal Error!! 3D Resource generation FAIL !!\n** Failed resource decl
 4835              	LM190:
 4836 173f C7442404 		movl	$LC24, 4(%esp)
 4836      A0150000 
 4837 1747 A1000000 		movl	__imp___iob, %eax
 4837      00
 4838 174c 83C040   		addl	$64, %eax
 4839 174f 890424   		movl	%eax, (%esp)
 4840 1752 E8000000 		call	_fprintf
 4840      00
 968:../../MMI/Resource/WriteProcess.cpp ****     }
 969:../../MMI/Resource/WriteProcess.cpp **** }
 4842              	LM191:
 4843              	L100:
 4844 1757 C9       		leave
 4845 1758 C3       		ret
 4846              	LBE39:
 4850              	Lscope19:
 4856              		.section	.text$_ZNSt4listI16ProcessImageDataSaIS0_EE5beginEv,"x"
 4857              		.linkonce discard
 4858              		.align 2
 4861              	.globl __ZNSt4listI16ProcessImageDataSaIS0_EE5beginEv
 4863              	__ZNSt4listI16ProcessImageDataSaIS0_EE5beginEv:
 4865              	Ltext1:
   1:d:/MTK/MTK2503/MTK2503/11CW1418SP4_03_CORETEK03AE_11C_V1_GPRS_MMI/Tools/MinGW/include/c++/3.3.1/bits/stl_list.h **** // List implementation -*- C++ -*-
   2:d:/MTK/MTK2503/MTK2503/11CW1418SP4_03_CORETEK03AE_11C_V1_GPRS_MMI/Tools/MinGW/include/c++/3.3.1/bits/stl_list.h **** 
   3:d:/MTK/MTK2503/MTK2503/11CW1418SP4_03_CORETEK03AE_11C_V1_GPRS_MMI/Tools/MinGW/include/c++/3.3.1/bits/stl_list.h **** // Copyright (C) 2001, 2002 Free Software Foundation, Inc.
   4:d:/MTK/MTK2503/MTK2503/11CW1418SP4_03_CORETEK03AE_11C_V1_GPRS_MMI/Tools/MinGW/include/c++/3.3.1/bits/stl_list.h **** //
   5:d:/MTK/MTK2503/MTK2503/11CW1418SP4_03_CORETEK03AE_11C_V1_GPRS_MMI/Tools/MinGW/include/c++/3.3.1/bits/stl_list.h **** // This file is part of the GNU ISO C++ Library.  This library is free
   6:d:/MTK/MTK2503/MTK2503/11CW1418SP4_03_CORETEK03AE_11C_V1_GPRS_MMI/Tools/MinGW/include/c++/3.3.1/bits/stl_list.h **** // software; you can redistribute it and/or modify it under the
   7:d:/MTK/MTK2503/MTK2503/11CW1418SP4_03_CORETEK03AE_11C_V1_GPRS_MMI/Tools/MinGW/include/c++/3.3.1/bits/stl_list.h **** // terms of the GNU General Public License as published by the
   8:d:/MTK/MTK2503/MTK2503/11CW1418SP4_03_CORETEK03AE_11C_V1_GPRS_MMI/Tools/MinGW/include/c++/3.3.1/bits/stl_list.h **** // Free Software Foundation; either version 2, or (at your option)
   9:d:/MTK/MTK2503/MTK2503/11CW1418SP4_03_CORETEK03AE_11C_V1_GPRS_MMI/Tools/MinGW/include/c++/3.3.1/bits/stl_list.h **** // any later version.
GAS LISTING d:/MTK/MTK2503/MTK2503/11CW1418SP4_03_CORETEK03AE_11C_V1_GPRS_MMI/plutommi/Customer/ResGenerator/gcctmp/cck7daaa.s 			page 56


  10:d:/MTK/MTK2503/MTK2503/11CW1418SP4_03_CORETEK03AE_11C_V1_GPRS_MMI/Tools/MinGW/include/c++/3.3.1/bits/stl_list.h **** 
  11:d:/MTK/MTK2503/MTK2503/11CW1418SP4_03_CORETEK03AE_11C_V1_GPRS_MMI/Tools/MinGW/include/c++/3.3.1/bits/stl_list.h **** // This library is distributed in the hope that it will be useful,
  12:d:/MTK/MTK2503/MTK2503/11CW1418SP4_03_CORETEK03AE_11C_V1_GPRS_MMI/Tools/MinGW/include/c++/3.3.1/bits/stl_list.h **** // but WITHOUT ANY WARRANTY; without even the implied warranty of
  13:d:/MTK/MTK2503/MTK2503/11CW1418SP4_03_CORETEK03AE_11C_V1_GPRS_MMI/Tools/MinGW/include/c++/3.3.1/bits/stl_list.h **** // MERCHANTABILITY or FITNESS FOR A PARTICULAR PURPOSE.  See the
  14:d:/MTK/MTK2503/MTK2503/11CW1418SP4_03_CORETEK03AE_11C_V1_GPRS_MMI/Tools/MinGW/include/c++/3.3.1/bits/stl_list.h **** // GNU General Public License for more details.
  15:d:/MTK/MTK2503/MTK2503/11CW1418SP4_03_CORETEK03AE_11C_V1_GPRS_MMI/Tools/MinGW/include/c++/3.3.1/bits/stl_list.h **** 
  16:d:/MTK/MTK2503/MTK2503/11CW1418SP4_03_CORETEK03AE_11C_V1_GPRS_MMI/Tools/MinGW/include/c++/3.3.1/bits/stl_list.h **** // You should have received a copy of the GNU General Public License along
  17:d:/MTK/MTK2503/MTK2503/11CW1418SP4_03_CORETEK03AE_11C_V1_GPRS_MMI/Tools/MinGW/include/c++/3.3.1/bits/stl_list.h **** // with this library; see the file COPYING.  If not, write to the Free
  18:d:/MTK/MTK2503/MTK2503/11CW1418SP4_03_CORETEK03AE_11C_V1_GPRS_MMI/Tools/MinGW/include/c++/3.3.1/bits/stl_list.h **** // Software Foundation, 59 Temple Place - Suite 330, Boston, MA 02111-1307,
  19:d:/MTK/MTK2503/MTK2503/11CW1418SP4_03_CORETEK03AE_11C_V1_GPRS_MMI/Tools/MinGW/include/c++/3.3.1/bits/stl_list.h **** // USA.
  20:d:/MTK/MTK2503/MTK2503/11CW1418SP4_03_CORETEK03AE_11C_V1_GPRS_MMI/Tools/MinGW/include/c++/3.3.1/bits/stl_list.h **** 
  21:d:/MTK/MTK2503/MTK2503/11CW1418SP4_03_CORETEK03AE_11C_V1_GPRS_MMI/Tools/MinGW/include/c++/3.3.1/bits/stl_list.h **** // As a special exception, you may use this file as part of a free software
  22:d:/MTK/MTK2503/MTK2503/11CW1418SP4_03_CORETEK03AE_11C_V1_GPRS_MMI/Tools/MinGW/include/c++/3.3.1/bits/stl_list.h **** // library without restriction.  Specifically, if other files instantiate
  23:d:/MTK/MTK2503/MTK2503/11CW1418SP4_03_CORETEK03AE_11C_V1_GPRS_MMI/Tools/MinGW/include/c++/3.3.1/bits/stl_list.h **** // templates or use macros or inline functions from this file, or you compile
  24:d:/MTK/MTK2503/MTK2503/11CW1418SP4_03_CORETEK03AE_11C_V1_GPRS_MMI/Tools/MinGW/include/c++/3.3.1/bits/stl_list.h **** // this file and link it with other files to produce an executable, this
  25:d:/MTK/MTK2503/MTK2503/11CW1418SP4_03_CORETEK03AE_11C_V1_GPRS_MMI/Tools/MinGW/include/c++/3.3.1/bits/stl_list.h **** // file does not by itself cause the resulting executable to be covered by
  26:d:/MTK/MTK2503/MTK2503/11CW1418SP4_03_CORETEK03AE_11C_V1_GPRS_MMI/Tools/MinGW/include/c++/3.3.1/bits/stl_list.h **** // the GNU General Public License.  This exception does not however
  27:d:/MTK/MTK2503/MTK2503/11CW1418SP4_03_CORETEK03AE_11C_V1_GPRS_MMI/Tools/MinGW/include/c++/3.3.1/bits/stl_list.h **** // invalidate any other reasons why the executable file might be covered by
  28:d:/MTK/MTK2503/MTK2503/11CW1418SP4_03_CORETEK03AE_11C_V1_GPRS_MMI/Tools/MinGW/include/c++/3.3.1/bits/stl_list.h **** // the GNU General Public License.
  29:d:/MTK/MTK2503/MTK2503/11CW1418SP4_03_CORETEK03AE_11C_V1_GPRS_MMI/Tools/MinGW/include/c++/3.3.1/bits/stl_list.h **** 
  30:d:/MTK/MTK2503/MTK2503/11CW1418SP4_03_CORETEK03AE_11C_V1_GPRS_MMI/Tools/MinGW/include/c++/3.3.1/bits/stl_list.h **** /*
  31:d:/MTK/MTK2503/MTK2503/11CW1418SP4_03_CORETEK03AE_11C_V1_GPRS_MMI/Tools/MinGW/include/c++/3.3.1/bits/stl_list.h ****  *
  32:d:/MTK/MTK2503/MTK2503/11CW1418SP4_03_CORETEK03AE_11C_V1_GPRS_MMI/Tools/MinGW/include/c++/3.3.1/bits/stl_list.h ****  * Copyright (c) 1994
  33:d:/MTK/MTK2503/MTK2503/11CW1418SP4_03_CORETEK03AE_11C_V1_GPRS_MMI/Tools/MinGW/include/c++/3.3.1/bits/stl_list.h ****  * Hewlett-Packard Company
  34:d:/MTK/MTK2503/MTK2503/11CW1418SP4_03_CORETEK03AE_11C_V1_GPRS_MMI/Tools/MinGW/include/c++/3.3.1/bits/stl_list.h ****  *
  35:d:/MTK/MTK2503/MTK2503/11CW1418SP4_03_CORETEK03AE_11C_V1_GPRS_MMI/Tools/MinGW/include/c++/3.3.1/bits/stl_list.h ****  * Permission to use, copy, modify, distribute and sell this software
  36:d:/MTK/MTK2503/MTK2503/11CW1418SP4_03_CORETEK03AE_11C_V1_GPRS_MMI/Tools/MinGW/include/c++/3.3.1/bits/stl_list.h ****  * and its documentation for any purpose is hereby granted without fee,
  37:d:/MTK/MTK2503/MTK2503/11CW1418SP4_03_CORETEK03AE_11C_V1_GPRS_MMI/Tools/MinGW/include/c++/3.3.1/bits/stl_list.h ****  * provided that the above copyright notice appear in all copies and
  38:d:/MTK/MTK2503/MTK2503/11CW1418SP4_03_CORETEK03AE_11C_V1_GPRS_MMI/Tools/MinGW/include/c++/3.3.1/bits/stl_list.h ****  * that both that copyright notice and this permission notice appear
  39:d:/MTK/MTK2503/MTK2503/11CW1418SP4_03_CORETEK03AE_11C_V1_GPRS_MMI/Tools/MinGW/include/c++/3.3.1/bits/stl_list.h ****  * in supporting documentation.  Hewlett-Packard Company makes no
  40:d:/MTK/MTK2503/MTK2503/11CW1418SP4_03_CORETEK03AE_11C_V1_GPRS_MMI/Tools/MinGW/include/c++/3.3.1/bits/stl_list.h ****  * representations about the suitability of this software for any
  41:d:/MTK/MTK2503/MTK2503/11CW1418SP4_03_CORETEK03AE_11C_V1_GPRS_MMI/Tools/MinGW/include/c++/3.3.1/bits/stl_list.h ****  * purpose.  It is provided "as is" without express or implied warranty.
  42:d:/MTK/MTK2503/MTK2503/11CW1418SP4_03_CORETEK03AE_11C_V1_GPRS_MMI/Tools/MinGW/include/c++/3.3.1/bits/stl_list.h ****  *
  43:d:/MTK/MTK2503/MTK2503/11CW1418SP4_03_CORETEK03AE_11C_V1_GPRS_MMI/Tools/MinGW/include/c++/3.3.1/bits/stl_list.h ****  *
  44:d:/MTK/MTK2503/MTK2503/11CW1418SP4_03_CORETEK03AE_11C_V1_GPRS_MMI/Tools/MinGW/include/c++/3.3.1/bits/stl_list.h ****  * Copyright (c) 1996,1997
  45:d:/MTK/MTK2503/MTK2503/11CW1418SP4_03_CORETEK03AE_11C_V1_GPRS_MMI/Tools/MinGW/include/c++/3.3.1/bits/stl_list.h ****  * Silicon Graphics Computer Systems, Inc.
  46:d:/MTK/MTK2503/MTK2503/11CW1418SP4_03_CORETEK03AE_11C_V1_GPRS_MMI/Tools/MinGW/include/c++/3.3.1/bits/stl_list.h ****  *
  47:d:/MTK/MTK2503/MTK2503/11CW1418SP4_03_CORETEK03AE_11C_V1_GPRS_MMI/Tools/MinGW/include/c++/3.3.1/bits/stl_list.h ****  * Permission to use, copy, modify, distribute and sell this software
  48:d:/MTK/MTK2503/MTK2503/11CW1418SP4_03_CORETEK03AE_11C_V1_GPRS_MMI/Tools/MinGW/include/c++/3.3.1/bits/stl_list.h ****  * and its documentation for any purpose is hereby granted without fee,
  49:d:/MTK/MTK2503/MTK2503/11CW1418SP4_03_CORETEK03AE_11C_V1_GPRS_MMI/Tools/MinGW/include/c++/3.3.1/bits/stl_list.h ****  * provided that the above copyright notice appear in all copies and
  50:d:/MTK/MTK2503/MTK2503/11CW1418SP4_03_CORETEK03AE_11C_V1_GPRS_MMI/Tools/MinGW/include/c++/3.3.1/bits/stl_list.h ****  * that both that copyright notice and this permission notice appear
  51:d:/MTK/MTK2503/MTK2503/11CW1418SP4_03_CORETEK03AE_11C_V1_GPRS_MMI/Tools/MinGW/include/c++/3.3.1/bits/stl_list.h ****  * in supporting documentation.  Silicon Graphics makes no
  52:d:/MTK/MTK2503/MTK2503/11CW1418SP4_03_CORETEK03AE_11C_V1_GPRS_MMI/Tools/MinGW/include/c++/3.3.1/bits/stl_list.h ****  * representations about the suitability of this software for any
  53:d:/MTK/MTK2503/MTK2503/11CW1418SP4_03_CORETEK03AE_11C_V1_GPRS_MMI/Tools/MinGW/include/c++/3.3.1/bits/stl_list.h ****  * purpose.  It is provided "as is" without express or implied warranty.
  54:d:/MTK/MTK2503/MTK2503/11CW1418SP4_03_CORETEK03AE_11C_V1_GPRS_MMI/Tools/MinGW/include/c++/3.3.1/bits/stl_list.h ****  */
  55:d:/MTK/MTK2503/MTK2503/11CW1418SP4_03_CORETEK03AE_11C_V1_GPRS_MMI/Tools/MinGW/include/c++/3.3.1/bits/stl_list.h **** 
  56:d:/MTK/MTK2503/MTK2503/11CW1418SP4_03_CORETEK03AE_11C_V1_GPRS_MMI/Tools/MinGW/include/c++/3.3.1/bits/stl_list.h **** /** @file stl_list.h
  57:d:/MTK/MTK2503/MTK2503/11CW1418SP4_03_CORETEK03AE_11C_V1_GPRS_MMI/Tools/MinGW/include/c++/3.3.1/bits/stl_list.h ****  *  This is an internal header file, included by other library headers.
  58:d:/MTK/MTK2503/MTK2503/11CW1418SP4_03_CORETEK03AE_11C_V1_GPRS_MMI/Tools/MinGW/include/c++/3.3.1/bits/stl_list.h ****  *  You should not attempt to use it directly.
  59:d:/MTK/MTK2503/MTK2503/11CW1418SP4_03_CORETEK03AE_11C_V1_GPRS_MMI/Tools/MinGW/include/c++/3.3.1/bits/stl_list.h ****  */
  60:d:/MTK/MTK2503/MTK2503/11CW1418SP4_03_CORETEK03AE_11C_V1_GPRS_MMI/Tools/MinGW/include/c++/3.3.1/bits/stl_list.h **** 
  61:d:/MTK/MTK2503/MTK2503/11CW1418SP4_03_CORETEK03AE_11C_V1_GPRS_MMI/Tools/MinGW/include/c++/3.3.1/bits/stl_list.h **** #ifndef __GLIBCPP_INTERNAL_LIST_H
  62:d:/MTK/MTK2503/MTK2503/11CW1418SP4_03_CORETEK03AE_11C_V1_GPRS_MMI/Tools/MinGW/include/c++/3.3.1/bits/stl_list.h **** #define __GLIBCPP_INTERNAL_LIST_H
  63:d:/MTK/MTK2503/MTK2503/11CW1418SP4_03_CORETEK03AE_11C_V1_GPRS_MMI/Tools/MinGW/include/c++/3.3.1/bits/stl_list.h **** 
  64:d:/MTK/MTK2503/MTK2503/11CW1418SP4_03_CORETEK03AE_11C_V1_GPRS_MMI/Tools/MinGW/include/c++/3.3.1/bits/stl_list.h **** #include <bits/concept_check.h>
  65:d:/MTK/MTK2503/MTK2503/11CW1418SP4_03_CORETEK03AE_11C_V1_GPRS_MMI/Tools/MinGW/include/c++/3.3.1/bits/stl_list.h **** 
  66:d:/MTK/MTK2503/MTK2503/11CW1418SP4_03_CORETEK03AE_11C_V1_GPRS_MMI/Tools/MinGW/include/c++/3.3.1/bits/stl_list.h **** namespace std
GAS LISTING d:/MTK/MTK2503/MTK2503/11CW1418SP4_03_CORETEK03AE_11C_V1_GPRS_MMI/plutommi/Customer/ResGenerator/gcctmp/cck7daaa.s 			page 57


  67:d:/MTK/MTK2503/MTK2503/11CW1418SP4_03_CORETEK03AE_11C_V1_GPRS_MMI/Tools/MinGW/include/c++/3.3.1/bits/stl_list.h **** {
  68:d:/MTK/MTK2503/MTK2503/11CW1418SP4_03_CORETEK03AE_11C_V1_GPRS_MMI/Tools/MinGW/include/c++/3.3.1/bits/stl_list.h ****   // Supporting structures are split into common and templated types; the
  69:d:/MTK/MTK2503/MTK2503/11CW1418SP4_03_CORETEK03AE_11C_V1_GPRS_MMI/Tools/MinGW/include/c++/3.3.1/bits/stl_list.h ****   // latter publicly inherits from the former in an effort to reduce code
  70:d:/MTK/MTK2503/MTK2503/11CW1418SP4_03_CORETEK03AE_11C_V1_GPRS_MMI/Tools/MinGW/include/c++/3.3.1/bits/stl_list.h ****   // duplication.  This results in some "needless" static_cast'ing later on,
  71:d:/MTK/MTK2503/MTK2503/11CW1418SP4_03_CORETEK03AE_11C_V1_GPRS_MMI/Tools/MinGW/include/c++/3.3.1/bits/stl_list.h ****   // but it's all safe downcasting.
  72:d:/MTK/MTK2503/MTK2503/11CW1418SP4_03_CORETEK03AE_11C_V1_GPRS_MMI/Tools/MinGW/include/c++/3.3.1/bits/stl_list.h ****   
  73:d:/MTK/MTK2503/MTK2503/11CW1418SP4_03_CORETEK03AE_11C_V1_GPRS_MMI/Tools/MinGW/include/c++/3.3.1/bits/stl_list.h ****   /// @if maint Common part of a node in the %list.  @endif
  74:d:/MTK/MTK2503/MTK2503/11CW1418SP4_03_CORETEK03AE_11C_V1_GPRS_MMI/Tools/MinGW/include/c++/3.3.1/bits/stl_list.h ****   struct _List_node_base
  75:d:/MTK/MTK2503/MTK2503/11CW1418SP4_03_CORETEK03AE_11C_V1_GPRS_MMI/Tools/MinGW/include/c++/3.3.1/bits/stl_list.h ****   {
  76:d:/MTK/MTK2503/MTK2503/11CW1418SP4_03_CORETEK03AE_11C_V1_GPRS_MMI/Tools/MinGW/include/c++/3.3.1/bits/stl_list.h ****     _List_node_base* _M_next;   ///< Self-explanatory
  77:d:/MTK/MTK2503/MTK2503/11CW1418SP4_03_CORETEK03AE_11C_V1_GPRS_MMI/Tools/MinGW/include/c++/3.3.1/bits/stl_list.h ****     _List_node_base* _M_prev;   ///< Self-explanatory
  78:d:/MTK/MTK2503/MTK2503/11CW1418SP4_03_CORETEK03AE_11C_V1_GPRS_MMI/Tools/MinGW/include/c++/3.3.1/bits/stl_list.h ****   };
  79:d:/MTK/MTK2503/MTK2503/11CW1418SP4_03_CORETEK03AE_11C_V1_GPRS_MMI/Tools/MinGW/include/c++/3.3.1/bits/stl_list.h ****   
  80:d:/MTK/MTK2503/MTK2503/11CW1418SP4_03_CORETEK03AE_11C_V1_GPRS_MMI/Tools/MinGW/include/c++/3.3.1/bits/stl_list.h ****   /// @if maint An actual node in the %list.  @endif
  81:d:/MTK/MTK2503/MTK2503/11CW1418SP4_03_CORETEK03AE_11C_V1_GPRS_MMI/Tools/MinGW/include/c++/3.3.1/bits/stl_list.h ****   template<typename _Tp>
  82:d:/MTK/MTK2503/MTK2503/11CW1418SP4_03_CORETEK03AE_11C_V1_GPRS_MMI/Tools/MinGW/include/c++/3.3.1/bits/stl_list.h ****     struct _List_node : public _List_node_base
  83:d:/MTK/MTK2503/MTK2503/11CW1418SP4_03_CORETEK03AE_11C_V1_GPRS_MMI/Tools/MinGW/include/c++/3.3.1/bits/stl_list.h ****   {
  84:d:/MTK/MTK2503/MTK2503/11CW1418SP4_03_CORETEK03AE_11C_V1_GPRS_MMI/Tools/MinGW/include/c++/3.3.1/bits/stl_list.h ****     _Tp _M_data;                ///< User's data.
  85:d:/MTK/MTK2503/MTK2503/11CW1418SP4_03_CORETEK03AE_11C_V1_GPRS_MMI/Tools/MinGW/include/c++/3.3.1/bits/stl_list.h ****   };
  86:d:/MTK/MTK2503/MTK2503/11CW1418SP4_03_CORETEK03AE_11C_V1_GPRS_MMI/Tools/MinGW/include/c++/3.3.1/bits/stl_list.h ****   
  87:d:/MTK/MTK2503/MTK2503/11CW1418SP4_03_CORETEK03AE_11C_V1_GPRS_MMI/Tools/MinGW/include/c++/3.3.1/bits/stl_list.h ****   
  88:d:/MTK/MTK2503/MTK2503/11CW1418SP4_03_CORETEK03AE_11C_V1_GPRS_MMI/Tools/MinGW/include/c++/3.3.1/bits/stl_list.h ****   /**
  89:d:/MTK/MTK2503/MTK2503/11CW1418SP4_03_CORETEK03AE_11C_V1_GPRS_MMI/Tools/MinGW/include/c++/3.3.1/bits/stl_list.h ****    *  @if maint
  90:d:/MTK/MTK2503/MTK2503/11CW1418SP4_03_CORETEK03AE_11C_V1_GPRS_MMI/Tools/MinGW/include/c++/3.3.1/bits/stl_list.h ****    *  @brief Common part of a list::iterator.
  91:d:/MTK/MTK2503/MTK2503/11CW1418SP4_03_CORETEK03AE_11C_V1_GPRS_MMI/Tools/MinGW/include/c++/3.3.1/bits/stl_list.h ****    *
  92:d:/MTK/MTK2503/MTK2503/11CW1418SP4_03_CORETEK03AE_11C_V1_GPRS_MMI/Tools/MinGW/include/c++/3.3.1/bits/stl_list.h ****    *  A simple type to walk a doubly-linked list.  All operations here should
  93:d:/MTK/MTK2503/MTK2503/11CW1418SP4_03_CORETEK03AE_11C_V1_GPRS_MMI/Tools/MinGW/include/c++/3.3.1/bits/stl_list.h ****    *  be self-explanatory after taking any decent introductory data structures
  94:d:/MTK/MTK2503/MTK2503/11CW1418SP4_03_CORETEK03AE_11C_V1_GPRS_MMI/Tools/MinGW/include/c++/3.3.1/bits/stl_list.h ****    *  course.
  95:d:/MTK/MTK2503/MTK2503/11CW1418SP4_03_CORETEK03AE_11C_V1_GPRS_MMI/Tools/MinGW/include/c++/3.3.1/bits/stl_list.h ****    *  @endif
  96:d:/MTK/MTK2503/MTK2503/11CW1418SP4_03_CORETEK03AE_11C_V1_GPRS_MMI/Tools/MinGW/include/c++/3.3.1/bits/stl_list.h ****   */
  97:d:/MTK/MTK2503/MTK2503/11CW1418SP4_03_CORETEK03AE_11C_V1_GPRS_MMI/Tools/MinGW/include/c++/3.3.1/bits/stl_list.h ****   struct _List_iterator_base
  98:d:/MTK/MTK2503/MTK2503/11CW1418SP4_03_CORETEK03AE_11C_V1_GPRS_MMI/Tools/MinGW/include/c++/3.3.1/bits/stl_list.h ****   {
  99:d:/MTK/MTK2503/MTK2503/11CW1418SP4_03_CORETEK03AE_11C_V1_GPRS_MMI/Tools/MinGW/include/c++/3.3.1/bits/stl_list.h ****     typedef size_t                        size_type;
 100:d:/MTK/MTK2503/MTK2503/11CW1418SP4_03_CORETEK03AE_11C_V1_GPRS_MMI/Tools/MinGW/include/c++/3.3.1/bits/stl_list.h ****     typedef ptrdiff_t                     difference_type;
 101:d:/MTK/MTK2503/MTK2503/11CW1418SP4_03_CORETEK03AE_11C_V1_GPRS_MMI/Tools/MinGW/include/c++/3.3.1/bits/stl_list.h ****     typedef bidirectional_iterator_tag    iterator_category;
 102:d:/MTK/MTK2503/MTK2503/11CW1418SP4_03_CORETEK03AE_11C_V1_GPRS_MMI/Tools/MinGW/include/c++/3.3.1/bits/stl_list.h ****   
 103:d:/MTK/MTK2503/MTK2503/11CW1418SP4_03_CORETEK03AE_11C_V1_GPRS_MMI/Tools/MinGW/include/c++/3.3.1/bits/stl_list.h ****     /// The only member points to the %list element.
 104:d:/MTK/MTK2503/MTK2503/11CW1418SP4_03_CORETEK03AE_11C_V1_GPRS_MMI/Tools/MinGW/include/c++/3.3.1/bits/stl_list.h ****     _List_node_base* _M_node;
 105:d:/MTK/MTK2503/MTK2503/11CW1418SP4_03_CORETEK03AE_11C_V1_GPRS_MMI/Tools/MinGW/include/c++/3.3.1/bits/stl_list.h ****   
 106:d:/MTK/MTK2503/MTK2503/11CW1418SP4_03_CORETEK03AE_11C_V1_GPRS_MMI/Tools/MinGW/include/c++/3.3.1/bits/stl_list.h ****     _List_iterator_base(_List_node_base* __x)
 107:d:/MTK/MTK2503/MTK2503/11CW1418SP4_03_CORETEK03AE_11C_V1_GPRS_MMI/Tools/MinGW/include/c++/3.3.1/bits/stl_list.h ****     : _M_node(__x)
 108:d:/MTK/MTK2503/MTK2503/11CW1418SP4_03_CORETEK03AE_11C_V1_GPRS_MMI/Tools/MinGW/include/c++/3.3.1/bits/stl_list.h ****     { }
 109:d:/MTK/MTK2503/MTK2503/11CW1418SP4_03_CORETEK03AE_11C_V1_GPRS_MMI/Tools/MinGW/include/c++/3.3.1/bits/stl_list.h ****   
 110:d:/MTK/MTK2503/MTK2503/11CW1418SP4_03_CORETEK03AE_11C_V1_GPRS_MMI/Tools/MinGW/include/c++/3.3.1/bits/stl_list.h ****     _List_iterator_base()
 111:d:/MTK/MTK2503/MTK2503/11CW1418SP4_03_CORETEK03AE_11C_V1_GPRS_MMI/Tools/MinGW/include/c++/3.3.1/bits/stl_list.h ****     { }
 112:d:/MTK/MTK2503/MTK2503/11CW1418SP4_03_CORETEK03AE_11C_V1_GPRS_MMI/Tools/MinGW/include/c++/3.3.1/bits/stl_list.h ****   
 113:d:/MTK/MTK2503/MTK2503/11CW1418SP4_03_CORETEK03AE_11C_V1_GPRS_MMI/Tools/MinGW/include/c++/3.3.1/bits/stl_list.h ****     /// Walk the %list forward.
 114:d:/MTK/MTK2503/MTK2503/11CW1418SP4_03_CORETEK03AE_11C_V1_GPRS_MMI/Tools/MinGW/include/c++/3.3.1/bits/stl_list.h ****     void
 115:d:/MTK/MTK2503/MTK2503/11CW1418SP4_03_CORETEK03AE_11C_V1_GPRS_MMI/Tools/MinGW/include/c++/3.3.1/bits/stl_list.h ****     _M_incr()
 116:d:/MTK/MTK2503/MTK2503/11CW1418SP4_03_CORETEK03AE_11C_V1_GPRS_MMI/Tools/MinGW/include/c++/3.3.1/bits/stl_list.h ****     { _M_node = _M_node->_M_next; }
 117:d:/MTK/MTK2503/MTK2503/11CW1418SP4_03_CORETEK03AE_11C_V1_GPRS_MMI/Tools/MinGW/include/c++/3.3.1/bits/stl_list.h ****   
 118:d:/MTK/MTK2503/MTK2503/11CW1418SP4_03_CORETEK03AE_11C_V1_GPRS_MMI/Tools/MinGW/include/c++/3.3.1/bits/stl_list.h ****     /// Walk the %list backward.
 119:d:/MTK/MTK2503/MTK2503/11CW1418SP4_03_CORETEK03AE_11C_V1_GPRS_MMI/Tools/MinGW/include/c++/3.3.1/bits/stl_list.h ****     void
 120:d:/MTK/MTK2503/MTK2503/11CW1418SP4_03_CORETEK03AE_11C_V1_GPRS_MMI/Tools/MinGW/include/c++/3.3.1/bits/stl_list.h ****     _M_decr()
 121:d:/MTK/MTK2503/MTK2503/11CW1418SP4_03_CORETEK03AE_11C_V1_GPRS_MMI/Tools/MinGW/include/c++/3.3.1/bits/stl_list.h ****     { _M_node = _M_node->_M_prev; }
 122:d:/MTK/MTK2503/MTK2503/11CW1418SP4_03_CORETEK03AE_11C_V1_GPRS_MMI/Tools/MinGW/include/c++/3.3.1/bits/stl_list.h ****   
 123:d:/MTK/MTK2503/MTK2503/11CW1418SP4_03_CORETEK03AE_11C_V1_GPRS_MMI/Tools/MinGW/include/c++/3.3.1/bits/stl_list.h ****     bool
GAS LISTING d:/MTK/MTK2503/MTK2503/11CW1418SP4_03_CORETEK03AE_11C_V1_GPRS_MMI/plutommi/Customer/ResGenerator/gcctmp/cck7daaa.s 			page 58


 124:d:/MTK/MTK2503/MTK2503/11CW1418SP4_03_CORETEK03AE_11C_V1_GPRS_MMI/Tools/MinGW/include/c++/3.3.1/bits/stl_list.h ****     operator==(const _List_iterator_base& __x) const
 125:d:/MTK/MTK2503/MTK2503/11CW1418SP4_03_CORETEK03AE_11C_V1_GPRS_MMI/Tools/MinGW/include/c++/3.3.1/bits/stl_list.h ****     { return _M_node == __x._M_node; }
 126:d:/MTK/MTK2503/MTK2503/11CW1418SP4_03_CORETEK03AE_11C_V1_GPRS_MMI/Tools/MinGW/include/c++/3.3.1/bits/stl_list.h ****   
 127:d:/MTK/MTK2503/MTK2503/11CW1418SP4_03_CORETEK03AE_11C_V1_GPRS_MMI/Tools/MinGW/include/c++/3.3.1/bits/stl_list.h ****     bool
 128:d:/MTK/MTK2503/MTK2503/11CW1418SP4_03_CORETEK03AE_11C_V1_GPRS_MMI/Tools/MinGW/include/c++/3.3.1/bits/stl_list.h ****     operator!=(const _List_iterator_base& __x) const
 129:d:/MTK/MTK2503/MTK2503/11CW1418SP4_03_CORETEK03AE_11C_V1_GPRS_MMI/Tools/MinGW/include/c++/3.3.1/bits/stl_list.h ****     { return _M_node != __x._M_node; }
 130:d:/MTK/MTK2503/MTK2503/11CW1418SP4_03_CORETEK03AE_11C_V1_GPRS_MMI/Tools/MinGW/include/c++/3.3.1/bits/stl_list.h ****   };
 131:d:/MTK/MTK2503/MTK2503/11CW1418SP4_03_CORETEK03AE_11C_V1_GPRS_MMI/Tools/MinGW/include/c++/3.3.1/bits/stl_list.h ****   
 132:d:/MTK/MTK2503/MTK2503/11CW1418SP4_03_CORETEK03AE_11C_V1_GPRS_MMI/Tools/MinGW/include/c++/3.3.1/bits/stl_list.h ****   /**
 133:d:/MTK/MTK2503/MTK2503/11CW1418SP4_03_CORETEK03AE_11C_V1_GPRS_MMI/Tools/MinGW/include/c++/3.3.1/bits/stl_list.h ****    *  @brief A list::iterator.
 134:d:/MTK/MTK2503/MTK2503/11CW1418SP4_03_CORETEK03AE_11C_V1_GPRS_MMI/Tools/MinGW/include/c++/3.3.1/bits/stl_list.h ****    *
 135:d:/MTK/MTK2503/MTK2503/11CW1418SP4_03_CORETEK03AE_11C_V1_GPRS_MMI/Tools/MinGW/include/c++/3.3.1/bits/stl_list.h ****    *  In addition to being used externally, a list holds one of these
 136:d:/MTK/MTK2503/MTK2503/11CW1418SP4_03_CORETEK03AE_11C_V1_GPRS_MMI/Tools/MinGW/include/c++/3.3.1/bits/stl_list.h ****    *  internally, pointing to the sequence of data.
 137:d:/MTK/MTK2503/MTK2503/11CW1418SP4_03_CORETEK03AE_11C_V1_GPRS_MMI/Tools/MinGW/include/c++/3.3.1/bits/stl_list.h ****    *
 138:d:/MTK/MTK2503/MTK2503/11CW1418SP4_03_CORETEK03AE_11C_V1_GPRS_MMI/Tools/MinGW/include/c++/3.3.1/bits/stl_list.h ****    *  @if maint
 139:d:/MTK/MTK2503/MTK2503/11CW1418SP4_03_CORETEK03AE_11C_V1_GPRS_MMI/Tools/MinGW/include/c++/3.3.1/bits/stl_list.h ****    *  All the functions are op overloads.
 140:d:/MTK/MTK2503/MTK2503/11CW1418SP4_03_CORETEK03AE_11C_V1_GPRS_MMI/Tools/MinGW/include/c++/3.3.1/bits/stl_list.h ****    *  @endif
 141:d:/MTK/MTK2503/MTK2503/11CW1418SP4_03_CORETEK03AE_11C_V1_GPRS_MMI/Tools/MinGW/include/c++/3.3.1/bits/stl_list.h ****   */
 142:d:/MTK/MTK2503/MTK2503/11CW1418SP4_03_CORETEK03AE_11C_V1_GPRS_MMI/Tools/MinGW/include/c++/3.3.1/bits/stl_list.h ****   template<typename _Tp, typename _Ref, typename _Ptr>
 143:d:/MTK/MTK2503/MTK2503/11CW1418SP4_03_CORETEK03AE_11C_V1_GPRS_MMI/Tools/MinGW/include/c++/3.3.1/bits/stl_list.h ****     struct _List_iterator : public _List_iterator_base
 144:d:/MTK/MTK2503/MTK2503/11CW1418SP4_03_CORETEK03AE_11C_V1_GPRS_MMI/Tools/MinGW/include/c++/3.3.1/bits/stl_list.h ****   {
 145:d:/MTK/MTK2503/MTK2503/11CW1418SP4_03_CORETEK03AE_11C_V1_GPRS_MMI/Tools/MinGW/include/c++/3.3.1/bits/stl_list.h ****     typedef _List_iterator<_Tp,_Tp&,_Tp*>             iterator;
 146:d:/MTK/MTK2503/MTK2503/11CW1418SP4_03_CORETEK03AE_11C_V1_GPRS_MMI/Tools/MinGW/include/c++/3.3.1/bits/stl_list.h ****     typedef _List_iterator<_Tp,const _Tp&,const _Tp*> const_iterator;
 147:d:/MTK/MTK2503/MTK2503/11CW1418SP4_03_CORETEK03AE_11C_V1_GPRS_MMI/Tools/MinGW/include/c++/3.3.1/bits/stl_list.h ****     typedef _List_iterator<_Tp,_Ref,_Ptr>             _Self;
 148:d:/MTK/MTK2503/MTK2503/11CW1418SP4_03_CORETEK03AE_11C_V1_GPRS_MMI/Tools/MinGW/include/c++/3.3.1/bits/stl_list.h ****   
 149:d:/MTK/MTK2503/MTK2503/11CW1418SP4_03_CORETEK03AE_11C_V1_GPRS_MMI/Tools/MinGW/include/c++/3.3.1/bits/stl_list.h ****     typedef _Tp                                       value_type;
 150:d:/MTK/MTK2503/MTK2503/11CW1418SP4_03_CORETEK03AE_11C_V1_GPRS_MMI/Tools/MinGW/include/c++/3.3.1/bits/stl_list.h ****     typedef _Ptr                                      pointer;
 151:d:/MTK/MTK2503/MTK2503/11CW1418SP4_03_CORETEK03AE_11C_V1_GPRS_MMI/Tools/MinGW/include/c++/3.3.1/bits/stl_list.h ****     typedef _Ref                                      reference;
 152:d:/MTK/MTK2503/MTK2503/11CW1418SP4_03_CORETEK03AE_11C_V1_GPRS_MMI/Tools/MinGW/include/c++/3.3.1/bits/stl_list.h ****     typedef _List_node<_Tp>                           _Node;
 153:d:/MTK/MTK2503/MTK2503/11CW1418SP4_03_CORETEK03AE_11C_V1_GPRS_MMI/Tools/MinGW/include/c++/3.3.1/bits/stl_list.h ****   
 154:d:/MTK/MTK2503/MTK2503/11CW1418SP4_03_CORETEK03AE_11C_V1_GPRS_MMI/Tools/MinGW/include/c++/3.3.1/bits/stl_list.h ****     _List_iterator(_Node* __x)
 155:d:/MTK/MTK2503/MTK2503/11CW1418SP4_03_CORETEK03AE_11C_V1_GPRS_MMI/Tools/MinGW/include/c++/3.3.1/bits/stl_list.h ****     : _List_iterator_base(__x)
 156:d:/MTK/MTK2503/MTK2503/11CW1418SP4_03_CORETEK03AE_11C_V1_GPRS_MMI/Tools/MinGW/include/c++/3.3.1/bits/stl_list.h ****     { }
 157:d:/MTK/MTK2503/MTK2503/11CW1418SP4_03_CORETEK03AE_11C_V1_GPRS_MMI/Tools/MinGW/include/c++/3.3.1/bits/stl_list.h ****   
 158:d:/MTK/MTK2503/MTK2503/11CW1418SP4_03_CORETEK03AE_11C_V1_GPRS_MMI/Tools/MinGW/include/c++/3.3.1/bits/stl_list.h ****     _List_iterator()
 159:d:/MTK/MTK2503/MTK2503/11CW1418SP4_03_CORETEK03AE_11C_V1_GPRS_MMI/Tools/MinGW/include/c++/3.3.1/bits/stl_list.h ****     { }
 160:d:/MTK/MTK2503/MTK2503/11CW1418SP4_03_CORETEK03AE_11C_V1_GPRS_MMI/Tools/MinGW/include/c++/3.3.1/bits/stl_list.h ****   
 161:d:/MTK/MTK2503/MTK2503/11CW1418SP4_03_CORETEK03AE_11C_V1_GPRS_MMI/Tools/MinGW/include/c++/3.3.1/bits/stl_list.h ****     _List_iterator(const iterator& __x)
 162:d:/MTK/MTK2503/MTK2503/11CW1418SP4_03_CORETEK03AE_11C_V1_GPRS_MMI/Tools/MinGW/include/c++/3.3.1/bits/stl_list.h ****     : _List_iterator_base(__x._M_node)
 163:d:/MTK/MTK2503/MTK2503/11CW1418SP4_03_CORETEK03AE_11C_V1_GPRS_MMI/Tools/MinGW/include/c++/3.3.1/bits/stl_list.h ****     { }
 164:d:/MTK/MTK2503/MTK2503/11CW1418SP4_03_CORETEK03AE_11C_V1_GPRS_MMI/Tools/MinGW/include/c++/3.3.1/bits/stl_list.h ****   
 165:d:/MTK/MTK2503/MTK2503/11CW1418SP4_03_CORETEK03AE_11C_V1_GPRS_MMI/Tools/MinGW/include/c++/3.3.1/bits/stl_list.h ****     reference
 166:d:/MTK/MTK2503/MTK2503/11CW1418SP4_03_CORETEK03AE_11C_V1_GPRS_MMI/Tools/MinGW/include/c++/3.3.1/bits/stl_list.h ****     operator*() const
 167:d:/MTK/MTK2503/MTK2503/11CW1418SP4_03_CORETEK03AE_11C_V1_GPRS_MMI/Tools/MinGW/include/c++/3.3.1/bits/stl_list.h ****     { return static_cast<_Node*>(_M_node)->_M_data; }
 168:d:/MTK/MTK2503/MTK2503/11CW1418SP4_03_CORETEK03AE_11C_V1_GPRS_MMI/Tools/MinGW/include/c++/3.3.1/bits/stl_list.h ****     // Must downcast from List_node_base to _List_node to get to _M_data.
 169:d:/MTK/MTK2503/MTK2503/11CW1418SP4_03_CORETEK03AE_11C_V1_GPRS_MMI/Tools/MinGW/include/c++/3.3.1/bits/stl_list.h ****   
 170:d:/MTK/MTK2503/MTK2503/11CW1418SP4_03_CORETEK03AE_11C_V1_GPRS_MMI/Tools/MinGW/include/c++/3.3.1/bits/stl_list.h ****     pointer
 171:d:/MTK/MTK2503/MTK2503/11CW1418SP4_03_CORETEK03AE_11C_V1_GPRS_MMI/Tools/MinGW/include/c++/3.3.1/bits/stl_list.h ****     operator->() const
 172:d:/MTK/MTK2503/MTK2503/11CW1418SP4_03_CORETEK03AE_11C_V1_GPRS_MMI/Tools/MinGW/include/c++/3.3.1/bits/stl_list.h ****     { return &(operator*()); }
 173:d:/MTK/MTK2503/MTK2503/11CW1418SP4_03_CORETEK03AE_11C_V1_GPRS_MMI/Tools/MinGW/include/c++/3.3.1/bits/stl_list.h ****   
 174:d:/MTK/MTK2503/MTK2503/11CW1418SP4_03_CORETEK03AE_11C_V1_GPRS_MMI/Tools/MinGW/include/c++/3.3.1/bits/stl_list.h ****     _Self&
 175:d:/MTK/MTK2503/MTK2503/11CW1418SP4_03_CORETEK03AE_11C_V1_GPRS_MMI/Tools/MinGW/include/c++/3.3.1/bits/stl_list.h ****     operator++()
 176:d:/MTK/MTK2503/MTK2503/11CW1418SP4_03_CORETEK03AE_11C_V1_GPRS_MMI/Tools/MinGW/include/c++/3.3.1/bits/stl_list.h ****     {
 177:d:/MTK/MTK2503/MTK2503/11CW1418SP4_03_CORETEK03AE_11C_V1_GPRS_MMI/Tools/MinGW/include/c++/3.3.1/bits/stl_list.h ****       this->_M_incr();
 178:d:/MTK/MTK2503/MTK2503/11CW1418SP4_03_CORETEK03AE_11C_V1_GPRS_MMI/Tools/MinGW/include/c++/3.3.1/bits/stl_list.h ****       return *this;
 179:d:/MTK/MTK2503/MTK2503/11CW1418SP4_03_CORETEK03AE_11C_V1_GPRS_MMI/Tools/MinGW/include/c++/3.3.1/bits/stl_list.h ****     }
 180:d:/MTK/MTK2503/MTK2503/11CW1418SP4_03_CORETEK03AE_11C_V1_GPRS_MMI/Tools/MinGW/include/c++/3.3.1/bits/stl_list.h ****   
GAS LISTING d:/MTK/MTK2503/MTK2503/11CW1418SP4_03_CORETEK03AE_11C_V1_GPRS_MMI/plutommi/Customer/ResGenerator/gcctmp/cck7daaa.s 			page 59


 181:d:/MTK/MTK2503/MTK2503/11CW1418SP4_03_CORETEK03AE_11C_V1_GPRS_MMI/Tools/MinGW/include/c++/3.3.1/bits/stl_list.h ****     _Self
 182:d:/MTK/MTK2503/MTK2503/11CW1418SP4_03_CORETEK03AE_11C_V1_GPRS_MMI/Tools/MinGW/include/c++/3.3.1/bits/stl_list.h ****     operator++(int)
 183:d:/MTK/MTK2503/MTK2503/11CW1418SP4_03_CORETEK03AE_11C_V1_GPRS_MMI/Tools/MinGW/include/c++/3.3.1/bits/stl_list.h ****     {
 184:d:/MTK/MTK2503/MTK2503/11CW1418SP4_03_CORETEK03AE_11C_V1_GPRS_MMI/Tools/MinGW/include/c++/3.3.1/bits/stl_list.h ****       _Self __tmp = *this;
 185:d:/MTK/MTK2503/MTK2503/11CW1418SP4_03_CORETEK03AE_11C_V1_GPRS_MMI/Tools/MinGW/include/c++/3.3.1/bits/stl_list.h ****       this->_M_incr();
 186:d:/MTK/MTK2503/MTK2503/11CW1418SP4_03_CORETEK03AE_11C_V1_GPRS_MMI/Tools/MinGW/include/c++/3.3.1/bits/stl_list.h ****       return __tmp;
 187:d:/MTK/MTK2503/MTK2503/11CW1418SP4_03_CORETEK03AE_11C_V1_GPRS_MMI/Tools/MinGW/include/c++/3.3.1/bits/stl_list.h ****     }
 188:d:/MTK/MTK2503/MTK2503/11CW1418SP4_03_CORETEK03AE_11C_V1_GPRS_MMI/Tools/MinGW/include/c++/3.3.1/bits/stl_list.h ****   
 189:d:/MTK/MTK2503/MTK2503/11CW1418SP4_03_CORETEK03AE_11C_V1_GPRS_MMI/Tools/MinGW/include/c++/3.3.1/bits/stl_list.h ****     _Self&
 190:d:/MTK/MTK2503/MTK2503/11CW1418SP4_03_CORETEK03AE_11C_V1_GPRS_MMI/Tools/MinGW/include/c++/3.3.1/bits/stl_list.h ****     operator--()
 191:d:/MTK/MTK2503/MTK2503/11CW1418SP4_03_CORETEK03AE_11C_V1_GPRS_MMI/Tools/MinGW/include/c++/3.3.1/bits/stl_list.h ****     {
 192:d:/MTK/MTK2503/MTK2503/11CW1418SP4_03_CORETEK03AE_11C_V1_GPRS_MMI/Tools/MinGW/include/c++/3.3.1/bits/stl_list.h ****       this->_M_decr();
 193:d:/MTK/MTK2503/MTK2503/11CW1418SP4_03_CORETEK03AE_11C_V1_GPRS_MMI/Tools/MinGW/include/c++/3.3.1/bits/stl_list.h ****       return *this;
 194:d:/MTK/MTK2503/MTK2503/11CW1418SP4_03_CORETEK03AE_11C_V1_GPRS_MMI/Tools/MinGW/include/c++/3.3.1/bits/stl_list.h ****     }
 195:d:/MTK/MTK2503/MTK2503/11CW1418SP4_03_CORETEK03AE_11C_V1_GPRS_MMI/Tools/MinGW/include/c++/3.3.1/bits/stl_list.h ****   
 196:d:/MTK/MTK2503/MTK2503/11CW1418SP4_03_CORETEK03AE_11C_V1_GPRS_MMI/Tools/MinGW/include/c++/3.3.1/bits/stl_list.h ****     _Self
 197:d:/MTK/MTK2503/MTK2503/11CW1418SP4_03_CORETEK03AE_11C_V1_GPRS_MMI/Tools/MinGW/include/c++/3.3.1/bits/stl_list.h ****     operator--(int)
 198:d:/MTK/MTK2503/MTK2503/11CW1418SP4_03_CORETEK03AE_11C_V1_GPRS_MMI/Tools/MinGW/include/c++/3.3.1/bits/stl_list.h ****     {
 199:d:/MTK/MTK2503/MTK2503/11CW1418SP4_03_CORETEK03AE_11C_V1_GPRS_MMI/Tools/MinGW/include/c++/3.3.1/bits/stl_list.h ****       _Self __tmp = *this;
 200:d:/MTK/MTK2503/MTK2503/11CW1418SP4_03_CORETEK03AE_11C_V1_GPRS_MMI/Tools/MinGW/include/c++/3.3.1/bits/stl_list.h ****       this->_M_decr();
 201:d:/MTK/MTK2503/MTK2503/11CW1418SP4_03_CORETEK03AE_11C_V1_GPRS_MMI/Tools/MinGW/include/c++/3.3.1/bits/stl_list.h ****       return __tmp;
 202:d:/MTK/MTK2503/MTK2503/11CW1418SP4_03_CORETEK03AE_11C_V1_GPRS_MMI/Tools/MinGW/include/c++/3.3.1/bits/stl_list.h ****     }
 203:d:/MTK/MTK2503/MTK2503/11CW1418SP4_03_CORETEK03AE_11C_V1_GPRS_MMI/Tools/MinGW/include/c++/3.3.1/bits/stl_list.h ****   };
 204:d:/MTK/MTK2503/MTK2503/11CW1418SP4_03_CORETEK03AE_11C_V1_GPRS_MMI/Tools/MinGW/include/c++/3.3.1/bits/stl_list.h ****   
 205:d:/MTK/MTK2503/MTK2503/11CW1418SP4_03_CORETEK03AE_11C_V1_GPRS_MMI/Tools/MinGW/include/c++/3.3.1/bits/stl_list.h ****   
 206:d:/MTK/MTK2503/MTK2503/11CW1418SP4_03_CORETEK03AE_11C_V1_GPRS_MMI/Tools/MinGW/include/c++/3.3.1/bits/stl_list.h ****   /// @if maint Primary default version.  @endif
 207:d:/MTK/MTK2503/MTK2503/11CW1418SP4_03_CORETEK03AE_11C_V1_GPRS_MMI/Tools/MinGW/include/c++/3.3.1/bits/stl_list.h ****   /**
 208:d:/MTK/MTK2503/MTK2503/11CW1418SP4_03_CORETEK03AE_11C_V1_GPRS_MMI/Tools/MinGW/include/c++/3.3.1/bits/stl_list.h ****    *  @if maint
 209:d:/MTK/MTK2503/MTK2503/11CW1418SP4_03_CORETEK03AE_11C_V1_GPRS_MMI/Tools/MinGW/include/c++/3.3.1/bits/stl_list.h ****    *  See bits/stl_deque.h's _Deque_alloc_base for an explanation.
 210:d:/MTK/MTK2503/MTK2503/11CW1418SP4_03_CORETEK03AE_11C_V1_GPRS_MMI/Tools/MinGW/include/c++/3.3.1/bits/stl_list.h ****    *  @endif
 211:d:/MTK/MTK2503/MTK2503/11CW1418SP4_03_CORETEK03AE_11C_V1_GPRS_MMI/Tools/MinGW/include/c++/3.3.1/bits/stl_list.h ****   */
 212:d:/MTK/MTK2503/MTK2503/11CW1418SP4_03_CORETEK03AE_11C_V1_GPRS_MMI/Tools/MinGW/include/c++/3.3.1/bits/stl_list.h ****   template<typename _Tp, typename _Allocator, bool _IsStatic>
 213:d:/MTK/MTK2503/MTK2503/11CW1418SP4_03_CORETEK03AE_11C_V1_GPRS_MMI/Tools/MinGW/include/c++/3.3.1/bits/stl_list.h ****     class _List_alloc_base
 214:d:/MTK/MTK2503/MTK2503/11CW1418SP4_03_CORETEK03AE_11C_V1_GPRS_MMI/Tools/MinGW/include/c++/3.3.1/bits/stl_list.h ****   {
 215:d:/MTK/MTK2503/MTK2503/11CW1418SP4_03_CORETEK03AE_11C_V1_GPRS_MMI/Tools/MinGW/include/c++/3.3.1/bits/stl_list.h ****   public:
 216:d:/MTK/MTK2503/MTK2503/11CW1418SP4_03_CORETEK03AE_11C_V1_GPRS_MMI/Tools/MinGW/include/c++/3.3.1/bits/stl_list.h ****     typedef typename _Alloc_traits<_Tp, _Allocator>::allocator_type
 217:d:/MTK/MTK2503/MTK2503/11CW1418SP4_03_CORETEK03AE_11C_V1_GPRS_MMI/Tools/MinGW/include/c++/3.3.1/bits/stl_list.h ****             allocator_type;
 218:d:/MTK/MTK2503/MTK2503/11CW1418SP4_03_CORETEK03AE_11C_V1_GPRS_MMI/Tools/MinGW/include/c++/3.3.1/bits/stl_list.h ****   
 219:d:/MTK/MTK2503/MTK2503/11CW1418SP4_03_CORETEK03AE_11C_V1_GPRS_MMI/Tools/MinGW/include/c++/3.3.1/bits/stl_list.h ****     allocator_type
 220:d:/MTK/MTK2503/MTK2503/11CW1418SP4_03_CORETEK03AE_11C_V1_GPRS_MMI/Tools/MinGW/include/c++/3.3.1/bits/stl_list.h ****     get_allocator() const { return _M_node_allocator; }
 221:d:/MTK/MTK2503/MTK2503/11CW1418SP4_03_CORETEK03AE_11C_V1_GPRS_MMI/Tools/MinGW/include/c++/3.3.1/bits/stl_list.h ****   
 222:d:/MTK/MTK2503/MTK2503/11CW1418SP4_03_CORETEK03AE_11C_V1_GPRS_MMI/Tools/MinGW/include/c++/3.3.1/bits/stl_list.h ****     _List_alloc_base(const allocator_type& __a)
 223:d:/MTK/MTK2503/MTK2503/11CW1418SP4_03_CORETEK03AE_11C_V1_GPRS_MMI/Tools/MinGW/include/c++/3.3.1/bits/stl_list.h ****     : _M_node_allocator(__a)
 224:d:/MTK/MTK2503/MTK2503/11CW1418SP4_03_CORETEK03AE_11C_V1_GPRS_MMI/Tools/MinGW/include/c++/3.3.1/bits/stl_list.h ****     { }
 225:d:/MTK/MTK2503/MTK2503/11CW1418SP4_03_CORETEK03AE_11C_V1_GPRS_MMI/Tools/MinGW/include/c++/3.3.1/bits/stl_list.h ****   
 226:d:/MTK/MTK2503/MTK2503/11CW1418SP4_03_CORETEK03AE_11C_V1_GPRS_MMI/Tools/MinGW/include/c++/3.3.1/bits/stl_list.h ****   protected:
 227:d:/MTK/MTK2503/MTK2503/11CW1418SP4_03_CORETEK03AE_11C_V1_GPRS_MMI/Tools/MinGW/include/c++/3.3.1/bits/stl_list.h ****     _List_node<_Tp>*
 228:d:/MTK/MTK2503/MTK2503/11CW1418SP4_03_CORETEK03AE_11C_V1_GPRS_MMI/Tools/MinGW/include/c++/3.3.1/bits/stl_list.h ****     _M_get_node()
 229:d:/MTK/MTK2503/MTK2503/11CW1418SP4_03_CORETEK03AE_11C_V1_GPRS_MMI/Tools/MinGW/include/c++/3.3.1/bits/stl_list.h ****     { return _M_node_allocator.allocate(1); }
 230:d:/MTK/MTK2503/MTK2503/11CW1418SP4_03_CORETEK03AE_11C_V1_GPRS_MMI/Tools/MinGW/include/c++/3.3.1/bits/stl_list.h ****   
 231:d:/MTK/MTK2503/MTK2503/11CW1418SP4_03_CORETEK03AE_11C_V1_GPRS_MMI/Tools/MinGW/include/c++/3.3.1/bits/stl_list.h ****     void
 232:d:/MTK/MTK2503/MTK2503/11CW1418SP4_03_CORETEK03AE_11C_V1_GPRS_MMI/Tools/MinGW/include/c++/3.3.1/bits/stl_list.h ****     _M_put_node(_List_node<_Tp>* __p)
 233:d:/MTK/MTK2503/MTK2503/11CW1418SP4_03_CORETEK03AE_11C_V1_GPRS_MMI/Tools/MinGW/include/c++/3.3.1/bits/stl_list.h ****     { _M_node_allocator.deallocate(__p, 1); }
 234:d:/MTK/MTK2503/MTK2503/11CW1418SP4_03_CORETEK03AE_11C_V1_GPRS_MMI/Tools/MinGW/include/c++/3.3.1/bits/stl_list.h ****   
 235:d:/MTK/MTK2503/MTK2503/11CW1418SP4_03_CORETEK03AE_11C_V1_GPRS_MMI/Tools/MinGW/include/c++/3.3.1/bits/stl_list.h ****     // NOTA BENE
 236:d:/MTK/MTK2503/MTK2503/11CW1418SP4_03_CORETEK03AE_11C_V1_GPRS_MMI/Tools/MinGW/include/c++/3.3.1/bits/stl_list.h ****     // The stored instance is not actually of "allocator_type"'s type.  Instead
 237:d:/MTK/MTK2503/MTK2503/11CW1418SP4_03_CORETEK03AE_11C_V1_GPRS_MMI/Tools/MinGW/include/c++/3.3.1/bits/stl_list.h ****     // we rebind the type to Allocator<List_node<Tp>>, which according to
GAS LISTING d:/MTK/MTK2503/MTK2503/11CW1418SP4_03_CORETEK03AE_11C_V1_GPRS_MMI/plutommi/Customer/ResGenerator/gcctmp/cck7daaa.s 			page 60


 238:d:/MTK/MTK2503/MTK2503/11CW1418SP4_03_CORETEK03AE_11C_V1_GPRS_MMI/Tools/MinGW/include/c++/3.3.1/bits/stl_list.h ****     // [20.1.5]/4 should probably be the same.  List_node<Tp> is not the same
 239:d:/MTK/MTK2503/MTK2503/11CW1418SP4_03_CORETEK03AE_11C_V1_GPRS_MMI/Tools/MinGW/include/c++/3.3.1/bits/stl_list.h ****     // size as Tp (it's two pointers larger), and specializations on Tp may go
 240:d:/MTK/MTK2503/MTK2503/11CW1418SP4_03_CORETEK03AE_11C_V1_GPRS_MMI/Tools/MinGW/include/c++/3.3.1/bits/stl_list.h ****     // unused because List_node<Tp> is being bound instead.
 241:d:/MTK/MTK2503/MTK2503/11CW1418SP4_03_CORETEK03AE_11C_V1_GPRS_MMI/Tools/MinGW/include/c++/3.3.1/bits/stl_list.h ****     //
 242:d:/MTK/MTK2503/MTK2503/11CW1418SP4_03_CORETEK03AE_11C_V1_GPRS_MMI/Tools/MinGW/include/c++/3.3.1/bits/stl_list.h ****     // We put this to the test in get_allocator above; if the two types are
 243:d:/MTK/MTK2503/MTK2503/11CW1418SP4_03_CORETEK03AE_11C_V1_GPRS_MMI/Tools/MinGW/include/c++/3.3.1/bits/stl_list.h ****     // actually different, there had better be a conversion between them.
 244:d:/MTK/MTK2503/MTK2503/11CW1418SP4_03_CORETEK03AE_11C_V1_GPRS_MMI/Tools/MinGW/include/c++/3.3.1/bits/stl_list.h ****     //
 245:d:/MTK/MTK2503/MTK2503/11CW1418SP4_03_CORETEK03AE_11C_V1_GPRS_MMI/Tools/MinGW/include/c++/3.3.1/bits/stl_list.h ****     // None of the predefined allocators shipped with the library (as of 3.1)
 246:d:/MTK/MTK2503/MTK2503/11CW1418SP4_03_CORETEK03AE_11C_V1_GPRS_MMI/Tools/MinGW/include/c++/3.3.1/bits/stl_list.h ****     // use this instantiation anyhow; they're all instanceless.
 247:d:/MTK/MTK2503/MTK2503/11CW1418SP4_03_CORETEK03AE_11C_V1_GPRS_MMI/Tools/MinGW/include/c++/3.3.1/bits/stl_list.h ****     typename _Alloc_traits<_List_node<_Tp>, _Allocator>::allocator_type
 248:d:/MTK/MTK2503/MTK2503/11CW1418SP4_03_CORETEK03AE_11C_V1_GPRS_MMI/Tools/MinGW/include/c++/3.3.1/bits/stl_list.h ****              _M_node_allocator;
 249:d:/MTK/MTK2503/MTK2503/11CW1418SP4_03_CORETEK03AE_11C_V1_GPRS_MMI/Tools/MinGW/include/c++/3.3.1/bits/stl_list.h ****   
 250:d:/MTK/MTK2503/MTK2503/11CW1418SP4_03_CORETEK03AE_11C_V1_GPRS_MMI/Tools/MinGW/include/c++/3.3.1/bits/stl_list.h ****     _List_node<_Tp>* _M_node;
 251:d:/MTK/MTK2503/MTK2503/11CW1418SP4_03_CORETEK03AE_11C_V1_GPRS_MMI/Tools/MinGW/include/c++/3.3.1/bits/stl_list.h ****   };
 252:d:/MTK/MTK2503/MTK2503/11CW1418SP4_03_CORETEK03AE_11C_V1_GPRS_MMI/Tools/MinGW/include/c++/3.3.1/bits/stl_list.h ****   
 253:d:/MTK/MTK2503/MTK2503/11CW1418SP4_03_CORETEK03AE_11C_V1_GPRS_MMI/Tools/MinGW/include/c++/3.3.1/bits/stl_list.h ****   /// @if maint Specialization for instanceless allocators.  @endif
 254:d:/MTK/MTK2503/MTK2503/11CW1418SP4_03_CORETEK03AE_11C_V1_GPRS_MMI/Tools/MinGW/include/c++/3.3.1/bits/stl_list.h ****   template<typename _Tp, typename _Allocator>
 255:d:/MTK/MTK2503/MTK2503/11CW1418SP4_03_CORETEK03AE_11C_V1_GPRS_MMI/Tools/MinGW/include/c++/3.3.1/bits/stl_list.h ****     class _List_alloc_base<_Tp, _Allocator, true>
 256:d:/MTK/MTK2503/MTK2503/11CW1418SP4_03_CORETEK03AE_11C_V1_GPRS_MMI/Tools/MinGW/include/c++/3.3.1/bits/stl_list.h ****   {
 257:d:/MTK/MTK2503/MTK2503/11CW1418SP4_03_CORETEK03AE_11C_V1_GPRS_MMI/Tools/MinGW/include/c++/3.3.1/bits/stl_list.h ****   public:
 258:d:/MTK/MTK2503/MTK2503/11CW1418SP4_03_CORETEK03AE_11C_V1_GPRS_MMI/Tools/MinGW/include/c++/3.3.1/bits/stl_list.h ****     typedef typename _Alloc_traits<_Tp, _Allocator>::allocator_type
 259:d:/MTK/MTK2503/MTK2503/11CW1418SP4_03_CORETEK03AE_11C_V1_GPRS_MMI/Tools/MinGW/include/c++/3.3.1/bits/stl_list.h ****             allocator_type;
 260:d:/MTK/MTK2503/MTK2503/11CW1418SP4_03_CORETEK03AE_11C_V1_GPRS_MMI/Tools/MinGW/include/c++/3.3.1/bits/stl_list.h ****   
 261:d:/MTK/MTK2503/MTK2503/11CW1418SP4_03_CORETEK03AE_11C_V1_GPRS_MMI/Tools/MinGW/include/c++/3.3.1/bits/stl_list.h ****     allocator_type
 262:d:/MTK/MTK2503/MTK2503/11CW1418SP4_03_CORETEK03AE_11C_V1_GPRS_MMI/Tools/MinGW/include/c++/3.3.1/bits/stl_list.h ****     get_allocator() const { return allocator_type(); }
 263:d:/MTK/MTK2503/MTK2503/11CW1418SP4_03_CORETEK03AE_11C_V1_GPRS_MMI/Tools/MinGW/include/c++/3.3.1/bits/stl_list.h ****   
 264:d:/MTK/MTK2503/MTK2503/11CW1418SP4_03_CORETEK03AE_11C_V1_GPRS_MMI/Tools/MinGW/include/c++/3.3.1/bits/stl_list.h ****     _List_alloc_base(const allocator_type&)
 265:d:/MTK/MTK2503/MTK2503/11CW1418SP4_03_CORETEK03AE_11C_V1_GPRS_MMI/Tools/MinGW/include/c++/3.3.1/bits/stl_list.h ****     { }
 266:d:/MTK/MTK2503/MTK2503/11CW1418SP4_03_CORETEK03AE_11C_V1_GPRS_MMI/Tools/MinGW/include/c++/3.3.1/bits/stl_list.h ****   
 267:d:/MTK/MTK2503/MTK2503/11CW1418SP4_03_CORETEK03AE_11C_V1_GPRS_MMI/Tools/MinGW/include/c++/3.3.1/bits/stl_list.h ****   protected:
 268:d:/MTK/MTK2503/MTK2503/11CW1418SP4_03_CORETEK03AE_11C_V1_GPRS_MMI/Tools/MinGW/include/c++/3.3.1/bits/stl_list.h ****     // See comment in primary template class about why this is safe for the
 269:d:/MTK/MTK2503/MTK2503/11CW1418SP4_03_CORETEK03AE_11C_V1_GPRS_MMI/Tools/MinGW/include/c++/3.3.1/bits/stl_list.h ****     // standard predefined classes.
 270:d:/MTK/MTK2503/MTK2503/11CW1418SP4_03_CORETEK03AE_11C_V1_GPRS_MMI/Tools/MinGW/include/c++/3.3.1/bits/stl_list.h ****     typedef typename _Alloc_traits<_List_node<_Tp>, _Allocator>::_Alloc_type
 271:d:/MTK/MTK2503/MTK2503/11CW1418SP4_03_CORETEK03AE_11C_V1_GPRS_MMI/Tools/MinGW/include/c++/3.3.1/bits/stl_list.h ****             _Alloc_type;
 272:d:/MTK/MTK2503/MTK2503/11CW1418SP4_03_CORETEK03AE_11C_V1_GPRS_MMI/Tools/MinGW/include/c++/3.3.1/bits/stl_list.h ****   
 273:d:/MTK/MTK2503/MTK2503/11CW1418SP4_03_CORETEK03AE_11C_V1_GPRS_MMI/Tools/MinGW/include/c++/3.3.1/bits/stl_list.h ****     _List_node<_Tp>*
 274:d:/MTK/MTK2503/MTK2503/11CW1418SP4_03_CORETEK03AE_11C_V1_GPRS_MMI/Tools/MinGW/include/c++/3.3.1/bits/stl_list.h ****     _M_get_node()
 275:d:/MTK/MTK2503/MTK2503/11CW1418SP4_03_CORETEK03AE_11C_V1_GPRS_MMI/Tools/MinGW/include/c++/3.3.1/bits/stl_list.h ****     { return _Alloc_type::allocate(1); }
 276:d:/MTK/MTK2503/MTK2503/11CW1418SP4_03_CORETEK03AE_11C_V1_GPRS_MMI/Tools/MinGW/include/c++/3.3.1/bits/stl_list.h ****   
 277:d:/MTK/MTK2503/MTK2503/11CW1418SP4_03_CORETEK03AE_11C_V1_GPRS_MMI/Tools/MinGW/include/c++/3.3.1/bits/stl_list.h ****     void
 278:d:/MTK/MTK2503/MTK2503/11CW1418SP4_03_CORETEK03AE_11C_V1_GPRS_MMI/Tools/MinGW/include/c++/3.3.1/bits/stl_list.h ****     _M_put_node(_List_node<_Tp>* __p)
 279:d:/MTK/MTK2503/MTK2503/11CW1418SP4_03_CORETEK03AE_11C_V1_GPRS_MMI/Tools/MinGW/include/c++/3.3.1/bits/stl_list.h ****     { _Alloc_type::deallocate(__p, 1); }
 280:d:/MTK/MTK2503/MTK2503/11CW1418SP4_03_CORETEK03AE_11C_V1_GPRS_MMI/Tools/MinGW/include/c++/3.3.1/bits/stl_list.h ****   
 281:d:/MTK/MTK2503/MTK2503/11CW1418SP4_03_CORETEK03AE_11C_V1_GPRS_MMI/Tools/MinGW/include/c++/3.3.1/bits/stl_list.h ****     _List_node<_Tp>* _M_node;
 282:d:/MTK/MTK2503/MTK2503/11CW1418SP4_03_CORETEK03AE_11C_V1_GPRS_MMI/Tools/MinGW/include/c++/3.3.1/bits/stl_list.h ****   };
 283:d:/MTK/MTK2503/MTK2503/11CW1418SP4_03_CORETEK03AE_11C_V1_GPRS_MMI/Tools/MinGW/include/c++/3.3.1/bits/stl_list.h ****   
 284:d:/MTK/MTK2503/MTK2503/11CW1418SP4_03_CORETEK03AE_11C_V1_GPRS_MMI/Tools/MinGW/include/c++/3.3.1/bits/stl_list.h ****   
 285:d:/MTK/MTK2503/MTK2503/11CW1418SP4_03_CORETEK03AE_11C_V1_GPRS_MMI/Tools/MinGW/include/c++/3.3.1/bits/stl_list.h ****   /**
 286:d:/MTK/MTK2503/MTK2503/11CW1418SP4_03_CORETEK03AE_11C_V1_GPRS_MMI/Tools/MinGW/include/c++/3.3.1/bits/stl_list.h ****    *  @if maint
 287:d:/MTK/MTK2503/MTK2503/11CW1418SP4_03_CORETEK03AE_11C_V1_GPRS_MMI/Tools/MinGW/include/c++/3.3.1/bits/stl_list.h ****    *  See bits/stl_deque.h's _Deque_base for an explanation.
 288:d:/MTK/MTK2503/MTK2503/11CW1418SP4_03_CORETEK03AE_11C_V1_GPRS_MMI/Tools/MinGW/include/c++/3.3.1/bits/stl_list.h ****    *  @endif
 289:d:/MTK/MTK2503/MTK2503/11CW1418SP4_03_CORETEK03AE_11C_V1_GPRS_MMI/Tools/MinGW/include/c++/3.3.1/bits/stl_list.h ****   */
 290:d:/MTK/MTK2503/MTK2503/11CW1418SP4_03_CORETEK03AE_11C_V1_GPRS_MMI/Tools/MinGW/include/c++/3.3.1/bits/stl_list.h ****   template <typename _Tp, typename _Alloc>
 291:d:/MTK/MTK2503/MTK2503/11CW1418SP4_03_CORETEK03AE_11C_V1_GPRS_MMI/Tools/MinGW/include/c++/3.3.1/bits/stl_list.h ****     class _List_base
 292:d:/MTK/MTK2503/MTK2503/11CW1418SP4_03_CORETEK03AE_11C_V1_GPRS_MMI/Tools/MinGW/include/c++/3.3.1/bits/stl_list.h ****     : public _List_alloc_base<_Tp, _Alloc,
 293:d:/MTK/MTK2503/MTK2503/11CW1418SP4_03_CORETEK03AE_11C_V1_GPRS_MMI/Tools/MinGW/include/c++/3.3.1/bits/stl_list.h ****                               _Alloc_traits<_Tp, _Alloc>::_S_instanceless>
 294:d:/MTK/MTK2503/MTK2503/11CW1418SP4_03_CORETEK03AE_11C_V1_GPRS_MMI/Tools/MinGW/include/c++/3.3.1/bits/stl_list.h ****   {
GAS LISTING d:/MTK/MTK2503/MTK2503/11CW1418SP4_03_CORETEK03AE_11C_V1_GPRS_MMI/plutommi/Customer/ResGenerator/gcctmp/cck7daaa.s 			page 61


 295:d:/MTK/MTK2503/MTK2503/11CW1418SP4_03_CORETEK03AE_11C_V1_GPRS_MMI/Tools/MinGW/include/c++/3.3.1/bits/stl_list.h ****   public:
 296:d:/MTK/MTK2503/MTK2503/11CW1418SP4_03_CORETEK03AE_11C_V1_GPRS_MMI/Tools/MinGW/include/c++/3.3.1/bits/stl_list.h ****     typedef _List_alloc_base<_Tp, _Alloc,
 297:d:/MTK/MTK2503/MTK2503/11CW1418SP4_03_CORETEK03AE_11C_V1_GPRS_MMI/Tools/MinGW/include/c++/3.3.1/bits/stl_list.h ****                              _Alloc_traits<_Tp, _Alloc>::_S_instanceless>
 298:d:/MTK/MTK2503/MTK2503/11CW1418SP4_03_CORETEK03AE_11C_V1_GPRS_MMI/Tools/MinGW/include/c++/3.3.1/bits/stl_list.h ****             _Base;
 299:d:/MTK/MTK2503/MTK2503/11CW1418SP4_03_CORETEK03AE_11C_V1_GPRS_MMI/Tools/MinGW/include/c++/3.3.1/bits/stl_list.h ****     typedef typename _Base::allocator_type allocator_type;
 300:d:/MTK/MTK2503/MTK2503/11CW1418SP4_03_CORETEK03AE_11C_V1_GPRS_MMI/Tools/MinGW/include/c++/3.3.1/bits/stl_list.h ****   
 301:d:/MTK/MTK2503/MTK2503/11CW1418SP4_03_CORETEK03AE_11C_V1_GPRS_MMI/Tools/MinGW/include/c++/3.3.1/bits/stl_list.h ****     _List_base(const allocator_type& __a)
 302:d:/MTK/MTK2503/MTK2503/11CW1418SP4_03_CORETEK03AE_11C_V1_GPRS_MMI/Tools/MinGW/include/c++/3.3.1/bits/stl_list.h ****     : _Base(__a)
 303:d:/MTK/MTK2503/MTK2503/11CW1418SP4_03_CORETEK03AE_11C_V1_GPRS_MMI/Tools/MinGW/include/c++/3.3.1/bits/stl_list.h ****     {
 304:d:/MTK/MTK2503/MTK2503/11CW1418SP4_03_CORETEK03AE_11C_V1_GPRS_MMI/Tools/MinGW/include/c++/3.3.1/bits/stl_list.h ****       _M_node = _M_get_node();
 305:d:/MTK/MTK2503/MTK2503/11CW1418SP4_03_CORETEK03AE_11C_V1_GPRS_MMI/Tools/MinGW/include/c++/3.3.1/bits/stl_list.h ****       _M_node->_M_next = _M_node;
 306:d:/MTK/MTK2503/MTK2503/11CW1418SP4_03_CORETEK03AE_11C_V1_GPRS_MMI/Tools/MinGW/include/c++/3.3.1/bits/stl_list.h ****       _M_node->_M_prev = _M_node;
 307:d:/MTK/MTK2503/MTK2503/11CW1418SP4_03_CORETEK03AE_11C_V1_GPRS_MMI/Tools/MinGW/include/c++/3.3.1/bits/stl_list.h ****     }
 308:d:/MTK/MTK2503/MTK2503/11CW1418SP4_03_CORETEK03AE_11C_V1_GPRS_MMI/Tools/MinGW/include/c++/3.3.1/bits/stl_list.h ****   
 309:d:/MTK/MTK2503/MTK2503/11CW1418SP4_03_CORETEK03AE_11C_V1_GPRS_MMI/Tools/MinGW/include/c++/3.3.1/bits/stl_list.h ****     // This is what actually destroys the list.
 310:d:/MTK/MTK2503/MTK2503/11CW1418SP4_03_CORETEK03AE_11C_V1_GPRS_MMI/Tools/MinGW/include/c++/3.3.1/bits/stl_list.h ****     ~_List_base()
 311:d:/MTK/MTK2503/MTK2503/11CW1418SP4_03_CORETEK03AE_11C_V1_GPRS_MMI/Tools/MinGW/include/c++/3.3.1/bits/stl_list.h ****     {
 312:d:/MTK/MTK2503/MTK2503/11CW1418SP4_03_CORETEK03AE_11C_V1_GPRS_MMI/Tools/MinGW/include/c++/3.3.1/bits/stl_list.h ****       __clear();
 313:d:/MTK/MTK2503/MTK2503/11CW1418SP4_03_CORETEK03AE_11C_V1_GPRS_MMI/Tools/MinGW/include/c++/3.3.1/bits/stl_list.h ****       _M_put_node(_M_node);
 314:d:/MTK/MTK2503/MTK2503/11CW1418SP4_03_CORETEK03AE_11C_V1_GPRS_MMI/Tools/MinGW/include/c++/3.3.1/bits/stl_list.h ****     }
 315:d:/MTK/MTK2503/MTK2503/11CW1418SP4_03_CORETEK03AE_11C_V1_GPRS_MMI/Tools/MinGW/include/c++/3.3.1/bits/stl_list.h ****   
 316:d:/MTK/MTK2503/MTK2503/11CW1418SP4_03_CORETEK03AE_11C_V1_GPRS_MMI/Tools/MinGW/include/c++/3.3.1/bits/stl_list.h ****     void
 317:d:/MTK/MTK2503/MTK2503/11CW1418SP4_03_CORETEK03AE_11C_V1_GPRS_MMI/Tools/MinGW/include/c++/3.3.1/bits/stl_list.h ****     __clear();
 318:d:/MTK/MTK2503/MTK2503/11CW1418SP4_03_CORETEK03AE_11C_V1_GPRS_MMI/Tools/MinGW/include/c++/3.3.1/bits/stl_list.h ****   };
 319:d:/MTK/MTK2503/MTK2503/11CW1418SP4_03_CORETEK03AE_11C_V1_GPRS_MMI/Tools/MinGW/include/c++/3.3.1/bits/stl_list.h ****   
 320:d:/MTK/MTK2503/MTK2503/11CW1418SP4_03_CORETEK03AE_11C_V1_GPRS_MMI/Tools/MinGW/include/c++/3.3.1/bits/stl_list.h ****   
 321:d:/MTK/MTK2503/MTK2503/11CW1418SP4_03_CORETEK03AE_11C_V1_GPRS_MMI/Tools/MinGW/include/c++/3.3.1/bits/stl_list.h ****   /**
 322:d:/MTK/MTK2503/MTK2503/11CW1418SP4_03_CORETEK03AE_11C_V1_GPRS_MMI/Tools/MinGW/include/c++/3.3.1/bits/stl_list.h ****    *  @brief  A standard container with linear time access to elements, and
 323:d:/MTK/MTK2503/MTK2503/11CW1418SP4_03_CORETEK03AE_11C_V1_GPRS_MMI/Tools/MinGW/include/c++/3.3.1/bits/stl_list.h ****    *  fixed time insertion/deletion at any point in the sequence.
 324:d:/MTK/MTK2503/MTK2503/11CW1418SP4_03_CORETEK03AE_11C_V1_GPRS_MMI/Tools/MinGW/include/c++/3.3.1/bits/stl_list.h ****    *
 325:d:/MTK/MTK2503/MTK2503/11CW1418SP4_03_CORETEK03AE_11C_V1_GPRS_MMI/Tools/MinGW/include/c++/3.3.1/bits/stl_list.h ****    *  @ingroup Containers
 326:d:/MTK/MTK2503/MTK2503/11CW1418SP4_03_CORETEK03AE_11C_V1_GPRS_MMI/Tools/MinGW/include/c++/3.3.1/bits/stl_list.h ****    *  @ingroup Sequences
 327:d:/MTK/MTK2503/MTK2503/11CW1418SP4_03_CORETEK03AE_11C_V1_GPRS_MMI/Tools/MinGW/include/c++/3.3.1/bits/stl_list.h ****    *
 328:d:/MTK/MTK2503/MTK2503/11CW1418SP4_03_CORETEK03AE_11C_V1_GPRS_MMI/Tools/MinGW/include/c++/3.3.1/bits/stl_list.h ****    *  Meets the requirements of a <a href="tables.html#65">container</a>, a
 329:d:/MTK/MTK2503/MTK2503/11CW1418SP4_03_CORETEK03AE_11C_V1_GPRS_MMI/Tools/MinGW/include/c++/3.3.1/bits/stl_list.h ****    *  <a href="tables.html#66">reversible container</a>, and a
 330:d:/MTK/MTK2503/MTK2503/11CW1418SP4_03_CORETEK03AE_11C_V1_GPRS_MMI/Tools/MinGW/include/c++/3.3.1/bits/stl_list.h ****    *  <a href="tables.html#67">sequence</a>, including the
 331:d:/MTK/MTK2503/MTK2503/11CW1418SP4_03_CORETEK03AE_11C_V1_GPRS_MMI/Tools/MinGW/include/c++/3.3.1/bits/stl_list.h ****    *  <a href="tables.html#68">optional sequence requirements</a> with the
 332:d:/MTK/MTK2503/MTK2503/11CW1418SP4_03_CORETEK03AE_11C_V1_GPRS_MMI/Tools/MinGW/include/c++/3.3.1/bits/stl_list.h ****    *  %exception of @c at and @c operator[].
 333:d:/MTK/MTK2503/MTK2503/11CW1418SP4_03_CORETEK03AE_11C_V1_GPRS_MMI/Tools/MinGW/include/c++/3.3.1/bits/stl_list.h ****    *
 334:d:/MTK/MTK2503/MTK2503/11CW1418SP4_03_CORETEK03AE_11C_V1_GPRS_MMI/Tools/MinGW/include/c++/3.3.1/bits/stl_list.h ****    *  This is a @e doubly @e linked %list.  Traversal up and down the %list
 335:d:/MTK/MTK2503/MTK2503/11CW1418SP4_03_CORETEK03AE_11C_V1_GPRS_MMI/Tools/MinGW/include/c++/3.3.1/bits/stl_list.h ****    *  requires linear time, but adding and removing elements (or @e nodes) is
 336:d:/MTK/MTK2503/MTK2503/11CW1418SP4_03_CORETEK03AE_11C_V1_GPRS_MMI/Tools/MinGW/include/c++/3.3.1/bits/stl_list.h ****    *  done in constant time, regardless of where the change takes place.
 337:d:/MTK/MTK2503/MTK2503/11CW1418SP4_03_CORETEK03AE_11C_V1_GPRS_MMI/Tools/MinGW/include/c++/3.3.1/bits/stl_list.h ****    *  Unlike std::vector and std::deque, random-access iterators are not
 338:d:/MTK/MTK2503/MTK2503/11CW1418SP4_03_CORETEK03AE_11C_V1_GPRS_MMI/Tools/MinGW/include/c++/3.3.1/bits/stl_list.h ****    *  provided, so subscripting ( @c [] ) access is not allowed.  For algorithms
 339:d:/MTK/MTK2503/MTK2503/11CW1418SP4_03_CORETEK03AE_11C_V1_GPRS_MMI/Tools/MinGW/include/c++/3.3.1/bits/stl_list.h ****    *  which only need sequential access, this lack makes no difference.
 340:d:/MTK/MTK2503/MTK2503/11CW1418SP4_03_CORETEK03AE_11C_V1_GPRS_MMI/Tools/MinGW/include/c++/3.3.1/bits/stl_list.h ****    *
 341:d:/MTK/MTK2503/MTK2503/11CW1418SP4_03_CORETEK03AE_11C_V1_GPRS_MMI/Tools/MinGW/include/c++/3.3.1/bits/stl_list.h ****    *  Also unlike the other standard containers, std::list provides specialized 
 342:d:/MTK/MTK2503/MTK2503/11CW1418SP4_03_CORETEK03AE_11C_V1_GPRS_MMI/Tools/MinGW/include/c++/3.3.1/bits/stl_list.h ****    *  algorithms %unique to linked lists, such as splicing, sorting, and
 343:d:/MTK/MTK2503/MTK2503/11CW1418SP4_03_CORETEK03AE_11C_V1_GPRS_MMI/Tools/MinGW/include/c++/3.3.1/bits/stl_list.h ****    *  in-place reversal.
 344:d:/MTK/MTK2503/MTK2503/11CW1418SP4_03_CORETEK03AE_11C_V1_GPRS_MMI/Tools/MinGW/include/c++/3.3.1/bits/stl_list.h ****    *
 345:d:/MTK/MTK2503/MTK2503/11CW1418SP4_03_CORETEK03AE_11C_V1_GPRS_MMI/Tools/MinGW/include/c++/3.3.1/bits/stl_list.h ****    *  @if maint
 346:d:/MTK/MTK2503/MTK2503/11CW1418SP4_03_CORETEK03AE_11C_V1_GPRS_MMI/Tools/MinGW/include/c++/3.3.1/bits/stl_list.h ****    *  A couple points on memory allocation for list<Tp>:
 347:d:/MTK/MTK2503/MTK2503/11CW1418SP4_03_CORETEK03AE_11C_V1_GPRS_MMI/Tools/MinGW/include/c++/3.3.1/bits/stl_list.h ****    *
 348:d:/MTK/MTK2503/MTK2503/11CW1418SP4_03_CORETEK03AE_11C_V1_GPRS_MMI/Tools/MinGW/include/c++/3.3.1/bits/stl_list.h ****    *  First, we never actually allocate a Tp, we allocate List_node<Tp>'s
 349:d:/MTK/MTK2503/MTK2503/11CW1418SP4_03_CORETEK03AE_11C_V1_GPRS_MMI/Tools/MinGW/include/c++/3.3.1/bits/stl_list.h ****    *  and trust [20.1.5]/4 to DTRT.  This is to ensure that after elements from
 350:d:/MTK/MTK2503/MTK2503/11CW1418SP4_03_CORETEK03AE_11C_V1_GPRS_MMI/Tools/MinGW/include/c++/3.3.1/bits/stl_list.h ****    *  %list<X,Alloc1> are spliced into %list<X,Alloc2>, destroying the memory of
 351:d:/MTK/MTK2503/MTK2503/11CW1418SP4_03_CORETEK03AE_11C_V1_GPRS_MMI/Tools/MinGW/include/c++/3.3.1/bits/stl_list.h ****    *  the second %list is a valid operation, i.e., Alloc1 giveth and Alloc2
GAS LISTING d:/MTK/MTK2503/MTK2503/11CW1418SP4_03_CORETEK03AE_11C_V1_GPRS_MMI/plutommi/Customer/ResGenerator/gcctmp/cck7daaa.s 			page 62


 352:d:/MTK/MTK2503/MTK2503/11CW1418SP4_03_CORETEK03AE_11C_V1_GPRS_MMI/Tools/MinGW/include/c++/3.3.1/bits/stl_list.h ****    *  taketh away.
 353:d:/MTK/MTK2503/MTK2503/11CW1418SP4_03_CORETEK03AE_11C_V1_GPRS_MMI/Tools/MinGW/include/c++/3.3.1/bits/stl_list.h ****    *
 354:d:/MTK/MTK2503/MTK2503/11CW1418SP4_03_CORETEK03AE_11C_V1_GPRS_MMI/Tools/MinGW/include/c++/3.3.1/bits/stl_list.h ****    *  Second, a %list conceptually represented as
 355:d:/MTK/MTK2503/MTK2503/11CW1418SP4_03_CORETEK03AE_11C_V1_GPRS_MMI/Tools/MinGW/include/c++/3.3.1/bits/stl_list.h ****    *  @code
 356:d:/MTK/MTK2503/MTK2503/11CW1418SP4_03_CORETEK03AE_11C_V1_GPRS_MMI/Tools/MinGW/include/c++/3.3.1/bits/stl_list.h ****    *    A <---> B <---> C <---> D
 357:d:/MTK/MTK2503/MTK2503/11CW1418SP4_03_CORETEK03AE_11C_V1_GPRS_MMI/Tools/MinGW/include/c++/3.3.1/bits/stl_list.h ****    *  @endcode
 358:d:/MTK/MTK2503/MTK2503/11CW1418SP4_03_CORETEK03AE_11C_V1_GPRS_MMI/Tools/MinGW/include/c++/3.3.1/bits/stl_list.h ****    *  is actually circular; a link exists between A and D.  The %list class
 359:d:/MTK/MTK2503/MTK2503/11CW1418SP4_03_CORETEK03AE_11C_V1_GPRS_MMI/Tools/MinGW/include/c++/3.3.1/bits/stl_list.h ****    *  holds (as its only data member) a private list::iterator pointing to
 360:d:/MTK/MTK2503/MTK2503/11CW1418SP4_03_CORETEK03AE_11C_V1_GPRS_MMI/Tools/MinGW/include/c++/3.3.1/bits/stl_list.h ****    *  @e D, not to @e A!  To get to the head of the %list, we start at the tail
 361:d:/MTK/MTK2503/MTK2503/11CW1418SP4_03_CORETEK03AE_11C_V1_GPRS_MMI/Tools/MinGW/include/c++/3.3.1/bits/stl_list.h ****    *  and move forward by one.  When this member iterator's next/previous
 362:d:/MTK/MTK2503/MTK2503/11CW1418SP4_03_CORETEK03AE_11C_V1_GPRS_MMI/Tools/MinGW/include/c++/3.3.1/bits/stl_list.h ****    *  pointers refer to itself, the %list is %empty.
 363:d:/MTK/MTK2503/MTK2503/11CW1418SP4_03_CORETEK03AE_11C_V1_GPRS_MMI/Tools/MinGW/include/c++/3.3.1/bits/stl_list.h ****    *  @endif
 364:d:/MTK/MTK2503/MTK2503/11CW1418SP4_03_CORETEK03AE_11C_V1_GPRS_MMI/Tools/MinGW/include/c++/3.3.1/bits/stl_list.h ****   */
 365:d:/MTK/MTK2503/MTK2503/11CW1418SP4_03_CORETEK03AE_11C_V1_GPRS_MMI/Tools/MinGW/include/c++/3.3.1/bits/stl_list.h ****   template<typename _Tp, typename _Alloc = allocator<_Tp> >
 366:d:/MTK/MTK2503/MTK2503/11CW1418SP4_03_CORETEK03AE_11C_V1_GPRS_MMI/Tools/MinGW/include/c++/3.3.1/bits/stl_list.h ****     class list : protected _List_base<_Tp, _Alloc>
 367:d:/MTK/MTK2503/MTK2503/11CW1418SP4_03_CORETEK03AE_11C_V1_GPRS_MMI/Tools/MinGW/include/c++/3.3.1/bits/stl_list.h ****   {
 368:d:/MTK/MTK2503/MTK2503/11CW1418SP4_03_CORETEK03AE_11C_V1_GPRS_MMI/Tools/MinGW/include/c++/3.3.1/bits/stl_list.h ****     // concept requirements
 369:d:/MTK/MTK2503/MTK2503/11CW1418SP4_03_CORETEK03AE_11C_V1_GPRS_MMI/Tools/MinGW/include/c++/3.3.1/bits/stl_list.h ****     __glibcpp_class_requires(_Tp, _SGIAssignableConcept)
 370:d:/MTK/MTK2503/MTK2503/11CW1418SP4_03_CORETEK03AE_11C_V1_GPRS_MMI/Tools/MinGW/include/c++/3.3.1/bits/stl_list.h ****   
 371:d:/MTK/MTK2503/MTK2503/11CW1418SP4_03_CORETEK03AE_11C_V1_GPRS_MMI/Tools/MinGW/include/c++/3.3.1/bits/stl_list.h ****     typedef _List_base<_Tp, _Alloc>                       _Base;
 372:d:/MTK/MTK2503/MTK2503/11CW1418SP4_03_CORETEK03AE_11C_V1_GPRS_MMI/Tools/MinGW/include/c++/3.3.1/bits/stl_list.h ****   
 373:d:/MTK/MTK2503/MTK2503/11CW1418SP4_03_CORETEK03AE_11C_V1_GPRS_MMI/Tools/MinGW/include/c++/3.3.1/bits/stl_list.h ****   public:
 374:d:/MTK/MTK2503/MTK2503/11CW1418SP4_03_CORETEK03AE_11C_V1_GPRS_MMI/Tools/MinGW/include/c++/3.3.1/bits/stl_list.h ****     typedef _Tp                                           value_type;
 375:d:/MTK/MTK2503/MTK2503/11CW1418SP4_03_CORETEK03AE_11C_V1_GPRS_MMI/Tools/MinGW/include/c++/3.3.1/bits/stl_list.h ****     typedef value_type*                                   pointer;
 376:d:/MTK/MTK2503/MTK2503/11CW1418SP4_03_CORETEK03AE_11C_V1_GPRS_MMI/Tools/MinGW/include/c++/3.3.1/bits/stl_list.h ****     typedef const value_type*                             const_pointer;
 377:d:/MTK/MTK2503/MTK2503/11CW1418SP4_03_CORETEK03AE_11C_V1_GPRS_MMI/Tools/MinGW/include/c++/3.3.1/bits/stl_list.h ****     typedef _List_iterator<_Tp,_Tp&,_Tp*>                 iterator;
 378:d:/MTK/MTK2503/MTK2503/11CW1418SP4_03_CORETEK03AE_11C_V1_GPRS_MMI/Tools/MinGW/include/c++/3.3.1/bits/stl_list.h ****     typedef _List_iterator<_Tp,const _Tp&,const _Tp*>     const_iterator;
 379:d:/MTK/MTK2503/MTK2503/11CW1418SP4_03_CORETEK03AE_11C_V1_GPRS_MMI/Tools/MinGW/include/c++/3.3.1/bits/stl_list.h ****     typedef std::reverse_iterator<const_iterator>     const_reverse_iterator;
 380:d:/MTK/MTK2503/MTK2503/11CW1418SP4_03_CORETEK03AE_11C_V1_GPRS_MMI/Tools/MinGW/include/c++/3.3.1/bits/stl_list.h ****     typedef std::reverse_iterator<iterator>                 reverse_iterator;
 381:d:/MTK/MTK2503/MTK2503/11CW1418SP4_03_CORETEK03AE_11C_V1_GPRS_MMI/Tools/MinGW/include/c++/3.3.1/bits/stl_list.h ****     typedef value_type&                                   reference;
 382:d:/MTK/MTK2503/MTK2503/11CW1418SP4_03_CORETEK03AE_11C_V1_GPRS_MMI/Tools/MinGW/include/c++/3.3.1/bits/stl_list.h ****     typedef const value_type&                             const_reference;
 383:d:/MTK/MTK2503/MTK2503/11CW1418SP4_03_CORETEK03AE_11C_V1_GPRS_MMI/Tools/MinGW/include/c++/3.3.1/bits/stl_list.h ****     typedef size_t                                        size_type;
 384:d:/MTK/MTK2503/MTK2503/11CW1418SP4_03_CORETEK03AE_11C_V1_GPRS_MMI/Tools/MinGW/include/c++/3.3.1/bits/stl_list.h ****     typedef ptrdiff_t                                     difference_type;
 385:d:/MTK/MTK2503/MTK2503/11CW1418SP4_03_CORETEK03AE_11C_V1_GPRS_MMI/Tools/MinGW/include/c++/3.3.1/bits/stl_list.h ****     typedef typename _Base::allocator_type                allocator_type;
 386:d:/MTK/MTK2503/MTK2503/11CW1418SP4_03_CORETEK03AE_11C_V1_GPRS_MMI/Tools/MinGW/include/c++/3.3.1/bits/stl_list.h ****   
 387:d:/MTK/MTK2503/MTK2503/11CW1418SP4_03_CORETEK03AE_11C_V1_GPRS_MMI/Tools/MinGW/include/c++/3.3.1/bits/stl_list.h ****   protected:
 388:d:/MTK/MTK2503/MTK2503/11CW1418SP4_03_CORETEK03AE_11C_V1_GPRS_MMI/Tools/MinGW/include/c++/3.3.1/bits/stl_list.h ****     // Note that pointers-to-_Node's can be ctor-converted to iterator types.
 389:d:/MTK/MTK2503/MTK2503/11CW1418SP4_03_CORETEK03AE_11C_V1_GPRS_MMI/Tools/MinGW/include/c++/3.3.1/bits/stl_list.h ****     typedef _List_node<_Tp>                               _Node;
 390:d:/MTK/MTK2503/MTK2503/11CW1418SP4_03_CORETEK03AE_11C_V1_GPRS_MMI/Tools/MinGW/include/c++/3.3.1/bits/stl_list.h ****   
 391:d:/MTK/MTK2503/MTK2503/11CW1418SP4_03_CORETEK03AE_11C_V1_GPRS_MMI/Tools/MinGW/include/c++/3.3.1/bits/stl_list.h ****     /** @if maint
 392:d:/MTK/MTK2503/MTK2503/11CW1418SP4_03_CORETEK03AE_11C_V1_GPRS_MMI/Tools/MinGW/include/c++/3.3.1/bits/stl_list.h ****      *  One data member plus two memory-handling functions.  If the _Alloc
 393:d:/MTK/MTK2503/MTK2503/11CW1418SP4_03_CORETEK03AE_11C_V1_GPRS_MMI/Tools/MinGW/include/c++/3.3.1/bits/stl_list.h ****      *  type requires separate instances, then one of those will also be
 394:d:/MTK/MTK2503/MTK2503/11CW1418SP4_03_CORETEK03AE_11C_V1_GPRS_MMI/Tools/MinGW/include/c++/3.3.1/bits/stl_list.h ****      *  included, accumulated from the topmost parent.
 395:d:/MTK/MTK2503/MTK2503/11CW1418SP4_03_CORETEK03AE_11C_V1_GPRS_MMI/Tools/MinGW/include/c++/3.3.1/bits/stl_list.h ****      *  @endif
 396:d:/MTK/MTK2503/MTK2503/11CW1418SP4_03_CORETEK03AE_11C_V1_GPRS_MMI/Tools/MinGW/include/c++/3.3.1/bits/stl_list.h ****     */
 397:d:/MTK/MTK2503/MTK2503/11CW1418SP4_03_CORETEK03AE_11C_V1_GPRS_MMI/Tools/MinGW/include/c++/3.3.1/bits/stl_list.h ****     using _Base::_M_node;
 398:d:/MTK/MTK2503/MTK2503/11CW1418SP4_03_CORETEK03AE_11C_V1_GPRS_MMI/Tools/MinGW/include/c++/3.3.1/bits/stl_list.h ****     using _Base::_M_put_node;
 399:d:/MTK/MTK2503/MTK2503/11CW1418SP4_03_CORETEK03AE_11C_V1_GPRS_MMI/Tools/MinGW/include/c++/3.3.1/bits/stl_list.h ****     using _Base::_M_get_node;
 400:d:/MTK/MTK2503/MTK2503/11CW1418SP4_03_CORETEK03AE_11C_V1_GPRS_MMI/Tools/MinGW/include/c++/3.3.1/bits/stl_list.h ****   
 401:d:/MTK/MTK2503/MTK2503/11CW1418SP4_03_CORETEK03AE_11C_V1_GPRS_MMI/Tools/MinGW/include/c++/3.3.1/bits/stl_list.h ****     /**
 402:d:/MTK/MTK2503/MTK2503/11CW1418SP4_03_CORETEK03AE_11C_V1_GPRS_MMI/Tools/MinGW/include/c++/3.3.1/bits/stl_list.h ****      *  @if maint
 403:d:/MTK/MTK2503/MTK2503/11CW1418SP4_03_CORETEK03AE_11C_V1_GPRS_MMI/Tools/MinGW/include/c++/3.3.1/bits/stl_list.h ****      *  @param  x  An instance of user data.
 404:d:/MTK/MTK2503/MTK2503/11CW1418SP4_03_CORETEK03AE_11C_V1_GPRS_MMI/Tools/MinGW/include/c++/3.3.1/bits/stl_list.h ****      *
 405:d:/MTK/MTK2503/MTK2503/11CW1418SP4_03_CORETEK03AE_11C_V1_GPRS_MMI/Tools/MinGW/include/c++/3.3.1/bits/stl_list.h ****      *  Allocates space for a new node and constructs a copy of @a x in it.
 406:d:/MTK/MTK2503/MTK2503/11CW1418SP4_03_CORETEK03AE_11C_V1_GPRS_MMI/Tools/MinGW/include/c++/3.3.1/bits/stl_list.h ****      *  @endif
 407:d:/MTK/MTK2503/MTK2503/11CW1418SP4_03_CORETEK03AE_11C_V1_GPRS_MMI/Tools/MinGW/include/c++/3.3.1/bits/stl_list.h ****     */
 408:d:/MTK/MTK2503/MTK2503/11CW1418SP4_03_CORETEK03AE_11C_V1_GPRS_MMI/Tools/MinGW/include/c++/3.3.1/bits/stl_list.h ****     _Node*
GAS LISTING d:/MTK/MTK2503/MTK2503/11CW1418SP4_03_CORETEK03AE_11C_V1_GPRS_MMI/plutommi/Customer/ResGenerator/gcctmp/cck7daaa.s 			page 63


 409:d:/MTK/MTK2503/MTK2503/11CW1418SP4_03_CORETEK03AE_11C_V1_GPRS_MMI/Tools/MinGW/include/c++/3.3.1/bits/stl_list.h ****     _M_create_node(const value_type& __x)
 410:d:/MTK/MTK2503/MTK2503/11CW1418SP4_03_CORETEK03AE_11C_V1_GPRS_MMI/Tools/MinGW/include/c++/3.3.1/bits/stl_list.h ****     {
 411:d:/MTK/MTK2503/MTK2503/11CW1418SP4_03_CORETEK03AE_11C_V1_GPRS_MMI/Tools/MinGW/include/c++/3.3.1/bits/stl_list.h ****       _Node* __p = _M_get_node();
 412:d:/MTK/MTK2503/MTK2503/11CW1418SP4_03_CORETEK03AE_11C_V1_GPRS_MMI/Tools/MinGW/include/c++/3.3.1/bits/stl_list.h ****       try {
 413:d:/MTK/MTK2503/MTK2503/11CW1418SP4_03_CORETEK03AE_11C_V1_GPRS_MMI/Tools/MinGW/include/c++/3.3.1/bits/stl_list.h ****         _Construct(&__p->_M_data, __x);
 414:d:/MTK/MTK2503/MTK2503/11CW1418SP4_03_CORETEK03AE_11C_V1_GPRS_MMI/Tools/MinGW/include/c++/3.3.1/bits/stl_list.h ****       }
 415:d:/MTK/MTK2503/MTK2503/11CW1418SP4_03_CORETEK03AE_11C_V1_GPRS_MMI/Tools/MinGW/include/c++/3.3.1/bits/stl_list.h ****       catch(...)
 416:d:/MTK/MTK2503/MTK2503/11CW1418SP4_03_CORETEK03AE_11C_V1_GPRS_MMI/Tools/MinGW/include/c++/3.3.1/bits/stl_list.h ****       {
 417:d:/MTK/MTK2503/MTK2503/11CW1418SP4_03_CORETEK03AE_11C_V1_GPRS_MMI/Tools/MinGW/include/c++/3.3.1/bits/stl_list.h ****         _M_put_node(__p);
 418:d:/MTK/MTK2503/MTK2503/11CW1418SP4_03_CORETEK03AE_11C_V1_GPRS_MMI/Tools/MinGW/include/c++/3.3.1/bits/stl_list.h ****         __throw_exception_again;
 419:d:/MTK/MTK2503/MTK2503/11CW1418SP4_03_CORETEK03AE_11C_V1_GPRS_MMI/Tools/MinGW/include/c++/3.3.1/bits/stl_list.h ****       }
 420:d:/MTK/MTK2503/MTK2503/11CW1418SP4_03_CORETEK03AE_11C_V1_GPRS_MMI/Tools/MinGW/include/c++/3.3.1/bits/stl_list.h ****       return __p;
 421:d:/MTK/MTK2503/MTK2503/11CW1418SP4_03_CORETEK03AE_11C_V1_GPRS_MMI/Tools/MinGW/include/c++/3.3.1/bits/stl_list.h ****     }
 422:d:/MTK/MTK2503/MTK2503/11CW1418SP4_03_CORETEK03AE_11C_V1_GPRS_MMI/Tools/MinGW/include/c++/3.3.1/bits/stl_list.h ****   
 423:d:/MTK/MTK2503/MTK2503/11CW1418SP4_03_CORETEK03AE_11C_V1_GPRS_MMI/Tools/MinGW/include/c++/3.3.1/bits/stl_list.h ****     /**
 424:d:/MTK/MTK2503/MTK2503/11CW1418SP4_03_CORETEK03AE_11C_V1_GPRS_MMI/Tools/MinGW/include/c++/3.3.1/bits/stl_list.h ****      *  @if maint
 425:d:/MTK/MTK2503/MTK2503/11CW1418SP4_03_CORETEK03AE_11C_V1_GPRS_MMI/Tools/MinGW/include/c++/3.3.1/bits/stl_list.h ****      *  Allocates space for a new node and default-constructs a new instance
 426:d:/MTK/MTK2503/MTK2503/11CW1418SP4_03_CORETEK03AE_11C_V1_GPRS_MMI/Tools/MinGW/include/c++/3.3.1/bits/stl_list.h ****      *  of @c value_type in it.
 427:d:/MTK/MTK2503/MTK2503/11CW1418SP4_03_CORETEK03AE_11C_V1_GPRS_MMI/Tools/MinGW/include/c++/3.3.1/bits/stl_list.h ****      *  @endif
 428:d:/MTK/MTK2503/MTK2503/11CW1418SP4_03_CORETEK03AE_11C_V1_GPRS_MMI/Tools/MinGW/include/c++/3.3.1/bits/stl_list.h ****     */
 429:d:/MTK/MTK2503/MTK2503/11CW1418SP4_03_CORETEK03AE_11C_V1_GPRS_MMI/Tools/MinGW/include/c++/3.3.1/bits/stl_list.h ****     _Node*
 430:d:/MTK/MTK2503/MTK2503/11CW1418SP4_03_CORETEK03AE_11C_V1_GPRS_MMI/Tools/MinGW/include/c++/3.3.1/bits/stl_list.h ****     _M_create_node()
 431:d:/MTK/MTK2503/MTK2503/11CW1418SP4_03_CORETEK03AE_11C_V1_GPRS_MMI/Tools/MinGW/include/c++/3.3.1/bits/stl_list.h ****     {
 432:d:/MTK/MTK2503/MTK2503/11CW1418SP4_03_CORETEK03AE_11C_V1_GPRS_MMI/Tools/MinGW/include/c++/3.3.1/bits/stl_list.h ****       _Node* __p = _M_get_node();
 433:d:/MTK/MTK2503/MTK2503/11CW1418SP4_03_CORETEK03AE_11C_V1_GPRS_MMI/Tools/MinGW/include/c++/3.3.1/bits/stl_list.h ****       try {
 434:d:/MTK/MTK2503/MTK2503/11CW1418SP4_03_CORETEK03AE_11C_V1_GPRS_MMI/Tools/MinGW/include/c++/3.3.1/bits/stl_list.h ****         _Construct(&__p->_M_data);
 435:d:/MTK/MTK2503/MTK2503/11CW1418SP4_03_CORETEK03AE_11C_V1_GPRS_MMI/Tools/MinGW/include/c++/3.3.1/bits/stl_list.h ****       }
 436:d:/MTK/MTK2503/MTK2503/11CW1418SP4_03_CORETEK03AE_11C_V1_GPRS_MMI/Tools/MinGW/include/c++/3.3.1/bits/stl_list.h ****       catch(...)
 437:d:/MTK/MTK2503/MTK2503/11CW1418SP4_03_CORETEK03AE_11C_V1_GPRS_MMI/Tools/MinGW/include/c++/3.3.1/bits/stl_list.h ****       {
 438:d:/MTK/MTK2503/MTK2503/11CW1418SP4_03_CORETEK03AE_11C_V1_GPRS_MMI/Tools/MinGW/include/c++/3.3.1/bits/stl_list.h ****         _M_put_node(__p);
 439:d:/MTK/MTK2503/MTK2503/11CW1418SP4_03_CORETEK03AE_11C_V1_GPRS_MMI/Tools/MinGW/include/c++/3.3.1/bits/stl_list.h ****         __throw_exception_again;
 440:d:/MTK/MTK2503/MTK2503/11CW1418SP4_03_CORETEK03AE_11C_V1_GPRS_MMI/Tools/MinGW/include/c++/3.3.1/bits/stl_list.h ****       }
 441:d:/MTK/MTK2503/MTK2503/11CW1418SP4_03_CORETEK03AE_11C_V1_GPRS_MMI/Tools/MinGW/include/c++/3.3.1/bits/stl_list.h ****       return __p;
 442:d:/MTK/MTK2503/MTK2503/11CW1418SP4_03_CORETEK03AE_11C_V1_GPRS_MMI/Tools/MinGW/include/c++/3.3.1/bits/stl_list.h ****     }
 443:d:/MTK/MTK2503/MTK2503/11CW1418SP4_03_CORETEK03AE_11C_V1_GPRS_MMI/Tools/MinGW/include/c++/3.3.1/bits/stl_list.h ****   
 444:d:/MTK/MTK2503/MTK2503/11CW1418SP4_03_CORETEK03AE_11C_V1_GPRS_MMI/Tools/MinGW/include/c++/3.3.1/bits/stl_list.h ****   public:
 445:d:/MTK/MTK2503/MTK2503/11CW1418SP4_03_CORETEK03AE_11C_V1_GPRS_MMI/Tools/MinGW/include/c++/3.3.1/bits/stl_list.h ****     // [23.2.2.1] construct/copy/destroy
 446:d:/MTK/MTK2503/MTK2503/11CW1418SP4_03_CORETEK03AE_11C_V1_GPRS_MMI/Tools/MinGW/include/c++/3.3.1/bits/stl_list.h ****     // (assign() and get_allocator() are also listed in this section)
 447:d:/MTK/MTK2503/MTK2503/11CW1418SP4_03_CORETEK03AE_11C_V1_GPRS_MMI/Tools/MinGW/include/c++/3.3.1/bits/stl_list.h ****     /**
 448:d:/MTK/MTK2503/MTK2503/11CW1418SP4_03_CORETEK03AE_11C_V1_GPRS_MMI/Tools/MinGW/include/c++/3.3.1/bits/stl_list.h ****      *  @brief  Default constructor creates no elements.
 449:d:/MTK/MTK2503/MTK2503/11CW1418SP4_03_CORETEK03AE_11C_V1_GPRS_MMI/Tools/MinGW/include/c++/3.3.1/bits/stl_list.h ****     */
 450:d:/MTK/MTK2503/MTK2503/11CW1418SP4_03_CORETEK03AE_11C_V1_GPRS_MMI/Tools/MinGW/include/c++/3.3.1/bits/stl_list.h ****     explicit
 451:d:/MTK/MTK2503/MTK2503/11CW1418SP4_03_CORETEK03AE_11C_V1_GPRS_MMI/Tools/MinGW/include/c++/3.3.1/bits/stl_list.h ****     list(const allocator_type& __a = allocator_type())
 452:d:/MTK/MTK2503/MTK2503/11CW1418SP4_03_CORETEK03AE_11C_V1_GPRS_MMI/Tools/MinGW/include/c++/3.3.1/bits/stl_list.h ****     : _Base(__a) { }
 453:d:/MTK/MTK2503/MTK2503/11CW1418SP4_03_CORETEK03AE_11C_V1_GPRS_MMI/Tools/MinGW/include/c++/3.3.1/bits/stl_list.h ****   
 454:d:/MTK/MTK2503/MTK2503/11CW1418SP4_03_CORETEK03AE_11C_V1_GPRS_MMI/Tools/MinGW/include/c++/3.3.1/bits/stl_list.h ****     /**
 455:d:/MTK/MTK2503/MTK2503/11CW1418SP4_03_CORETEK03AE_11C_V1_GPRS_MMI/Tools/MinGW/include/c++/3.3.1/bits/stl_list.h ****      *  @brief  Create a %list with copies of an exemplar element.
 456:d:/MTK/MTK2503/MTK2503/11CW1418SP4_03_CORETEK03AE_11C_V1_GPRS_MMI/Tools/MinGW/include/c++/3.3.1/bits/stl_list.h ****      *  @param  n  The number of elements to initially create.
 457:d:/MTK/MTK2503/MTK2503/11CW1418SP4_03_CORETEK03AE_11C_V1_GPRS_MMI/Tools/MinGW/include/c++/3.3.1/bits/stl_list.h ****      *  @param  value  An element to copy.
 458:d:/MTK/MTK2503/MTK2503/11CW1418SP4_03_CORETEK03AE_11C_V1_GPRS_MMI/Tools/MinGW/include/c++/3.3.1/bits/stl_list.h ****      * 
 459:d:/MTK/MTK2503/MTK2503/11CW1418SP4_03_CORETEK03AE_11C_V1_GPRS_MMI/Tools/MinGW/include/c++/3.3.1/bits/stl_list.h ****      *  This constructor fills the %list with @a n copies of @a value.
 460:d:/MTK/MTK2503/MTK2503/11CW1418SP4_03_CORETEK03AE_11C_V1_GPRS_MMI/Tools/MinGW/include/c++/3.3.1/bits/stl_list.h ****     */
 461:d:/MTK/MTK2503/MTK2503/11CW1418SP4_03_CORETEK03AE_11C_V1_GPRS_MMI/Tools/MinGW/include/c++/3.3.1/bits/stl_list.h ****     list(size_type __n, const value_type& __value,
 462:d:/MTK/MTK2503/MTK2503/11CW1418SP4_03_CORETEK03AE_11C_V1_GPRS_MMI/Tools/MinGW/include/c++/3.3.1/bits/stl_list.h ****          const allocator_type& __a = allocator_type())
 463:d:/MTK/MTK2503/MTK2503/11CW1418SP4_03_CORETEK03AE_11C_V1_GPRS_MMI/Tools/MinGW/include/c++/3.3.1/bits/stl_list.h ****       : _Base(__a)
 464:d:/MTK/MTK2503/MTK2503/11CW1418SP4_03_CORETEK03AE_11C_V1_GPRS_MMI/Tools/MinGW/include/c++/3.3.1/bits/stl_list.h ****       { this->insert(begin(), __n, __value); }
 465:d:/MTK/MTK2503/MTK2503/11CW1418SP4_03_CORETEK03AE_11C_V1_GPRS_MMI/Tools/MinGW/include/c++/3.3.1/bits/stl_list.h ****   
GAS LISTING d:/MTK/MTK2503/MTK2503/11CW1418SP4_03_CORETEK03AE_11C_V1_GPRS_MMI/plutommi/Customer/ResGenerator/gcctmp/cck7daaa.s 			page 64


 466:d:/MTK/MTK2503/MTK2503/11CW1418SP4_03_CORETEK03AE_11C_V1_GPRS_MMI/Tools/MinGW/include/c++/3.3.1/bits/stl_list.h ****     /**
 467:d:/MTK/MTK2503/MTK2503/11CW1418SP4_03_CORETEK03AE_11C_V1_GPRS_MMI/Tools/MinGW/include/c++/3.3.1/bits/stl_list.h ****      *  @brief  Create a %list with default elements.
 468:d:/MTK/MTK2503/MTK2503/11CW1418SP4_03_CORETEK03AE_11C_V1_GPRS_MMI/Tools/MinGW/include/c++/3.3.1/bits/stl_list.h ****      *  @param  n  The number of elements to initially create.
 469:d:/MTK/MTK2503/MTK2503/11CW1418SP4_03_CORETEK03AE_11C_V1_GPRS_MMI/Tools/MinGW/include/c++/3.3.1/bits/stl_list.h ****      * 
 470:d:/MTK/MTK2503/MTK2503/11CW1418SP4_03_CORETEK03AE_11C_V1_GPRS_MMI/Tools/MinGW/include/c++/3.3.1/bits/stl_list.h ****      *  This constructor fills the %list with @a n copies of a
 471:d:/MTK/MTK2503/MTK2503/11CW1418SP4_03_CORETEK03AE_11C_V1_GPRS_MMI/Tools/MinGW/include/c++/3.3.1/bits/stl_list.h ****      *  default-constructed element.
 472:d:/MTK/MTK2503/MTK2503/11CW1418SP4_03_CORETEK03AE_11C_V1_GPRS_MMI/Tools/MinGW/include/c++/3.3.1/bits/stl_list.h ****     */
 473:d:/MTK/MTK2503/MTK2503/11CW1418SP4_03_CORETEK03AE_11C_V1_GPRS_MMI/Tools/MinGW/include/c++/3.3.1/bits/stl_list.h ****     explicit
 474:d:/MTK/MTK2503/MTK2503/11CW1418SP4_03_CORETEK03AE_11C_V1_GPRS_MMI/Tools/MinGW/include/c++/3.3.1/bits/stl_list.h ****     list(size_type __n)
 475:d:/MTK/MTK2503/MTK2503/11CW1418SP4_03_CORETEK03AE_11C_V1_GPRS_MMI/Tools/MinGW/include/c++/3.3.1/bits/stl_list.h ****       : _Base(allocator_type())
 476:d:/MTK/MTK2503/MTK2503/11CW1418SP4_03_CORETEK03AE_11C_V1_GPRS_MMI/Tools/MinGW/include/c++/3.3.1/bits/stl_list.h ****       { this->insert(begin(), __n, value_type()); }
 477:d:/MTK/MTK2503/MTK2503/11CW1418SP4_03_CORETEK03AE_11C_V1_GPRS_MMI/Tools/MinGW/include/c++/3.3.1/bits/stl_list.h ****   
 478:d:/MTK/MTK2503/MTK2503/11CW1418SP4_03_CORETEK03AE_11C_V1_GPRS_MMI/Tools/MinGW/include/c++/3.3.1/bits/stl_list.h ****     /**
 479:d:/MTK/MTK2503/MTK2503/11CW1418SP4_03_CORETEK03AE_11C_V1_GPRS_MMI/Tools/MinGW/include/c++/3.3.1/bits/stl_list.h ****      *  @brief  %List copy constructor.
 480:d:/MTK/MTK2503/MTK2503/11CW1418SP4_03_CORETEK03AE_11C_V1_GPRS_MMI/Tools/MinGW/include/c++/3.3.1/bits/stl_list.h ****      *  @param  x  A %list of identical element and allocator types.
 481:d:/MTK/MTK2503/MTK2503/11CW1418SP4_03_CORETEK03AE_11C_V1_GPRS_MMI/Tools/MinGW/include/c++/3.3.1/bits/stl_list.h ****      * 
 482:d:/MTK/MTK2503/MTK2503/11CW1418SP4_03_CORETEK03AE_11C_V1_GPRS_MMI/Tools/MinGW/include/c++/3.3.1/bits/stl_list.h ****      *  The newly-created %list uses a copy of the allocation object used
 483:d:/MTK/MTK2503/MTK2503/11CW1418SP4_03_CORETEK03AE_11C_V1_GPRS_MMI/Tools/MinGW/include/c++/3.3.1/bits/stl_list.h ****      *  by @a x.
 484:d:/MTK/MTK2503/MTK2503/11CW1418SP4_03_CORETEK03AE_11C_V1_GPRS_MMI/Tools/MinGW/include/c++/3.3.1/bits/stl_list.h ****     */
 485:d:/MTK/MTK2503/MTK2503/11CW1418SP4_03_CORETEK03AE_11C_V1_GPRS_MMI/Tools/MinGW/include/c++/3.3.1/bits/stl_list.h ****     list(const list& __x)
 486:d:/MTK/MTK2503/MTK2503/11CW1418SP4_03_CORETEK03AE_11C_V1_GPRS_MMI/Tools/MinGW/include/c++/3.3.1/bits/stl_list.h ****       : _Base(__x.get_allocator())
 487:d:/MTK/MTK2503/MTK2503/11CW1418SP4_03_CORETEK03AE_11C_V1_GPRS_MMI/Tools/MinGW/include/c++/3.3.1/bits/stl_list.h ****       { this->insert(begin(), __x.begin(), __x.end()); }
 488:d:/MTK/MTK2503/MTK2503/11CW1418SP4_03_CORETEK03AE_11C_V1_GPRS_MMI/Tools/MinGW/include/c++/3.3.1/bits/stl_list.h ****   
 489:d:/MTK/MTK2503/MTK2503/11CW1418SP4_03_CORETEK03AE_11C_V1_GPRS_MMI/Tools/MinGW/include/c++/3.3.1/bits/stl_list.h ****     /**
 490:d:/MTK/MTK2503/MTK2503/11CW1418SP4_03_CORETEK03AE_11C_V1_GPRS_MMI/Tools/MinGW/include/c++/3.3.1/bits/stl_list.h ****      *  @brief  Builds a %list from a range.
 491:d:/MTK/MTK2503/MTK2503/11CW1418SP4_03_CORETEK03AE_11C_V1_GPRS_MMI/Tools/MinGW/include/c++/3.3.1/bits/stl_list.h ****      *  @param  first  An input iterator.
 492:d:/MTK/MTK2503/MTK2503/11CW1418SP4_03_CORETEK03AE_11C_V1_GPRS_MMI/Tools/MinGW/include/c++/3.3.1/bits/stl_list.h ****      *  @param  last  An input iterator.
 493:d:/MTK/MTK2503/MTK2503/11CW1418SP4_03_CORETEK03AE_11C_V1_GPRS_MMI/Tools/MinGW/include/c++/3.3.1/bits/stl_list.h ****      * 
 494:d:/MTK/MTK2503/MTK2503/11CW1418SP4_03_CORETEK03AE_11C_V1_GPRS_MMI/Tools/MinGW/include/c++/3.3.1/bits/stl_list.h ****      *  Create a %list consisting of copies of the elements from [first,last).
 495:d:/MTK/MTK2503/MTK2503/11CW1418SP4_03_CORETEK03AE_11C_V1_GPRS_MMI/Tools/MinGW/include/c++/3.3.1/bits/stl_list.h ****      *  This is linear in N (where N is distance(first,last)).
 496:d:/MTK/MTK2503/MTK2503/11CW1418SP4_03_CORETEK03AE_11C_V1_GPRS_MMI/Tools/MinGW/include/c++/3.3.1/bits/stl_list.h ****      *
 497:d:/MTK/MTK2503/MTK2503/11CW1418SP4_03_CORETEK03AE_11C_V1_GPRS_MMI/Tools/MinGW/include/c++/3.3.1/bits/stl_list.h ****      *  @if maint
 498:d:/MTK/MTK2503/MTK2503/11CW1418SP4_03_CORETEK03AE_11C_V1_GPRS_MMI/Tools/MinGW/include/c++/3.3.1/bits/stl_list.h ****      *  We don't need any dispatching tricks here, because insert does all of
 499:d:/MTK/MTK2503/MTK2503/11CW1418SP4_03_CORETEK03AE_11C_V1_GPRS_MMI/Tools/MinGW/include/c++/3.3.1/bits/stl_list.h ****      *  that anyway.
 500:d:/MTK/MTK2503/MTK2503/11CW1418SP4_03_CORETEK03AE_11C_V1_GPRS_MMI/Tools/MinGW/include/c++/3.3.1/bits/stl_list.h ****      *  @endif
 501:d:/MTK/MTK2503/MTK2503/11CW1418SP4_03_CORETEK03AE_11C_V1_GPRS_MMI/Tools/MinGW/include/c++/3.3.1/bits/stl_list.h ****     */
 502:d:/MTK/MTK2503/MTK2503/11CW1418SP4_03_CORETEK03AE_11C_V1_GPRS_MMI/Tools/MinGW/include/c++/3.3.1/bits/stl_list.h ****     template<typename _InputIterator>
 503:d:/MTK/MTK2503/MTK2503/11CW1418SP4_03_CORETEK03AE_11C_V1_GPRS_MMI/Tools/MinGW/include/c++/3.3.1/bits/stl_list.h ****       list(_InputIterator __first, _InputIterator __last,
 504:d:/MTK/MTK2503/MTK2503/11CW1418SP4_03_CORETEK03AE_11C_V1_GPRS_MMI/Tools/MinGW/include/c++/3.3.1/bits/stl_list.h ****            const allocator_type& __a = allocator_type())
 505:d:/MTK/MTK2503/MTK2503/11CW1418SP4_03_CORETEK03AE_11C_V1_GPRS_MMI/Tools/MinGW/include/c++/3.3.1/bits/stl_list.h ****       : _Base(__a)
 506:d:/MTK/MTK2503/MTK2503/11CW1418SP4_03_CORETEK03AE_11C_V1_GPRS_MMI/Tools/MinGW/include/c++/3.3.1/bits/stl_list.h ****       { this->insert(begin(), __first, __last); }
 507:d:/MTK/MTK2503/MTK2503/11CW1418SP4_03_CORETEK03AE_11C_V1_GPRS_MMI/Tools/MinGW/include/c++/3.3.1/bits/stl_list.h ****   
 508:d:/MTK/MTK2503/MTK2503/11CW1418SP4_03_CORETEK03AE_11C_V1_GPRS_MMI/Tools/MinGW/include/c++/3.3.1/bits/stl_list.h ****     /**
 509:d:/MTK/MTK2503/MTK2503/11CW1418SP4_03_CORETEK03AE_11C_V1_GPRS_MMI/Tools/MinGW/include/c++/3.3.1/bits/stl_list.h ****      *  The dtor only erases the elements, and note that if the elements
 510:d:/MTK/MTK2503/MTK2503/11CW1418SP4_03_CORETEK03AE_11C_V1_GPRS_MMI/Tools/MinGW/include/c++/3.3.1/bits/stl_list.h ****      *  themselves are pointers, the pointed-to memory is not touched in any
 511:d:/MTK/MTK2503/MTK2503/11CW1418SP4_03_CORETEK03AE_11C_V1_GPRS_MMI/Tools/MinGW/include/c++/3.3.1/bits/stl_list.h ****      *  way.  Managing the pointer is the user's responsibilty.
 512:d:/MTK/MTK2503/MTK2503/11CW1418SP4_03_CORETEK03AE_11C_V1_GPRS_MMI/Tools/MinGW/include/c++/3.3.1/bits/stl_list.h ****     */
 513:d:/MTK/MTK2503/MTK2503/11CW1418SP4_03_CORETEK03AE_11C_V1_GPRS_MMI/Tools/MinGW/include/c++/3.3.1/bits/stl_list.h ****     ~list() { }
 514:d:/MTK/MTK2503/MTK2503/11CW1418SP4_03_CORETEK03AE_11C_V1_GPRS_MMI/Tools/MinGW/include/c++/3.3.1/bits/stl_list.h ****   
 515:d:/MTK/MTK2503/MTK2503/11CW1418SP4_03_CORETEK03AE_11C_V1_GPRS_MMI/Tools/MinGW/include/c++/3.3.1/bits/stl_list.h ****     /**
 516:d:/MTK/MTK2503/MTK2503/11CW1418SP4_03_CORETEK03AE_11C_V1_GPRS_MMI/Tools/MinGW/include/c++/3.3.1/bits/stl_list.h ****      *  @brief  %List assignment operator.
 517:d:/MTK/MTK2503/MTK2503/11CW1418SP4_03_CORETEK03AE_11C_V1_GPRS_MMI/Tools/MinGW/include/c++/3.3.1/bits/stl_list.h ****      *  @param  x  A %list of identical element and allocator types.
 518:d:/MTK/MTK2503/MTK2503/11CW1418SP4_03_CORETEK03AE_11C_V1_GPRS_MMI/Tools/MinGW/include/c++/3.3.1/bits/stl_list.h ****      * 
 519:d:/MTK/MTK2503/MTK2503/11CW1418SP4_03_CORETEK03AE_11C_V1_GPRS_MMI/Tools/MinGW/include/c++/3.3.1/bits/stl_list.h ****      *  All the elements of @a x are copied, but unlike the copy constructor,
 520:d:/MTK/MTK2503/MTK2503/11CW1418SP4_03_CORETEK03AE_11C_V1_GPRS_MMI/Tools/MinGW/include/c++/3.3.1/bits/stl_list.h ****      *  the allocator object is not copied.
 521:d:/MTK/MTK2503/MTK2503/11CW1418SP4_03_CORETEK03AE_11C_V1_GPRS_MMI/Tools/MinGW/include/c++/3.3.1/bits/stl_list.h ****     */
 522:d:/MTK/MTK2503/MTK2503/11CW1418SP4_03_CORETEK03AE_11C_V1_GPRS_MMI/Tools/MinGW/include/c++/3.3.1/bits/stl_list.h ****     list&
GAS LISTING d:/MTK/MTK2503/MTK2503/11CW1418SP4_03_CORETEK03AE_11C_V1_GPRS_MMI/plutommi/Customer/ResGenerator/gcctmp/cck7daaa.s 			page 65


 523:d:/MTK/MTK2503/MTK2503/11CW1418SP4_03_CORETEK03AE_11C_V1_GPRS_MMI/Tools/MinGW/include/c++/3.3.1/bits/stl_list.h ****     operator=(const list& __x);
 524:d:/MTK/MTK2503/MTK2503/11CW1418SP4_03_CORETEK03AE_11C_V1_GPRS_MMI/Tools/MinGW/include/c++/3.3.1/bits/stl_list.h ****   
 525:d:/MTK/MTK2503/MTK2503/11CW1418SP4_03_CORETEK03AE_11C_V1_GPRS_MMI/Tools/MinGW/include/c++/3.3.1/bits/stl_list.h ****     /**
 526:d:/MTK/MTK2503/MTK2503/11CW1418SP4_03_CORETEK03AE_11C_V1_GPRS_MMI/Tools/MinGW/include/c++/3.3.1/bits/stl_list.h ****      *  @brief  Assigns a given value to a %list.
 527:d:/MTK/MTK2503/MTK2503/11CW1418SP4_03_CORETEK03AE_11C_V1_GPRS_MMI/Tools/MinGW/include/c++/3.3.1/bits/stl_list.h ****      *  @param  n  Number of elements to be assigned.
 528:d:/MTK/MTK2503/MTK2503/11CW1418SP4_03_CORETEK03AE_11C_V1_GPRS_MMI/Tools/MinGW/include/c++/3.3.1/bits/stl_list.h ****      *  @param  val  Value to be assigned.
 529:d:/MTK/MTK2503/MTK2503/11CW1418SP4_03_CORETEK03AE_11C_V1_GPRS_MMI/Tools/MinGW/include/c++/3.3.1/bits/stl_list.h ****      *
 530:d:/MTK/MTK2503/MTK2503/11CW1418SP4_03_CORETEK03AE_11C_V1_GPRS_MMI/Tools/MinGW/include/c++/3.3.1/bits/stl_list.h ****      *  This function fills a %list with @a n copies of the given value.
 531:d:/MTK/MTK2503/MTK2503/11CW1418SP4_03_CORETEK03AE_11C_V1_GPRS_MMI/Tools/MinGW/include/c++/3.3.1/bits/stl_list.h ****      *  Note that the assignment completely changes the %list and that the
 532:d:/MTK/MTK2503/MTK2503/11CW1418SP4_03_CORETEK03AE_11C_V1_GPRS_MMI/Tools/MinGW/include/c++/3.3.1/bits/stl_list.h ****      *  resulting %list's size is the same as the number of elements assigned.
 533:d:/MTK/MTK2503/MTK2503/11CW1418SP4_03_CORETEK03AE_11C_V1_GPRS_MMI/Tools/MinGW/include/c++/3.3.1/bits/stl_list.h ****      *  Old data may be lost.
 534:d:/MTK/MTK2503/MTK2503/11CW1418SP4_03_CORETEK03AE_11C_V1_GPRS_MMI/Tools/MinGW/include/c++/3.3.1/bits/stl_list.h ****     */
 535:d:/MTK/MTK2503/MTK2503/11CW1418SP4_03_CORETEK03AE_11C_V1_GPRS_MMI/Tools/MinGW/include/c++/3.3.1/bits/stl_list.h ****     void
 536:d:/MTK/MTK2503/MTK2503/11CW1418SP4_03_CORETEK03AE_11C_V1_GPRS_MMI/Tools/MinGW/include/c++/3.3.1/bits/stl_list.h ****     assign(size_type __n, const value_type& __val) { _M_fill_assign(__n, __val); }
 537:d:/MTK/MTK2503/MTK2503/11CW1418SP4_03_CORETEK03AE_11C_V1_GPRS_MMI/Tools/MinGW/include/c++/3.3.1/bits/stl_list.h ****   
 538:d:/MTK/MTK2503/MTK2503/11CW1418SP4_03_CORETEK03AE_11C_V1_GPRS_MMI/Tools/MinGW/include/c++/3.3.1/bits/stl_list.h ****     /**
 539:d:/MTK/MTK2503/MTK2503/11CW1418SP4_03_CORETEK03AE_11C_V1_GPRS_MMI/Tools/MinGW/include/c++/3.3.1/bits/stl_list.h ****      *  @brief  Assigns a range to a %list.
 540:d:/MTK/MTK2503/MTK2503/11CW1418SP4_03_CORETEK03AE_11C_V1_GPRS_MMI/Tools/MinGW/include/c++/3.3.1/bits/stl_list.h ****      *  @param  first  An input iterator.
 541:d:/MTK/MTK2503/MTK2503/11CW1418SP4_03_CORETEK03AE_11C_V1_GPRS_MMI/Tools/MinGW/include/c++/3.3.1/bits/stl_list.h ****      *  @param  last   An input iterator.
 542:d:/MTK/MTK2503/MTK2503/11CW1418SP4_03_CORETEK03AE_11C_V1_GPRS_MMI/Tools/MinGW/include/c++/3.3.1/bits/stl_list.h ****      *
 543:d:/MTK/MTK2503/MTK2503/11CW1418SP4_03_CORETEK03AE_11C_V1_GPRS_MMI/Tools/MinGW/include/c++/3.3.1/bits/stl_list.h ****      *  This function fills a %list with copies of the elements in the
 544:d:/MTK/MTK2503/MTK2503/11CW1418SP4_03_CORETEK03AE_11C_V1_GPRS_MMI/Tools/MinGW/include/c++/3.3.1/bits/stl_list.h ****      *  range [first,last).
 545:d:/MTK/MTK2503/MTK2503/11CW1418SP4_03_CORETEK03AE_11C_V1_GPRS_MMI/Tools/MinGW/include/c++/3.3.1/bits/stl_list.h ****      *
 546:d:/MTK/MTK2503/MTK2503/11CW1418SP4_03_CORETEK03AE_11C_V1_GPRS_MMI/Tools/MinGW/include/c++/3.3.1/bits/stl_list.h ****      *  Note that the assignment completely changes the %list and that the
 547:d:/MTK/MTK2503/MTK2503/11CW1418SP4_03_CORETEK03AE_11C_V1_GPRS_MMI/Tools/MinGW/include/c++/3.3.1/bits/stl_list.h ****      *  resulting %list's size is the same as the number of elements assigned.
 548:d:/MTK/MTK2503/MTK2503/11CW1418SP4_03_CORETEK03AE_11C_V1_GPRS_MMI/Tools/MinGW/include/c++/3.3.1/bits/stl_list.h ****      *  Old data may be lost.
 549:d:/MTK/MTK2503/MTK2503/11CW1418SP4_03_CORETEK03AE_11C_V1_GPRS_MMI/Tools/MinGW/include/c++/3.3.1/bits/stl_list.h ****     */
 550:d:/MTK/MTK2503/MTK2503/11CW1418SP4_03_CORETEK03AE_11C_V1_GPRS_MMI/Tools/MinGW/include/c++/3.3.1/bits/stl_list.h ****     template<typename _InputIterator>
 551:d:/MTK/MTK2503/MTK2503/11CW1418SP4_03_CORETEK03AE_11C_V1_GPRS_MMI/Tools/MinGW/include/c++/3.3.1/bits/stl_list.h ****       void
 552:d:/MTK/MTK2503/MTK2503/11CW1418SP4_03_CORETEK03AE_11C_V1_GPRS_MMI/Tools/MinGW/include/c++/3.3.1/bits/stl_list.h ****       assign(_InputIterator __first, _InputIterator __last)
 553:d:/MTK/MTK2503/MTK2503/11CW1418SP4_03_CORETEK03AE_11C_V1_GPRS_MMI/Tools/MinGW/include/c++/3.3.1/bits/stl_list.h ****       {
 554:d:/MTK/MTK2503/MTK2503/11CW1418SP4_03_CORETEK03AE_11C_V1_GPRS_MMI/Tools/MinGW/include/c++/3.3.1/bits/stl_list.h ****         // Check whether it's an integral type.  If so, it's not an iterator.
 555:d:/MTK/MTK2503/MTK2503/11CW1418SP4_03_CORETEK03AE_11C_V1_GPRS_MMI/Tools/MinGW/include/c++/3.3.1/bits/stl_list.h ****         typedef typename _Is_integer<_InputIterator>::_Integral _Integral;
 556:d:/MTK/MTK2503/MTK2503/11CW1418SP4_03_CORETEK03AE_11C_V1_GPRS_MMI/Tools/MinGW/include/c++/3.3.1/bits/stl_list.h ****         _M_assign_dispatch(__first, __last, _Integral());
 557:d:/MTK/MTK2503/MTK2503/11CW1418SP4_03_CORETEK03AE_11C_V1_GPRS_MMI/Tools/MinGW/include/c++/3.3.1/bits/stl_list.h ****       }
 558:d:/MTK/MTK2503/MTK2503/11CW1418SP4_03_CORETEK03AE_11C_V1_GPRS_MMI/Tools/MinGW/include/c++/3.3.1/bits/stl_list.h ****   
 559:d:/MTK/MTK2503/MTK2503/11CW1418SP4_03_CORETEK03AE_11C_V1_GPRS_MMI/Tools/MinGW/include/c++/3.3.1/bits/stl_list.h ****     /// Get a copy of the memory allocation object.
 560:d:/MTK/MTK2503/MTK2503/11CW1418SP4_03_CORETEK03AE_11C_V1_GPRS_MMI/Tools/MinGW/include/c++/3.3.1/bits/stl_list.h ****     allocator_type
 561:d:/MTK/MTK2503/MTK2503/11CW1418SP4_03_CORETEK03AE_11C_V1_GPRS_MMI/Tools/MinGW/include/c++/3.3.1/bits/stl_list.h ****     get_allocator() const { return _Base::get_allocator(); }
 562:d:/MTK/MTK2503/MTK2503/11CW1418SP4_03_CORETEK03AE_11C_V1_GPRS_MMI/Tools/MinGW/include/c++/3.3.1/bits/stl_list.h ****   
 563:d:/MTK/MTK2503/MTK2503/11CW1418SP4_03_CORETEK03AE_11C_V1_GPRS_MMI/Tools/MinGW/include/c++/3.3.1/bits/stl_list.h ****     // iterators
 564:d:/MTK/MTK2503/MTK2503/11CW1418SP4_03_CORETEK03AE_11C_V1_GPRS_MMI/Tools/MinGW/include/c++/3.3.1/bits/stl_list.h ****     /**
 565:d:/MTK/MTK2503/MTK2503/11CW1418SP4_03_CORETEK03AE_11C_V1_GPRS_MMI/Tools/MinGW/include/c++/3.3.1/bits/stl_list.h ****      *  Returns a read/write iterator that points to the first element in the
 566:d:/MTK/MTK2503/MTK2503/11CW1418SP4_03_CORETEK03AE_11C_V1_GPRS_MMI/Tools/MinGW/include/c++/3.3.1/bits/stl_list.h ****      *  %list.  Iteration is done in ordinary element order.
 567:d:/MTK/MTK2503/MTK2503/11CW1418SP4_03_CORETEK03AE_11C_V1_GPRS_MMI/Tools/MinGW/include/c++/3.3.1/bits/stl_list.h ****     */
 568:d:/MTK/MTK2503/MTK2503/11CW1418SP4_03_CORETEK03AE_11C_V1_GPRS_MMI/Tools/MinGW/include/c++/3.3.1/bits/stl_list.h ****     iterator
 569:d:/MTK/MTK2503/MTK2503/11CW1418SP4_03_CORETEK03AE_11C_V1_GPRS_MMI/Tools/MinGW/include/c++/3.3.1/bits/stl_list.h ****     begin() { return static_cast<_Node*>(_M_node->_M_next); }
 4867              	LM192:
 4868 0000 55       		pushl	%ebp
 4869 0001 89E5     		movl	%esp, %ebp
 4870 0003 53       		pushl	%ebx
 4871 0004 83EC14   		subl	$20, %esp
 4872 0007 8B5D08   		movl	8(%ebp), %ebx
 4874              	LM193:
 4875              	LBB40:
 4876 000a 8B450C   		movl	12(%ebp), %eax
 4877 000d 8B00     		movl	(%eax), %eax
GAS LISTING d:/MTK/MTK2503/MTK2503/11CW1418SP4_03_CORETEK03AE_11C_V1_GPRS_MMI/plutommi/Customer/ResGenerator/gcctmp/cck7daaa.s 			page 66


 4878 000f 8B00     		movl	(%eax), %eax
 4879 0011 89442404 		movl	%eax, 4(%esp)
 4880 0015 891C24   		movl	%ebx, (%esp)
 4881 0018 E8000000 		call	__ZNSt14_List_iteratorI16ProcessImageDataRS0_PS0_EC1EPSt10_List_nodeIS0_E
 4881      00
 4882              	LBE40:
 4883 001d 89D8     		movl	%ebx, %eax
 4884 001f 83C414   		addl	$20, %esp
 4885 0022 5B       		popl	%ebx
 4886 0023 5D       		popl	%ebp
 4887 0024 C20400   		ret	$4
 4888              	Lscope20:
 4890 0027 90       		.section	.text$_ZNSt4listI16ProcessImageDataSaIS0_EE3endEv,"x"
 4891              		.linkonce discard
 4892              		.align 2
 4895              	.globl __ZNSt4listI16ProcessImageDataSaIS0_EE3endEv
 4897              	__ZNSt4listI16ProcessImageDataSaIS0_EE3endEv:
 570:d:/MTK/MTK2503/MTK2503/11CW1418SP4_03_CORETEK03AE_11C_V1_GPRS_MMI/Tools/MinGW/include/c++/3.3.1/bits/stl_list.h ****   
 571:d:/MTK/MTK2503/MTK2503/11CW1418SP4_03_CORETEK03AE_11C_V1_GPRS_MMI/Tools/MinGW/include/c++/3.3.1/bits/stl_list.h ****     /**
 572:d:/MTK/MTK2503/MTK2503/11CW1418SP4_03_CORETEK03AE_11C_V1_GPRS_MMI/Tools/MinGW/include/c++/3.3.1/bits/stl_list.h ****      *  Returns a read-only (constant) iterator that points to the first element
 573:d:/MTK/MTK2503/MTK2503/11CW1418SP4_03_CORETEK03AE_11C_V1_GPRS_MMI/Tools/MinGW/include/c++/3.3.1/bits/stl_list.h ****      *  in the %list.  Iteration is done in ordinary element order.
 574:d:/MTK/MTK2503/MTK2503/11CW1418SP4_03_CORETEK03AE_11C_V1_GPRS_MMI/Tools/MinGW/include/c++/3.3.1/bits/stl_list.h ****     */
 575:d:/MTK/MTK2503/MTK2503/11CW1418SP4_03_CORETEK03AE_11C_V1_GPRS_MMI/Tools/MinGW/include/c++/3.3.1/bits/stl_list.h ****     const_iterator
 576:d:/MTK/MTK2503/MTK2503/11CW1418SP4_03_CORETEK03AE_11C_V1_GPRS_MMI/Tools/MinGW/include/c++/3.3.1/bits/stl_list.h ****     begin() const { return static_cast<_Node*>(_M_node->_M_next); }
 577:d:/MTK/MTK2503/MTK2503/11CW1418SP4_03_CORETEK03AE_11C_V1_GPRS_MMI/Tools/MinGW/include/c++/3.3.1/bits/stl_list.h ****   
 578:d:/MTK/MTK2503/MTK2503/11CW1418SP4_03_CORETEK03AE_11C_V1_GPRS_MMI/Tools/MinGW/include/c++/3.3.1/bits/stl_list.h ****     /**
 579:d:/MTK/MTK2503/MTK2503/11CW1418SP4_03_CORETEK03AE_11C_V1_GPRS_MMI/Tools/MinGW/include/c++/3.3.1/bits/stl_list.h ****      *  Returns a read/write iterator that points one past the last element in
 580:d:/MTK/MTK2503/MTK2503/11CW1418SP4_03_CORETEK03AE_11C_V1_GPRS_MMI/Tools/MinGW/include/c++/3.3.1/bits/stl_list.h ****      *  the %list.  Iteration is done in ordinary element order.
 581:d:/MTK/MTK2503/MTK2503/11CW1418SP4_03_CORETEK03AE_11C_V1_GPRS_MMI/Tools/MinGW/include/c++/3.3.1/bits/stl_list.h ****     */
 582:d:/MTK/MTK2503/MTK2503/11CW1418SP4_03_CORETEK03AE_11C_V1_GPRS_MMI/Tools/MinGW/include/c++/3.3.1/bits/stl_list.h ****     iterator
 583:d:/MTK/MTK2503/MTK2503/11CW1418SP4_03_CORETEK03AE_11C_V1_GPRS_MMI/Tools/MinGW/include/c++/3.3.1/bits/stl_list.h ****     end() { return _M_node; }
 4899              	LM194:
 4900 0000 55       		pushl	%ebp
 4901 0001 89E5     		movl	%esp, %ebp
 4902 0003 53       		pushl	%ebx
 4903 0004 83EC14   		subl	$20, %esp
 4904 0007 8B5D08   		movl	8(%ebp), %ebx
 4906              	LM195:
 4907              	LBB41:
 4908 000a 8B450C   		movl	12(%ebp), %eax
 4909 000d 8B00     		movl	(%eax), %eax
 4910 000f 89442404 		movl	%eax, 4(%esp)
 4911 0013 891C24   		movl	%ebx, (%esp)
 4912 0016 E8000000 		call	__ZNSt14_List_iteratorI16ProcessImageDataRS0_PS0_EC1EPSt10_List_nodeIS0_E
 4912      00
 4913              	LBE41:
 4914 001b 89D8     		movl	%ebx, %eax
 4915 001d 83C414   		addl	$20, %esp
 4916 0020 5B       		popl	%ebx
 4917 0021 5D       		popl	%ebp
 4918 0022 C20400   		ret	$4
 4919              	Lscope21:
 4921 0025 909090   		.section	.text$_ZNSt14_List_iteratorI16ProcessImageDataRS0_PS0_EppEv,"x"
 4922              		.linkonce discard
 4923              		.align 2
 4926              	.globl __ZNSt14_List_iteratorI16ProcessImageDataRS0_PS0_EppEv
 4928              	__ZNSt14_List_iteratorI16ProcessImageDataRS0_PS0_EppEv:
GAS LISTING d:/MTK/MTK2503/MTK2503/11CW1418SP4_03_CORETEK03AE_11C_V1_GPRS_MMI/plutommi/Customer/ResGenerator/gcctmp/cck7daaa.s 			page 67


 4930              	LM196:
 4931 0000 55       		pushl	%ebp
 4932 0001 89E5     		movl	%esp, %ebp
 4933 0003 83EC08   		subl	$8, %esp
 4935              	LM197:
 4936              	LBB42:
 4937 0006 8B4508   		movl	8(%ebp), %eax
 4938 0009 890424   		movl	%eax, (%esp)
 4939 000c E8000000 		call	__ZNSt19_List_iterator_base7_M_incrEv
 4939      00
 4941              	LM198:
 4942 0011 8B4508   		movl	8(%ebp), %eax
 4943 0014 C9       		leave
 4944 0015 C3       		ret
 4945              	LBE42:
 4946              	Lscope22:
 4948 0016 9090     		.section	.text$_ZNKSt14_List_iteratorI16ProcessImageDataRS0_PS0_EdeEv,"x"
 4949              		.linkonce discard
 4950              		.align 2
 4953              	.globl __ZNKSt14_List_iteratorI16ProcessImageDataRS0_PS0_EdeEv
 4955              	__ZNKSt14_List_iteratorI16ProcessImageDataRS0_PS0_EdeEv:
 4957              	LM199:
 4958 0000 55       		pushl	%ebp
 4959 0001 89E5     		movl	%esp, %ebp
 4961              	LM200:
 4962              	LBB43:
 4963 0003 8B4508   		movl	8(%ebp), %eax
 4964 0006 8B00     		movl	(%eax), %eax
 4965 0008 83C008   		addl	$8, %eax
 4966 000b 5D       		popl	%ebp
 4967 000c C3       		ret
 4968              	LBE43:
 4969              	Lscope23:
 4971 000d 909090   		.section	.text$_ZNSt4listI16ProcessImageDataSaIS0_EE9push_backERKS0_,"x"
 4972              		.linkonce discard
 4973              		.align 2
 4977              	.globl __ZNSt4listI16ProcessImageDataSaIS0_EE9push_backERKS0_
 4979              	__ZNSt4listI16ProcessImageDataSaIS0_EE9push_backERKS0_:
 584:d:/MTK/MTK2503/MTK2503/11CW1418SP4_03_CORETEK03AE_11C_V1_GPRS_MMI/Tools/MinGW/include/c++/3.3.1/bits/stl_list.h ****   
 585:d:/MTK/MTK2503/MTK2503/11CW1418SP4_03_CORETEK03AE_11C_V1_GPRS_MMI/Tools/MinGW/include/c++/3.3.1/bits/stl_list.h ****     /**
 586:d:/MTK/MTK2503/MTK2503/11CW1418SP4_03_CORETEK03AE_11C_V1_GPRS_MMI/Tools/MinGW/include/c++/3.3.1/bits/stl_list.h ****      *  Returns a read-only (constant) iterator that points one past the last
 587:d:/MTK/MTK2503/MTK2503/11CW1418SP4_03_CORETEK03AE_11C_V1_GPRS_MMI/Tools/MinGW/include/c++/3.3.1/bits/stl_list.h ****      *  element in the %list.  Iteration is done in ordinary element order.
 588:d:/MTK/MTK2503/MTK2503/11CW1418SP4_03_CORETEK03AE_11C_V1_GPRS_MMI/Tools/MinGW/include/c++/3.3.1/bits/stl_list.h ****     */
 589:d:/MTK/MTK2503/MTK2503/11CW1418SP4_03_CORETEK03AE_11C_V1_GPRS_MMI/Tools/MinGW/include/c++/3.3.1/bits/stl_list.h ****     const_iterator
 590:d:/MTK/MTK2503/MTK2503/11CW1418SP4_03_CORETEK03AE_11C_V1_GPRS_MMI/Tools/MinGW/include/c++/3.3.1/bits/stl_list.h ****     end() const { return _M_node; }
 591:d:/MTK/MTK2503/MTK2503/11CW1418SP4_03_CORETEK03AE_11C_V1_GPRS_MMI/Tools/MinGW/include/c++/3.3.1/bits/stl_list.h ****   
 592:d:/MTK/MTK2503/MTK2503/11CW1418SP4_03_CORETEK03AE_11C_V1_GPRS_MMI/Tools/MinGW/include/c++/3.3.1/bits/stl_list.h ****     /**
 593:d:/MTK/MTK2503/MTK2503/11CW1418SP4_03_CORETEK03AE_11C_V1_GPRS_MMI/Tools/MinGW/include/c++/3.3.1/bits/stl_list.h ****      *  Returns a read/write reverse iterator that points to the last element in
 594:d:/MTK/MTK2503/MTK2503/11CW1418SP4_03_CORETEK03AE_11C_V1_GPRS_MMI/Tools/MinGW/include/c++/3.3.1/bits/stl_list.h ****      *  the %list.  Iteration is done in reverse element order.
 595:d:/MTK/MTK2503/MTK2503/11CW1418SP4_03_CORETEK03AE_11C_V1_GPRS_MMI/Tools/MinGW/include/c++/3.3.1/bits/stl_list.h ****     */
 596:d:/MTK/MTK2503/MTK2503/11CW1418SP4_03_CORETEK03AE_11C_V1_GPRS_MMI/Tools/MinGW/include/c++/3.3.1/bits/stl_list.h ****     reverse_iterator
 597:d:/MTK/MTK2503/MTK2503/11CW1418SP4_03_CORETEK03AE_11C_V1_GPRS_MMI/Tools/MinGW/include/c++/3.3.1/bits/stl_list.h ****     rbegin() { return reverse_iterator(end()); }
 598:d:/MTK/MTK2503/MTK2503/11CW1418SP4_03_CORETEK03AE_11C_V1_GPRS_MMI/Tools/MinGW/include/c++/3.3.1/bits/stl_list.h ****   
 599:d:/MTK/MTK2503/MTK2503/11CW1418SP4_03_CORETEK03AE_11C_V1_GPRS_MMI/Tools/MinGW/include/c++/3.3.1/bits/stl_list.h ****     /**
 600:d:/MTK/MTK2503/MTK2503/11CW1418SP4_03_CORETEK03AE_11C_V1_GPRS_MMI/Tools/MinGW/include/c++/3.3.1/bits/stl_list.h ****      *  Returns a read-only (constant) reverse iterator that points to the last
 601:d:/MTK/MTK2503/MTK2503/11CW1418SP4_03_CORETEK03AE_11C_V1_GPRS_MMI/Tools/MinGW/include/c++/3.3.1/bits/stl_list.h ****      *  element in the %list.  Iteration is done in reverse element order.
 602:d:/MTK/MTK2503/MTK2503/11CW1418SP4_03_CORETEK03AE_11C_V1_GPRS_MMI/Tools/MinGW/include/c++/3.3.1/bits/stl_list.h ****     */
GAS LISTING d:/MTK/MTK2503/MTK2503/11CW1418SP4_03_CORETEK03AE_11C_V1_GPRS_MMI/plutommi/Customer/ResGenerator/gcctmp/cck7daaa.s 			page 68


 603:d:/MTK/MTK2503/MTK2503/11CW1418SP4_03_CORETEK03AE_11C_V1_GPRS_MMI/Tools/MinGW/include/c++/3.3.1/bits/stl_list.h ****     const_reverse_iterator
 604:d:/MTK/MTK2503/MTK2503/11CW1418SP4_03_CORETEK03AE_11C_V1_GPRS_MMI/Tools/MinGW/include/c++/3.3.1/bits/stl_list.h ****     rbegin() const { return const_reverse_iterator(end()); }
 605:d:/MTK/MTK2503/MTK2503/11CW1418SP4_03_CORETEK03AE_11C_V1_GPRS_MMI/Tools/MinGW/include/c++/3.3.1/bits/stl_list.h ****   
 606:d:/MTK/MTK2503/MTK2503/11CW1418SP4_03_CORETEK03AE_11C_V1_GPRS_MMI/Tools/MinGW/include/c++/3.3.1/bits/stl_list.h ****     /**
 607:d:/MTK/MTK2503/MTK2503/11CW1418SP4_03_CORETEK03AE_11C_V1_GPRS_MMI/Tools/MinGW/include/c++/3.3.1/bits/stl_list.h ****      *  Returns a read/write reverse iterator that points to one before the
 608:d:/MTK/MTK2503/MTK2503/11CW1418SP4_03_CORETEK03AE_11C_V1_GPRS_MMI/Tools/MinGW/include/c++/3.3.1/bits/stl_list.h ****      *  first element in the %list.  Iteration is done in reverse element
 609:d:/MTK/MTK2503/MTK2503/11CW1418SP4_03_CORETEK03AE_11C_V1_GPRS_MMI/Tools/MinGW/include/c++/3.3.1/bits/stl_list.h ****      *  order.
 610:d:/MTK/MTK2503/MTK2503/11CW1418SP4_03_CORETEK03AE_11C_V1_GPRS_MMI/Tools/MinGW/include/c++/3.3.1/bits/stl_list.h ****     */
 611:d:/MTK/MTK2503/MTK2503/11CW1418SP4_03_CORETEK03AE_11C_V1_GPRS_MMI/Tools/MinGW/include/c++/3.3.1/bits/stl_list.h ****     reverse_iterator
 612:d:/MTK/MTK2503/MTK2503/11CW1418SP4_03_CORETEK03AE_11C_V1_GPRS_MMI/Tools/MinGW/include/c++/3.3.1/bits/stl_list.h ****     rend() { return reverse_iterator(begin()); }
 613:d:/MTK/MTK2503/MTK2503/11CW1418SP4_03_CORETEK03AE_11C_V1_GPRS_MMI/Tools/MinGW/include/c++/3.3.1/bits/stl_list.h ****   
 614:d:/MTK/MTK2503/MTK2503/11CW1418SP4_03_CORETEK03AE_11C_V1_GPRS_MMI/Tools/MinGW/include/c++/3.3.1/bits/stl_list.h ****     /**
 615:d:/MTK/MTK2503/MTK2503/11CW1418SP4_03_CORETEK03AE_11C_V1_GPRS_MMI/Tools/MinGW/include/c++/3.3.1/bits/stl_list.h ****      *  Returns a read-only (constant) reverse iterator that points to one
 616:d:/MTK/MTK2503/MTK2503/11CW1418SP4_03_CORETEK03AE_11C_V1_GPRS_MMI/Tools/MinGW/include/c++/3.3.1/bits/stl_list.h ****      *  before the first element in the %list.  Iteration is done in reverse
 617:d:/MTK/MTK2503/MTK2503/11CW1418SP4_03_CORETEK03AE_11C_V1_GPRS_MMI/Tools/MinGW/include/c++/3.3.1/bits/stl_list.h ****      *  element order.
 618:d:/MTK/MTK2503/MTK2503/11CW1418SP4_03_CORETEK03AE_11C_V1_GPRS_MMI/Tools/MinGW/include/c++/3.3.1/bits/stl_list.h ****     */
 619:d:/MTK/MTK2503/MTK2503/11CW1418SP4_03_CORETEK03AE_11C_V1_GPRS_MMI/Tools/MinGW/include/c++/3.3.1/bits/stl_list.h ****     const_reverse_iterator
 620:d:/MTK/MTK2503/MTK2503/11CW1418SP4_03_CORETEK03AE_11C_V1_GPRS_MMI/Tools/MinGW/include/c++/3.3.1/bits/stl_list.h ****     rend() const
 621:d:/MTK/MTK2503/MTK2503/11CW1418SP4_03_CORETEK03AE_11C_V1_GPRS_MMI/Tools/MinGW/include/c++/3.3.1/bits/stl_list.h ****     { return const_reverse_iterator(begin()); }
 622:d:/MTK/MTK2503/MTK2503/11CW1418SP4_03_CORETEK03AE_11C_V1_GPRS_MMI/Tools/MinGW/include/c++/3.3.1/bits/stl_list.h ****   
 623:d:/MTK/MTK2503/MTK2503/11CW1418SP4_03_CORETEK03AE_11C_V1_GPRS_MMI/Tools/MinGW/include/c++/3.3.1/bits/stl_list.h ****     // [23.2.2.2] capacity
 624:d:/MTK/MTK2503/MTK2503/11CW1418SP4_03_CORETEK03AE_11C_V1_GPRS_MMI/Tools/MinGW/include/c++/3.3.1/bits/stl_list.h ****     /**
 625:d:/MTK/MTK2503/MTK2503/11CW1418SP4_03_CORETEK03AE_11C_V1_GPRS_MMI/Tools/MinGW/include/c++/3.3.1/bits/stl_list.h ****      *  Returns true if the %list is empty.  (Thus begin() would equal end().)
 626:d:/MTK/MTK2503/MTK2503/11CW1418SP4_03_CORETEK03AE_11C_V1_GPRS_MMI/Tools/MinGW/include/c++/3.3.1/bits/stl_list.h ****     */
 627:d:/MTK/MTK2503/MTK2503/11CW1418SP4_03_CORETEK03AE_11C_V1_GPRS_MMI/Tools/MinGW/include/c++/3.3.1/bits/stl_list.h ****     bool
 628:d:/MTK/MTK2503/MTK2503/11CW1418SP4_03_CORETEK03AE_11C_V1_GPRS_MMI/Tools/MinGW/include/c++/3.3.1/bits/stl_list.h ****     empty() const { return _M_node->_M_next == _M_node; }
 629:d:/MTK/MTK2503/MTK2503/11CW1418SP4_03_CORETEK03AE_11C_V1_GPRS_MMI/Tools/MinGW/include/c++/3.3.1/bits/stl_list.h ****   
 630:d:/MTK/MTK2503/MTK2503/11CW1418SP4_03_CORETEK03AE_11C_V1_GPRS_MMI/Tools/MinGW/include/c++/3.3.1/bits/stl_list.h ****     /**  Returns the number of elements in the %list.  */
 631:d:/MTK/MTK2503/MTK2503/11CW1418SP4_03_CORETEK03AE_11C_V1_GPRS_MMI/Tools/MinGW/include/c++/3.3.1/bits/stl_list.h ****     size_type
 632:d:/MTK/MTK2503/MTK2503/11CW1418SP4_03_CORETEK03AE_11C_V1_GPRS_MMI/Tools/MinGW/include/c++/3.3.1/bits/stl_list.h ****     size() const { return distance(begin(), end()); }
 633:d:/MTK/MTK2503/MTK2503/11CW1418SP4_03_CORETEK03AE_11C_V1_GPRS_MMI/Tools/MinGW/include/c++/3.3.1/bits/stl_list.h ****   
 634:d:/MTK/MTK2503/MTK2503/11CW1418SP4_03_CORETEK03AE_11C_V1_GPRS_MMI/Tools/MinGW/include/c++/3.3.1/bits/stl_list.h ****     /**  Returns the size() of the largest possible %list.  */
 635:d:/MTK/MTK2503/MTK2503/11CW1418SP4_03_CORETEK03AE_11C_V1_GPRS_MMI/Tools/MinGW/include/c++/3.3.1/bits/stl_list.h ****     size_type
 636:d:/MTK/MTK2503/MTK2503/11CW1418SP4_03_CORETEK03AE_11C_V1_GPRS_MMI/Tools/MinGW/include/c++/3.3.1/bits/stl_list.h ****     max_size() const { return size_type(-1); }
 637:d:/MTK/MTK2503/MTK2503/11CW1418SP4_03_CORETEK03AE_11C_V1_GPRS_MMI/Tools/MinGW/include/c++/3.3.1/bits/stl_list.h ****   
 638:d:/MTK/MTK2503/MTK2503/11CW1418SP4_03_CORETEK03AE_11C_V1_GPRS_MMI/Tools/MinGW/include/c++/3.3.1/bits/stl_list.h ****     /**
 639:d:/MTK/MTK2503/MTK2503/11CW1418SP4_03_CORETEK03AE_11C_V1_GPRS_MMI/Tools/MinGW/include/c++/3.3.1/bits/stl_list.h ****      *  @brief  Resizes the %list to the specified number of elements.
 640:d:/MTK/MTK2503/MTK2503/11CW1418SP4_03_CORETEK03AE_11C_V1_GPRS_MMI/Tools/MinGW/include/c++/3.3.1/bits/stl_list.h ****      *  @param  new_size  Number of elements the %list should contain.
 641:d:/MTK/MTK2503/MTK2503/11CW1418SP4_03_CORETEK03AE_11C_V1_GPRS_MMI/Tools/MinGW/include/c++/3.3.1/bits/stl_list.h ****      *  @param  x  Data with which new elements should be populated.
 642:d:/MTK/MTK2503/MTK2503/11CW1418SP4_03_CORETEK03AE_11C_V1_GPRS_MMI/Tools/MinGW/include/c++/3.3.1/bits/stl_list.h ****      *
 643:d:/MTK/MTK2503/MTK2503/11CW1418SP4_03_CORETEK03AE_11C_V1_GPRS_MMI/Tools/MinGW/include/c++/3.3.1/bits/stl_list.h ****      *  This function will %resize the %list to the specified number of
 644:d:/MTK/MTK2503/MTK2503/11CW1418SP4_03_CORETEK03AE_11C_V1_GPRS_MMI/Tools/MinGW/include/c++/3.3.1/bits/stl_list.h ****      *  elements.  If the number is smaller than the %list's current size the
 645:d:/MTK/MTK2503/MTK2503/11CW1418SP4_03_CORETEK03AE_11C_V1_GPRS_MMI/Tools/MinGW/include/c++/3.3.1/bits/stl_list.h ****      *  %list is truncated, otherwise the %list is extended and new elements
 646:d:/MTK/MTK2503/MTK2503/11CW1418SP4_03_CORETEK03AE_11C_V1_GPRS_MMI/Tools/MinGW/include/c++/3.3.1/bits/stl_list.h ****      *  are populated with given data.
 647:d:/MTK/MTK2503/MTK2503/11CW1418SP4_03_CORETEK03AE_11C_V1_GPRS_MMI/Tools/MinGW/include/c++/3.3.1/bits/stl_list.h ****     */
 648:d:/MTK/MTK2503/MTK2503/11CW1418SP4_03_CORETEK03AE_11C_V1_GPRS_MMI/Tools/MinGW/include/c++/3.3.1/bits/stl_list.h ****     void
 649:d:/MTK/MTK2503/MTK2503/11CW1418SP4_03_CORETEK03AE_11C_V1_GPRS_MMI/Tools/MinGW/include/c++/3.3.1/bits/stl_list.h ****     resize(size_type __new_size, const value_type& __x);
 650:d:/MTK/MTK2503/MTK2503/11CW1418SP4_03_CORETEK03AE_11C_V1_GPRS_MMI/Tools/MinGW/include/c++/3.3.1/bits/stl_list.h ****   
 651:d:/MTK/MTK2503/MTK2503/11CW1418SP4_03_CORETEK03AE_11C_V1_GPRS_MMI/Tools/MinGW/include/c++/3.3.1/bits/stl_list.h ****     /**
 652:d:/MTK/MTK2503/MTK2503/11CW1418SP4_03_CORETEK03AE_11C_V1_GPRS_MMI/Tools/MinGW/include/c++/3.3.1/bits/stl_list.h ****      *  @brief  Resizes the %list to the specified number of elements.
 653:d:/MTK/MTK2503/MTK2503/11CW1418SP4_03_CORETEK03AE_11C_V1_GPRS_MMI/Tools/MinGW/include/c++/3.3.1/bits/stl_list.h ****      *  @param  new_size  Number of elements the %list should contain.
 654:d:/MTK/MTK2503/MTK2503/11CW1418SP4_03_CORETEK03AE_11C_V1_GPRS_MMI/Tools/MinGW/include/c++/3.3.1/bits/stl_list.h ****      *
 655:d:/MTK/MTK2503/MTK2503/11CW1418SP4_03_CORETEK03AE_11C_V1_GPRS_MMI/Tools/MinGW/include/c++/3.3.1/bits/stl_list.h ****      *  This function will resize the %list to the specified number of
 656:d:/MTK/MTK2503/MTK2503/11CW1418SP4_03_CORETEK03AE_11C_V1_GPRS_MMI/Tools/MinGW/include/c++/3.3.1/bits/stl_list.h ****      *  elements.  If the number is smaller than the %list's current size the
 657:d:/MTK/MTK2503/MTK2503/11CW1418SP4_03_CORETEK03AE_11C_V1_GPRS_MMI/Tools/MinGW/include/c++/3.3.1/bits/stl_list.h ****      *  %list is truncated, otherwise the %list is extended and new elements
 658:d:/MTK/MTK2503/MTK2503/11CW1418SP4_03_CORETEK03AE_11C_V1_GPRS_MMI/Tools/MinGW/include/c++/3.3.1/bits/stl_list.h ****      *  are default-constructed.
 659:d:/MTK/MTK2503/MTK2503/11CW1418SP4_03_CORETEK03AE_11C_V1_GPRS_MMI/Tools/MinGW/include/c++/3.3.1/bits/stl_list.h ****     */
GAS LISTING d:/MTK/MTK2503/MTK2503/11CW1418SP4_03_CORETEK03AE_11C_V1_GPRS_MMI/plutommi/Customer/ResGenerator/gcctmp/cck7daaa.s 			page 69


 660:d:/MTK/MTK2503/MTK2503/11CW1418SP4_03_CORETEK03AE_11C_V1_GPRS_MMI/Tools/MinGW/include/c++/3.3.1/bits/stl_list.h ****     void
 661:d:/MTK/MTK2503/MTK2503/11CW1418SP4_03_CORETEK03AE_11C_V1_GPRS_MMI/Tools/MinGW/include/c++/3.3.1/bits/stl_list.h ****     resize(size_type __new_size) { this->resize(__new_size, value_type()); }
 662:d:/MTK/MTK2503/MTK2503/11CW1418SP4_03_CORETEK03AE_11C_V1_GPRS_MMI/Tools/MinGW/include/c++/3.3.1/bits/stl_list.h ****   
 663:d:/MTK/MTK2503/MTK2503/11CW1418SP4_03_CORETEK03AE_11C_V1_GPRS_MMI/Tools/MinGW/include/c++/3.3.1/bits/stl_list.h ****     // element access
 664:d:/MTK/MTK2503/MTK2503/11CW1418SP4_03_CORETEK03AE_11C_V1_GPRS_MMI/Tools/MinGW/include/c++/3.3.1/bits/stl_list.h ****     /**
 665:d:/MTK/MTK2503/MTK2503/11CW1418SP4_03_CORETEK03AE_11C_V1_GPRS_MMI/Tools/MinGW/include/c++/3.3.1/bits/stl_list.h ****      *  Returns a read/write reference to the data at the first element of the
 666:d:/MTK/MTK2503/MTK2503/11CW1418SP4_03_CORETEK03AE_11C_V1_GPRS_MMI/Tools/MinGW/include/c++/3.3.1/bits/stl_list.h ****      *  %list.
 667:d:/MTK/MTK2503/MTK2503/11CW1418SP4_03_CORETEK03AE_11C_V1_GPRS_MMI/Tools/MinGW/include/c++/3.3.1/bits/stl_list.h ****     */
 668:d:/MTK/MTK2503/MTK2503/11CW1418SP4_03_CORETEK03AE_11C_V1_GPRS_MMI/Tools/MinGW/include/c++/3.3.1/bits/stl_list.h ****     reference
 669:d:/MTK/MTK2503/MTK2503/11CW1418SP4_03_CORETEK03AE_11C_V1_GPRS_MMI/Tools/MinGW/include/c++/3.3.1/bits/stl_list.h ****     front() { return *begin(); }
 670:d:/MTK/MTK2503/MTK2503/11CW1418SP4_03_CORETEK03AE_11C_V1_GPRS_MMI/Tools/MinGW/include/c++/3.3.1/bits/stl_list.h ****   
 671:d:/MTK/MTK2503/MTK2503/11CW1418SP4_03_CORETEK03AE_11C_V1_GPRS_MMI/Tools/MinGW/include/c++/3.3.1/bits/stl_list.h ****     /**
 672:d:/MTK/MTK2503/MTK2503/11CW1418SP4_03_CORETEK03AE_11C_V1_GPRS_MMI/Tools/MinGW/include/c++/3.3.1/bits/stl_list.h ****      *  Returns a read-only (constant) reference to the data at the first
 673:d:/MTK/MTK2503/MTK2503/11CW1418SP4_03_CORETEK03AE_11C_V1_GPRS_MMI/Tools/MinGW/include/c++/3.3.1/bits/stl_list.h ****      *  element of the %list.
 674:d:/MTK/MTK2503/MTK2503/11CW1418SP4_03_CORETEK03AE_11C_V1_GPRS_MMI/Tools/MinGW/include/c++/3.3.1/bits/stl_list.h ****     */
 675:d:/MTK/MTK2503/MTK2503/11CW1418SP4_03_CORETEK03AE_11C_V1_GPRS_MMI/Tools/MinGW/include/c++/3.3.1/bits/stl_list.h ****     const_reference
 676:d:/MTK/MTK2503/MTK2503/11CW1418SP4_03_CORETEK03AE_11C_V1_GPRS_MMI/Tools/MinGW/include/c++/3.3.1/bits/stl_list.h ****     front() const { return *begin(); }
 677:d:/MTK/MTK2503/MTK2503/11CW1418SP4_03_CORETEK03AE_11C_V1_GPRS_MMI/Tools/MinGW/include/c++/3.3.1/bits/stl_list.h ****   
 678:d:/MTK/MTK2503/MTK2503/11CW1418SP4_03_CORETEK03AE_11C_V1_GPRS_MMI/Tools/MinGW/include/c++/3.3.1/bits/stl_list.h ****     /**
 679:d:/MTK/MTK2503/MTK2503/11CW1418SP4_03_CORETEK03AE_11C_V1_GPRS_MMI/Tools/MinGW/include/c++/3.3.1/bits/stl_list.h ****      *  Returns a read/write reference to the data at the last element of the
 680:d:/MTK/MTK2503/MTK2503/11CW1418SP4_03_CORETEK03AE_11C_V1_GPRS_MMI/Tools/MinGW/include/c++/3.3.1/bits/stl_list.h ****      *  %list.
 681:d:/MTK/MTK2503/MTK2503/11CW1418SP4_03_CORETEK03AE_11C_V1_GPRS_MMI/Tools/MinGW/include/c++/3.3.1/bits/stl_list.h ****     */
 682:d:/MTK/MTK2503/MTK2503/11CW1418SP4_03_CORETEK03AE_11C_V1_GPRS_MMI/Tools/MinGW/include/c++/3.3.1/bits/stl_list.h ****     reference
 683:d:/MTK/MTK2503/MTK2503/11CW1418SP4_03_CORETEK03AE_11C_V1_GPRS_MMI/Tools/MinGW/include/c++/3.3.1/bits/stl_list.h ****     back() { return *(--end()); }
 684:d:/MTK/MTK2503/MTK2503/11CW1418SP4_03_CORETEK03AE_11C_V1_GPRS_MMI/Tools/MinGW/include/c++/3.3.1/bits/stl_list.h ****   
 685:d:/MTK/MTK2503/MTK2503/11CW1418SP4_03_CORETEK03AE_11C_V1_GPRS_MMI/Tools/MinGW/include/c++/3.3.1/bits/stl_list.h ****     /**
 686:d:/MTK/MTK2503/MTK2503/11CW1418SP4_03_CORETEK03AE_11C_V1_GPRS_MMI/Tools/MinGW/include/c++/3.3.1/bits/stl_list.h ****      *  Returns a read-only (constant) reference to the data at the last
 687:d:/MTK/MTK2503/MTK2503/11CW1418SP4_03_CORETEK03AE_11C_V1_GPRS_MMI/Tools/MinGW/include/c++/3.3.1/bits/stl_list.h ****      *  element of the %list.
 688:d:/MTK/MTK2503/MTK2503/11CW1418SP4_03_CORETEK03AE_11C_V1_GPRS_MMI/Tools/MinGW/include/c++/3.3.1/bits/stl_list.h ****     */
 689:d:/MTK/MTK2503/MTK2503/11CW1418SP4_03_CORETEK03AE_11C_V1_GPRS_MMI/Tools/MinGW/include/c++/3.3.1/bits/stl_list.h ****     const_reference
 690:d:/MTK/MTK2503/MTK2503/11CW1418SP4_03_CORETEK03AE_11C_V1_GPRS_MMI/Tools/MinGW/include/c++/3.3.1/bits/stl_list.h ****     back() const { return *(--end()); }
 691:d:/MTK/MTK2503/MTK2503/11CW1418SP4_03_CORETEK03AE_11C_V1_GPRS_MMI/Tools/MinGW/include/c++/3.3.1/bits/stl_list.h ****   
 692:d:/MTK/MTK2503/MTK2503/11CW1418SP4_03_CORETEK03AE_11C_V1_GPRS_MMI/Tools/MinGW/include/c++/3.3.1/bits/stl_list.h ****     // [23.2.2.3] modifiers
 693:d:/MTK/MTK2503/MTK2503/11CW1418SP4_03_CORETEK03AE_11C_V1_GPRS_MMI/Tools/MinGW/include/c++/3.3.1/bits/stl_list.h ****     /**
 694:d:/MTK/MTK2503/MTK2503/11CW1418SP4_03_CORETEK03AE_11C_V1_GPRS_MMI/Tools/MinGW/include/c++/3.3.1/bits/stl_list.h ****      *  @brief  Add data to the front of the %list.
 695:d:/MTK/MTK2503/MTK2503/11CW1418SP4_03_CORETEK03AE_11C_V1_GPRS_MMI/Tools/MinGW/include/c++/3.3.1/bits/stl_list.h ****      *  @param  x  Data to be added.
 696:d:/MTK/MTK2503/MTK2503/11CW1418SP4_03_CORETEK03AE_11C_V1_GPRS_MMI/Tools/MinGW/include/c++/3.3.1/bits/stl_list.h ****      *
 697:d:/MTK/MTK2503/MTK2503/11CW1418SP4_03_CORETEK03AE_11C_V1_GPRS_MMI/Tools/MinGW/include/c++/3.3.1/bits/stl_list.h ****      *  This is a typical stack operation.  The function creates an element at
 698:d:/MTK/MTK2503/MTK2503/11CW1418SP4_03_CORETEK03AE_11C_V1_GPRS_MMI/Tools/MinGW/include/c++/3.3.1/bits/stl_list.h ****      *  the front of the %list and assigns the given data to it.  Due to the
 699:d:/MTK/MTK2503/MTK2503/11CW1418SP4_03_CORETEK03AE_11C_V1_GPRS_MMI/Tools/MinGW/include/c++/3.3.1/bits/stl_list.h ****      *  nature of a %list this operation can be done in constant time, and
 700:d:/MTK/MTK2503/MTK2503/11CW1418SP4_03_CORETEK03AE_11C_V1_GPRS_MMI/Tools/MinGW/include/c++/3.3.1/bits/stl_list.h ****      *  does not invalidate iterators and references.
 701:d:/MTK/MTK2503/MTK2503/11CW1418SP4_03_CORETEK03AE_11C_V1_GPRS_MMI/Tools/MinGW/include/c++/3.3.1/bits/stl_list.h ****     */
 702:d:/MTK/MTK2503/MTK2503/11CW1418SP4_03_CORETEK03AE_11C_V1_GPRS_MMI/Tools/MinGW/include/c++/3.3.1/bits/stl_list.h ****     void
 703:d:/MTK/MTK2503/MTK2503/11CW1418SP4_03_CORETEK03AE_11C_V1_GPRS_MMI/Tools/MinGW/include/c++/3.3.1/bits/stl_list.h ****     push_front(const value_type& __x) { this->insert(begin(), __x); }
 704:d:/MTK/MTK2503/MTK2503/11CW1418SP4_03_CORETEK03AE_11C_V1_GPRS_MMI/Tools/MinGW/include/c++/3.3.1/bits/stl_list.h ****   
 705:d:/MTK/MTK2503/MTK2503/11CW1418SP4_03_CORETEK03AE_11C_V1_GPRS_MMI/Tools/MinGW/include/c++/3.3.1/bits/stl_list.h ****   #ifdef _GLIBCPP_DEPRECATED
 706:d:/MTK/MTK2503/MTK2503/11CW1418SP4_03_CORETEK03AE_11C_V1_GPRS_MMI/Tools/MinGW/include/c++/3.3.1/bits/stl_list.h ****     /**
 707:d:/MTK/MTK2503/MTK2503/11CW1418SP4_03_CORETEK03AE_11C_V1_GPRS_MMI/Tools/MinGW/include/c++/3.3.1/bits/stl_list.h ****      *  @brief  Add data to the front of the %list.
 708:d:/MTK/MTK2503/MTK2503/11CW1418SP4_03_CORETEK03AE_11C_V1_GPRS_MMI/Tools/MinGW/include/c++/3.3.1/bits/stl_list.h ****      *
 709:d:/MTK/MTK2503/MTK2503/11CW1418SP4_03_CORETEK03AE_11C_V1_GPRS_MMI/Tools/MinGW/include/c++/3.3.1/bits/stl_list.h ****      *  This is a typical stack operation.  The function creates a
 710:d:/MTK/MTK2503/MTK2503/11CW1418SP4_03_CORETEK03AE_11C_V1_GPRS_MMI/Tools/MinGW/include/c++/3.3.1/bits/stl_list.h ****      *  default-constructed element at the front of the %list.  Due to the
 711:d:/MTK/MTK2503/MTK2503/11CW1418SP4_03_CORETEK03AE_11C_V1_GPRS_MMI/Tools/MinGW/include/c++/3.3.1/bits/stl_list.h ****      *  nature of a %list this operation can be done in constant time.  You
 712:d:/MTK/MTK2503/MTK2503/11CW1418SP4_03_CORETEK03AE_11C_V1_GPRS_MMI/Tools/MinGW/include/c++/3.3.1/bits/stl_list.h ****      *  should consider using push_front(value_type()) instead.
 713:d:/MTK/MTK2503/MTK2503/11CW1418SP4_03_CORETEK03AE_11C_V1_GPRS_MMI/Tools/MinGW/include/c++/3.3.1/bits/stl_list.h ****      *
 714:d:/MTK/MTK2503/MTK2503/11CW1418SP4_03_CORETEK03AE_11C_V1_GPRS_MMI/Tools/MinGW/include/c++/3.3.1/bits/stl_list.h ****      *  @note This was deprecated in 3.2 and will be removed in 3.4.  You must
 715:d:/MTK/MTK2503/MTK2503/11CW1418SP4_03_CORETEK03AE_11C_V1_GPRS_MMI/Tools/MinGW/include/c++/3.3.1/bits/stl_list.h ****      *        define @c _GLIBCPP_DEPRECATED to make this visible in 3.2; see
 716:d:/MTK/MTK2503/MTK2503/11CW1418SP4_03_CORETEK03AE_11C_V1_GPRS_MMI/Tools/MinGW/include/c++/3.3.1/bits/stl_list.h ****      *        c++config.h.
GAS LISTING d:/MTK/MTK2503/MTK2503/11CW1418SP4_03_CORETEK03AE_11C_V1_GPRS_MMI/plutommi/Customer/ResGenerator/gcctmp/cck7daaa.s 			page 70


 717:d:/MTK/MTK2503/MTK2503/11CW1418SP4_03_CORETEK03AE_11C_V1_GPRS_MMI/Tools/MinGW/include/c++/3.3.1/bits/stl_list.h ****     */
 718:d:/MTK/MTK2503/MTK2503/11CW1418SP4_03_CORETEK03AE_11C_V1_GPRS_MMI/Tools/MinGW/include/c++/3.3.1/bits/stl_list.h ****     void
 719:d:/MTK/MTK2503/MTK2503/11CW1418SP4_03_CORETEK03AE_11C_V1_GPRS_MMI/Tools/MinGW/include/c++/3.3.1/bits/stl_list.h ****     push_front() { this->insert(begin(), value_type()); }
 720:d:/MTK/MTK2503/MTK2503/11CW1418SP4_03_CORETEK03AE_11C_V1_GPRS_MMI/Tools/MinGW/include/c++/3.3.1/bits/stl_list.h ****   #endif
 721:d:/MTK/MTK2503/MTK2503/11CW1418SP4_03_CORETEK03AE_11C_V1_GPRS_MMI/Tools/MinGW/include/c++/3.3.1/bits/stl_list.h ****   
 722:d:/MTK/MTK2503/MTK2503/11CW1418SP4_03_CORETEK03AE_11C_V1_GPRS_MMI/Tools/MinGW/include/c++/3.3.1/bits/stl_list.h ****     /**
 723:d:/MTK/MTK2503/MTK2503/11CW1418SP4_03_CORETEK03AE_11C_V1_GPRS_MMI/Tools/MinGW/include/c++/3.3.1/bits/stl_list.h ****      *  @brief  Removes first element.
 724:d:/MTK/MTK2503/MTK2503/11CW1418SP4_03_CORETEK03AE_11C_V1_GPRS_MMI/Tools/MinGW/include/c++/3.3.1/bits/stl_list.h ****      *
 725:d:/MTK/MTK2503/MTK2503/11CW1418SP4_03_CORETEK03AE_11C_V1_GPRS_MMI/Tools/MinGW/include/c++/3.3.1/bits/stl_list.h ****      *  This is a typical stack operation.  It shrinks the %list by one.
 726:d:/MTK/MTK2503/MTK2503/11CW1418SP4_03_CORETEK03AE_11C_V1_GPRS_MMI/Tools/MinGW/include/c++/3.3.1/bits/stl_list.h ****      *  Due to the nature of a %list this operation can be done in constant
 727:d:/MTK/MTK2503/MTK2503/11CW1418SP4_03_CORETEK03AE_11C_V1_GPRS_MMI/Tools/MinGW/include/c++/3.3.1/bits/stl_list.h ****      *  time, and only invalidates iterators/references to the element being
 728:d:/MTK/MTK2503/MTK2503/11CW1418SP4_03_CORETEK03AE_11C_V1_GPRS_MMI/Tools/MinGW/include/c++/3.3.1/bits/stl_list.h ****      *  removed.
 729:d:/MTK/MTK2503/MTK2503/11CW1418SP4_03_CORETEK03AE_11C_V1_GPRS_MMI/Tools/MinGW/include/c++/3.3.1/bits/stl_list.h ****      *
 730:d:/MTK/MTK2503/MTK2503/11CW1418SP4_03_CORETEK03AE_11C_V1_GPRS_MMI/Tools/MinGW/include/c++/3.3.1/bits/stl_list.h ****      *  Note that no data is returned, and if the first element's data is
 731:d:/MTK/MTK2503/MTK2503/11CW1418SP4_03_CORETEK03AE_11C_V1_GPRS_MMI/Tools/MinGW/include/c++/3.3.1/bits/stl_list.h ****      *  needed, it should be retrieved before pop_front() is called.
 732:d:/MTK/MTK2503/MTK2503/11CW1418SP4_03_CORETEK03AE_11C_V1_GPRS_MMI/Tools/MinGW/include/c++/3.3.1/bits/stl_list.h ****     */
 733:d:/MTK/MTK2503/MTK2503/11CW1418SP4_03_CORETEK03AE_11C_V1_GPRS_MMI/Tools/MinGW/include/c++/3.3.1/bits/stl_list.h ****     void
 734:d:/MTK/MTK2503/MTK2503/11CW1418SP4_03_CORETEK03AE_11C_V1_GPRS_MMI/Tools/MinGW/include/c++/3.3.1/bits/stl_list.h ****     pop_front() { this->erase(begin()); }
 735:d:/MTK/MTK2503/MTK2503/11CW1418SP4_03_CORETEK03AE_11C_V1_GPRS_MMI/Tools/MinGW/include/c++/3.3.1/bits/stl_list.h ****   
 736:d:/MTK/MTK2503/MTK2503/11CW1418SP4_03_CORETEK03AE_11C_V1_GPRS_MMI/Tools/MinGW/include/c++/3.3.1/bits/stl_list.h ****     /**
 737:d:/MTK/MTK2503/MTK2503/11CW1418SP4_03_CORETEK03AE_11C_V1_GPRS_MMI/Tools/MinGW/include/c++/3.3.1/bits/stl_list.h ****      *  @brief  Add data to the end of the %list.
 738:d:/MTK/MTK2503/MTK2503/11CW1418SP4_03_CORETEK03AE_11C_V1_GPRS_MMI/Tools/MinGW/include/c++/3.3.1/bits/stl_list.h ****      *  @param  x  Data to be added.
 739:d:/MTK/MTK2503/MTK2503/11CW1418SP4_03_CORETEK03AE_11C_V1_GPRS_MMI/Tools/MinGW/include/c++/3.3.1/bits/stl_list.h ****      *
 740:d:/MTK/MTK2503/MTK2503/11CW1418SP4_03_CORETEK03AE_11C_V1_GPRS_MMI/Tools/MinGW/include/c++/3.3.1/bits/stl_list.h ****      *  This is a typical stack operation.  The function creates an element at
 741:d:/MTK/MTK2503/MTK2503/11CW1418SP4_03_CORETEK03AE_11C_V1_GPRS_MMI/Tools/MinGW/include/c++/3.3.1/bits/stl_list.h ****      *  the end of the %list and assigns the given data to it.  Due to the
 742:d:/MTK/MTK2503/MTK2503/11CW1418SP4_03_CORETEK03AE_11C_V1_GPRS_MMI/Tools/MinGW/include/c++/3.3.1/bits/stl_list.h ****      *  nature of a %list this operation can be done in constant time, and
 743:d:/MTK/MTK2503/MTK2503/11CW1418SP4_03_CORETEK03AE_11C_V1_GPRS_MMI/Tools/MinGW/include/c++/3.3.1/bits/stl_list.h ****      *  does not invalidate iterators and references.
 744:d:/MTK/MTK2503/MTK2503/11CW1418SP4_03_CORETEK03AE_11C_V1_GPRS_MMI/Tools/MinGW/include/c++/3.3.1/bits/stl_list.h ****     */
 745:d:/MTK/MTK2503/MTK2503/11CW1418SP4_03_CORETEK03AE_11C_V1_GPRS_MMI/Tools/MinGW/include/c++/3.3.1/bits/stl_list.h ****     void
 746:d:/MTK/MTK2503/MTK2503/11CW1418SP4_03_CORETEK03AE_11C_V1_GPRS_MMI/Tools/MinGW/include/c++/3.3.1/bits/stl_list.h ****     push_back(const value_type& __x) { this->insert(end(), __x); }
 4981              	LM201:
 4982 0000 55       		pushl	%ebp
 4983 0001 89E5     		movl	%esp, %ebp
 4984 0003 53       		pushl	%ebx
 4985 0004 83EC34   		subl	$52, %esp
 4987              	LM202:
 4988              	LBB44:
 4989 0007 8D5DE8   		leal	-24(%ebp), %ebx
 4990 000a 8D55D8   		leal	-40(%ebp), %edx
 4991 000d 8B4508   		movl	8(%ebp), %eax
 4992 0010 89442404 		movl	%eax, 4(%esp)
 4993 0014 891424   		movl	%edx, (%esp)
 4994 0017 E8000000 		call	__ZNSt4listI16ProcessImageDataSaIS0_EE3endEv
 4994      00
 4995 001c 83EC04   		subl	$4, %esp
 4996 001f 8D55D8   		leal	-40(%ebp), %edx
 4997 0022 8B450C   		movl	12(%ebp), %eax
 4998 0025 8944240C 		movl	%eax, 12(%esp)
 4999 0029 89542408 		movl	%edx, 8(%esp)
 5000 002d 8B4508   		movl	8(%ebp), %eax
 5001 0030 89442404 		movl	%eax, 4(%esp)
 5002 0034 891C24   		movl	%ebx, (%esp)
 5003 0037 E8000000 		call	__ZNSt4listI16ProcessImageDataSaIS0_EE6insertESt14_List_iteratorIS0_RS0_PS0_ERKS0_
 5003      00
 5004 003c 83EC04   		subl	$4, %esp
 5005 003f 8B5DFC   		movl	-4(%ebp), %ebx
 5006 0042 C9       		leave
GAS LISTING d:/MTK/MTK2503/MTK2503/11CW1418SP4_03_CORETEK03AE_11C_V1_GPRS_MMI/plutommi/Customer/ResGenerator/gcctmp/cck7daaa.s 			page 71


 5007 0043 C3       		ret
 5008              	LBE44:
 5009              	Lscope24:
 5012              		.section	.text$_ZNSt4listI13LogBinaryDataSaIS0_EE9push_backERKS0_,"x"
 5013              		.linkonce discard
 5014              		.align 2
 5018              	.globl __ZNSt4listI13LogBinaryDataSaIS0_EE9push_backERKS0_
 5020              	__ZNSt4listI13LogBinaryDataSaIS0_EE9push_backERKS0_:
 5022              	LM203:
 5023 0000 55       		pushl	%ebp
 5024 0001 89E5     		movl	%esp, %ebp
 5025 0003 53       		pushl	%ebx
 5026 0004 83EC34   		subl	$52, %esp
 5028              	LM204:
 5029              	LBB45:
 5030 0007 8D5DE8   		leal	-24(%ebp), %ebx
 5031 000a 8D55D8   		leal	-40(%ebp), %edx
 5032 000d 8B4508   		movl	8(%ebp), %eax
 5033 0010 89442404 		movl	%eax, 4(%esp)
 5034 0014 891424   		movl	%edx, (%esp)
 5035 0017 E8000000 		call	__ZNSt4listI13LogBinaryDataSaIS0_EE3endEv
 5035      00
 5036 001c 83EC04   		subl	$4, %esp
 5037 001f 8D55D8   		leal	-40(%ebp), %edx
 5038 0022 8B450C   		movl	12(%ebp), %eax
 5039 0025 8944240C 		movl	%eax, 12(%esp)
 5040 0029 89542408 		movl	%edx, 8(%esp)
 5041 002d 8B4508   		movl	8(%ebp), %eax
 5042 0030 89442404 		movl	%eax, 4(%esp)
 5043 0034 891C24   		movl	%ebx, (%esp)
 5044 0037 E8000000 		call	__ZNSt4listI13LogBinaryDataSaIS0_EE6insertESt14_List_iteratorIS0_RS0_PS0_ERKS0_
 5044      00
 5045 003c 83EC04   		subl	$4, %esp
 5046 003f 8B5DFC   		movl	-4(%ebp), %ebx
 5047 0042 C9       		leave
 5048 0043 C3       		ret
 5049              	LBE45:
 5050              	Lscope25:
 5054              		.text
 5055 1759 90       		.align 2
 5060              	__Z41__static_initialization_and_destruction_0ii:
 5062              	Ltext2:
 5064              	LM205:
 5065 175a 55       		pushl	%ebp
 5066 175b 89E5     		movl	%esp, %ebp
 5067 175d 57       		pushl	%edi
 5068 175e 56       		pushl	%esi
 5069 175f 53       		pushl	%ebx
 5070 1760 83EC6C   		subl	$108, %esp
 5071 1763 C745C400 		movl	$___gxx_personality_sj0, -60(%ebp)
 5071      000000
 5072 176a C745C812 		movl	$LLSDA2339, -56(%ebp)
 5072      000000
 5073 1771 8D45CC   		leal	-52(%ebp), %eax
 5074 1774 8D55E8   		leal	-24(%ebp), %edx
 5075 1777 8910     		movl	%edx, (%eax)
 5076 1779 BA511800 		movl	$L123, %edx
GAS LISTING d:/MTK/MTK2503/MTK2503/11CW1418SP4_03_CORETEK03AE_11C_V1_GPRS_MMI/plutommi/Customer/ResGenerator/gcctmp/cck7daaa.s 			page 72


 5076      00
 5077 177e 895004   		movl	%edx, 4(%eax)
 5078 1781 896008   		movl	%esp, 8(%eax)
 5079 1784 8D45AC   		leal	-84(%ebp), %eax
 5080 1787 890424   		movl	%eax, (%esp)
 5081 178a E8000000 		call	__Unwind_SjLj_Register
 5081      00
 5083              	Ltext3:
   1:d:/MTK/MTK2503/MTK2503/11CW1418SP4_03_CORETEK03AE_11C_V1_GPRS_MMI/Tools/MinGW/include/c++/3.3.1/iostream **** // Standard iostream objects -*- C++ -*-
   2:d:/MTK/MTK2503/MTK2503/11CW1418SP4_03_CORETEK03AE_11C_V1_GPRS_MMI/Tools/MinGW/include/c++/3.3.1/iostream **** 
   3:d:/MTK/MTK2503/MTK2503/11CW1418SP4_03_CORETEK03AE_11C_V1_GPRS_MMI/Tools/MinGW/include/c++/3.3.1/iostream **** // Copyright (C) 1997, 1998, 1999, 2001, 2002 Free Software Foundation, Inc.
   4:d:/MTK/MTK2503/MTK2503/11CW1418SP4_03_CORETEK03AE_11C_V1_GPRS_MMI/Tools/MinGW/include/c++/3.3.1/iostream **** //
   5:d:/MTK/MTK2503/MTK2503/11CW1418SP4_03_CORETEK03AE_11C_V1_GPRS_MMI/Tools/MinGW/include/c++/3.3.1/iostream **** // This file is part of the GNU ISO C++ Library.  This library is free
   6:d:/MTK/MTK2503/MTK2503/11CW1418SP4_03_CORETEK03AE_11C_V1_GPRS_MMI/Tools/MinGW/include/c++/3.3.1/iostream **** // software; you can redistribute it and/or modify it under the
   7:d:/MTK/MTK2503/MTK2503/11CW1418SP4_03_CORETEK03AE_11C_V1_GPRS_MMI/Tools/MinGW/include/c++/3.3.1/iostream **** // terms of the GNU General Public License as published by the
   8:d:/MTK/MTK2503/MTK2503/11CW1418SP4_03_CORETEK03AE_11C_V1_GPRS_MMI/Tools/MinGW/include/c++/3.3.1/iostream **** // Free Software Foundation; either version 2, or (at your option)
   9:d:/MTK/MTK2503/MTK2503/11CW1418SP4_03_CORETEK03AE_11C_V1_GPRS_MMI/Tools/MinGW/include/c++/3.3.1/iostream **** // any later version.
  10:d:/MTK/MTK2503/MTK2503/11CW1418SP4_03_CORETEK03AE_11C_V1_GPRS_MMI/Tools/MinGW/include/c++/3.3.1/iostream **** 
  11:d:/MTK/MTK2503/MTK2503/11CW1418SP4_03_CORETEK03AE_11C_V1_GPRS_MMI/Tools/MinGW/include/c++/3.3.1/iostream **** // This library is distributed in the hope that it will be useful,
  12:d:/MTK/MTK2503/MTK2503/11CW1418SP4_03_CORETEK03AE_11C_V1_GPRS_MMI/Tools/MinGW/include/c++/3.3.1/iostream **** // but WITHOUT ANY WARRANTY; without even the implied warranty of
  13:d:/MTK/MTK2503/MTK2503/11CW1418SP4_03_CORETEK03AE_11C_V1_GPRS_MMI/Tools/MinGW/include/c++/3.3.1/iostream **** // MERCHANTABILITY or FITNESS FOR A PARTICULAR PURPOSE.  See the
  14:d:/MTK/MTK2503/MTK2503/11CW1418SP4_03_CORETEK03AE_11C_V1_GPRS_MMI/Tools/MinGW/include/c++/3.3.1/iostream **** // GNU General Public License for more details.
  15:d:/MTK/MTK2503/MTK2503/11CW1418SP4_03_CORETEK03AE_11C_V1_GPRS_MMI/Tools/MinGW/include/c++/3.3.1/iostream **** 
  16:d:/MTK/MTK2503/MTK2503/11CW1418SP4_03_CORETEK03AE_11C_V1_GPRS_MMI/Tools/MinGW/include/c++/3.3.1/iostream **** // You should have received a copy of the GNU General Public License along
  17:d:/MTK/MTK2503/MTK2503/11CW1418SP4_03_CORETEK03AE_11C_V1_GPRS_MMI/Tools/MinGW/include/c++/3.3.1/iostream **** // with this library; see the file COPYING.  If not, write to the Free
  18:d:/MTK/MTK2503/MTK2503/11CW1418SP4_03_CORETEK03AE_11C_V1_GPRS_MMI/Tools/MinGW/include/c++/3.3.1/iostream **** // Software Foundation, 59 Temple Place - Suite 330, Boston, MA 02111-1307,
  19:d:/MTK/MTK2503/MTK2503/11CW1418SP4_03_CORETEK03AE_11C_V1_GPRS_MMI/Tools/MinGW/include/c++/3.3.1/iostream **** // USA.
  20:d:/MTK/MTK2503/MTK2503/11CW1418SP4_03_CORETEK03AE_11C_V1_GPRS_MMI/Tools/MinGW/include/c++/3.3.1/iostream **** 
  21:d:/MTK/MTK2503/MTK2503/11CW1418SP4_03_CORETEK03AE_11C_V1_GPRS_MMI/Tools/MinGW/include/c++/3.3.1/iostream **** // As a special exception, you may use this file as part of a free software
  22:d:/MTK/MTK2503/MTK2503/11CW1418SP4_03_CORETEK03AE_11C_V1_GPRS_MMI/Tools/MinGW/include/c++/3.3.1/iostream **** // library without restriction.  Specifically, if other files instantiate
  23:d:/MTK/MTK2503/MTK2503/11CW1418SP4_03_CORETEK03AE_11C_V1_GPRS_MMI/Tools/MinGW/include/c++/3.3.1/iostream **** // templates or use macros or inline functions from this file, or you compile
  24:d:/MTK/MTK2503/MTK2503/11CW1418SP4_03_CORETEK03AE_11C_V1_GPRS_MMI/Tools/MinGW/include/c++/3.3.1/iostream **** // this file and link it with other files to produce an executable, this
  25:d:/MTK/MTK2503/MTK2503/11CW1418SP4_03_CORETEK03AE_11C_V1_GPRS_MMI/Tools/MinGW/include/c++/3.3.1/iostream **** // file does not by itself cause the resulting executable to be covered by
  26:d:/MTK/MTK2503/MTK2503/11CW1418SP4_03_CORETEK03AE_11C_V1_GPRS_MMI/Tools/MinGW/include/c++/3.3.1/iostream **** // the GNU General Public License.  This exception does not however
  27:d:/MTK/MTK2503/MTK2503/11CW1418SP4_03_CORETEK03AE_11C_V1_GPRS_MMI/Tools/MinGW/include/c++/3.3.1/iostream **** // invalidate any other reasons why the executable file might be covered by
  28:d:/MTK/MTK2503/MTK2503/11CW1418SP4_03_CORETEK03AE_11C_V1_GPRS_MMI/Tools/MinGW/include/c++/3.3.1/iostream **** // the GNU General Public License.
  29:d:/MTK/MTK2503/MTK2503/11CW1418SP4_03_CORETEK03AE_11C_V1_GPRS_MMI/Tools/MinGW/include/c++/3.3.1/iostream **** 
  30:d:/MTK/MTK2503/MTK2503/11CW1418SP4_03_CORETEK03AE_11C_V1_GPRS_MMI/Tools/MinGW/include/c++/3.3.1/iostream **** //
  31:d:/MTK/MTK2503/MTK2503/11CW1418SP4_03_CORETEK03AE_11C_V1_GPRS_MMI/Tools/MinGW/include/c++/3.3.1/iostream **** // ISO C++ 14882: 27.3  Standard iostream objects
  32:d:/MTK/MTK2503/MTK2503/11CW1418SP4_03_CORETEK03AE_11C_V1_GPRS_MMI/Tools/MinGW/include/c++/3.3.1/iostream **** //
  33:d:/MTK/MTK2503/MTK2503/11CW1418SP4_03_CORETEK03AE_11C_V1_GPRS_MMI/Tools/MinGW/include/c++/3.3.1/iostream **** 
  34:d:/MTK/MTK2503/MTK2503/11CW1418SP4_03_CORETEK03AE_11C_V1_GPRS_MMI/Tools/MinGW/include/c++/3.3.1/iostream **** /** @file iostream
  35:d:/MTK/MTK2503/MTK2503/11CW1418SP4_03_CORETEK03AE_11C_V1_GPRS_MMI/Tools/MinGW/include/c++/3.3.1/iostream ****  *  This is a Standard C++ Library header.  You should @c #include this header
  36:d:/MTK/MTK2503/MTK2503/11CW1418SP4_03_CORETEK03AE_11C_V1_GPRS_MMI/Tools/MinGW/include/c++/3.3.1/iostream ****  *  in your programs, rather than any of the "st[dl]_*.h" implementation files.
  37:d:/MTK/MTK2503/MTK2503/11CW1418SP4_03_CORETEK03AE_11C_V1_GPRS_MMI/Tools/MinGW/include/c++/3.3.1/iostream ****  */
  38:d:/MTK/MTK2503/MTK2503/11CW1418SP4_03_CORETEK03AE_11C_V1_GPRS_MMI/Tools/MinGW/include/c++/3.3.1/iostream **** 
  39:d:/MTK/MTK2503/MTK2503/11CW1418SP4_03_CORETEK03AE_11C_V1_GPRS_MMI/Tools/MinGW/include/c++/3.3.1/iostream **** #ifndef _CPP_IOSTREAM
  40:d:/MTK/MTK2503/MTK2503/11CW1418SP4_03_CORETEK03AE_11C_V1_GPRS_MMI/Tools/MinGW/include/c++/3.3.1/iostream **** #define _CPP_IOSTREAM	1
  41:d:/MTK/MTK2503/MTK2503/11CW1418SP4_03_CORETEK03AE_11C_V1_GPRS_MMI/Tools/MinGW/include/c++/3.3.1/iostream **** 
  42:d:/MTK/MTK2503/MTK2503/11CW1418SP4_03_CORETEK03AE_11C_V1_GPRS_MMI/Tools/MinGW/include/c++/3.3.1/iostream **** #pragma GCC system_header
  43:d:/MTK/MTK2503/MTK2503/11CW1418SP4_03_CORETEK03AE_11C_V1_GPRS_MMI/Tools/MinGW/include/c++/3.3.1/iostream **** 
  44:d:/MTK/MTK2503/MTK2503/11CW1418SP4_03_CORETEK03AE_11C_V1_GPRS_MMI/Tools/MinGW/include/c++/3.3.1/iostream **** #include <bits/c++config.h>
  45:d:/MTK/MTK2503/MTK2503/11CW1418SP4_03_CORETEK03AE_11C_V1_GPRS_MMI/Tools/MinGW/include/c++/3.3.1/iostream **** #include <ostream>
  46:d:/MTK/MTK2503/MTK2503/11CW1418SP4_03_CORETEK03AE_11C_V1_GPRS_MMI/Tools/MinGW/include/c++/3.3.1/iostream **** #include <istream>
  47:d:/MTK/MTK2503/MTK2503/11CW1418SP4_03_CORETEK03AE_11C_V1_GPRS_MMI/Tools/MinGW/include/c++/3.3.1/iostream **** 
  48:d:/MTK/MTK2503/MTK2503/11CW1418SP4_03_CORETEK03AE_11C_V1_GPRS_MMI/Tools/MinGW/include/c++/3.3.1/iostream **** namespace std 
  49:d:/MTK/MTK2503/MTK2503/11CW1418SP4_03_CORETEK03AE_11C_V1_GPRS_MMI/Tools/MinGW/include/c++/3.3.1/iostream **** {
GAS LISTING d:/MTK/MTK2503/MTK2503/11CW1418SP4_03_CORETEK03AE_11C_V1_GPRS_MMI/plutommi/Customer/ResGenerator/gcctmp/cck7daaa.s 			page 73


  50:d:/MTK/MTK2503/MTK2503/11CW1418SP4_03_CORETEK03AE_11C_V1_GPRS_MMI/Tools/MinGW/include/c++/3.3.1/iostream ****   /**
  51:d:/MTK/MTK2503/MTK2503/11CW1418SP4_03_CORETEK03AE_11C_V1_GPRS_MMI/Tools/MinGW/include/c++/3.3.1/iostream ****    *  @name Standard Stream Objects
  52:d:/MTK/MTK2503/MTK2503/11CW1418SP4_03_CORETEK03AE_11C_V1_GPRS_MMI/Tools/MinGW/include/c++/3.3.1/iostream ****    *
  53:d:/MTK/MTK2503/MTK2503/11CW1418SP4_03_CORETEK03AE_11C_V1_GPRS_MMI/Tools/MinGW/include/c++/3.3.1/iostream ****    *  The &lt;iostream&gt; header declares the eight <em>standard stream
  54:d:/MTK/MTK2503/MTK2503/11CW1418SP4_03_CORETEK03AE_11C_V1_GPRS_MMI/Tools/MinGW/include/c++/3.3.1/iostream ****    *  objects</em>.  For other declarations, see
  55:d:/MTK/MTK2503/MTK2503/11CW1418SP4_03_CORETEK03AE_11C_V1_GPRS_MMI/Tools/MinGW/include/c++/3.3.1/iostream ****    *  http://gcc.gnu.org/onlinedocs/libstdc++/27_io/howto.html#10 and the
  56:d:/MTK/MTK2503/MTK2503/11CW1418SP4_03_CORETEK03AE_11C_V1_GPRS_MMI/Tools/MinGW/include/c++/3.3.1/iostream ****    *  @link s27_2_iosfwd I/O forward declarations @endlink
  57:d:/MTK/MTK2503/MTK2503/11CW1418SP4_03_CORETEK03AE_11C_V1_GPRS_MMI/Tools/MinGW/include/c++/3.3.1/iostream ****    *
  58:d:/MTK/MTK2503/MTK2503/11CW1418SP4_03_CORETEK03AE_11C_V1_GPRS_MMI/Tools/MinGW/include/c++/3.3.1/iostream ****    *  They are required by default to cooperate with the global C library's
  59:d:/MTK/MTK2503/MTK2503/11CW1418SP4_03_CORETEK03AE_11C_V1_GPRS_MMI/Tools/MinGW/include/c++/3.3.1/iostream ****    *  @c FILE streams, and to be available during program startup and
  60:d:/MTK/MTK2503/MTK2503/11CW1418SP4_03_CORETEK03AE_11C_V1_GPRS_MMI/Tools/MinGW/include/c++/3.3.1/iostream ****    *  termination.  For more information, see the HOWTO linked to above.
  61:d:/MTK/MTK2503/MTK2503/11CW1418SP4_03_CORETEK03AE_11C_V1_GPRS_MMI/Tools/MinGW/include/c++/3.3.1/iostream ****   */
  62:d:/MTK/MTK2503/MTK2503/11CW1418SP4_03_CORETEK03AE_11C_V1_GPRS_MMI/Tools/MinGW/include/c++/3.3.1/iostream ****   //@{
  63:d:/MTK/MTK2503/MTK2503/11CW1418SP4_03_CORETEK03AE_11C_V1_GPRS_MMI/Tools/MinGW/include/c++/3.3.1/iostream ****   extern istream cin;		///< Linked to standard input
  64:d:/MTK/MTK2503/MTK2503/11CW1418SP4_03_CORETEK03AE_11C_V1_GPRS_MMI/Tools/MinGW/include/c++/3.3.1/iostream ****   extern ostream cout;		///< Linked to standard output
  65:d:/MTK/MTK2503/MTK2503/11CW1418SP4_03_CORETEK03AE_11C_V1_GPRS_MMI/Tools/MinGW/include/c++/3.3.1/iostream ****   extern ostream cerr;		///< Linked to standard error (unbuffered)
  66:d:/MTK/MTK2503/MTK2503/11CW1418SP4_03_CORETEK03AE_11C_V1_GPRS_MMI/Tools/MinGW/include/c++/3.3.1/iostream ****   extern ostream clog;		///< Linked to standard error (buffered)
  67:d:/MTK/MTK2503/MTK2503/11CW1418SP4_03_CORETEK03AE_11C_V1_GPRS_MMI/Tools/MinGW/include/c++/3.3.1/iostream **** 
  68:d:/MTK/MTK2503/MTK2503/11CW1418SP4_03_CORETEK03AE_11C_V1_GPRS_MMI/Tools/MinGW/include/c++/3.3.1/iostream **** #ifdef _GLIBCPP_USE_WCHAR_T
  69:d:/MTK/MTK2503/MTK2503/11CW1418SP4_03_CORETEK03AE_11C_V1_GPRS_MMI/Tools/MinGW/include/c++/3.3.1/iostream ****   extern wistream wcin;		///< Linked to standard input
  70:d:/MTK/MTK2503/MTK2503/11CW1418SP4_03_CORETEK03AE_11C_V1_GPRS_MMI/Tools/MinGW/include/c++/3.3.1/iostream ****   extern wostream wcout;	///< Linked to standard output
  71:d:/MTK/MTK2503/MTK2503/11CW1418SP4_03_CORETEK03AE_11C_V1_GPRS_MMI/Tools/MinGW/include/c++/3.3.1/iostream ****   extern wostream wcerr;	///< Linked to standard error (unbuffered)
  72:d:/MTK/MTK2503/MTK2503/11CW1418SP4_03_CORETEK03AE_11C_V1_GPRS_MMI/Tools/MinGW/include/c++/3.3.1/iostream ****   extern wostream wclog;	///< Linked to standard error (buffered)
  73:d:/MTK/MTK2503/MTK2503/11CW1418SP4_03_CORETEK03AE_11C_V1_GPRS_MMI/Tools/MinGW/include/c++/3.3.1/iostream **** #endif
  74:d:/MTK/MTK2503/MTK2503/11CW1418SP4_03_CORETEK03AE_11C_V1_GPRS_MMI/Tools/MinGW/include/c++/3.3.1/iostream ****   //@}
  75:d:/MTK/MTK2503/MTK2503/11CW1418SP4_03_CORETEK03AE_11C_V1_GPRS_MMI/Tools/MinGW/include/c++/3.3.1/iostream **** 
  76:d:/MTK/MTK2503/MTK2503/11CW1418SP4_03_CORETEK03AE_11C_V1_GPRS_MMI/Tools/MinGW/include/c++/3.3.1/iostream ****   // For construction of filebuffers for cout, cin, cerr, clog et. al.
  77:d:/MTK/MTK2503/MTK2503/11CW1418SP4_03_CORETEK03AE_11C_V1_GPRS_MMI/Tools/MinGW/include/c++/3.3.1/iostream ****   static ios_base::Init __ioinit;
 5085              	LM206:
 5086 178f 817D0CFF 		cmpl	$65535, 12(%ebp)
 5086      FF0000
 5087 1796 7519     		jne	L109
 5088 1798 837D0801 		cmpl	$1, 8(%ebp)
 5089 179c 7513     		jne	L109
 5090 179e C7042400 		movl	$__ZSt8__ioinit, (%esp)
 5090      000000
 5091 17a5 C745B0FF 		movl	$-1, -80(%ebp)
 5091      FFFFFF
 5092 17ac E8000000 		call	__ZNSt8ios_base4InitC1Ev
 5092      00
 5093              	L109:
 5095              	Ltext4:
 5097              	LM207:
 5098 17b1 817D0CFF 		cmpl	$65535, 12(%ebp)
 5098      FF0000
 5099 17b8 7561     		jne	L110
 5100 17ba 837D0801 		cmpl	$1, 8(%ebp)
 5101 17be 755B     		jne	L110
 5102 17c0 8D45D8   		leal	-40(%ebp), %eax
 5103 17c3 890424   		movl	%eax, (%esp)
 5104 17c6 E8000000 		call	__ZNSaI16ProcessImageDataEC1Ev
 5104      00
 5105 17cb 8D45D8   		leal	-40(%ebp), %eax
 5106 17ce 89442404 		movl	%eax, 4(%esp)
 5107 17d2 C7042410 		movl	$_g_resgen_png_image_list, (%esp)
 5107      000000
 5108 17d9 C745B002 		movl	$2, -80(%ebp)
GAS LISTING d:/MTK/MTK2503/MTK2503/11CW1418SP4_03_CORETEK03AE_11C_V1_GPRS_MMI/plutommi/Customer/ResGenerator/gcctmp/cck7daaa.s 			page 74


 5108      000000
 5109 17e0 E8000000 		call	__ZNSt4listI16ProcessImageDataSaIS0_EEC1ERKS1_
 5109      00
 5110 17e5 EB29     		jmp	L112
 5111              	L111:
 5112 17e7 8B45A4   		movl	-92(%ebp), %eax
 5113 17ea 8945A8   		movl	%eax, -88(%ebp)
 5114 17ed 8D45D8   		leal	-40(%ebp), %eax
 5115 17f0 890424   		movl	%eax, (%esp)
 5116 17f3 E8000000 		call	__ZNSaI16ProcessImageDataED1Ev
 5116      00
 5117 17f8 8B55A8   		movl	-88(%ebp), %edx
 5118 17fb 8955A4   		movl	%edx, -92(%ebp)
 5119              	L113:
 5120 17fe 8B45A4   		movl	-92(%ebp), %eax
 5121 1801 890424   		movl	%eax, (%esp)
 5122 1804 C745B0FF 		movl	$-1, -80(%ebp)
 5122      FFFFFF
 5123 180b E8000000 		call	__Unwind_SjLj_Resume
 5123      00
 5124              	L112:
 5125 1810 8D45D8   		leal	-40(%ebp), %eax
 5126 1813 890424   		movl	%eax, (%esp)
 5127 1816 E8000000 		call	__ZNSaI16ProcessImageDataED1Ev
 5127      00
 5128              	L110:
 5130              	LM208:
 5131 181b 817D0CFF 		cmpl	$65535, 12(%ebp)
 5131      FF0000
 5132 1822 7572     		jne	L115
 5133 1824 837D0801 		cmpl	$1, 8(%ebp)
 5134 1828 756C     		jne	L115
 5135 182a 8D45D8   		leal	-40(%ebp), %eax
 5136 182d 890424   		movl	%eax, (%esp)
 5137 1830 E8000000 		call	__ZNSaI13LogBinaryDataEC1Ev
 5137      00
 5138 1835 8D45D8   		leal	-40(%ebp), %eax
 5139 1838 89442404 		movl	%eax, 4(%esp)
 5140 183c C7042420 		movl	$_g_log_binary_data_list, (%esp)
 5140      000000
 5141 1843 C745B001 		movl	$1, -80(%ebp)
 5141      000000
 5142 184a E8000000 		call	__ZNSt4listI13LogBinaryDataSaIS0_EEC1ERKS1_
 5142      00
 5143 184f EB3A     		jmp	L117
 5144              	L123:
 5145 1851 8D6D18   		leal	24(%ebp), %ebp
 5146 1854 8B45B0   		movl	-80(%ebp), %eax
 5147 1857 8B55B4   		movl	-76(%ebp), %edx
 5148 185a 8955A4   		movl	%edx, -92(%ebp)
 5149 185d 83F801   		cmpl	$1, %eax
 5150 1860 7485     		je	L111
 5151              	L116:
 5152 1862 8B45A4   		movl	-92(%ebp), %eax
 5153 1865 8945A0   		movl	%eax, -96(%ebp)
 5154 1868 8D45D8   		leal	-40(%ebp), %eax
 5155 186b 890424   		movl	%eax, (%esp)
GAS LISTING d:/MTK/MTK2503/MTK2503/11CW1418SP4_03_CORETEK03AE_11C_V1_GPRS_MMI/plutommi/Customer/ResGenerator/gcctmp/cck7daaa.s 			page 75


 5156 186e E8000000 		call	__ZNSaI13LogBinaryDataED1Ev
 5156      00
 5157 1873 8B55A0   		movl	-96(%ebp), %edx
 5158 1876 8955A4   		movl	%edx, -92(%ebp)
 5159              	L118:
 5160 1879 8B45A4   		movl	-92(%ebp), %eax
 5161 187c 890424   		movl	%eax, (%esp)
 5162 187f C745B0FF 		movl	$-1, -80(%ebp)
 5162      FFFFFF
 5163 1886 E8000000 		call	__Unwind_SjLj_Resume
 5163      00
 5164              	L117:
 5165 188b 8D45D8   		leal	-40(%ebp), %eax
 5166 188e 890424   		movl	%eax, (%esp)
 5167 1891 E8000000 		call	__ZNSaI13LogBinaryDataED1Ev
 5167      00
 5168              	L115:
 5169 1896 817D0CFF 		cmpl	$65535, 12(%ebp)
 5169      FF0000
 5170 189d 7519     		jne	L120
 5171 189f 837D0800 		cmpl	$0, 8(%ebp)
 5172 18a3 7513     		jne	L120
 5173 18a5 C7042420 		movl	$_g_log_binary_data_list, (%esp)
 5173      000000
 5174 18ac C745B0FF 		movl	$-1, -80(%ebp)
 5174      FFFFFF
 5175 18b3 E8000000 		call	__ZNSt4listI13LogBinaryDataSaIS0_EED1Ev
 5175      00
 5176              	L120:
 5178              	LM209:
 5179 18b8 817D0CFF 		cmpl	$65535, 12(%ebp)
 5179      FF0000
 5180 18bf 7519     		jne	L121
 5181 18c1 837D0800 		cmpl	$0, 8(%ebp)
 5182 18c5 7513     		jne	L121
 5183 18c7 C7042410 		movl	$_g_resgen_png_image_list, (%esp)
 5183      000000
 5184 18ce C745B0FF 		movl	$-1, -80(%ebp)
 5184      FFFFFF
 5185 18d5 E8000000 		call	__ZNSt4listI16ProcessImageDataSaIS0_EED1Ev
 5185      00
 5186              	L121:
 5188              	Ltext5:
 5190              	LM210:
 5191 18da 817D0CFF 		cmpl	$65535, 12(%ebp)
 5191      FF0000
 5192 18e1 7519     		jne	L108
 5193 18e3 837D0800 		cmpl	$0, 8(%ebp)
 5194 18e7 7513     		jne	L108
 5195 18e9 C7042400 		movl	$__ZSt8__ioinit, (%esp)
 5195      000000
 5196 18f0 C745B0FF 		movl	$-1, -80(%ebp)
 5196      FFFFFF
 5197 18f7 E8000000 		call	__ZNSt8ios_base4InitD1Ev
 5197      00
 5198              	L108:
 5199 18fc 8D45AC   		leal	-84(%ebp), %eax
GAS LISTING d:/MTK/MTK2503/MTK2503/11CW1418SP4_03_CORETEK03AE_11C_V1_GPRS_MMI/plutommi/Customer/ResGenerator/gcctmp/cck7daaa.s 			page 76


 5200 18ff 890424   		movl	%eax, (%esp)
 5201 1902 E8000000 		call	__Unwind_SjLj_Unregister
 5201      00
 5202 1907 83C46C   		addl	$108, %esp
 5203 190a 5B       		popl	%ebx
 5204 190b 5E       		popl	%esi
 5205 190c 5F       		popl	%edi
 5206 190d 5D       		popl	%ebp
 5207 190e C3       		ret
 5208              		.section	.gcc_except_table,""
 5209              	LLSDA2339:
 5210 0012 FF       		.byte	0xff
 5211 0013 FF       		.byte	0xff
 5212 0014 01       		.byte	0x1
 5213 0015 04       		.uleb128 LLSDACSE2339-LLSDACSB2339
 5214              	LLSDACSB2339:
 5215 0016 00       		.uleb128 0x0
 5216 0017 00       		.uleb128 0x0
 5217 0018 01       		.uleb128 0x1
 5218 0019 00       		.uleb128 0x0
 5219              	LLSDACSE2339:
 5220              		.text
 5221              	Lscope26:
 5223              		.section	.text$_ZNSt19_List_iterator_base7_M_incrEv,"x"
 5224              		.linkonce discard
 5225              		.align 2
 5228              	.globl __ZNSt19_List_iterator_base7_M_incrEv
 5230              	__ZNSt19_List_iterator_base7_M_incrEv:
 5232              	Ltext6:
 5234              	LM211:
 5235 0000 55       		pushl	%ebp
 5236 0001 89E5     		movl	%esp, %ebp
 5238              	LM212:
 5239              	LBB46:
 5240 0003 8B5508   		movl	8(%ebp), %edx
 5241 0006 8B4508   		movl	8(%ebp), %eax
 5242 0009 8B00     		movl	(%eax), %eax
 5243 000b 8B00     		movl	(%eax), %eax
 5244 000d 8902     		movl	%eax, (%edx)
 5245 000f 5D       		popl	%ebp
 5246 0010 C3       		ret
 5247              	LBE46:
 5248              	Lscope27:
 5250 0011 909090   		.section	.text$_ZNKSt19_List_iterator_baseneERKS_,"x"
 5251              		.linkonce discard
 5252              		.align 2
 5256              	.globl __ZNKSt19_List_iterator_baseneERKS_
 5258              	__ZNKSt19_List_iterator_baseneERKS_:
 5260              	LM213:
 5261 0000 55       		pushl	%ebp
 5262 0001 89E5     		movl	%esp, %ebp
 5264              	LM214:
 5265              	LBB47:
 5266 0003 8B4508   		movl	8(%ebp), %eax
 5267 0006 8B550C   		movl	12(%ebp), %edx
 5268 0009 8B00     		movl	(%eax), %eax
 5269 000b 3B02     		cmpl	(%edx), %eax
GAS LISTING d:/MTK/MTK2503/MTK2503/11CW1418SP4_03_CORETEK03AE_11C_V1_GPRS_MMI/plutommi/Customer/ResGenerator/gcctmp/cck7daaa.s 			page 77


 5270 000d 0F95C0   		setne	%al
 5271 0010 0FB6C0   		movzbl	%al, %eax
 5272 0013 5D       		popl	%ebp
 5273 0014 C3       		ret
 5274              	LBE47:
 5275              	Lscope28:
 5277 0015 909090   		.section	.text$_ZN21_ResgenImageOutStreamC1Ev,"x"
 5278              		.linkonce discard
 5279              		.align 2
 5282              	.globl __ZN21_ResgenImageOutStreamC1Ev
 5284              	__ZN21_ResgenImageOutStreamC1Ev:
 5286              	Ltext7:
 5288              	LM215:
 5289 0000 55       		pushl	%ebp
 5290 0001 89E5     		movl	%esp, %ebp
 5292              	LM216:
 5293              	LBB48:
 5294 0003 8B4508   		movl	8(%ebp), %eax
 5295 0006 C7000000 		movl	$0, (%eax)
 5295      0000
 5296 000c 8B4508   		movl	8(%ebp), %eax
 5297 000f C7400400 		movl	$0, 4(%eax)
 5297      000000
 5299              	LM217:
 5300 0016 5D       		popl	%ebp
 5301 0017 C3       		ret
 5302              	LBE48:
 5303              	Lscope29:
 5305              		.section	.text$_ZN21_ResgenImageOutStreamD1Ev,"x"
 5306              		.linkonce discard
 5307              		.align 2
 5310              	.globl __ZN21_ResgenImageOutStreamD1Ev
 5312              	__ZN21_ResgenImageOutStreamD1Ev:
 5314              	LM218:
 5315 0000 55       		pushl	%ebp
 5316 0001 89E5     		movl	%esp, %ebp
 5317 0003 83EC08   		subl	$8, %esp
 5319              	LM219:
 5320              	LBB49:
 5321 0006 8B4508   		movl	8(%ebp), %eax
 5322 0009 8B4004   		movl	4(%eax), %eax
 5323 000c 890424   		movl	%eax, (%esp)
 5324 000f E8000000 		call	__ZdlPv
 5324      00
 5326              	LM220:
 5327 0014 C9       		leave
 5328 0015 C3       		ret
 5329              	LBE49:
 5330              	Lscope30:
 5332 0016 9090     		.section	.text$_ZN16ProcessImageDataD1Ev,"x"
 5333              		.linkonce discard
 5334              		.align 2
 5337              	.globl __ZN16ProcessImageDataD1Ev
 5339              	__ZN16ProcessImageDataD1Ev:
 5341              	LM221:
 5342              	L132:
 5343 0000 55       		pushl	%ebp
GAS LISTING d:/MTK/MTK2503/MTK2503/11CW1418SP4_03_CORETEK03AE_11C_V1_GPRS_MMI/plutommi/Customer/ResGenerator/gcctmp/cck7daaa.s 			page 78


 5344 0001 89E5     		movl	%esp, %ebp
 5345 0003 83EC08   		subl	$8, %esp
 5347              	LM222:
 5348 0006 8B4508   		movl	8(%ebp), %eax
 5349              	LBB50:
 5350 0009 05300200 		addl	$560, %eax
 5350      00
 5351 000e 890424   		movl	%eax, (%esp)
 5352 0011 E8000000 		call	__ZN21_ResgenImageOutStreamD1Ev
 5352      00
 5353              	L134:
 5354 0016 8B4508   		movl	8(%ebp), %eax
 5355 0019 83C008   		addl	$8, %eax
 5356 001c 890424   		movl	%eax, (%esp)
 5357 001f E8000000 		call	__ZNSsD1Ev
 5357      00
 5358              	L136:
 5359 0024 8B4508   		movl	8(%ebp), %eax
 5360 0027 83C004   		addl	$4, %eax
 5361 002a 890424   		movl	%eax, (%esp)
 5362 002d E8000000 		call	__ZNSsD1Ev
 5362      00
 5363 0032 C9       		leave
 5364 0033 C3       		ret
 5365              	L130:
 5366              	LBE50:
 5367              	Lscope31:
 5369              		.section	.text$_ZN16ProcessImageDataC1EtPcS0_iii,"x"
 5370              		.linkonce discard
 5371              		.align 2
 5380              	.globl __ZN16ProcessImageDataC1EtPcS0_iii
 5382              	__ZN16ProcessImageDataC1EtPcS0_iii:
 5384              	LM223:
 5385 0000 55       		pushl	%ebp
 5386 0001 89E5     		movl	%esp, %ebp
 5387 0003 57       		pushl	%edi
 5388 0004 56       		pushl	%esi
 5389 0005 53       		pushl	%ebx
 5390 0006 81EC8C00 		subl	$140, %esp
 5390      0000
 5391 000c 8B450C   		movl	12(%ebp), %eax
 5392 000f 668945E6 		movw	%ax, -26(%ebp)
 5393 0013 C745B400 		movl	$___gxx_personality_sj0, -76(%ebp)
 5393      000000
 5394 001a C745B81A 		movl	$LLSDA2345, -72(%ebp)
 5394      000000
 5395 0021 8D45BC   		leal	-68(%ebp), %eax
 5396 0024 8D55E8   		leal	-24(%ebp), %edx
 5397 0027 8910     		movl	%edx, (%eax)
 5398 0029 BA5D0100 		movl	$L160, %edx
 5398      00
 5399 002e 895004   		movl	%edx, 4(%eax)
 5400 0031 896008   		movl	%esp, 8(%eax)
 5401 0034 8D459C   		leal	-100(%ebp), %eax
 5402 0037 890424   		movl	%eax, (%esp)
 5403 003a E8000000 		call	__Unwind_SjLj_Register
 5403      00
GAS LISTING d:/MTK/MTK2503/MTK2503/11CW1418SP4_03_CORETEK03AE_11C_V1_GPRS_MMI/plutommi/Customer/ResGenerator/gcctmp/cck7daaa.s 			page 79


 5405              	LM224:
 5406              	LBB51:
 5407 003f 8B5508   		movl	8(%ebp), %edx
 5408 0042 0FB745E6 		movzwl	-26(%ebp), %eax
 5409 0046 668902   		movw	%ax, (%edx)
 5410 0049 8D45C8   		leal	-56(%ebp), %eax
 5411 004c 890424   		movl	%eax, (%esp)
 5412 004f E8000000 		call	__ZNSaIcEC1Ev
 5412      00
 5413 0054 8D45C8   		leal	-56(%ebp), %eax
 5414 0057 89442408 		movl	%eax, 8(%esp)
 5415 005b 8B4510   		movl	16(%ebp), %eax
 5416 005e 89442404 		movl	%eax, 4(%esp)
 5417 0062 8B4508   		movl	8(%ebp), %eax
 5418 0065 83C004   		addl	$4, %eax
 5419 0068 890424   		movl	%eax, (%esp)
 5420 006b C745A003 		movl	$3, -96(%ebp)
 5420      000000
 5421 0072 E8000000 		call	__ZNSsC1EPKcRKSaIcE
 5421      00
 5422 0077 EB29     		jmp	L141
 5423              	L140:
 5424 0079 8B4594   		movl	-108(%ebp), %eax
 5425 007c 894598   		movl	%eax, -104(%ebp)
 5426 007f 8D45C8   		leal	-56(%ebp), %eax
 5427 0082 890424   		movl	%eax, (%esp)
 5428 0085 E8000000 		call	__ZNSaIcED1Ev
 5428      00
 5429 008a 8B5598   		movl	-104(%ebp), %edx
 5430 008d 895594   		movl	%edx, -108(%ebp)
 5431              	L142:
 5432 0090 8B4594   		movl	-108(%ebp), %eax
 5433 0093 890424   		movl	%eax, (%esp)
 5434 0096 C745A0FF 		movl	$-1, -96(%ebp)
 5434      FFFFFF
 5435 009d E8000000 		call	__Unwind_SjLj_Resume
 5435      00
 5436              	L141:
 5437 00a2 8D45C8   		leal	-56(%ebp), %eax
 5438 00a5 890424   		movl	%eax, (%esp)
 5439 00a8 E8000000 		call	__ZNSaIcED1Ev
 5439      00
 5440 00ad 8D45C8   		leal	-56(%ebp), %eax
 5441 00b0 890424   		movl	%eax, (%esp)
 5442 00b3 E8000000 		call	__ZNSaIcEC1Ev
 5442      00
 5443 00b8 8D45C8   		leal	-56(%ebp), %eax
 5444 00bb 89442408 		movl	%eax, 8(%esp)
 5445 00bf 8B4514   		movl	20(%ebp), %eax
 5446 00c2 89442404 		movl	%eax, 4(%esp)
 5447 00c6 8B4508   		movl	8(%ebp), %eax
 5448 00c9 83C008   		addl	$8, %eax
 5449 00cc 890424   		movl	%eax, (%esp)
 5450 00cf C745A002 		movl	$2, -96(%ebp)
 5450      000000
 5451 00d6 E8000000 		call	__ZNSsC1EPKcRKSaIcE
 5451      00
GAS LISTING d:/MTK/MTK2503/MTK2503/11CW1418SP4_03_CORETEK03AE_11C_V1_GPRS_MMI/plutommi/Customer/ResGenerator/gcctmp/cck7daaa.s 			page 80


 5452 00db EB1C     		jmp	L145
 5453              	L144:
 5454 00dd 8B5594   		movl	-108(%ebp), %edx
 5455 00e0 895590   		movl	%edx, -112(%ebp)
 5456 00e3 8D45C8   		leal	-56(%ebp), %eax
 5457 00e6 890424   		movl	%eax, (%esp)
 5458 00e9 E8000000 		call	__ZNSaIcED1Ev
 5458      00
 5459 00ee 8B4590   		movl	-112(%ebp), %eax
 5460 00f1 894594   		movl	%eax, -108(%ebp)
 5461              	L146:
 5462 00f4 E9BD0000 		jmp	L156
 5462      00
 5463              	L145:
 5464 00f9 8D45C8   		leal	-56(%ebp), %eax
 5465 00fc 890424   		movl	%eax, (%esp)
 5466 00ff E8000000 		call	__ZNSaIcED1Ev
 5466      00
 5467 0104 8B5508   		movl	8(%ebp), %edx
 5468 0107 8B4518   		movl	24(%ebp), %eax
 5469 010a 89420C   		movl	%eax, 12(%edx)
 5470 010d 8B5508   		movl	8(%ebp), %edx
 5471 0110 8B451C   		movl	28(%ebp), %eax
 5472 0113 894210   		movl	%eax, 16(%edx)
 5473 0116 8B4508   		movl	8(%ebp), %eax
 5474 0119 05300200 		addl	$560, %eax
 5474      00
 5475 011e 890424   		movl	%eax, (%esp)
 5476 0121 E8000000 		call	__ZN21_ResgenImageOutStreamC1Ev
 5476      00
 5478              	LM225:
 5479 0126 8B4508   		movl	8(%ebp), %eax
 5480 0129 83C014   		addl	$20, %eax
 5481 012c 890424   		movl	%eax, (%esp)
 5482 012f C745A001 		movl	$1, -96(%ebp)
 5482      000000
 5483 0136 E82C0000 		call	_initImageProcessData
 5483      00
 5485              	LM226:
 5486 013b 8B5508   		movl	8(%ebp), %edx
 5487 013e 8B4508   		movl	8(%ebp), %eax
 5488 0141 05300200 		addl	$560, %eax
 5488      00
 5489 0146 89821802 		movl	%eax, 536(%edx)
 5489      0000
 5491              	LM227:
 5492 014c 8B5508   		movl	8(%ebp), %edx
 5493 014f 8B4520   		movl	32(%ebp), %eax
 5494 0152 89822802 		movl	%eax, 552(%edx)
 5494      0000
 5495 0158 E9850000 		jmp	L139
 5495      00
 5496              	L160:
 5497 015d 8D6D18   		leal	24(%ebp), %ebp
 5498 0160 8B55A0   		movl	-96(%ebp), %edx
 5499 0163 895580   		movl	%edx, -128(%ebp)
 5500 0166 8B45A4   		movl	-92(%ebp), %eax
GAS LISTING d:/MTK/MTK2503/MTK2503/11CW1418SP4_03_CORETEK03AE_11C_V1_GPRS_MMI/plutommi/Customer/ResGenerator/gcctmp/cck7daaa.s 			page 81


 5501 0169 894594   		movl	%eax, -108(%ebp)
 5502 016c 837D8001 		cmpl	$1, -128(%ebp)
 5503 0170 0F8467FF 		je	L144
 5503      FFFF
 5504 0176 837D8002 		cmpl	$2, -128(%ebp)
 5505 017a 0F84F9FE 		je	L140
 5505      FFFF
 5506              	L148:
 5507 0180 8B5594   		movl	-108(%ebp), %edx
 5508 0183 89558C   		movl	%edx, -116(%ebp)
 5509 0186 8B4508   		movl	8(%ebp), %eax
 5510 0189 05300200 		addl	$560, %eax
 5510      00
 5511 018e 890424   		movl	%eax, (%esp)
 5512 0191 E8000000 		call	__ZN21_ResgenImageOutStreamD1Ev
 5512      00
 5513 0196 8B458C   		movl	-116(%ebp), %eax
 5514 0199 894594   		movl	%eax, -108(%ebp)
 5515              	L150:
 5516              	L152:
 5517 019c 8B5594   		movl	-108(%ebp), %edx
 5518 019f 895588   		movl	%edx, -120(%ebp)
 5519 01a2 8B4508   		movl	8(%ebp), %eax
 5520 01a5 83C008   		addl	$8, %eax
 5521 01a8 890424   		movl	%eax, (%esp)
 5522 01ab E8000000 		call	__ZNSsD1Ev
 5522      00
 5523 01b0 8B4588   		movl	-120(%ebp), %eax
 5524 01b3 894594   		movl	%eax, -108(%ebp)
 5525              	L154:
 5526              	L156:
 5527 01b6 8B5594   		movl	-108(%ebp), %edx
 5528 01b9 895584   		movl	%edx, -124(%ebp)
 5529 01bc 8B4508   		movl	8(%ebp), %eax
 5530 01bf 83C004   		addl	$4, %eax
 5531 01c2 890424   		movl	%eax, (%esp)
 5532 01c5 E8000000 		call	__ZNSsD1Ev
 5532      00
 5533 01ca 8B4584   		movl	-124(%ebp), %eax
 5534 01cd 894594   		movl	%eax, -108(%ebp)
 5535              	L158:
 5536 01d0 8B5594   		movl	-108(%ebp), %edx
 5537 01d3 891424   		movl	%edx, (%esp)
 5538 01d6 C745A0FF 		movl	$-1, -96(%ebp)
 5538      FFFFFF
 5539 01dd E8000000 		call	__Unwind_SjLj_Resume
 5539      00
 5541              	LM228:
 5542              	L139:
 5543 01e2 8D459C   		leal	-100(%ebp), %eax
 5544 01e5 890424   		movl	%eax, (%esp)
 5545 01e8 E8000000 		call	__Unwind_SjLj_Unregister
 5545      00
 5546 01ed 81C48C00 		addl	$140, %esp
 5546      0000
 5547 01f3 5B       		popl	%ebx
 5548 01f4 5E       		popl	%esi
GAS LISTING d:/MTK/MTK2503/MTK2503/11CW1418SP4_03_CORETEK03AE_11C_V1_GPRS_MMI/plutommi/Customer/ResGenerator/gcctmp/cck7daaa.s 			page 82


 5549 01f5 5F       		popl	%edi
 5550 01f6 5D       		popl	%ebp
 5551 01f7 C3       		ret
 5552              	LBE51:
 5553              		.section	.gcc_except_table,""
 5554              	LLSDA2345:
 5555 001a FF       		.byte	0xff
 5556 001b FF       		.byte	0xff
 5557 001c 01       		.byte	0x1
 5558 001d 06       		.uleb128 LLSDACSE2345-LLSDACSB2345
 5559              	LLSDACSB2345:
 5560 001e 00       		.uleb128 0x0
 5561 001f 00       		.uleb128 0x0
 5562 0020 01       		.uleb128 0x1
 5563 0021 00       		.uleb128 0x0
 5564 0022 02       		.uleb128 0x2
 5565 0023 00       		.uleb128 0x0
 5566              	LLSDACSE2345:
 5567              		.section	.text$_ZN16ProcessImageDataC1EtPcS0_iii,"x"
 5568              		.linkonce discard
 5570              	Lscope32:
 5572              		.section	.text$_ZNSaI16ProcessImageDataEC1Ev,"x"
 5573              		.linkonce discard
 5574              		.align 2
 5577              	.globl __ZNSaI16ProcessImageDataEC1Ev
 5579              	__ZNSaI16ProcessImageDataEC1Ev:
 5581              	Ltext8:
   1:d:/MTK/MTK2503/MTK2503/11CW1418SP4_03_CORETEK03AE_11C_V1_GPRS_MMI/Tools/MinGW/include/c++/3.3.1/bits/stl_alloc.h **** // Allocators -*- C++ -*-
   2:d:/MTK/MTK2503/MTK2503/11CW1418SP4_03_CORETEK03AE_11C_V1_GPRS_MMI/Tools/MinGW/include/c++/3.3.1/bits/stl_alloc.h **** 
   3:d:/MTK/MTK2503/MTK2503/11CW1418SP4_03_CORETEK03AE_11C_V1_GPRS_MMI/Tools/MinGW/include/c++/3.3.1/bits/stl_alloc.h **** // Copyright (C) 2001, 2002, 2003 Free Software Foundation, Inc.
   4:d:/MTK/MTK2503/MTK2503/11CW1418SP4_03_CORETEK03AE_11C_V1_GPRS_MMI/Tools/MinGW/include/c++/3.3.1/bits/stl_alloc.h **** //
   5:d:/MTK/MTK2503/MTK2503/11CW1418SP4_03_CORETEK03AE_11C_V1_GPRS_MMI/Tools/MinGW/include/c++/3.3.1/bits/stl_alloc.h **** // This file is part of the GNU ISO C++ Library.  This library is free
   6:d:/MTK/MTK2503/MTK2503/11CW1418SP4_03_CORETEK03AE_11C_V1_GPRS_MMI/Tools/MinGW/include/c++/3.3.1/bits/stl_alloc.h **** // software; you can redistribute it and/or modify it under the
   7:d:/MTK/MTK2503/MTK2503/11CW1418SP4_03_CORETEK03AE_11C_V1_GPRS_MMI/Tools/MinGW/include/c++/3.3.1/bits/stl_alloc.h **** // terms of the GNU General Public License as published by the
   8:d:/MTK/MTK2503/MTK2503/11CW1418SP4_03_CORETEK03AE_11C_V1_GPRS_MMI/Tools/MinGW/include/c++/3.3.1/bits/stl_alloc.h **** // Free Software Foundation; either version 2, or (at your option)
   9:d:/MTK/MTK2503/MTK2503/11CW1418SP4_03_CORETEK03AE_11C_V1_GPRS_MMI/Tools/MinGW/include/c++/3.3.1/bits/stl_alloc.h **** // any later version.
  10:d:/MTK/MTK2503/MTK2503/11CW1418SP4_03_CORETEK03AE_11C_V1_GPRS_MMI/Tools/MinGW/include/c++/3.3.1/bits/stl_alloc.h **** 
  11:d:/MTK/MTK2503/MTK2503/11CW1418SP4_03_CORETEK03AE_11C_V1_GPRS_MMI/Tools/MinGW/include/c++/3.3.1/bits/stl_alloc.h **** // This library is distributed in the hope that it will be useful,
  12:d:/MTK/MTK2503/MTK2503/11CW1418SP4_03_CORETEK03AE_11C_V1_GPRS_MMI/Tools/MinGW/include/c++/3.3.1/bits/stl_alloc.h **** // but WITHOUT ANY WARRANTY; without even the implied warranty of
  13:d:/MTK/MTK2503/MTK2503/11CW1418SP4_03_CORETEK03AE_11C_V1_GPRS_MMI/Tools/MinGW/include/c++/3.3.1/bits/stl_alloc.h **** // MERCHANTABILITY or FITNESS FOR A PARTICULAR PURPOSE.  See the
  14:d:/MTK/MTK2503/MTK2503/11CW1418SP4_03_CORETEK03AE_11C_V1_GPRS_MMI/Tools/MinGW/include/c++/3.3.1/bits/stl_alloc.h **** // GNU General Public License for more details.
  15:d:/MTK/MTK2503/MTK2503/11CW1418SP4_03_CORETEK03AE_11C_V1_GPRS_MMI/Tools/MinGW/include/c++/3.3.1/bits/stl_alloc.h **** 
  16:d:/MTK/MTK2503/MTK2503/11CW1418SP4_03_CORETEK03AE_11C_V1_GPRS_MMI/Tools/MinGW/include/c++/3.3.1/bits/stl_alloc.h **** // You should have received a copy of the GNU General Public License along
  17:d:/MTK/MTK2503/MTK2503/11CW1418SP4_03_CORETEK03AE_11C_V1_GPRS_MMI/Tools/MinGW/include/c++/3.3.1/bits/stl_alloc.h **** // with this library; see the file COPYING.  If not, write to the Free
  18:d:/MTK/MTK2503/MTK2503/11CW1418SP4_03_CORETEK03AE_11C_V1_GPRS_MMI/Tools/MinGW/include/c++/3.3.1/bits/stl_alloc.h **** // Software Foundation, 59 Temple Place - Suite 330, Boston, MA 02111-1307,
  19:d:/MTK/MTK2503/MTK2503/11CW1418SP4_03_CORETEK03AE_11C_V1_GPRS_MMI/Tools/MinGW/include/c++/3.3.1/bits/stl_alloc.h **** // USA.
  20:d:/MTK/MTK2503/MTK2503/11CW1418SP4_03_CORETEK03AE_11C_V1_GPRS_MMI/Tools/MinGW/include/c++/3.3.1/bits/stl_alloc.h **** 
  21:d:/MTK/MTK2503/MTK2503/11CW1418SP4_03_CORETEK03AE_11C_V1_GPRS_MMI/Tools/MinGW/include/c++/3.3.1/bits/stl_alloc.h **** // As a special exception, you may use this file as part of a free software
  22:d:/MTK/MTK2503/MTK2503/11CW1418SP4_03_CORETEK03AE_11C_V1_GPRS_MMI/Tools/MinGW/include/c++/3.3.1/bits/stl_alloc.h **** // library without restriction.  Specifically, if other files instantiate
  23:d:/MTK/MTK2503/MTK2503/11CW1418SP4_03_CORETEK03AE_11C_V1_GPRS_MMI/Tools/MinGW/include/c++/3.3.1/bits/stl_alloc.h **** // templates or use macros or inline functions from this file, or you compile
  24:d:/MTK/MTK2503/MTK2503/11CW1418SP4_03_CORETEK03AE_11C_V1_GPRS_MMI/Tools/MinGW/include/c++/3.3.1/bits/stl_alloc.h **** // this file and link it with other files to produce an executable, this
  25:d:/MTK/MTK2503/MTK2503/11CW1418SP4_03_CORETEK03AE_11C_V1_GPRS_MMI/Tools/MinGW/include/c++/3.3.1/bits/stl_alloc.h **** // file does not by itself cause the resulting executable to be covered by
  26:d:/MTK/MTK2503/MTK2503/11CW1418SP4_03_CORETEK03AE_11C_V1_GPRS_MMI/Tools/MinGW/include/c++/3.3.1/bits/stl_alloc.h **** // the GNU General Public License.  This exception does not however
  27:d:/MTK/MTK2503/MTK2503/11CW1418SP4_03_CORETEK03AE_11C_V1_GPRS_MMI/Tools/MinGW/include/c++/3.3.1/bits/stl_alloc.h **** // invalidate any other reasons why the executable file might be covered by
  28:d:/MTK/MTK2503/MTK2503/11CW1418SP4_03_CORETEK03AE_11C_V1_GPRS_MMI/Tools/MinGW/include/c++/3.3.1/bits/stl_alloc.h **** // the GNU General Public License.
  29:d:/MTK/MTK2503/MTK2503/11CW1418SP4_03_CORETEK03AE_11C_V1_GPRS_MMI/Tools/MinGW/include/c++/3.3.1/bits/stl_alloc.h **** 
  30:d:/MTK/MTK2503/MTK2503/11CW1418SP4_03_CORETEK03AE_11C_V1_GPRS_MMI/Tools/MinGW/include/c++/3.3.1/bits/stl_alloc.h **** /*
GAS LISTING d:/MTK/MTK2503/MTK2503/11CW1418SP4_03_CORETEK03AE_11C_V1_GPRS_MMI/plutommi/Customer/ResGenerator/gcctmp/cck7daaa.s 			page 83


  31:d:/MTK/MTK2503/MTK2503/11CW1418SP4_03_CORETEK03AE_11C_V1_GPRS_MMI/Tools/MinGW/include/c++/3.3.1/bits/stl_alloc.h ****  * Copyright (c) 1996-1997
  32:d:/MTK/MTK2503/MTK2503/11CW1418SP4_03_CORETEK03AE_11C_V1_GPRS_MMI/Tools/MinGW/include/c++/3.3.1/bits/stl_alloc.h ****  * Silicon Graphics Computer Systems, Inc.
  33:d:/MTK/MTK2503/MTK2503/11CW1418SP4_03_CORETEK03AE_11C_V1_GPRS_MMI/Tools/MinGW/include/c++/3.3.1/bits/stl_alloc.h ****  *
  34:d:/MTK/MTK2503/MTK2503/11CW1418SP4_03_CORETEK03AE_11C_V1_GPRS_MMI/Tools/MinGW/include/c++/3.3.1/bits/stl_alloc.h ****  * Permission to use, copy, modify, distribute and sell this software
  35:d:/MTK/MTK2503/MTK2503/11CW1418SP4_03_CORETEK03AE_11C_V1_GPRS_MMI/Tools/MinGW/include/c++/3.3.1/bits/stl_alloc.h ****  * and its documentation for any purpose is hereby granted without fee,
  36:d:/MTK/MTK2503/MTK2503/11CW1418SP4_03_CORETEK03AE_11C_V1_GPRS_MMI/Tools/MinGW/include/c++/3.3.1/bits/stl_alloc.h ****  * provided that the above copyright notice appear in all copies and
  37:d:/MTK/MTK2503/MTK2503/11CW1418SP4_03_CORETEK03AE_11C_V1_GPRS_MMI/Tools/MinGW/include/c++/3.3.1/bits/stl_alloc.h ****  * that both that copyright notice and this permission notice appear
  38:d:/MTK/MTK2503/MTK2503/11CW1418SP4_03_CORETEK03AE_11C_V1_GPRS_MMI/Tools/MinGW/include/c++/3.3.1/bits/stl_alloc.h ****  * in supporting documentation.  Silicon Graphics makes no
  39:d:/MTK/MTK2503/MTK2503/11CW1418SP4_03_CORETEK03AE_11C_V1_GPRS_MMI/Tools/MinGW/include/c++/3.3.1/bits/stl_alloc.h ****  * representations about the suitability of this software for any
  40:d:/MTK/MTK2503/MTK2503/11CW1418SP4_03_CORETEK03AE_11C_V1_GPRS_MMI/Tools/MinGW/include/c++/3.3.1/bits/stl_alloc.h ****  * purpose.  It is provided "as is" without express or implied warranty.
  41:d:/MTK/MTK2503/MTK2503/11CW1418SP4_03_CORETEK03AE_11C_V1_GPRS_MMI/Tools/MinGW/include/c++/3.3.1/bits/stl_alloc.h ****  */
  42:d:/MTK/MTK2503/MTK2503/11CW1418SP4_03_CORETEK03AE_11C_V1_GPRS_MMI/Tools/MinGW/include/c++/3.3.1/bits/stl_alloc.h **** 
  43:d:/MTK/MTK2503/MTK2503/11CW1418SP4_03_CORETEK03AE_11C_V1_GPRS_MMI/Tools/MinGW/include/c++/3.3.1/bits/stl_alloc.h **** /** @file stl_alloc.h
  44:d:/MTK/MTK2503/MTK2503/11CW1418SP4_03_CORETEK03AE_11C_V1_GPRS_MMI/Tools/MinGW/include/c++/3.3.1/bits/stl_alloc.h ****  *  This is an internal header file, included by other library headers.
  45:d:/MTK/MTK2503/MTK2503/11CW1418SP4_03_CORETEK03AE_11C_V1_GPRS_MMI/Tools/MinGW/include/c++/3.3.1/bits/stl_alloc.h ****  *  You should not attempt to use it directly.
  46:d:/MTK/MTK2503/MTK2503/11CW1418SP4_03_CORETEK03AE_11C_V1_GPRS_MMI/Tools/MinGW/include/c++/3.3.1/bits/stl_alloc.h ****  */
  47:d:/MTK/MTK2503/MTK2503/11CW1418SP4_03_CORETEK03AE_11C_V1_GPRS_MMI/Tools/MinGW/include/c++/3.3.1/bits/stl_alloc.h **** 
  48:d:/MTK/MTK2503/MTK2503/11CW1418SP4_03_CORETEK03AE_11C_V1_GPRS_MMI/Tools/MinGW/include/c++/3.3.1/bits/stl_alloc.h **** #ifndef __GLIBCPP_INTERNAL_ALLOC_H
  49:d:/MTK/MTK2503/MTK2503/11CW1418SP4_03_CORETEK03AE_11C_V1_GPRS_MMI/Tools/MinGW/include/c++/3.3.1/bits/stl_alloc.h **** #define __GLIBCPP_INTERNAL_ALLOC_H
  50:d:/MTK/MTK2503/MTK2503/11CW1418SP4_03_CORETEK03AE_11C_V1_GPRS_MMI/Tools/MinGW/include/c++/3.3.1/bits/stl_alloc.h **** 
  51:d:/MTK/MTK2503/MTK2503/11CW1418SP4_03_CORETEK03AE_11C_V1_GPRS_MMI/Tools/MinGW/include/c++/3.3.1/bits/stl_alloc.h **** /**
  52:d:/MTK/MTK2503/MTK2503/11CW1418SP4_03_CORETEK03AE_11C_V1_GPRS_MMI/Tools/MinGW/include/c++/3.3.1/bits/stl_alloc.h ****  *  @defgroup Allocators Memory Allocators
  53:d:/MTK/MTK2503/MTK2503/11CW1418SP4_03_CORETEK03AE_11C_V1_GPRS_MMI/Tools/MinGW/include/c++/3.3.1/bits/stl_alloc.h ****  *  @if maint
  54:d:/MTK/MTK2503/MTK2503/11CW1418SP4_03_CORETEK03AE_11C_V1_GPRS_MMI/Tools/MinGW/include/c++/3.3.1/bits/stl_alloc.h ****  *  stl_alloc.h implements some node allocators.  These are NOT the same as
  55:d:/MTK/MTK2503/MTK2503/11CW1418SP4_03_CORETEK03AE_11C_V1_GPRS_MMI/Tools/MinGW/include/c++/3.3.1/bits/stl_alloc.h ****  *  allocators in the C++ standard, nor in the original H-P STL.  They do not
  56:d:/MTK/MTK2503/MTK2503/11CW1418SP4_03_CORETEK03AE_11C_V1_GPRS_MMI/Tools/MinGW/include/c++/3.3.1/bits/stl_alloc.h ****  *  encapsulate different pointer types; we assume that there is only one
  57:d:/MTK/MTK2503/MTK2503/11CW1418SP4_03_CORETEK03AE_11C_V1_GPRS_MMI/Tools/MinGW/include/c++/3.3.1/bits/stl_alloc.h ****  *  pointer type.  The C++ standard allocators are intended to allocate
  58:d:/MTK/MTK2503/MTK2503/11CW1418SP4_03_CORETEK03AE_11C_V1_GPRS_MMI/Tools/MinGW/include/c++/3.3.1/bits/stl_alloc.h ****  *  individual objects, not pools or arenas.
  59:d:/MTK/MTK2503/MTK2503/11CW1418SP4_03_CORETEK03AE_11C_V1_GPRS_MMI/Tools/MinGW/include/c++/3.3.1/bits/stl_alloc.h ****  *
  60:d:/MTK/MTK2503/MTK2503/11CW1418SP4_03_CORETEK03AE_11C_V1_GPRS_MMI/Tools/MinGW/include/c++/3.3.1/bits/stl_alloc.h ****  *  In this file allocators are of two different styles:  "standard" and
  61:d:/MTK/MTK2503/MTK2503/11CW1418SP4_03_CORETEK03AE_11C_V1_GPRS_MMI/Tools/MinGW/include/c++/3.3.1/bits/stl_alloc.h ****  *  "SGI" (quotes included).  "Standard" allocators conform to 20.4.  "SGI"
  62:d:/MTK/MTK2503/MTK2503/11CW1418SP4_03_CORETEK03AE_11C_V1_GPRS_MMI/Tools/MinGW/include/c++/3.3.1/bits/stl_alloc.h ****  *  allocators differ in AT LEAST the following ways (add to this list as you
  63:d:/MTK/MTK2503/MTK2503/11CW1418SP4_03_CORETEK03AE_11C_V1_GPRS_MMI/Tools/MinGW/include/c++/3.3.1/bits/stl_alloc.h ****  *  discover them):
  64:d:/MTK/MTK2503/MTK2503/11CW1418SP4_03_CORETEK03AE_11C_V1_GPRS_MMI/Tools/MinGW/include/c++/3.3.1/bits/stl_alloc.h ****  *
  65:d:/MTK/MTK2503/MTK2503/11CW1418SP4_03_CORETEK03AE_11C_V1_GPRS_MMI/Tools/MinGW/include/c++/3.3.1/bits/stl_alloc.h ****  *   - "Standard" allocate() takes two parameters (n_count,hint=0) but "SGI"
  66:d:/MTK/MTK2503/MTK2503/11CW1418SP4_03_CORETEK03AE_11C_V1_GPRS_MMI/Tools/MinGW/include/c++/3.3.1/bits/stl_alloc.h ****  *     allocate() takes one paramter (n_size).
  67:d:/MTK/MTK2503/MTK2503/11CW1418SP4_03_CORETEK03AE_11C_V1_GPRS_MMI/Tools/MinGW/include/c++/3.3.1/bits/stl_alloc.h ****  *   - Likewise, "standard" deallocate()'s argument is a count, but in "SGI"
  68:d:/MTK/MTK2503/MTK2503/11CW1418SP4_03_CORETEK03AE_11C_V1_GPRS_MMI/Tools/MinGW/include/c++/3.3.1/bits/stl_alloc.h ****  *     is a byte size.
  69:d:/MTK/MTK2503/MTK2503/11CW1418SP4_03_CORETEK03AE_11C_V1_GPRS_MMI/Tools/MinGW/include/c++/3.3.1/bits/stl_alloc.h ****  *   - max_size(), construct(), and destroy() are missing in "SGI" allocators.
  70:d:/MTK/MTK2503/MTK2503/11CW1418SP4_03_CORETEK03AE_11C_V1_GPRS_MMI/Tools/MinGW/include/c++/3.3.1/bits/stl_alloc.h ****  *   - reallocate(p,oldsz,newsz) is added in "SGI", and behaves as
  71:d:/MTK/MTK2503/MTK2503/11CW1418SP4_03_CORETEK03AE_11C_V1_GPRS_MMI/Tools/MinGW/include/c++/3.3.1/bits/stl_alloc.h ****  *     if p=realloc(p,newsz).
  72:d:/MTK/MTK2503/MTK2503/11CW1418SP4_03_CORETEK03AE_11C_V1_GPRS_MMI/Tools/MinGW/include/c++/3.3.1/bits/stl_alloc.h ****  *
  73:d:/MTK/MTK2503/MTK2503/11CW1418SP4_03_CORETEK03AE_11C_V1_GPRS_MMI/Tools/MinGW/include/c++/3.3.1/bits/stl_alloc.h ****  *  "SGI" allocators may be wrapped in __allocator to convert the interface
  74:d:/MTK/MTK2503/MTK2503/11CW1418SP4_03_CORETEK03AE_11C_V1_GPRS_MMI/Tools/MinGW/include/c++/3.3.1/bits/stl_alloc.h ****  *  into a "standard" one.
  75:d:/MTK/MTK2503/MTK2503/11CW1418SP4_03_CORETEK03AE_11C_V1_GPRS_MMI/Tools/MinGW/include/c++/3.3.1/bits/stl_alloc.h ****  *  @endif
  76:d:/MTK/MTK2503/MTK2503/11CW1418SP4_03_CORETEK03AE_11C_V1_GPRS_MMI/Tools/MinGW/include/c++/3.3.1/bits/stl_alloc.h ****  *
  77:d:/MTK/MTK2503/MTK2503/11CW1418SP4_03_CORETEK03AE_11C_V1_GPRS_MMI/Tools/MinGW/include/c++/3.3.1/bits/stl_alloc.h ****  *  @note The @c reallocate member functions have been deprecated for 3.2
  78:d:/MTK/MTK2503/MTK2503/11CW1418SP4_03_CORETEK03AE_11C_V1_GPRS_MMI/Tools/MinGW/include/c++/3.3.1/bits/stl_alloc.h ****  *        and will be removed in 3.4.  You must define @c _GLIBCPP_DEPRECATED
  79:d:/MTK/MTK2503/MTK2503/11CW1418SP4_03_CORETEK03AE_11C_V1_GPRS_MMI/Tools/MinGW/include/c++/3.3.1/bits/stl_alloc.h ****  *        to make this visible in 3.2; see c++config.h.
  80:d:/MTK/MTK2503/MTK2503/11CW1418SP4_03_CORETEK03AE_11C_V1_GPRS_MMI/Tools/MinGW/include/c++/3.3.1/bits/stl_alloc.h ****  *
  81:d:/MTK/MTK2503/MTK2503/11CW1418SP4_03_CORETEK03AE_11C_V1_GPRS_MMI/Tools/MinGW/include/c++/3.3.1/bits/stl_alloc.h ****  *  The canonical description of these classes is in docs/html/ext/howto.html
  82:d:/MTK/MTK2503/MTK2503/11CW1418SP4_03_CORETEK03AE_11C_V1_GPRS_MMI/Tools/MinGW/include/c++/3.3.1/bits/stl_alloc.h ****  *  or online at http://gcc.gnu.org/onlinedocs/libstdc++/ext/howto.html#3
  83:d:/MTK/MTK2503/MTK2503/11CW1418SP4_03_CORETEK03AE_11C_V1_GPRS_MMI/Tools/MinGW/include/c++/3.3.1/bits/stl_alloc.h **** */
  84:d:/MTK/MTK2503/MTK2503/11CW1418SP4_03_CORETEK03AE_11C_V1_GPRS_MMI/Tools/MinGW/include/c++/3.3.1/bits/stl_alloc.h **** 
  85:d:/MTK/MTK2503/MTK2503/11CW1418SP4_03_CORETEK03AE_11C_V1_GPRS_MMI/Tools/MinGW/include/c++/3.3.1/bits/stl_alloc.h **** #include <cstddef>
  86:d:/MTK/MTK2503/MTK2503/11CW1418SP4_03_CORETEK03AE_11C_V1_GPRS_MMI/Tools/MinGW/include/c++/3.3.1/bits/stl_alloc.h **** #include <cstdlib>
  87:d:/MTK/MTK2503/MTK2503/11CW1418SP4_03_CORETEK03AE_11C_V1_GPRS_MMI/Tools/MinGW/include/c++/3.3.1/bits/stl_alloc.h **** #include <cstring>
GAS LISTING d:/MTK/MTK2503/MTK2503/11CW1418SP4_03_CORETEK03AE_11C_V1_GPRS_MMI/plutommi/Customer/ResGenerator/gcctmp/cck7daaa.s 			page 84


  88:d:/MTK/MTK2503/MTK2503/11CW1418SP4_03_CORETEK03AE_11C_V1_GPRS_MMI/Tools/MinGW/include/c++/3.3.1/bits/stl_alloc.h **** #include <bits/functexcept.h>   // For __throw_bad_alloc
  89:d:/MTK/MTK2503/MTK2503/11CW1418SP4_03_CORETEK03AE_11C_V1_GPRS_MMI/Tools/MinGW/include/c++/3.3.1/bits/stl_alloc.h **** #include <bits/stl_threads.h>
  90:d:/MTK/MTK2503/MTK2503/11CW1418SP4_03_CORETEK03AE_11C_V1_GPRS_MMI/Tools/MinGW/include/c++/3.3.1/bits/stl_alloc.h **** 
  91:d:/MTK/MTK2503/MTK2503/11CW1418SP4_03_CORETEK03AE_11C_V1_GPRS_MMI/Tools/MinGW/include/c++/3.3.1/bits/stl_alloc.h **** #include <bits/atomicity.h>
  92:d:/MTK/MTK2503/MTK2503/11CW1418SP4_03_CORETEK03AE_11C_V1_GPRS_MMI/Tools/MinGW/include/c++/3.3.1/bits/stl_alloc.h **** 
  93:d:/MTK/MTK2503/MTK2503/11CW1418SP4_03_CORETEK03AE_11C_V1_GPRS_MMI/Tools/MinGW/include/c++/3.3.1/bits/stl_alloc.h **** namespace std
  94:d:/MTK/MTK2503/MTK2503/11CW1418SP4_03_CORETEK03AE_11C_V1_GPRS_MMI/Tools/MinGW/include/c++/3.3.1/bits/stl_alloc.h **** {
  95:d:/MTK/MTK2503/MTK2503/11CW1418SP4_03_CORETEK03AE_11C_V1_GPRS_MMI/Tools/MinGW/include/c++/3.3.1/bits/stl_alloc.h ****   /**
  96:d:/MTK/MTK2503/MTK2503/11CW1418SP4_03_CORETEK03AE_11C_V1_GPRS_MMI/Tools/MinGW/include/c++/3.3.1/bits/stl_alloc.h ****    *  @if maint
  97:d:/MTK/MTK2503/MTK2503/11CW1418SP4_03_CORETEK03AE_11C_V1_GPRS_MMI/Tools/MinGW/include/c++/3.3.1/bits/stl_alloc.h ****    *  A new-based allocator, as required by the standard.  Allocation and
  98:d:/MTK/MTK2503/MTK2503/11CW1418SP4_03_CORETEK03AE_11C_V1_GPRS_MMI/Tools/MinGW/include/c++/3.3.1/bits/stl_alloc.h ****    *  deallocation forward to global new and delete.  "SGI" style, minus
  99:d:/MTK/MTK2503/MTK2503/11CW1418SP4_03_CORETEK03AE_11C_V1_GPRS_MMI/Tools/MinGW/include/c++/3.3.1/bits/stl_alloc.h ****    *  reallocate().
 100:d:/MTK/MTK2503/MTK2503/11CW1418SP4_03_CORETEK03AE_11C_V1_GPRS_MMI/Tools/MinGW/include/c++/3.3.1/bits/stl_alloc.h ****    *  @endif
 101:d:/MTK/MTK2503/MTK2503/11CW1418SP4_03_CORETEK03AE_11C_V1_GPRS_MMI/Tools/MinGW/include/c++/3.3.1/bits/stl_alloc.h ****    *  (See @link Allocators allocators info @endlink for more.)
 102:d:/MTK/MTK2503/MTK2503/11CW1418SP4_03_CORETEK03AE_11C_V1_GPRS_MMI/Tools/MinGW/include/c++/3.3.1/bits/stl_alloc.h ****    */
 103:d:/MTK/MTK2503/MTK2503/11CW1418SP4_03_CORETEK03AE_11C_V1_GPRS_MMI/Tools/MinGW/include/c++/3.3.1/bits/stl_alloc.h ****   class __new_alloc
 104:d:/MTK/MTK2503/MTK2503/11CW1418SP4_03_CORETEK03AE_11C_V1_GPRS_MMI/Tools/MinGW/include/c++/3.3.1/bits/stl_alloc.h ****   {
 105:d:/MTK/MTK2503/MTK2503/11CW1418SP4_03_CORETEK03AE_11C_V1_GPRS_MMI/Tools/MinGW/include/c++/3.3.1/bits/stl_alloc.h ****   public:
 106:d:/MTK/MTK2503/MTK2503/11CW1418SP4_03_CORETEK03AE_11C_V1_GPRS_MMI/Tools/MinGW/include/c++/3.3.1/bits/stl_alloc.h ****     static void*
 107:d:/MTK/MTK2503/MTK2503/11CW1418SP4_03_CORETEK03AE_11C_V1_GPRS_MMI/Tools/MinGW/include/c++/3.3.1/bits/stl_alloc.h ****     allocate(size_t __n)
 108:d:/MTK/MTK2503/MTK2503/11CW1418SP4_03_CORETEK03AE_11C_V1_GPRS_MMI/Tools/MinGW/include/c++/3.3.1/bits/stl_alloc.h ****     { return ::operator new(__n); }
 109:d:/MTK/MTK2503/MTK2503/11CW1418SP4_03_CORETEK03AE_11C_V1_GPRS_MMI/Tools/MinGW/include/c++/3.3.1/bits/stl_alloc.h **** 
 110:d:/MTK/MTK2503/MTK2503/11CW1418SP4_03_CORETEK03AE_11C_V1_GPRS_MMI/Tools/MinGW/include/c++/3.3.1/bits/stl_alloc.h ****     static void
 111:d:/MTK/MTK2503/MTK2503/11CW1418SP4_03_CORETEK03AE_11C_V1_GPRS_MMI/Tools/MinGW/include/c++/3.3.1/bits/stl_alloc.h ****     deallocate(void* __p, size_t)
 112:d:/MTK/MTK2503/MTK2503/11CW1418SP4_03_CORETEK03AE_11C_V1_GPRS_MMI/Tools/MinGW/include/c++/3.3.1/bits/stl_alloc.h ****     { ::operator delete(__p); }
 113:d:/MTK/MTK2503/MTK2503/11CW1418SP4_03_CORETEK03AE_11C_V1_GPRS_MMI/Tools/MinGW/include/c++/3.3.1/bits/stl_alloc.h ****   };
 114:d:/MTK/MTK2503/MTK2503/11CW1418SP4_03_CORETEK03AE_11C_V1_GPRS_MMI/Tools/MinGW/include/c++/3.3.1/bits/stl_alloc.h **** 
 115:d:/MTK/MTK2503/MTK2503/11CW1418SP4_03_CORETEK03AE_11C_V1_GPRS_MMI/Tools/MinGW/include/c++/3.3.1/bits/stl_alloc.h **** 
 116:d:/MTK/MTK2503/MTK2503/11CW1418SP4_03_CORETEK03AE_11C_V1_GPRS_MMI/Tools/MinGW/include/c++/3.3.1/bits/stl_alloc.h ****   /**
 117:d:/MTK/MTK2503/MTK2503/11CW1418SP4_03_CORETEK03AE_11C_V1_GPRS_MMI/Tools/MinGW/include/c++/3.3.1/bits/stl_alloc.h ****    *  @if maint
 118:d:/MTK/MTK2503/MTK2503/11CW1418SP4_03_CORETEK03AE_11C_V1_GPRS_MMI/Tools/MinGW/include/c++/3.3.1/bits/stl_alloc.h ****    *  A malloc-based allocator.  Typically slower than the
 119:d:/MTK/MTK2503/MTK2503/11CW1418SP4_03_CORETEK03AE_11C_V1_GPRS_MMI/Tools/MinGW/include/c++/3.3.1/bits/stl_alloc.h ****    *  __default_alloc_template (below).  Typically thread-safe and more
 120:d:/MTK/MTK2503/MTK2503/11CW1418SP4_03_CORETEK03AE_11C_V1_GPRS_MMI/Tools/MinGW/include/c++/3.3.1/bits/stl_alloc.h ****    *  storage efficient.  The template argument is unused and is only present
 121:d:/MTK/MTK2503/MTK2503/11CW1418SP4_03_CORETEK03AE_11C_V1_GPRS_MMI/Tools/MinGW/include/c++/3.3.1/bits/stl_alloc.h ****    *  to permit multiple instantiations (but see __default_alloc_template
 122:d:/MTK/MTK2503/MTK2503/11CW1418SP4_03_CORETEK03AE_11C_V1_GPRS_MMI/Tools/MinGW/include/c++/3.3.1/bits/stl_alloc.h ****    *  for caveats).  "SGI" style, plus __set_malloc_handler for OOM conditions.
 123:d:/MTK/MTK2503/MTK2503/11CW1418SP4_03_CORETEK03AE_11C_V1_GPRS_MMI/Tools/MinGW/include/c++/3.3.1/bits/stl_alloc.h ****    *  @endif
 124:d:/MTK/MTK2503/MTK2503/11CW1418SP4_03_CORETEK03AE_11C_V1_GPRS_MMI/Tools/MinGW/include/c++/3.3.1/bits/stl_alloc.h ****    *  (See @link Allocators allocators info @endlink for more.)
 125:d:/MTK/MTK2503/MTK2503/11CW1418SP4_03_CORETEK03AE_11C_V1_GPRS_MMI/Tools/MinGW/include/c++/3.3.1/bits/stl_alloc.h ****    */
 126:d:/MTK/MTK2503/MTK2503/11CW1418SP4_03_CORETEK03AE_11C_V1_GPRS_MMI/Tools/MinGW/include/c++/3.3.1/bits/stl_alloc.h ****   template<int __inst>
 127:d:/MTK/MTK2503/MTK2503/11CW1418SP4_03_CORETEK03AE_11C_V1_GPRS_MMI/Tools/MinGW/include/c++/3.3.1/bits/stl_alloc.h ****     class __malloc_alloc_template
 128:d:/MTK/MTK2503/MTK2503/11CW1418SP4_03_CORETEK03AE_11C_V1_GPRS_MMI/Tools/MinGW/include/c++/3.3.1/bits/stl_alloc.h ****     {
 129:d:/MTK/MTK2503/MTK2503/11CW1418SP4_03_CORETEK03AE_11C_V1_GPRS_MMI/Tools/MinGW/include/c++/3.3.1/bits/stl_alloc.h ****     private:
 130:d:/MTK/MTK2503/MTK2503/11CW1418SP4_03_CORETEK03AE_11C_V1_GPRS_MMI/Tools/MinGW/include/c++/3.3.1/bits/stl_alloc.h ****       static void* _S_oom_malloc(size_t);
 131:d:/MTK/MTK2503/MTK2503/11CW1418SP4_03_CORETEK03AE_11C_V1_GPRS_MMI/Tools/MinGW/include/c++/3.3.1/bits/stl_alloc.h ****       static void* _S_oom_realloc(void*, size_t);
 132:d:/MTK/MTK2503/MTK2503/11CW1418SP4_03_CORETEK03AE_11C_V1_GPRS_MMI/Tools/MinGW/include/c++/3.3.1/bits/stl_alloc.h ****       static void (* __malloc_alloc_oom_handler)();
 133:d:/MTK/MTK2503/MTK2503/11CW1418SP4_03_CORETEK03AE_11C_V1_GPRS_MMI/Tools/MinGW/include/c++/3.3.1/bits/stl_alloc.h **** 
 134:d:/MTK/MTK2503/MTK2503/11CW1418SP4_03_CORETEK03AE_11C_V1_GPRS_MMI/Tools/MinGW/include/c++/3.3.1/bits/stl_alloc.h ****     public:
 135:d:/MTK/MTK2503/MTK2503/11CW1418SP4_03_CORETEK03AE_11C_V1_GPRS_MMI/Tools/MinGW/include/c++/3.3.1/bits/stl_alloc.h ****       static void*
 136:d:/MTK/MTK2503/MTK2503/11CW1418SP4_03_CORETEK03AE_11C_V1_GPRS_MMI/Tools/MinGW/include/c++/3.3.1/bits/stl_alloc.h ****       allocate(size_t __n)
 137:d:/MTK/MTK2503/MTK2503/11CW1418SP4_03_CORETEK03AE_11C_V1_GPRS_MMI/Tools/MinGW/include/c++/3.3.1/bits/stl_alloc.h ****       {
 138:d:/MTK/MTK2503/MTK2503/11CW1418SP4_03_CORETEK03AE_11C_V1_GPRS_MMI/Tools/MinGW/include/c++/3.3.1/bits/stl_alloc.h ****         void* __result = malloc(__n);
 139:d:/MTK/MTK2503/MTK2503/11CW1418SP4_03_CORETEK03AE_11C_V1_GPRS_MMI/Tools/MinGW/include/c++/3.3.1/bits/stl_alloc.h ****         if (__builtin_expect(__result == 0, 0))
 140:d:/MTK/MTK2503/MTK2503/11CW1418SP4_03_CORETEK03AE_11C_V1_GPRS_MMI/Tools/MinGW/include/c++/3.3.1/bits/stl_alloc.h **** 	  __result = _S_oom_malloc(__n);
 141:d:/MTK/MTK2503/MTK2503/11CW1418SP4_03_CORETEK03AE_11C_V1_GPRS_MMI/Tools/MinGW/include/c++/3.3.1/bits/stl_alloc.h ****         return __result;
 142:d:/MTK/MTK2503/MTK2503/11CW1418SP4_03_CORETEK03AE_11C_V1_GPRS_MMI/Tools/MinGW/include/c++/3.3.1/bits/stl_alloc.h ****       }
 143:d:/MTK/MTK2503/MTK2503/11CW1418SP4_03_CORETEK03AE_11C_V1_GPRS_MMI/Tools/MinGW/include/c++/3.3.1/bits/stl_alloc.h **** 
 144:d:/MTK/MTK2503/MTK2503/11CW1418SP4_03_CORETEK03AE_11C_V1_GPRS_MMI/Tools/MinGW/include/c++/3.3.1/bits/stl_alloc.h ****       static void
GAS LISTING d:/MTK/MTK2503/MTK2503/11CW1418SP4_03_CORETEK03AE_11C_V1_GPRS_MMI/plutommi/Customer/ResGenerator/gcctmp/cck7daaa.s 			page 85


 145:d:/MTK/MTK2503/MTK2503/11CW1418SP4_03_CORETEK03AE_11C_V1_GPRS_MMI/Tools/MinGW/include/c++/3.3.1/bits/stl_alloc.h ****       deallocate(void* __p, size_t /* __n */)
 146:d:/MTK/MTK2503/MTK2503/11CW1418SP4_03_CORETEK03AE_11C_V1_GPRS_MMI/Tools/MinGW/include/c++/3.3.1/bits/stl_alloc.h ****       { free(__p); }
 147:d:/MTK/MTK2503/MTK2503/11CW1418SP4_03_CORETEK03AE_11C_V1_GPRS_MMI/Tools/MinGW/include/c++/3.3.1/bits/stl_alloc.h **** 
 148:d:/MTK/MTK2503/MTK2503/11CW1418SP4_03_CORETEK03AE_11C_V1_GPRS_MMI/Tools/MinGW/include/c++/3.3.1/bits/stl_alloc.h ****       static void*
 149:d:/MTK/MTK2503/MTK2503/11CW1418SP4_03_CORETEK03AE_11C_V1_GPRS_MMI/Tools/MinGW/include/c++/3.3.1/bits/stl_alloc.h ****       reallocate(void* __p, size_t /* old_sz */, size_t __new_sz)
 150:d:/MTK/MTK2503/MTK2503/11CW1418SP4_03_CORETEK03AE_11C_V1_GPRS_MMI/Tools/MinGW/include/c++/3.3.1/bits/stl_alloc.h ****       {
 151:d:/MTK/MTK2503/MTK2503/11CW1418SP4_03_CORETEK03AE_11C_V1_GPRS_MMI/Tools/MinGW/include/c++/3.3.1/bits/stl_alloc.h ****         void* __result = realloc(__p, __new_sz);
 152:d:/MTK/MTK2503/MTK2503/11CW1418SP4_03_CORETEK03AE_11C_V1_GPRS_MMI/Tools/MinGW/include/c++/3.3.1/bits/stl_alloc.h ****         if (__builtin_expect(__result == 0, 0))
 153:d:/MTK/MTK2503/MTK2503/11CW1418SP4_03_CORETEK03AE_11C_V1_GPRS_MMI/Tools/MinGW/include/c++/3.3.1/bits/stl_alloc.h ****           __result = _S_oom_realloc(__p, __new_sz);
 154:d:/MTK/MTK2503/MTK2503/11CW1418SP4_03_CORETEK03AE_11C_V1_GPRS_MMI/Tools/MinGW/include/c++/3.3.1/bits/stl_alloc.h ****         return __result;
 155:d:/MTK/MTK2503/MTK2503/11CW1418SP4_03_CORETEK03AE_11C_V1_GPRS_MMI/Tools/MinGW/include/c++/3.3.1/bits/stl_alloc.h ****       }
 156:d:/MTK/MTK2503/MTK2503/11CW1418SP4_03_CORETEK03AE_11C_V1_GPRS_MMI/Tools/MinGW/include/c++/3.3.1/bits/stl_alloc.h **** 
 157:d:/MTK/MTK2503/MTK2503/11CW1418SP4_03_CORETEK03AE_11C_V1_GPRS_MMI/Tools/MinGW/include/c++/3.3.1/bits/stl_alloc.h ****       static void (* __set_malloc_handler(void (*__f)()))()
 158:d:/MTK/MTK2503/MTK2503/11CW1418SP4_03_CORETEK03AE_11C_V1_GPRS_MMI/Tools/MinGW/include/c++/3.3.1/bits/stl_alloc.h ****       {
 159:d:/MTK/MTK2503/MTK2503/11CW1418SP4_03_CORETEK03AE_11C_V1_GPRS_MMI/Tools/MinGW/include/c++/3.3.1/bits/stl_alloc.h ****         void (* __old)() = __malloc_alloc_oom_handler;
 160:d:/MTK/MTK2503/MTK2503/11CW1418SP4_03_CORETEK03AE_11C_V1_GPRS_MMI/Tools/MinGW/include/c++/3.3.1/bits/stl_alloc.h ****         __malloc_alloc_oom_handler = __f;
 161:d:/MTK/MTK2503/MTK2503/11CW1418SP4_03_CORETEK03AE_11C_V1_GPRS_MMI/Tools/MinGW/include/c++/3.3.1/bits/stl_alloc.h ****         return __old;
 162:d:/MTK/MTK2503/MTK2503/11CW1418SP4_03_CORETEK03AE_11C_V1_GPRS_MMI/Tools/MinGW/include/c++/3.3.1/bits/stl_alloc.h ****       }
 163:d:/MTK/MTK2503/MTK2503/11CW1418SP4_03_CORETEK03AE_11C_V1_GPRS_MMI/Tools/MinGW/include/c++/3.3.1/bits/stl_alloc.h ****     };
 164:d:/MTK/MTK2503/MTK2503/11CW1418SP4_03_CORETEK03AE_11C_V1_GPRS_MMI/Tools/MinGW/include/c++/3.3.1/bits/stl_alloc.h **** 
 165:d:/MTK/MTK2503/MTK2503/11CW1418SP4_03_CORETEK03AE_11C_V1_GPRS_MMI/Tools/MinGW/include/c++/3.3.1/bits/stl_alloc.h ****   // malloc_alloc out-of-memory handling
 166:d:/MTK/MTK2503/MTK2503/11CW1418SP4_03_CORETEK03AE_11C_V1_GPRS_MMI/Tools/MinGW/include/c++/3.3.1/bits/stl_alloc.h ****   template<int __inst>
 167:d:/MTK/MTK2503/MTK2503/11CW1418SP4_03_CORETEK03AE_11C_V1_GPRS_MMI/Tools/MinGW/include/c++/3.3.1/bits/stl_alloc.h ****     void (* __malloc_alloc_template<__inst>::__malloc_alloc_oom_handler)() = 0;
 168:d:/MTK/MTK2503/MTK2503/11CW1418SP4_03_CORETEK03AE_11C_V1_GPRS_MMI/Tools/MinGW/include/c++/3.3.1/bits/stl_alloc.h **** 
 169:d:/MTK/MTK2503/MTK2503/11CW1418SP4_03_CORETEK03AE_11C_V1_GPRS_MMI/Tools/MinGW/include/c++/3.3.1/bits/stl_alloc.h ****   template<int __inst>
 170:d:/MTK/MTK2503/MTK2503/11CW1418SP4_03_CORETEK03AE_11C_V1_GPRS_MMI/Tools/MinGW/include/c++/3.3.1/bits/stl_alloc.h ****     void*
 171:d:/MTK/MTK2503/MTK2503/11CW1418SP4_03_CORETEK03AE_11C_V1_GPRS_MMI/Tools/MinGW/include/c++/3.3.1/bits/stl_alloc.h ****     __malloc_alloc_template<__inst>::
 172:d:/MTK/MTK2503/MTK2503/11CW1418SP4_03_CORETEK03AE_11C_V1_GPRS_MMI/Tools/MinGW/include/c++/3.3.1/bits/stl_alloc.h ****     _S_oom_malloc(size_t __n)
 173:d:/MTK/MTK2503/MTK2503/11CW1418SP4_03_CORETEK03AE_11C_V1_GPRS_MMI/Tools/MinGW/include/c++/3.3.1/bits/stl_alloc.h ****     {
 174:d:/MTK/MTK2503/MTK2503/11CW1418SP4_03_CORETEK03AE_11C_V1_GPRS_MMI/Tools/MinGW/include/c++/3.3.1/bits/stl_alloc.h ****       void (* __my_malloc_handler)();
 175:d:/MTK/MTK2503/MTK2503/11CW1418SP4_03_CORETEK03AE_11C_V1_GPRS_MMI/Tools/MinGW/include/c++/3.3.1/bits/stl_alloc.h ****       void* __result;
 176:d:/MTK/MTK2503/MTK2503/11CW1418SP4_03_CORETEK03AE_11C_V1_GPRS_MMI/Tools/MinGW/include/c++/3.3.1/bits/stl_alloc.h **** 
 177:d:/MTK/MTK2503/MTK2503/11CW1418SP4_03_CORETEK03AE_11C_V1_GPRS_MMI/Tools/MinGW/include/c++/3.3.1/bits/stl_alloc.h ****       for (;;)
 178:d:/MTK/MTK2503/MTK2503/11CW1418SP4_03_CORETEK03AE_11C_V1_GPRS_MMI/Tools/MinGW/include/c++/3.3.1/bits/stl_alloc.h ****         {
 179:d:/MTK/MTK2503/MTK2503/11CW1418SP4_03_CORETEK03AE_11C_V1_GPRS_MMI/Tools/MinGW/include/c++/3.3.1/bits/stl_alloc.h ****           __my_malloc_handler = __malloc_alloc_oom_handler;
 180:d:/MTK/MTK2503/MTK2503/11CW1418SP4_03_CORETEK03AE_11C_V1_GPRS_MMI/Tools/MinGW/include/c++/3.3.1/bits/stl_alloc.h ****           if (__builtin_expect(__my_malloc_handler == 0, 0))
 181:d:/MTK/MTK2503/MTK2503/11CW1418SP4_03_CORETEK03AE_11C_V1_GPRS_MMI/Tools/MinGW/include/c++/3.3.1/bits/stl_alloc.h ****             __throw_bad_alloc();
 182:d:/MTK/MTK2503/MTK2503/11CW1418SP4_03_CORETEK03AE_11C_V1_GPRS_MMI/Tools/MinGW/include/c++/3.3.1/bits/stl_alloc.h ****           (*__my_malloc_handler)();
 183:d:/MTK/MTK2503/MTK2503/11CW1418SP4_03_CORETEK03AE_11C_V1_GPRS_MMI/Tools/MinGW/include/c++/3.3.1/bits/stl_alloc.h ****           __result = malloc(__n);
 184:d:/MTK/MTK2503/MTK2503/11CW1418SP4_03_CORETEK03AE_11C_V1_GPRS_MMI/Tools/MinGW/include/c++/3.3.1/bits/stl_alloc.h ****           if (__result)
 185:d:/MTK/MTK2503/MTK2503/11CW1418SP4_03_CORETEK03AE_11C_V1_GPRS_MMI/Tools/MinGW/include/c++/3.3.1/bits/stl_alloc.h ****             return __result;
 186:d:/MTK/MTK2503/MTK2503/11CW1418SP4_03_CORETEK03AE_11C_V1_GPRS_MMI/Tools/MinGW/include/c++/3.3.1/bits/stl_alloc.h ****         }
 187:d:/MTK/MTK2503/MTK2503/11CW1418SP4_03_CORETEK03AE_11C_V1_GPRS_MMI/Tools/MinGW/include/c++/3.3.1/bits/stl_alloc.h ****     }
 188:d:/MTK/MTK2503/MTK2503/11CW1418SP4_03_CORETEK03AE_11C_V1_GPRS_MMI/Tools/MinGW/include/c++/3.3.1/bits/stl_alloc.h **** 
 189:d:/MTK/MTK2503/MTK2503/11CW1418SP4_03_CORETEK03AE_11C_V1_GPRS_MMI/Tools/MinGW/include/c++/3.3.1/bits/stl_alloc.h ****   template<int __inst>
 190:d:/MTK/MTK2503/MTK2503/11CW1418SP4_03_CORETEK03AE_11C_V1_GPRS_MMI/Tools/MinGW/include/c++/3.3.1/bits/stl_alloc.h ****     void*
 191:d:/MTK/MTK2503/MTK2503/11CW1418SP4_03_CORETEK03AE_11C_V1_GPRS_MMI/Tools/MinGW/include/c++/3.3.1/bits/stl_alloc.h ****     __malloc_alloc_template<__inst>::
 192:d:/MTK/MTK2503/MTK2503/11CW1418SP4_03_CORETEK03AE_11C_V1_GPRS_MMI/Tools/MinGW/include/c++/3.3.1/bits/stl_alloc.h ****     _S_oom_realloc(void* __p, size_t __n)
 193:d:/MTK/MTK2503/MTK2503/11CW1418SP4_03_CORETEK03AE_11C_V1_GPRS_MMI/Tools/MinGW/include/c++/3.3.1/bits/stl_alloc.h ****     {
 194:d:/MTK/MTK2503/MTK2503/11CW1418SP4_03_CORETEK03AE_11C_V1_GPRS_MMI/Tools/MinGW/include/c++/3.3.1/bits/stl_alloc.h ****       void (* __my_malloc_handler)();
 195:d:/MTK/MTK2503/MTK2503/11CW1418SP4_03_CORETEK03AE_11C_V1_GPRS_MMI/Tools/MinGW/include/c++/3.3.1/bits/stl_alloc.h ****       void* __result;
 196:d:/MTK/MTK2503/MTK2503/11CW1418SP4_03_CORETEK03AE_11C_V1_GPRS_MMI/Tools/MinGW/include/c++/3.3.1/bits/stl_alloc.h **** 
 197:d:/MTK/MTK2503/MTK2503/11CW1418SP4_03_CORETEK03AE_11C_V1_GPRS_MMI/Tools/MinGW/include/c++/3.3.1/bits/stl_alloc.h ****       for (;;)
 198:d:/MTK/MTK2503/MTK2503/11CW1418SP4_03_CORETEK03AE_11C_V1_GPRS_MMI/Tools/MinGW/include/c++/3.3.1/bits/stl_alloc.h ****         {
 199:d:/MTK/MTK2503/MTK2503/11CW1418SP4_03_CORETEK03AE_11C_V1_GPRS_MMI/Tools/MinGW/include/c++/3.3.1/bits/stl_alloc.h ****           __my_malloc_handler = __malloc_alloc_oom_handler;
 200:d:/MTK/MTK2503/MTK2503/11CW1418SP4_03_CORETEK03AE_11C_V1_GPRS_MMI/Tools/MinGW/include/c++/3.3.1/bits/stl_alloc.h ****           if (__builtin_expect(__my_malloc_handler == 0, 0))
 201:d:/MTK/MTK2503/MTK2503/11CW1418SP4_03_CORETEK03AE_11C_V1_GPRS_MMI/Tools/MinGW/include/c++/3.3.1/bits/stl_alloc.h ****             __throw_bad_alloc();
GAS LISTING d:/MTK/MTK2503/MTK2503/11CW1418SP4_03_CORETEK03AE_11C_V1_GPRS_MMI/plutommi/Customer/ResGenerator/gcctmp/cck7daaa.s 			page 86


 202:d:/MTK/MTK2503/MTK2503/11CW1418SP4_03_CORETEK03AE_11C_V1_GPRS_MMI/Tools/MinGW/include/c++/3.3.1/bits/stl_alloc.h ****           (*__my_malloc_handler)();
 203:d:/MTK/MTK2503/MTK2503/11CW1418SP4_03_CORETEK03AE_11C_V1_GPRS_MMI/Tools/MinGW/include/c++/3.3.1/bits/stl_alloc.h ****           __result = realloc(__p, __n);
 204:d:/MTK/MTK2503/MTK2503/11CW1418SP4_03_CORETEK03AE_11C_V1_GPRS_MMI/Tools/MinGW/include/c++/3.3.1/bits/stl_alloc.h ****           if (__result)
 205:d:/MTK/MTK2503/MTK2503/11CW1418SP4_03_CORETEK03AE_11C_V1_GPRS_MMI/Tools/MinGW/include/c++/3.3.1/bits/stl_alloc.h ****             return __result;
 206:d:/MTK/MTK2503/MTK2503/11CW1418SP4_03_CORETEK03AE_11C_V1_GPRS_MMI/Tools/MinGW/include/c++/3.3.1/bits/stl_alloc.h ****         }
 207:d:/MTK/MTK2503/MTK2503/11CW1418SP4_03_CORETEK03AE_11C_V1_GPRS_MMI/Tools/MinGW/include/c++/3.3.1/bits/stl_alloc.h ****     }
 208:d:/MTK/MTK2503/MTK2503/11CW1418SP4_03_CORETEK03AE_11C_V1_GPRS_MMI/Tools/MinGW/include/c++/3.3.1/bits/stl_alloc.h **** 
 209:d:/MTK/MTK2503/MTK2503/11CW1418SP4_03_CORETEK03AE_11C_V1_GPRS_MMI/Tools/MinGW/include/c++/3.3.1/bits/stl_alloc.h ****   // Should not be referenced within the library anymore.
 210:d:/MTK/MTK2503/MTK2503/11CW1418SP4_03_CORETEK03AE_11C_V1_GPRS_MMI/Tools/MinGW/include/c++/3.3.1/bits/stl_alloc.h ****   typedef __new_alloc                 __mem_interface;
 211:d:/MTK/MTK2503/MTK2503/11CW1418SP4_03_CORETEK03AE_11C_V1_GPRS_MMI/Tools/MinGW/include/c++/3.3.1/bits/stl_alloc.h **** 
 212:d:/MTK/MTK2503/MTK2503/11CW1418SP4_03_CORETEK03AE_11C_V1_GPRS_MMI/Tools/MinGW/include/c++/3.3.1/bits/stl_alloc.h ****   /**
 213:d:/MTK/MTK2503/MTK2503/11CW1418SP4_03_CORETEK03AE_11C_V1_GPRS_MMI/Tools/MinGW/include/c++/3.3.1/bits/stl_alloc.h ****    *  @if maint
 214:d:/MTK/MTK2503/MTK2503/11CW1418SP4_03_CORETEK03AE_11C_V1_GPRS_MMI/Tools/MinGW/include/c++/3.3.1/bits/stl_alloc.h ****    *  This is used primarily (only?) in _Alloc_traits and other places to
 215:d:/MTK/MTK2503/MTK2503/11CW1418SP4_03_CORETEK03AE_11C_V1_GPRS_MMI/Tools/MinGW/include/c++/3.3.1/bits/stl_alloc.h ****    *  help provide the _Alloc_type typedef.  All it does is forward the
 216:d:/MTK/MTK2503/MTK2503/11CW1418SP4_03_CORETEK03AE_11C_V1_GPRS_MMI/Tools/MinGW/include/c++/3.3.1/bits/stl_alloc.h ****    *  requests after some minimal checking.
 217:d:/MTK/MTK2503/MTK2503/11CW1418SP4_03_CORETEK03AE_11C_V1_GPRS_MMI/Tools/MinGW/include/c++/3.3.1/bits/stl_alloc.h ****    *
 218:d:/MTK/MTK2503/MTK2503/11CW1418SP4_03_CORETEK03AE_11C_V1_GPRS_MMI/Tools/MinGW/include/c++/3.3.1/bits/stl_alloc.h ****    *  This is neither "standard"-conforming nor "SGI".  The _Alloc parameter
 219:d:/MTK/MTK2503/MTK2503/11CW1418SP4_03_CORETEK03AE_11C_V1_GPRS_MMI/Tools/MinGW/include/c++/3.3.1/bits/stl_alloc.h ****    *  must be "SGI" style.
 220:d:/MTK/MTK2503/MTK2503/11CW1418SP4_03_CORETEK03AE_11C_V1_GPRS_MMI/Tools/MinGW/include/c++/3.3.1/bits/stl_alloc.h ****    *  @endif
 221:d:/MTK/MTK2503/MTK2503/11CW1418SP4_03_CORETEK03AE_11C_V1_GPRS_MMI/Tools/MinGW/include/c++/3.3.1/bits/stl_alloc.h ****    *  (See @link Allocators allocators info @endlink for more.)
 222:d:/MTK/MTK2503/MTK2503/11CW1418SP4_03_CORETEK03AE_11C_V1_GPRS_MMI/Tools/MinGW/include/c++/3.3.1/bits/stl_alloc.h ****    */
 223:d:/MTK/MTK2503/MTK2503/11CW1418SP4_03_CORETEK03AE_11C_V1_GPRS_MMI/Tools/MinGW/include/c++/3.3.1/bits/stl_alloc.h ****   template<typename _Tp, typename _Alloc>
 224:d:/MTK/MTK2503/MTK2503/11CW1418SP4_03_CORETEK03AE_11C_V1_GPRS_MMI/Tools/MinGW/include/c++/3.3.1/bits/stl_alloc.h ****     class __simple_alloc
 225:d:/MTK/MTK2503/MTK2503/11CW1418SP4_03_CORETEK03AE_11C_V1_GPRS_MMI/Tools/MinGW/include/c++/3.3.1/bits/stl_alloc.h ****     {
 226:d:/MTK/MTK2503/MTK2503/11CW1418SP4_03_CORETEK03AE_11C_V1_GPRS_MMI/Tools/MinGW/include/c++/3.3.1/bits/stl_alloc.h ****     public:
 227:d:/MTK/MTK2503/MTK2503/11CW1418SP4_03_CORETEK03AE_11C_V1_GPRS_MMI/Tools/MinGW/include/c++/3.3.1/bits/stl_alloc.h ****       static _Tp*
 228:d:/MTK/MTK2503/MTK2503/11CW1418SP4_03_CORETEK03AE_11C_V1_GPRS_MMI/Tools/MinGW/include/c++/3.3.1/bits/stl_alloc.h ****       allocate(size_t __n)
 229:d:/MTK/MTK2503/MTK2503/11CW1418SP4_03_CORETEK03AE_11C_V1_GPRS_MMI/Tools/MinGW/include/c++/3.3.1/bits/stl_alloc.h ****       {
 230:d:/MTK/MTK2503/MTK2503/11CW1418SP4_03_CORETEK03AE_11C_V1_GPRS_MMI/Tools/MinGW/include/c++/3.3.1/bits/stl_alloc.h **** 	_Tp* __ret = 0;
 231:d:/MTK/MTK2503/MTK2503/11CW1418SP4_03_CORETEK03AE_11C_V1_GPRS_MMI/Tools/MinGW/include/c++/3.3.1/bits/stl_alloc.h **** 	if (__n)
 232:d:/MTK/MTK2503/MTK2503/11CW1418SP4_03_CORETEK03AE_11C_V1_GPRS_MMI/Tools/MinGW/include/c++/3.3.1/bits/stl_alloc.h **** 	  __ret = static_cast<_Tp*>(_Alloc::allocate(__n * sizeof(_Tp)));
 233:d:/MTK/MTK2503/MTK2503/11CW1418SP4_03_CORETEK03AE_11C_V1_GPRS_MMI/Tools/MinGW/include/c++/3.3.1/bits/stl_alloc.h **** 	return __ret;
 234:d:/MTK/MTK2503/MTK2503/11CW1418SP4_03_CORETEK03AE_11C_V1_GPRS_MMI/Tools/MinGW/include/c++/3.3.1/bits/stl_alloc.h ****       }
 235:d:/MTK/MTK2503/MTK2503/11CW1418SP4_03_CORETEK03AE_11C_V1_GPRS_MMI/Tools/MinGW/include/c++/3.3.1/bits/stl_alloc.h ****   
 236:d:/MTK/MTK2503/MTK2503/11CW1418SP4_03_CORETEK03AE_11C_V1_GPRS_MMI/Tools/MinGW/include/c++/3.3.1/bits/stl_alloc.h ****       static _Tp*
 237:d:/MTK/MTK2503/MTK2503/11CW1418SP4_03_CORETEK03AE_11C_V1_GPRS_MMI/Tools/MinGW/include/c++/3.3.1/bits/stl_alloc.h ****       allocate()
 238:d:/MTK/MTK2503/MTK2503/11CW1418SP4_03_CORETEK03AE_11C_V1_GPRS_MMI/Tools/MinGW/include/c++/3.3.1/bits/stl_alloc.h ****       { return (_Tp*) _Alloc::allocate(sizeof (_Tp)); }
 239:d:/MTK/MTK2503/MTK2503/11CW1418SP4_03_CORETEK03AE_11C_V1_GPRS_MMI/Tools/MinGW/include/c++/3.3.1/bits/stl_alloc.h ****   
 240:d:/MTK/MTK2503/MTK2503/11CW1418SP4_03_CORETEK03AE_11C_V1_GPRS_MMI/Tools/MinGW/include/c++/3.3.1/bits/stl_alloc.h ****       static void
 241:d:/MTK/MTK2503/MTK2503/11CW1418SP4_03_CORETEK03AE_11C_V1_GPRS_MMI/Tools/MinGW/include/c++/3.3.1/bits/stl_alloc.h ****       deallocate(_Tp* __p, size_t __n)
 242:d:/MTK/MTK2503/MTK2503/11CW1418SP4_03_CORETEK03AE_11C_V1_GPRS_MMI/Tools/MinGW/include/c++/3.3.1/bits/stl_alloc.h ****       { if (0 != __n) _Alloc::deallocate(__p, __n * sizeof (_Tp)); }
 243:d:/MTK/MTK2503/MTK2503/11CW1418SP4_03_CORETEK03AE_11C_V1_GPRS_MMI/Tools/MinGW/include/c++/3.3.1/bits/stl_alloc.h ****   
 244:d:/MTK/MTK2503/MTK2503/11CW1418SP4_03_CORETEK03AE_11C_V1_GPRS_MMI/Tools/MinGW/include/c++/3.3.1/bits/stl_alloc.h ****       static void
 245:d:/MTK/MTK2503/MTK2503/11CW1418SP4_03_CORETEK03AE_11C_V1_GPRS_MMI/Tools/MinGW/include/c++/3.3.1/bits/stl_alloc.h ****       deallocate(_Tp* __p)
 246:d:/MTK/MTK2503/MTK2503/11CW1418SP4_03_CORETEK03AE_11C_V1_GPRS_MMI/Tools/MinGW/include/c++/3.3.1/bits/stl_alloc.h ****       { _Alloc::deallocate(__p, sizeof (_Tp)); }
 247:d:/MTK/MTK2503/MTK2503/11CW1418SP4_03_CORETEK03AE_11C_V1_GPRS_MMI/Tools/MinGW/include/c++/3.3.1/bits/stl_alloc.h ****     };
 248:d:/MTK/MTK2503/MTK2503/11CW1418SP4_03_CORETEK03AE_11C_V1_GPRS_MMI/Tools/MinGW/include/c++/3.3.1/bits/stl_alloc.h **** 
 249:d:/MTK/MTK2503/MTK2503/11CW1418SP4_03_CORETEK03AE_11C_V1_GPRS_MMI/Tools/MinGW/include/c++/3.3.1/bits/stl_alloc.h **** 
 250:d:/MTK/MTK2503/MTK2503/11CW1418SP4_03_CORETEK03AE_11C_V1_GPRS_MMI/Tools/MinGW/include/c++/3.3.1/bits/stl_alloc.h ****   /**
 251:d:/MTK/MTK2503/MTK2503/11CW1418SP4_03_CORETEK03AE_11C_V1_GPRS_MMI/Tools/MinGW/include/c++/3.3.1/bits/stl_alloc.h ****    *  @if maint
 252:d:/MTK/MTK2503/MTK2503/11CW1418SP4_03_CORETEK03AE_11C_V1_GPRS_MMI/Tools/MinGW/include/c++/3.3.1/bits/stl_alloc.h ****    *  An adaptor for an underlying allocator (_Alloc) to check the size
 253:d:/MTK/MTK2503/MTK2503/11CW1418SP4_03_CORETEK03AE_11C_V1_GPRS_MMI/Tools/MinGW/include/c++/3.3.1/bits/stl_alloc.h ****    *  arguments for debugging.
 254:d:/MTK/MTK2503/MTK2503/11CW1418SP4_03_CORETEK03AE_11C_V1_GPRS_MMI/Tools/MinGW/include/c++/3.3.1/bits/stl_alloc.h ****    *
 255:d:/MTK/MTK2503/MTK2503/11CW1418SP4_03_CORETEK03AE_11C_V1_GPRS_MMI/Tools/MinGW/include/c++/3.3.1/bits/stl_alloc.h ****    *  "There is some evidence that this can confuse Purify." - SGI comment
 256:d:/MTK/MTK2503/MTK2503/11CW1418SP4_03_CORETEK03AE_11C_V1_GPRS_MMI/Tools/MinGW/include/c++/3.3.1/bits/stl_alloc.h ****    *
 257:d:/MTK/MTK2503/MTK2503/11CW1418SP4_03_CORETEK03AE_11C_V1_GPRS_MMI/Tools/MinGW/include/c++/3.3.1/bits/stl_alloc.h ****    *  This adaptor is "SGI" style.  The _Alloc parameter must also be "SGI".
 258:d:/MTK/MTK2503/MTK2503/11CW1418SP4_03_CORETEK03AE_11C_V1_GPRS_MMI/Tools/MinGW/include/c++/3.3.1/bits/stl_alloc.h ****    *  @endif
GAS LISTING d:/MTK/MTK2503/MTK2503/11CW1418SP4_03_CORETEK03AE_11C_V1_GPRS_MMI/plutommi/Customer/ResGenerator/gcctmp/cck7daaa.s 			page 87


 259:d:/MTK/MTK2503/MTK2503/11CW1418SP4_03_CORETEK03AE_11C_V1_GPRS_MMI/Tools/MinGW/include/c++/3.3.1/bits/stl_alloc.h ****    *  (See @link Allocators allocators info @endlink for more.)
 260:d:/MTK/MTK2503/MTK2503/11CW1418SP4_03_CORETEK03AE_11C_V1_GPRS_MMI/Tools/MinGW/include/c++/3.3.1/bits/stl_alloc.h ****    */
 261:d:/MTK/MTK2503/MTK2503/11CW1418SP4_03_CORETEK03AE_11C_V1_GPRS_MMI/Tools/MinGW/include/c++/3.3.1/bits/stl_alloc.h ****   template<typename _Alloc>
 262:d:/MTK/MTK2503/MTK2503/11CW1418SP4_03_CORETEK03AE_11C_V1_GPRS_MMI/Tools/MinGW/include/c++/3.3.1/bits/stl_alloc.h ****     class __debug_alloc
 263:d:/MTK/MTK2503/MTK2503/11CW1418SP4_03_CORETEK03AE_11C_V1_GPRS_MMI/Tools/MinGW/include/c++/3.3.1/bits/stl_alloc.h ****     {
 264:d:/MTK/MTK2503/MTK2503/11CW1418SP4_03_CORETEK03AE_11C_V1_GPRS_MMI/Tools/MinGW/include/c++/3.3.1/bits/stl_alloc.h ****     private:
 265:d:/MTK/MTK2503/MTK2503/11CW1418SP4_03_CORETEK03AE_11C_V1_GPRS_MMI/Tools/MinGW/include/c++/3.3.1/bits/stl_alloc.h ****       // Size of space used to store size.  Note that this must be
 266:d:/MTK/MTK2503/MTK2503/11CW1418SP4_03_CORETEK03AE_11C_V1_GPRS_MMI/Tools/MinGW/include/c++/3.3.1/bits/stl_alloc.h ****       // large enough to preserve alignment.
 267:d:/MTK/MTK2503/MTK2503/11CW1418SP4_03_CORETEK03AE_11C_V1_GPRS_MMI/Tools/MinGW/include/c++/3.3.1/bits/stl_alloc.h ****       enum {_S_extra = 8};
 268:d:/MTK/MTK2503/MTK2503/11CW1418SP4_03_CORETEK03AE_11C_V1_GPRS_MMI/Tools/MinGW/include/c++/3.3.1/bits/stl_alloc.h **** 
 269:d:/MTK/MTK2503/MTK2503/11CW1418SP4_03_CORETEK03AE_11C_V1_GPRS_MMI/Tools/MinGW/include/c++/3.3.1/bits/stl_alloc.h ****     public:
 270:d:/MTK/MTK2503/MTK2503/11CW1418SP4_03_CORETEK03AE_11C_V1_GPRS_MMI/Tools/MinGW/include/c++/3.3.1/bits/stl_alloc.h ****       static void*
 271:d:/MTK/MTK2503/MTK2503/11CW1418SP4_03_CORETEK03AE_11C_V1_GPRS_MMI/Tools/MinGW/include/c++/3.3.1/bits/stl_alloc.h ****       allocate(size_t __n)
 272:d:/MTK/MTK2503/MTK2503/11CW1418SP4_03_CORETEK03AE_11C_V1_GPRS_MMI/Tools/MinGW/include/c++/3.3.1/bits/stl_alloc.h ****       {
 273:d:/MTK/MTK2503/MTK2503/11CW1418SP4_03_CORETEK03AE_11C_V1_GPRS_MMI/Tools/MinGW/include/c++/3.3.1/bits/stl_alloc.h ****         char* __result = (char*)_Alloc::allocate(__n + (int) _S_extra);
 274:d:/MTK/MTK2503/MTK2503/11CW1418SP4_03_CORETEK03AE_11C_V1_GPRS_MMI/Tools/MinGW/include/c++/3.3.1/bits/stl_alloc.h ****         *(size_t*)__result = __n;
 275:d:/MTK/MTK2503/MTK2503/11CW1418SP4_03_CORETEK03AE_11C_V1_GPRS_MMI/Tools/MinGW/include/c++/3.3.1/bits/stl_alloc.h ****         return __result + (int) _S_extra;
 276:d:/MTK/MTK2503/MTK2503/11CW1418SP4_03_CORETEK03AE_11C_V1_GPRS_MMI/Tools/MinGW/include/c++/3.3.1/bits/stl_alloc.h ****       }
 277:d:/MTK/MTK2503/MTK2503/11CW1418SP4_03_CORETEK03AE_11C_V1_GPRS_MMI/Tools/MinGW/include/c++/3.3.1/bits/stl_alloc.h **** 
 278:d:/MTK/MTK2503/MTK2503/11CW1418SP4_03_CORETEK03AE_11C_V1_GPRS_MMI/Tools/MinGW/include/c++/3.3.1/bits/stl_alloc.h ****       static void
 279:d:/MTK/MTK2503/MTK2503/11CW1418SP4_03_CORETEK03AE_11C_V1_GPRS_MMI/Tools/MinGW/include/c++/3.3.1/bits/stl_alloc.h ****       deallocate(void* __p, size_t __n)
 280:d:/MTK/MTK2503/MTK2503/11CW1418SP4_03_CORETEK03AE_11C_V1_GPRS_MMI/Tools/MinGW/include/c++/3.3.1/bits/stl_alloc.h ****       {
 281:d:/MTK/MTK2503/MTK2503/11CW1418SP4_03_CORETEK03AE_11C_V1_GPRS_MMI/Tools/MinGW/include/c++/3.3.1/bits/stl_alloc.h ****         char* __real_p = (char*)__p - (int) _S_extra;
 282:d:/MTK/MTK2503/MTK2503/11CW1418SP4_03_CORETEK03AE_11C_V1_GPRS_MMI/Tools/MinGW/include/c++/3.3.1/bits/stl_alloc.h ****         if (*(size_t*)__real_p != __n)
 283:d:/MTK/MTK2503/MTK2503/11CW1418SP4_03_CORETEK03AE_11C_V1_GPRS_MMI/Tools/MinGW/include/c++/3.3.1/bits/stl_alloc.h **** 	  abort();
 284:d:/MTK/MTK2503/MTK2503/11CW1418SP4_03_CORETEK03AE_11C_V1_GPRS_MMI/Tools/MinGW/include/c++/3.3.1/bits/stl_alloc.h ****         _Alloc::deallocate(__real_p, __n + (int) _S_extra);
 285:d:/MTK/MTK2503/MTK2503/11CW1418SP4_03_CORETEK03AE_11C_V1_GPRS_MMI/Tools/MinGW/include/c++/3.3.1/bits/stl_alloc.h ****       }
 286:d:/MTK/MTK2503/MTK2503/11CW1418SP4_03_CORETEK03AE_11C_V1_GPRS_MMI/Tools/MinGW/include/c++/3.3.1/bits/stl_alloc.h **** 
 287:d:/MTK/MTK2503/MTK2503/11CW1418SP4_03_CORETEK03AE_11C_V1_GPRS_MMI/Tools/MinGW/include/c++/3.3.1/bits/stl_alloc.h ****       static void*
 288:d:/MTK/MTK2503/MTK2503/11CW1418SP4_03_CORETEK03AE_11C_V1_GPRS_MMI/Tools/MinGW/include/c++/3.3.1/bits/stl_alloc.h ****       reallocate(void* __p, size_t __old_sz, size_t __new_sz)
 289:d:/MTK/MTK2503/MTK2503/11CW1418SP4_03_CORETEK03AE_11C_V1_GPRS_MMI/Tools/MinGW/include/c++/3.3.1/bits/stl_alloc.h ****       {
 290:d:/MTK/MTK2503/MTK2503/11CW1418SP4_03_CORETEK03AE_11C_V1_GPRS_MMI/Tools/MinGW/include/c++/3.3.1/bits/stl_alloc.h ****         char* __real_p = (char*)__p - (int) _S_extra;
 291:d:/MTK/MTK2503/MTK2503/11CW1418SP4_03_CORETEK03AE_11C_V1_GPRS_MMI/Tools/MinGW/include/c++/3.3.1/bits/stl_alloc.h ****         if (*(size_t*)__real_p != __old_sz)
 292:d:/MTK/MTK2503/MTK2503/11CW1418SP4_03_CORETEK03AE_11C_V1_GPRS_MMI/Tools/MinGW/include/c++/3.3.1/bits/stl_alloc.h **** 	  abort();
 293:d:/MTK/MTK2503/MTK2503/11CW1418SP4_03_CORETEK03AE_11C_V1_GPRS_MMI/Tools/MinGW/include/c++/3.3.1/bits/stl_alloc.h ****         char* __result = (char*) _Alloc::reallocate(__real_p, 
 294:d:/MTK/MTK2503/MTK2503/11CW1418SP4_03_CORETEK03AE_11C_V1_GPRS_MMI/Tools/MinGW/include/c++/3.3.1/bits/stl_alloc.h **** 						    __old_sz + (int) _S_extra,
 295:d:/MTK/MTK2503/MTK2503/11CW1418SP4_03_CORETEK03AE_11C_V1_GPRS_MMI/Tools/MinGW/include/c++/3.3.1/bits/stl_alloc.h **** 						    __new_sz + (int) _S_extra);
 296:d:/MTK/MTK2503/MTK2503/11CW1418SP4_03_CORETEK03AE_11C_V1_GPRS_MMI/Tools/MinGW/include/c++/3.3.1/bits/stl_alloc.h ****         *(size_t*)__result = __new_sz;
 297:d:/MTK/MTK2503/MTK2503/11CW1418SP4_03_CORETEK03AE_11C_V1_GPRS_MMI/Tools/MinGW/include/c++/3.3.1/bits/stl_alloc.h ****         return __result + (int) _S_extra;
 298:d:/MTK/MTK2503/MTK2503/11CW1418SP4_03_CORETEK03AE_11C_V1_GPRS_MMI/Tools/MinGW/include/c++/3.3.1/bits/stl_alloc.h ****       }
 299:d:/MTK/MTK2503/MTK2503/11CW1418SP4_03_CORETEK03AE_11C_V1_GPRS_MMI/Tools/MinGW/include/c++/3.3.1/bits/stl_alloc.h ****     };
 300:d:/MTK/MTK2503/MTK2503/11CW1418SP4_03_CORETEK03AE_11C_V1_GPRS_MMI/Tools/MinGW/include/c++/3.3.1/bits/stl_alloc.h **** 
 301:d:/MTK/MTK2503/MTK2503/11CW1418SP4_03_CORETEK03AE_11C_V1_GPRS_MMI/Tools/MinGW/include/c++/3.3.1/bits/stl_alloc.h **** 
 302:d:/MTK/MTK2503/MTK2503/11CW1418SP4_03_CORETEK03AE_11C_V1_GPRS_MMI/Tools/MinGW/include/c++/3.3.1/bits/stl_alloc.h ****   /**
 303:d:/MTK/MTK2503/MTK2503/11CW1418SP4_03_CORETEK03AE_11C_V1_GPRS_MMI/Tools/MinGW/include/c++/3.3.1/bits/stl_alloc.h ****    *  @if maint
 304:d:/MTK/MTK2503/MTK2503/11CW1418SP4_03_CORETEK03AE_11C_V1_GPRS_MMI/Tools/MinGW/include/c++/3.3.1/bits/stl_alloc.h ****    *  Default node allocator.  "SGI" style.  Uses various allocators to
 305:d:/MTK/MTK2503/MTK2503/11CW1418SP4_03_CORETEK03AE_11C_V1_GPRS_MMI/Tools/MinGW/include/c++/3.3.1/bits/stl_alloc.h ****    *  fulfill underlying requests (and makes as few requests as possible
 306:d:/MTK/MTK2503/MTK2503/11CW1418SP4_03_CORETEK03AE_11C_V1_GPRS_MMI/Tools/MinGW/include/c++/3.3.1/bits/stl_alloc.h ****    *  when in default high-speed pool mode).
 307:d:/MTK/MTK2503/MTK2503/11CW1418SP4_03_CORETEK03AE_11C_V1_GPRS_MMI/Tools/MinGW/include/c++/3.3.1/bits/stl_alloc.h ****    *
 308:d:/MTK/MTK2503/MTK2503/11CW1418SP4_03_CORETEK03AE_11C_V1_GPRS_MMI/Tools/MinGW/include/c++/3.3.1/bits/stl_alloc.h ****    *  Important implementation properties:
 309:d:/MTK/MTK2503/MTK2503/11CW1418SP4_03_CORETEK03AE_11C_V1_GPRS_MMI/Tools/MinGW/include/c++/3.3.1/bits/stl_alloc.h ****    *  0. If globally mandated, then allocate objects from __new_alloc
 310:d:/MTK/MTK2503/MTK2503/11CW1418SP4_03_CORETEK03AE_11C_V1_GPRS_MMI/Tools/MinGW/include/c++/3.3.1/bits/stl_alloc.h ****    *  1. If the clients request an object of size > _MAX_BYTES, the resulting
 311:d:/MTK/MTK2503/MTK2503/11CW1418SP4_03_CORETEK03AE_11C_V1_GPRS_MMI/Tools/MinGW/include/c++/3.3.1/bits/stl_alloc.h ****    *     object will be obtained directly from __new_alloc
 312:d:/MTK/MTK2503/MTK2503/11CW1418SP4_03_CORETEK03AE_11C_V1_GPRS_MMI/Tools/MinGW/include/c++/3.3.1/bits/stl_alloc.h ****    *  2. In all other cases, we allocate an object of size exactly
 313:d:/MTK/MTK2503/MTK2503/11CW1418SP4_03_CORETEK03AE_11C_V1_GPRS_MMI/Tools/MinGW/include/c++/3.3.1/bits/stl_alloc.h ****    *     _S_round_up(requested_size).  Thus the client has enough size
 314:d:/MTK/MTK2503/MTK2503/11CW1418SP4_03_CORETEK03AE_11C_V1_GPRS_MMI/Tools/MinGW/include/c++/3.3.1/bits/stl_alloc.h ****    *     information that we can return the object to the proper free list
 315:d:/MTK/MTK2503/MTK2503/11CW1418SP4_03_CORETEK03AE_11C_V1_GPRS_MMI/Tools/MinGW/include/c++/3.3.1/bits/stl_alloc.h ****    *     without permanently losing part of the object.
GAS LISTING d:/MTK/MTK2503/MTK2503/11CW1418SP4_03_CORETEK03AE_11C_V1_GPRS_MMI/plutommi/Customer/ResGenerator/gcctmp/cck7daaa.s 			page 88


 316:d:/MTK/MTK2503/MTK2503/11CW1418SP4_03_CORETEK03AE_11C_V1_GPRS_MMI/Tools/MinGW/include/c++/3.3.1/bits/stl_alloc.h ****    *
 317:d:/MTK/MTK2503/MTK2503/11CW1418SP4_03_CORETEK03AE_11C_V1_GPRS_MMI/Tools/MinGW/include/c++/3.3.1/bits/stl_alloc.h ****    *  The first template parameter specifies whether more than one thread may
 318:d:/MTK/MTK2503/MTK2503/11CW1418SP4_03_CORETEK03AE_11C_V1_GPRS_MMI/Tools/MinGW/include/c++/3.3.1/bits/stl_alloc.h ****    *  use this allocator.  It is safe to allocate an object from one instance
 319:d:/MTK/MTK2503/MTK2503/11CW1418SP4_03_CORETEK03AE_11C_V1_GPRS_MMI/Tools/MinGW/include/c++/3.3.1/bits/stl_alloc.h ****    *  of a default_alloc and deallocate it with another one.  This effectively
 320:d:/MTK/MTK2503/MTK2503/11CW1418SP4_03_CORETEK03AE_11C_V1_GPRS_MMI/Tools/MinGW/include/c++/3.3.1/bits/stl_alloc.h ****    *  transfers its ownership to the second one.  This may have undesirable
 321:d:/MTK/MTK2503/MTK2503/11CW1418SP4_03_CORETEK03AE_11C_V1_GPRS_MMI/Tools/MinGW/include/c++/3.3.1/bits/stl_alloc.h ****    *  effects on reference locality.
 322:d:/MTK/MTK2503/MTK2503/11CW1418SP4_03_CORETEK03AE_11C_V1_GPRS_MMI/Tools/MinGW/include/c++/3.3.1/bits/stl_alloc.h ****    *
 323:d:/MTK/MTK2503/MTK2503/11CW1418SP4_03_CORETEK03AE_11C_V1_GPRS_MMI/Tools/MinGW/include/c++/3.3.1/bits/stl_alloc.h ****    *  The second parameter is unused and serves only to allow the creation of
 324:d:/MTK/MTK2503/MTK2503/11CW1418SP4_03_CORETEK03AE_11C_V1_GPRS_MMI/Tools/MinGW/include/c++/3.3.1/bits/stl_alloc.h ****    *  multiple default_alloc instances.  Note that containers built on different
 325:d:/MTK/MTK2503/MTK2503/11CW1418SP4_03_CORETEK03AE_11C_V1_GPRS_MMI/Tools/MinGW/include/c++/3.3.1/bits/stl_alloc.h ****    *  allocator instances have different types, limiting the utility of this
 326:d:/MTK/MTK2503/MTK2503/11CW1418SP4_03_CORETEK03AE_11C_V1_GPRS_MMI/Tools/MinGW/include/c++/3.3.1/bits/stl_alloc.h ****    *  approach.  If you do not wish to share the free lists with the main
 327:d:/MTK/MTK2503/MTK2503/11CW1418SP4_03_CORETEK03AE_11C_V1_GPRS_MMI/Tools/MinGW/include/c++/3.3.1/bits/stl_alloc.h ****    *  default_alloc instance, instantiate this with a non-zero __inst.
 328:d:/MTK/MTK2503/MTK2503/11CW1418SP4_03_CORETEK03AE_11C_V1_GPRS_MMI/Tools/MinGW/include/c++/3.3.1/bits/stl_alloc.h ****    *
 329:d:/MTK/MTK2503/MTK2503/11CW1418SP4_03_CORETEK03AE_11C_V1_GPRS_MMI/Tools/MinGW/include/c++/3.3.1/bits/stl_alloc.h ****    *  @endif
 330:d:/MTK/MTK2503/MTK2503/11CW1418SP4_03_CORETEK03AE_11C_V1_GPRS_MMI/Tools/MinGW/include/c++/3.3.1/bits/stl_alloc.h ****    *  (See @link Allocators allocators info @endlink for more.)
 331:d:/MTK/MTK2503/MTK2503/11CW1418SP4_03_CORETEK03AE_11C_V1_GPRS_MMI/Tools/MinGW/include/c++/3.3.1/bits/stl_alloc.h ****    */
 332:d:/MTK/MTK2503/MTK2503/11CW1418SP4_03_CORETEK03AE_11C_V1_GPRS_MMI/Tools/MinGW/include/c++/3.3.1/bits/stl_alloc.h ****   template<bool __threads, int __inst>
 333:d:/MTK/MTK2503/MTK2503/11CW1418SP4_03_CORETEK03AE_11C_V1_GPRS_MMI/Tools/MinGW/include/c++/3.3.1/bits/stl_alloc.h ****     class __default_alloc_template
 334:d:/MTK/MTK2503/MTK2503/11CW1418SP4_03_CORETEK03AE_11C_V1_GPRS_MMI/Tools/MinGW/include/c++/3.3.1/bits/stl_alloc.h ****     {
 335:d:/MTK/MTK2503/MTK2503/11CW1418SP4_03_CORETEK03AE_11C_V1_GPRS_MMI/Tools/MinGW/include/c++/3.3.1/bits/stl_alloc.h ****     private:
 336:d:/MTK/MTK2503/MTK2503/11CW1418SP4_03_CORETEK03AE_11C_V1_GPRS_MMI/Tools/MinGW/include/c++/3.3.1/bits/stl_alloc.h ****       enum {_ALIGN = 8};
 337:d:/MTK/MTK2503/MTK2503/11CW1418SP4_03_CORETEK03AE_11C_V1_GPRS_MMI/Tools/MinGW/include/c++/3.3.1/bits/stl_alloc.h ****       enum {_MAX_BYTES = 128};
 338:d:/MTK/MTK2503/MTK2503/11CW1418SP4_03_CORETEK03AE_11C_V1_GPRS_MMI/Tools/MinGW/include/c++/3.3.1/bits/stl_alloc.h ****       enum {_NFREELISTS = _MAX_BYTES / _ALIGN};
 339:d:/MTK/MTK2503/MTK2503/11CW1418SP4_03_CORETEK03AE_11C_V1_GPRS_MMI/Tools/MinGW/include/c++/3.3.1/bits/stl_alloc.h **** 
 340:d:/MTK/MTK2503/MTK2503/11CW1418SP4_03_CORETEK03AE_11C_V1_GPRS_MMI/Tools/MinGW/include/c++/3.3.1/bits/stl_alloc.h ****       union _Obj
 341:d:/MTK/MTK2503/MTK2503/11CW1418SP4_03_CORETEK03AE_11C_V1_GPRS_MMI/Tools/MinGW/include/c++/3.3.1/bits/stl_alloc.h ****       {
 342:d:/MTK/MTK2503/MTK2503/11CW1418SP4_03_CORETEK03AE_11C_V1_GPRS_MMI/Tools/MinGW/include/c++/3.3.1/bits/stl_alloc.h ****         union _Obj* _M_free_list_link;
 343:d:/MTK/MTK2503/MTK2503/11CW1418SP4_03_CORETEK03AE_11C_V1_GPRS_MMI/Tools/MinGW/include/c++/3.3.1/bits/stl_alloc.h ****         char        _M_client_data[1];    // The client sees this.
 344:d:/MTK/MTK2503/MTK2503/11CW1418SP4_03_CORETEK03AE_11C_V1_GPRS_MMI/Tools/MinGW/include/c++/3.3.1/bits/stl_alloc.h ****       };
 345:d:/MTK/MTK2503/MTK2503/11CW1418SP4_03_CORETEK03AE_11C_V1_GPRS_MMI/Tools/MinGW/include/c++/3.3.1/bits/stl_alloc.h **** 
 346:d:/MTK/MTK2503/MTK2503/11CW1418SP4_03_CORETEK03AE_11C_V1_GPRS_MMI/Tools/MinGW/include/c++/3.3.1/bits/stl_alloc.h ****       static _Obj* volatile         _S_free_list[_NFREELISTS];
 347:d:/MTK/MTK2503/MTK2503/11CW1418SP4_03_CORETEK03AE_11C_V1_GPRS_MMI/Tools/MinGW/include/c++/3.3.1/bits/stl_alloc.h **** 
 348:d:/MTK/MTK2503/MTK2503/11CW1418SP4_03_CORETEK03AE_11C_V1_GPRS_MMI/Tools/MinGW/include/c++/3.3.1/bits/stl_alloc.h ****       // Chunk allocation state.
 349:d:/MTK/MTK2503/MTK2503/11CW1418SP4_03_CORETEK03AE_11C_V1_GPRS_MMI/Tools/MinGW/include/c++/3.3.1/bits/stl_alloc.h ****       static char*                  _S_start_free;
 350:d:/MTK/MTK2503/MTK2503/11CW1418SP4_03_CORETEK03AE_11C_V1_GPRS_MMI/Tools/MinGW/include/c++/3.3.1/bits/stl_alloc.h ****       static char*                  _S_end_free;
 351:d:/MTK/MTK2503/MTK2503/11CW1418SP4_03_CORETEK03AE_11C_V1_GPRS_MMI/Tools/MinGW/include/c++/3.3.1/bits/stl_alloc.h ****       static size_t                 _S_heap_size;
 352:d:/MTK/MTK2503/MTK2503/11CW1418SP4_03_CORETEK03AE_11C_V1_GPRS_MMI/Tools/MinGW/include/c++/3.3.1/bits/stl_alloc.h **** 
 353:d:/MTK/MTK2503/MTK2503/11CW1418SP4_03_CORETEK03AE_11C_V1_GPRS_MMI/Tools/MinGW/include/c++/3.3.1/bits/stl_alloc.h ****       static _STL_mutex_lock        _S_node_allocator_lock;
 354:d:/MTK/MTK2503/MTK2503/11CW1418SP4_03_CORETEK03AE_11C_V1_GPRS_MMI/Tools/MinGW/include/c++/3.3.1/bits/stl_alloc.h **** 
 355:d:/MTK/MTK2503/MTK2503/11CW1418SP4_03_CORETEK03AE_11C_V1_GPRS_MMI/Tools/MinGW/include/c++/3.3.1/bits/stl_alloc.h ****       static size_t
 356:d:/MTK/MTK2503/MTK2503/11CW1418SP4_03_CORETEK03AE_11C_V1_GPRS_MMI/Tools/MinGW/include/c++/3.3.1/bits/stl_alloc.h ****       _S_round_up(size_t __bytes)
 357:d:/MTK/MTK2503/MTK2503/11CW1418SP4_03_CORETEK03AE_11C_V1_GPRS_MMI/Tools/MinGW/include/c++/3.3.1/bits/stl_alloc.h ****       { return (((__bytes) + (size_t) _ALIGN-1) & ~((size_t) _ALIGN - 1)); }
 358:d:/MTK/MTK2503/MTK2503/11CW1418SP4_03_CORETEK03AE_11C_V1_GPRS_MMI/Tools/MinGW/include/c++/3.3.1/bits/stl_alloc.h **** 
 359:d:/MTK/MTK2503/MTK2503/11CW1418SP4_03_CORETEK03AE_11C_V1_GPRS_MMI/Tools/MinGW/include/c++/3.3.1/bits/stl_alloc.h ****       static size_t
 360:d:/MTK/MTK2503/MTK2503/11CW1418SP4_03_CORETEK03AE_11C_V1_GPRS_MMI/Tools/MinGW/include/c++/3.3.1/bits/stl_alloc.h ****       _S_freelist_index(size_t __bytes)
 361:d:/MTK/MTK2503/MTK2503/11CW1418SP4_03_CORETEK03AE_11C_V1_GPRS_MMI/Tools/MinGW/include/c++/3.3.1/bits/stl_alloc.h ****       { return (((__bytes) + (size_t)_ALIGN - 1)/(size_t)_ALIGN - 1); }
 362:d:/MTK/MTK2503/MTK2503/11CW1418SP4_03_CORETEK03AE_11C_V1_GPRS_MMI/Tools/MinGW/include/c++/3.3.1/bits/stl_alloc.h **** 
 363:d:/MTK/MTK2503/MTK2503/11CW1418SP4_03_CORETEK03AE_11C_V1_GPRS_MMI/Tools/MinGW/include/c++/3.3.1/bits/stl_alloc.h ****       // Returns an object of size __n, and optionally adds to size __n
 364:d:/MTK/MTK2503/MTK2503/11CW1418SP4_03_CORETEK03AE_11C_V1_GPRS_MMI/Tools/MinGW/include/c++/3.3.1/bits/stl_alloc.h ****       // free list.
 365:d:/MTK/MTK2503/MTK2503/11CW1418SP4_03_CORETEK03AE_11C_V1_GPRS_MMI/Tools/MinGW/include/c++/3.3.1/bits/stl_alloc.h ****       static void*
 366:d:/MTK/MTK2503/MTK2503/11CW1418SP4_03_CORETEK03AE_11C_V1_GPRS_MMI/Tools/MinGW/include/c++/3.3.1/bits/stl_alloc.h ****       _S_refill(size_t __n);
 367:d:/MTK/MTK2503/MTK2503/11CW1418SP4_03_CORETEK03AE_11C_V1_GPRS_MMI/Tools/MinGW/include/c++/3.3.1/bits/stl_alloc.h **** 
 368:d:/MTK/MTK2503/MTK2503/11CW1418SP4_03_CORETEK03AE_11C_V1_GPRS_MMI/Tools/MinGW/include/c++/3.3.1/bits/stl_alloc.h ****       // Allocates a chunk for nobjs of size size.  nobjs may be reduced
 369:d:/MTK/MTK2503/MTK2503/11CW1418SP4_03_CORETEK03AE_11C_V1_GPRS_MMI/Tools/MinGW/include/c++/3.3.1/bits/stl_alloc.h ****       // if it is inconvenient to allocate the requested number.
 370:d:/MTK/MTK2503/MTK2503/11CW1418SP4_03_CORETEK03AE_11C_V1_GPRS_MMI/Tools/MinGW/include/c++/3.3.1/bits/stl_alloc.h ****       static char*
 371:d:/MTK/MTK2503/MTK2503/11CW1418SP4_03_CORETEK03AE_11C_V1_GPRS_MMI/Tools/MinGW/include/c++/3.3.1/bits/stl_alloc.h ****       _S_chunk_alloc(size_t __size, int& __nobjs);
 372:d:/MTK/MTK2503/MTK2503/11CW1418SP4_03_CORETEK03AE_11C_V1_GPRS_MMI/Tools/MinGW/include/c++/3.3.1/bits/stl_alloc.h **** 
GAS LISTING d:/MTK/MTK2503/MTK2503/11CW1418SP4_03_CORETEK03AE_11C_V1_GPRS_MMI/plutommi/Customer/ResGenerator/gcctmp/cck7daaa.s 			page 89


 373:d:/MTK/MTK2503/MTK2503/11CW1418SP4_03_CORETEK03AE_11C_V1_GPRS_MMI/Tools/MinGW/include/c++/3.3.1/bits/stl_alloc.h ****       // It would be nice to use _STL_auto_lock here.  But we need a
 374:d:/MTK/MTK2503/MTK2503/11CW1418SP4_03_CORETEK03AE_11C_V1_GPRS_MMI/Tools/MinGW/include/c++/3.3.1/bits/stl_alloc.h ****       // test whether threads are in use.
 375:d:/MTK/MTK2503/MTK2503/11CW1418SP4_03_CORETEK03AE_11C_V1_GPRS_MMI/Tools/MinGW/include/c++/3.3.1/bits/stl_alloc.h ****       struct _Lock
 376:d:/MTK/MTK2503/MTK2503/11CW1418SP4_03_CORETEK03AE_11C_V1_GPRS_MMI/Tools/MinGW/include/c++/3.3.1/bits/stl_alloc.h ****       {
 377:d:/MTK/MTK2503/MTK2503/11CW1418SP4_03_CORETEK03AE_11C_V1_GPRS_MMI/Tools/MinGW/include/c++/3.3.1/bits/stl_alloc.h ****         _Lock() { if (__threads) _S_node_allocator_lock._M_acquire_lock(); }
 378:d:/MTK/MTK2503/MTK2503/11CW1418SP4_03_CORETEK03AE_11C_V1_GPRS_MMI/Tools/MinGW/include/c++/3.3.1/bits/stl_alloc.h ****         ~_Lock() { if (__threads) _S_node_allocator_lock._M_release_lock(); }
 379:d:/MTK/MTK2503/MTK2503/11CW1418SP4_03_CORETEK03AE_11C_V1_GPRS_MMI/Tools/MinGW/include/c++/3.3.1/bits/stl_alloc.h ****       } __attribute__ ((__unused__));
 380:d:/MTK/MTK2503/MTK2503/11CW1418SP4_03_CORETEK03AE_11C_V1_GPRS_MMI/Tools/MinGW/include/c++/3.3.1/bits/stl_alloc.h ****       friend struct _Lock;
 381:d:/MTK/MTK2503/MTK2503/11CW1418SP4_03_CORETEK03AE_11C_V1_GPRS_MMI/Tools/MinGW/include/c++/3.3.1/bits/stl_alloc.h **** 
 382:d:/MTK/MTK2503/MTK2503/11CW1418SP4_03_CORETEK03AE_11C_V1_GPRS_MMI/Tools/MinGW/include/c++/3.3.1/bits/stl_alloc.h ****       static _Atomic_word _S_force_new;
 383:d:/MTK/MTK2503/MTK2503/11CW1418SP4_03_CORETEK03AE_11C_V1_GPRS_MMI/Tools/MinGW/include/c++/3.3.1/bits/stl_alloc.h **** 
 384:d:/MTK/MTK2503/MTK2503/11CW1418SP4_03_CORETEK03AE_11C_V1_GPRS_MMI/Tools/MinGW/include/c++/3.3.1/bits/stl_alloc.h ****     public:
 385:d:/MTK/MTK2503/MTK2503/11CW1418SP4_03_CORETEK03AE_11C_V1_GPRS_MMI/Tools/MinGW/include/c++/3.3.1/bits/stl_alloc.h ****       // __n must be > 0
 386:d:/MTK/MTK2503/MTK2503/11CW1418SP4_03_CORETEK03AE_11C_V1_GPRS_MMI/Tools/MinGW/include/c++/3.3.1/bits/stl_alloc.h ****       static void*
 387:d:/MTK/MTK2503/MTK2503/11CW1418SP4_03_CORETEK03AE_11C_V1_GPRS_MMI/Tools/MinGW/include/c++/3.3.1/bits/stl_alloc.h ****       allocate(size_t __n)
 388:d:/MTK/MTK2503/MTK2503/11CW1418SP4_03_CORETEK03AE_11C_V1_GPRS_MMI/Tools/MinGW/include/c++/3.3.1/bits/stl_alloc.h ****       {
 389:d:/MTK/MTK2503/MTK2503/11CW1418SP4_03_CORETEK03AE_11C_V1_GPRS_MMI/Tools/MinGW/include/c++/3.3.1/bits/stl_alloc.h **** 	void* __ret = 0;
 390:d:/MTK/MTK2503/MTK2503/11CW1418SP4_03_CORETEK03AE_11C_V1_GPRS_MMI/Tools/MinGW/include/c++/3.3.1/bits/stl_alloc.h **** 
 391:d:/MTK/MTK2503/MTK2503/11CW1418SP4_03_CORETEK03AE_11C_V1_GPRS_MMI/Tools/MinGW/include/c++/3.3.1/bits/stl_alloc.h **** 	// If there is a race through here, assume answer from getenv
 392:d:/MTK/MTK2503/MTK2503/11CW1418SP4_03_CORETEK03AE_11C_V1_GPRS_MMI/Tools/MinGW/include/c++/3.3.1/bits/stl_alloc.h **** 	// will resolve in same direction.  Inspired by techniques
 393:d:/MTK/MTK2503/MTK2503/11CW1418SP4_03_CORETEK03AE_11C_V1_GPRS_MMI/Tools/MinGW/include/c++/3.3.1/bits/stl_alloc.h **** 	// to efficiently support threading found in basic_string.h.
 394:d:/MTK/MTK2503/MTK2503/11CW1418SP4_03_CORETEK03AE_11C_V1_GPRS_MMI/Tools/MinGW/include/c++/3.3.1/bits/stl_alloc.h **** 	if (_S_force_new == 0)
 395:d:/MTK/MTK2503/MTK2503/11CW1418SP4_03_CORETEK03AE_11C_V1_GPRS_MMI/Tools/MinGW/include/c++/3.3.1/bits/stl_alloc.h **** 	  {
 396:d:/MTK/MTK2503/MTK2503/11CW1418SP4_03_CORETEK03AE_11C_V1_GPRS_MMI/Tools/MinGW/include/c++/3.3.1/bits/stl_alloc.h **** 	    if (getenv("GLIBCPP_FORCE_NEW"))
 397:d:/MTK/MTK2503/MTK2503/11CW1418SP4_03_CORETEK03AE_11C_V1_GPRS_MMI/Tools/MinGW/include/c++/3.3.1/bits/stl_alloc.h **** 	      __atomic_add(&_S_force_new, 1);
 398:d:/MTK/MTK2503/MTK2503/11CW1418SP4_03_CORETEK03AE_11C_V1_GPRS_MMI/Tools/MinGW/include/c++/3.3.1/bits/stl_alloc.h **** 	    else
 399:d:/MTK/MTK2503/MTK2503/11CW1418SP4_03_CORETEK03AE_11C_V1_GPRS_MMI/Tools/MinGW/include/c++/3.3.1/bits/stl_alloc.h **** 	      __atomic_add(&_S_force_new, -1);
 400:d:/MTK/MTK2503/MTK2503/11CW1418SP4_03_CORETEK03AE_11C_V1_GPRS_MMI/Tools/MinGW/include/c++/3.3.1/bits/stl_alloc.h **** 	  }
 401:d:/MTK/MTK2503/MTK2503/11CW1418SP4_03_CORETEK03AE_11C_V1_GPRS_MMI/Tools/MinGW/include/c++/3.3.1/bits/stl_alloc.h **** 
 402:d:/MTK/MTK2503/MTK2503/11CW1418SP4_03_CORETEK03AE_11C_V1_GPRS_MMI/Tools/MinGW/include/c++/3.3.1/bits/stl_alloc.h **** 	if ((__n > (size_t) _MAX_BYTES) || (_S_force_new > 0))
 403:d:/MTK/MTK2503/MTK2503/11CW1418SP4_03_CORETEK03AE_11C_V1_GPRS_MMI/Tools/MinGW/include/c++/3.3.1/bits/stl_alloc.h **** 	  __ret = __new_alloc::allocate(__n);
 404:d:/MTK/MTK2503/MTK2503/11CW1418SP4_03_CORETEK03AE_11C_V1_GPRS_MMI/Tools/MinGW/include/c++/3.3.1/bits/stl_alloc.h **** 	else
 405:d:/MTK/MTK2503/MTK2503/11CW1418SP4_03_CORETEK03AE_11C_V1_GPRS_MMI/Tools/MinGW/include/c++/3.3.1/bits/stl_alloc.h **** 	  {
 406:d:/MTK/MTK2503/MTK2503/11CW1418SP4_03_CORETEK03AE_11C_V1_GPRS_MMI/Tools/MinGW/include/c++/3.3.1/bits/stl_alloc.h **** 	    _Obj* volatile* __my_free_list = _S_free_list
 407:d:/MTK/MTK2503/MTK2503/11CW1418SP4_03_CORETEK03AE_11C_V1_GPRS_MMI/Tools/MinGW/include/c++/3.3.1/bits/stl_alloc.h **** 	      + _S_freelist_index(__n);
 408:d:/MTK/MTK2503/MTK2503/11CW1418SP4_03_CORETEK03AE_11C_V1_GPRS_MMI/Tools/MinGW/include/c++/3.3.1/bits/stl_alloc.h **** 	    // Acquire the lock here with a constructor call.  This
 409:d:/MTK/MTK2503/MTK2503/11CW1418SP4_03_CORETEK03AE_11C_V1_GPRS_MMI/Tools/MinGW/include/c++/3.3.1/bits/stl_alloc.h **** 	    // ensures that it is released in exit or during stack
 410:d:/MTK/MTK2503/MTK2503/11CW1418SP4_03_CORETEK03AE_11C_V1_GPRS_MMI/Tools/MinGW/include/c++/3.3.1/bits/stl_alloc.h **** 	    // unwinding.
 411:d:/MTK/MTK2503/MTK2503/11CW1418SP4_03_CORETEK03AE_11C_V1_GPRS_MMI/Tools/MinGW/include/c++/3.3.1/bits/stl_alloc.h **** 	    _Lock __lock_instance;
 412:d:/MTK/MTK2503/MTK2503/11CW1418SP4_03_CORETEK03AE_11C_V1_GPRS_MMI/Tools/MinGW/include/c++/3.3.1/bits/stl_alloc.h **** 	    _Obj* __restrict__ __result = *__my_free_list;
 413:d:/MTK/MTK2503/MTK2503/11CW1418SP4_03_CORETEK03AE_11C_V1_GPRS_MMI/Tools/MinGW/include/c++/3.3.1/bits/stl_alloc.h **** 	    if (__builtin_expect(__result == 0, 0))
 414:d:/MTK/MTK2503/MTK2503/11CW1418SP4_03_CORETEK03AE_11C_V1_GPRS_MMI/Tools/MinGW/include/c++/3.3.1/bits/stl_alloc.h **** 	      __ret = _S_refill(_S_round_up(__n));
 415:d:/MTK/MTK2503/MTK2503/11CW1418SP4_03_CORETEK03AE_11C_V1_GPRS_MMI/Tools/MinGW/include/c++/3.3.1/bits/stl_alloc.h **** 	    else
 416:d:/MTK/MTK2503/MTK2503/11CW1418SP4_03_CORETEK03AE_11C_V1_GPRS_MMI/Tools/MinGW/include/c++/3.3.1/bits/stl_alloc.h **** 	      {
 417:d:/MTK/MTK2503/MTK2503/11CW1418SP4_03_CORETEK03AE_11C_V1_GPRS_MMI/Tools/MinGW/include/c++/3.3.1/bits/stl_alloc.h **** 		*__my_free_list = __result -> _M_free_list_link;
 418:d:/MTK/MTK2503/MTK2503/11CW1418SP4_03_CORETEK03AE_11C_V1_GPRS_MMI/Tools/MinGW/include/c++/3.3.1/bits/stl_alloc.h **** 		__ret = __result;
 419:d:/MTK/MTK2503/MTK2503/11CW1418SP4_03_CORETEK03AE_11C_V1_GPRS_MMI/Tools/MinGW/include/c++/3.3.1/bits/stl_alloc.h **** 	      }	    
 420:d:/MTK/MTK2503/MTK2503/11CW1418SP4_03_CORETEK03AE_11C_V1_GPRS_MMI/Tools/MinGW/include/c++/3.3.1/bits/stl_alloc.h **** 	    if (__builtin_expect(__ret == 0, 0))
 421:d:/MTK/MTK2503/MTK2503/11CW1418SP4_03_CORETEK03AE_11C_V1_GPRS_MMI/Tools/MinGW/include/c++/3.3.1/bits/stl_alloc.h **** 	      __throw_bad_alloc();
 422:d:/MTK/MTK2503/MTK2503/11CW1418SP4_03_CORETEK03AE_11C_V1_GPRS_MMI/Tools/MinGW/include/c++/3.3.1/bits/stl_alloc.h **** 	  }
 423:d:/MTK/MTK2503/MTK2503/11CW1418SP4_03_CORETEK03AE_11C_V1_GPRS_MMI/Tools/MinGW/include/c++/3.3.1/bits/stl_alloc.h **** 	return __ret;
 424:d:/MTK/MTK2503/MTK2503/11CW1418SP4_03_CORETEK03AE_11C_V1_GPRS_MMI/Tools/MinGW/include/c++/3.3.1/bits/stl_alloc.h ****       }
 425:d:/MTK/MTK2503/MTK2503/11CW1418SP4_03_CORETEK03AE_11C_V1_GPRS_MMI/Tools/MinGW/include/c++/3.3.1/bits/stl_alloc.h **** 
 426:d:/MTK/MTK2503/MTK2503/11CW1418SP4_03_CORETEK03AE_11C_V1_GPRS_MMI/Tools/MinGW/include/c++/3.3.1/bits/stl_alloc.h ****       // __p may not be 0
 427:d:/MTK/MTK2503/MTK2503/11CW1418SP4_03_CORETEK03AE_11C_V1_GPRS_MMI/Tools/MinGW/include/c++/3.3.1/bits/stl_alloc.h ****       static void
 428:d:/MTK/MTK2503/MTK2503/11CW1418SP4_03_CORETEK03AE_11C_V1_GPRS_MMI/Tools/MinGW/include/c++/3.3.1/bits/stl_alloc.h ****       deallocate(void* __p, size_t __n)
 429:d:/MTK/MTK2503/MTK2503/11CW1418SP4_03_CORETEK03AE_11C_V1_GPRS_MMI/Tools/MinGW/include/c++/3.3.1/bits/stl_alloc.h ****       {
GAS LISTING d:/MTK/MTK2503/MTK2503/11CW1418SP4_03_CORETEK03AE_11C_V1_GPRS_MMI/plutommi/Customer/ResGenerator/gcctmp/cck7daaa.s 			page 90


 430:d:/MTK/MTK2503/MTK2503/11CW1418SP4_03_CORETEK03AE_11C_V1_GPRS_MMI/Tools/MinGW/include/c++/3.3.1/bits/stl_alloc.h **** 	if ((__n > (size_t) _MAX_BYTES) || (_S_force_new > 0))
 431:d:/MTK/MTK2503/MTK2503/11CW1418SP4_03_CORETEK03AE_11C_V1_GPRS_MMI/Tools/MinGW/include/c++/3.3.1/bits/stl_alloc.h **** 	  __new_alloc::deallocate(__p, __n);
 432:d:/MTK/MTK2503/MTK2503/11CW1418SP4_03_CORETEK03AE_11C_V1_GPRS_MMI/Tools/MinGW/include/c++/3.3.1/bits/stl_alloc.h **** 	else
 433:d:/MTK/MTK2503/MTK2503/11CW1418SP4_03_CORETEK03AE_11C_V1_GPRS_MMI/Tools/MinGW/include/c++/3.3.1/bits/stl_alloc.h **** 	  {
 434:d:/MTK/MTK2503/MTK2503/11CW1418SP4_03_CORETEK03AE_11C_V1_GPRS_MMI/Tools/MinGW/include/c++/3.3.1/bits/stl_alloc.h **** 	    _Obj* volatile*  __my_free_list = _S_free_list
 435:d:/MTK/MTK2503/MTK2503/11CW1418SP4_03_CORETEK03AE_11C_V1_GPRS_MMI/Tools/MinGW/include/c++/3.3.1/bits/stl_alloc.h **** 	      + _S_freelist_index(__n);
 436:d:/MTK/MTK2503/MTK2503/11CW1418SP4_03_CORETEK03AE_11C_V1_GPRS_MMI/Tools/MinGW/include/c++/3.3.1/bits/stl_alloc.h **** 	    _Obj* __q = (_Obj*)__p;
 437:d:/MTK/MTK2503/MTK2503/11CW1418SP4_03_CORETEK03AE_11C_V1_GPRS_MMI/Tools/MinGW/include/c++/3.3.1/bits/stl_alloc.h **** 
 438:d:/MTK/MTK2503/MTK2503/11CW1418SP4_03_CORETEK03AE_11C_V1_GPRS_MMI/Tools/MinGW/include/c++/3.3.1/bits/stl_alloc.h **** 	    // Acquire the lock here with a constructor call.  This
 439:d:/MTK/MTK2503/MTK2503/11CW1418SP4_03_CORETEK03AE_11C_V1_GPRS_MMI/Tools/MinGW/include/c++/3.3.1/bits/stl_alloc.h **** 	    // ensures that it is released in exit or during stack
 440:d:/MTK/MTK2503/MTK2503/11CW1418SP4_03_CORETEK03AE_11C_V1_GPRS_MMI/Tools/MinGW/include/c++/3.3.1/bits/stl_alloc.h **** 	    // unwinding.
 441:d:/MTK/MTK2503/MTK2503/11CW1418SP4_03_CORETEK03AE_11C_V1_GPRS_MMI/Tools/MinGW/include/c++/3.3.1/bits/stl_alloc.h **** 	    _Lock __lock_instance;
 442:d:/MTK/MTK2503/MTK2503/11CW1418SP4_03_CORETEK03AE_11C_V1_GPRS_MMI/Tools/MinGW/include/c++/3.3.1/bits/stl_alloc.h **** 	    __q -> _M_free_list_link = *__my_free_list;
 443:d:/MTK/MTK2503/MTK2503/11CW1418SP4_03_CORETEK03AE_11C_V1_GPRS_MMI/Tools/MinGW/include/c++/3.3.1/bits/stl_alloc.h **** 	    *__my_free_list = __q;
 444:d:/MTK/MTK2503/MTK2503/11CW1418SP4_03_CORETEK03AE_11C_V1_GPRS_MMI/Tools/MinGW/include/c++/3.3.1/bits/stl_alloc.h **** 	  }
 445:d:/MTK/MTK2503/MTK2503/11CW1418SP4_03_CORETEK03AE_11C_V1_GPRS_MMI/Tools/MinGW/include/c++/3.3.1/bits/stl_alloc.h ****       }
 446:d:/MTK/MTK2503/MTK2503/11CW1418SP4_03_CORETEK03AE_11C_V1_GPRS_MMI/Tools/MinGW/include/c++/3.3.1/bits/stl_alloc.h **** 
 447:d:/MTK/MTK2503/MTK2503/11CW1418SP4_03_CORETEK03AE_11C_V1_GPRS_MMI/Tools/MinGW/include/c++/3.3.1/bits/stl_alloc.h ****       static void*
 448:d:/MTK/MTK2503/MTK2503/11CW1418SP4_03_CORETEK03AE_11C_V1_GPRS_MMI/Tools/MinGW/include/c++/3.3.1/bits/stl_alloc.h ****       reallocate(void* __p, size_t __old_sz, size_t __new_sz);
 449:d:/MTK/MTK2503/MTK2503/11CW1418SP4_03_CORETEK03AE_11C_V1_GPRS_MMI/Tools/MinGW/include/c++/3.3.1/bits/stl_alloc.h ****     };
 450:d:/MTK/MTK2503/MTK2503/11CW1418SP4_03_CORETEK03AE_11C_V1_GPRS_MMI/Tools/MinGW/include/c++/3.3.1/bits/stl_alloc.h **** 
 451:d:/MTK/MTK2503/MTK2503/11CW1418SP4_03_CORETEK03AE_11C_V1_GPRS_MMI/Tools/MinGW/include/c++/3.3.1/bits/stl_alloc.h ****   template<bool __threads, int __inst> _Atomic_word
 452:d:/MTK/MTK2503/MTK2503/11CW1418SP4_03_CORETEK03AE_11C_V1_GPRS_MMI/Tools/MinGW/include/c++/3.3.1/bits/stl_alloc.h ****   __default_alloc_template<__threads, __inst>::_S_force_new = 0;
 453:d:/MTK/MTK2503/MTK2503/11CW1418SP4_03_CORETEK03AE_11C_V1_GPRS_MMI/Tools/MinGW/include/c++/3.3.1/bits/stl_alloc.h **** 
 454:d:/MTK/MTK2503/MTK2503/11CW1418SP4_03_CORETEK03AE_11C_V1_GPRS_MMI/Tools/MinGW/include/c++/3.3.1/bits/stl_alloc.h ****   template<bool __threads, int __inst>
 455:d:/MTK/MTK2503/MTK2503/11CW1418SP4_03_CORETEK03AE_11C_V1_GPRS_MMI/Tools/MinGW/include/c++/3.3.1/bits/stl_alloc.h ****     inline bool
 456:d:/MTK/MTK2503/MTK2503/11CW1418SP4_03_CORETEK03AE_11C_V1_GPRS_MMI/Tools/MinGW/include/c++/3.3.1/bits/stl_alloc.h ****     operator==(const __default_alloc_template<__threads,__inst>&,
 457:d:/MTK/MTK2503/MTK2503/11CW1418SP4_03_CORETEK03AE_11C_V1_GPRS_MMI/Tools/MinGW/include/c++/3.3.1/bits/stl_alloc.h ****                const __default_alloc_template<__threads,__inst>&)
 458:d:/MTK/MTK2503/MTK2503/11CW1418SP4_03_CORETEK03AE_11C_V1_GPRS_MMI/Tools/MinGW/include/c++/3.3.1/bits/stl_alloc.h ****     { return true; }
 459:d:/MTK/MTK2503/MTK2503/11CW1418SP4_03_CORETEK03AE_11C_V1_GPRS_MMI/Tools/MinGW/include/c++/3.3.1/bits/stl_alloc.h **** 
 460:d:/MTK/MTK2503/MTK2503/11CW1418SP4_03_CORETEK03AE_11C_V1_GPRS_MMI/Tools/MinGW/include/c++/3.3.1/bits/stl_alloc.h ****   template<bool __threads, int __inst>
 461:d:/MTK/MTK2503/MTK2503/11CW1418SP4_03_CORETEK03AE_11C_V1_GPRS_MMI/Tools/MinGW/include/c++/3.3.1/bits/stl_alloc.h ****     inline bool
 462:d:/MTK/MTK2503/MTK2503/11CW1418SP4_03_CORETEK03AE_11C_V1_GPRS_MMI/Tools/MinGW/include/c++/3.3.1/bits/stl_alloc.h ****     operator!=(const __default_alloc_template<__threads,__inst>&,
 463:d:/MTK/MTK2503/MTK2503/11CW1418SP4_03_CORETEK03AE_11C_V1_GPRS_MMI/Tools/MinGW/include/c++/3.3.1/bits/stl_alloc.h ****                const __default_alloc_template<__threads,__inst>&)
 464:d:/MTK/MTK2503/MTK2503/11CW1418SP4_03_CORETEK03AE_11C_V1_GPRS_MMI/Tools/MinGW/include/c++/3.3.1/bits/stl_alloc.h ****     { return false; }
 465:d:/MTK/MTK2503/MTK2503/11CW1418SP4_03_CORETEK03AE_11C_V1_GPRS_MMI/Tools/MinGW/include/c++/3.3.1/bits/stl_alloc.h **** 
 466:d:/MTK/MTK2503/MTK2503/11CW1418SP4_03_CORETEK03AE_11C_V1_GPRS_MMI/Tools/MinGW/include/c++/3.3.1/bits/stl_alloc.h **** 
 467:d:/MTK/MTK2503/MTK2503/11CW1418SP4_03_CORETEK03AE_11C_V1_GPRS_MMI/Tools/MinGW/include/c++/3.3.1/bits/stl_alloc.h ****   // We allocate memory in large chunks in order to avoid fragmenting the
 468:d:/MTK/MTK2503/MTK2503/11CW1418SP4_03_CORETEK03AE_11C_V1_GPRS_MMI/Tools/MinGW/include/c++/3.3.1/bits/stl_alloc.h ****   // heap too much.  We assume that __size is properly aligned.  We hold
 469:d:/MTK/MTK2503/MTK2503/11CW1418SP4_03_CORETEK03AE_11C_V1_GPRS_MMI/Tools/MinGW/include/c++/3.3.1/bits/stl_alloc.h ****   // the allocation lock.
 470:d:/MTK/MTK2503/MTK2503/11CW1418SP4_03_CORETEK03AE_11C_V1_GPRS_MMI/Tools/MinGW/include/c++/3.3.1/bits/stl_alloc.h ****   template<bool __threads, int __inst>
 471:d:/MTK/MTK2503/MTK2503/11CW1418SP4_03_CORETEK03AE_11C_V1_GPRS_MMI/Tools/MinGW/include/c++/3.3.1/bits/stl_alloc.h ****     char*
 472:d:/MTK/MTK2503/MTK2503/11CW1418SP4_03_CORETEK03AE_11C_V1_GPRS_MMI/Tools/MinGW/include/c++/3.3.1/bits/stl_alloc.h ****     __default_alloc_template<__threads, __inst>::
 473:d:/MTK/MTK2503/MTK2503/11CW1418SP4_03_CORETEK03AE_11C_V1_GPRS_MMI/Tools/MinGW/include/c++/3.3.1/bits/stl_alloc.h ****     _S_chunk_alloc(size_t __size, int& __nobjs)
 474:d:/MTK/MTK2503/MTK2503/11CW1418SP4_03_CORETEK03AE_11C_V1_GPRS_MMI/Tools/MinGW/include/c++/3.3.1/bits/stl_alloc.h ****     {
 475:d:/MTK/MTK2503/MTK2503/11CW1418SP4_03_CORETEK03AE_11C_V1_GPRS_MMI/Tools/MinGW/include/c++/3.3.1/bits/stl_alloc.h ****       char* __result;
 476:d:/MTK/MTK2503/MTK2503/11CW1418SP4_03_CORETEK03AE_11C_V1_GPRS_MMI/Tools/MinGW/include/c++/3.3.1/bits/stl_alloc.h ****       size_t __total_bytes = __size * __nobjs;
 477:d:/MTK/MTK2503/MTK2503/11CW1418SP4_03_CORETEK03AE_11C_V1_GPRS_MMI/Tools/MinGW/include/c++/3.3.1/bits/stl_alloc.h ****       size_t __bytes_left = _S_end_free - _S_start_free;
 478:d:/MTK/MTK2503/MTK2503/11CW1418SP4_03_CORETEK03AE_11C_V1_GPRS_MMI/Tools/MinGW/include/c++/3.3.1/bits/stl_alloc.h **** 
 479:d:/MTK/MTK2503/MTK2503/11CW1418SP4_03_CORETEK03AE_11C_V1_GPRS_MMI/Tools/MinGW/include/c++/3.3.1/bits/stl_alloc.h ****       if (__bytes_left >= __total_bytes)
 480:d:/MTK/MTK2503/MTK2503/11CW1418SP4_03_CORETEK03AE_11C_V1_GPRS_MMI/Tools/MinGW/include/c++/3.3.1/bits/stl_alloc.h ****         {
 481:d:/MTK/MTK2503/MTK2503/11CW1418SP4_03_CORETEK03AE_11C_V1_GPRS_MMI/Tools/MinGW/include/c++/3.3.1/bits/stl_alloc.h ****           __result = _S_start_free;
 482:d:/MTK/MTK2503/MTK2503/11CW1418SP4_03_CORETEK03AE_11C_V1_GPRS_MMI/Tools/MinGW/include/c++/3.3.1/bits/stl_alloc.h ****           _S_start_free += __total_bytes;
 483:d:/MTK/MTK2503/MTK2503/11CW1418SP4_03_CORETEK03AE_11C_V1_GPRS_MMI/Tools/MinGW/include/c++/3.3.1/bits/stl_alloc.h ****           return __result ;
 484:d:/MTK/MTK2503/MTK2503/11CW1418SP4_03_CORETEK03AE_11C_V1_GPRS_MMI/Tools/MinGW/include/c++/3.3.1/bits/stl_alloc.h ****         }
 485:d:/MTK/MTK2503/MTK2503/11CW1418SP4_03_CORETEK03AE_11C_V1_GPRS_MMI/Tools/MinGW/include/c++/3.3.1/bits/stl_alloc.h ****       else if (__bytes_left >= __size)
 486:d:/MTK/MTK2503/MTK2503/11CW1418SP4_03_CORETEK03AE_11C_V1_GPRS_MMI/Tools/MinGW/include/c++/3.3.1/bits/stl_alloc.h ****         {
GAS LISTING d:/MTK/MTK2503/MTK2503/11CW1418SP4_03_CORETEK03AE_11C_V1_GPRS_MMI/plutommi/Customer/ResGenerator/gcctmp/cck7daaa.s 			page 91


 487:d:/MTK/MTK2503/MTK2503/11CW1418SP4_03_CORETEK03AE_11C_V1_GPRS_MMI/Tools/MinGW/include/c++/3.3.1/bits/stl_alloc.h ****           __nobjs = (int)(__bytes_left/__size);
 488:d:/MTK/MTK2503/MTK2503/11CW1418SP4_03_CORETEK03AE_11C_V1_GPRS_MMI/Tools/MinGW/include/c++/3.3.1/bits/stl_alloc.h ****           __total_bytes = __size * __nobjs;
 489:d:/MTK/MTK2503/MTK2503/11CW1418SP4_03_CORETEK03AE_11C_V1_GPRS_MMI/Tools/MinGW/include/c++/3.3.1/bits/stl_alloc.h ****           __result = _S_start_free;
 490:d:/MTK/MTK2503/MTK2503/11CW1418SP4_03_CORETEK03AE_11C_V1_GPRS_MMI/Tools/MinGW/include/c++/3.3.1/bits/stl_alloc.h ****           _S_start_free += __total_bytes;
 491:d:/MTK/MTK2503/MTK2503/11CW1418SP4_03_CORETEK03AE_11C_V1_GPRS_MMI/Tools/MinGW/include/c++/3.3.1/bits/stl_alloc.h ****           return __result;
 492:d:/MTK/MTK2503/MTK2503/11CW1418SP4_03_CORETEK03AE_11C_V1_GPRS_MMI/Tools/MinGW/include/c++/3.3.1/bits/stl_alloc.h ****         }
 493:d:/MTK/MTK2503/MTK2503/11CW1418SP4_03_CORETEK03AE_11C_V1_GPRS_MMI/Tools/MinGW/include/c++/3.3.1/bits/stl_alloc.h ****       else
 494:d:/MTK/MTK2503/MTK2503/11CW1418SP4_03_CORETEK03AE_11C_V1_GPRS_MMI/Tools/MinGW/include/c++/3.3.1/bits/stl_alloc.h ****         {
 495:d:/MTK/MTK2503/MTK2503/11CW1418SP4_03_CORETEK03AE_11C_V1_GPRS_MMI/Tools/MinGW/include/c++/3.3.1/bits/stl_alloc.h ****           size_t __bytes_to_get =
 496:d:/MTK/MTK2503/MTK2503/11CW1418SP4_03_CORETEK03AE_11C_V1_GPRS_MMI/Tools/MinGW/include/c++/3.3.1/bits/stl_alloc.h ****             2 * __total_bytes + _S_round_up(_S_heap_size >> 4);
 497:d:/MTK/MTK2503/MTK2503/11CW1418SP4_03_CORETEK03AE_11C_V1_GPRS_MMI/Tools/MinGW/include/c++/3.3.1/bits/stl_alloc.h ****           // Try to make use of the left-over piece.
 498:d:/MTK/MTK2503/MTK2503/11CW1418SP4_03_CORETEK03AE_11C_V1_GPRS_MMI/Tools/MinGW/include/c++/3.3.1/bits/stl_alloc.h ****           if (__bytes_left > 0)
 499:d:/MTK/MTK2503/MTK2503/11CW1418SP4_03_CORETEK03AE_11C_V1_GPRS_MMI/Tools/MinGW/include/c++/3.3.1/bits/stl_alloc.h ****             {
 500:d:/MTK/MTK2503/MTK2503/11CW1418SP4_03_CORETEK03AE_11C_V1_GPRS_MMI/Tools/MinGW/include/c++/3.3.1/bits/stl_alloc.h ****               _Obj* volatile* __my_free_list =
 501:d:/MTK/MTK2503/MTK2503/11CW1418SP4_03_CORETEK03AE_11C_V1_GPRS_MMI/Tools/MinGW/include/c++/3.3.1/bits/stl_alloc.h ****                 _S_free_list + _S_freelist_index(__bytes_left);
 502:d:/MTK/MTK2503/MTK2503/11CW1418SP4_03_CORETEK03AE_11C_V1_GPRS_MMI/Tools/MinGW/include/c++/3.3.1/bits/stl_alloc.h **** 
 503:d:/MTK/MTK2503/MTK2503/11CW1418SP4_03_CORETEK03AE_11C_V1_GPRS_MMI/Tools/MinGW/include/c++/3.3.1/bits/stl_alloc.h ****               ((_Obj*)(void*)_S_start_free) -> _M_free_list_link = *__my_free_list;
 504:d:/MTK/MTK2503/MTK2503/11CW1418SP4_03_CORETEK03AE_11C_V1_GPRS_MMI/Tools/MinGW/include/c++/3.3.1/bits/stl_alloc.h ****               *__my_free_list = (_Obj*)(void*)_S_start_free;
 505:d:/MTK/MTK2503/MTK2503/11CW1418SP4_03_CORETEK03AE_11C_V1_GPRS_MMI/Tools/MinGW/include/c++/3.3.1/bits/stl_alloc.h ****             }
 506:d:/MTK/MTK2503/MTK2503/11CW1418SP4_03_CORETEK03AE_11C_V1_GPRS_MMI/Tools/MinGW/include/c++/3.3.1/bits/stl_alloc.h ****           _S_start_free = (char*) __new_alloc::allocate(__bytes_to_get);
 507:d:/MTK/MTK2503/MTK2503/11CW1418SP4_03_CORETEK03AE_11C_V1_GPRS_MMI/Tools/MinGW/include/c++/3.3.1/bits/stl_alloc.h ****           if (_S_start_free == 0)
 508:d:/MTK/MTK2503/MTK2503/11CW1418SP4_03_CORETEK03AE_11C_V1_GPRS_MMI/Tools/MinGW/include/c++/3.3.1/bits/stl_alloc.h ****             {
 509:d:/MTK/MTK2503/MTK2503/11CW1418SP4_03_CORETEK03AE_11C_V1_GPRS_MMI/Tools/MinGW/include/c++/3.3.1/bits/stl_alloc.h ****               size_t __i;
 510:d:/MTK/MTK2503/MTK2503/11CW1418SP4_03_CORETEK03AE_11C_V1_GPRS_MMI/Tools/MinGW/include/c++/3.3.1/bits/stl_alloc.h ****               _Obj* volatile* __my_free_list;
 511:d:/MTK/MTK2503/MTK2503/11CW1418SP4_03_CORETEK03AE_11C_V1_GPRS_MMI/Tools/MinGW/include/c++/3.3.1/bits/stl_alloc.h ****               _Obj* __p;
 512:d:/MTK/MTK2503/MTK2503/11CW1418SP4_03_CORETEK03AE_11C_V1_GPRS_MMI/Tools/MinGW/include/c++/3.3.1/bits/stl_alloc.h ****               // Try to make do with what we have.  That can't hurt.  We
 513:d:/MTK/MTK2503/MTK2503/11CW1418SP4_03_CORETEK03AE_11C_V1_GPRS_MMI/Tools/MinGW/include/c++/3.3.1/bits/stl_alloc.h ****               // do not try smaller requests, since that tends to result
 514:d:/MTK/MTK2503/MTK2503/11CW1418SP4_03_CORETEK03AE_11C_V1_GPRS_MMI/Tools/MinGW/include/c++/3.3.1/bits/stl_alloc.h ****               // in disaster on multi-process machines.
 515:d:/MTK/MTK2503/MTK2503/11CW1418SP4_03_CORETEK03AE_11C_V1_GPRS_MMI/Tools/MinGW/include/c++/3.3.1/bits/stl_alloc.h ****               __i = __size;
 516:d:/MTK/MTK2503/MTK2503/11CW1418SP4_03_CORETEK03AE_11C_V1_GPRS_MMI/Tools/MinGW/include/c++/3.3.1/bits/stl_alloc.h ****               for (; __i <= (size_t) _MAX_BYTES; __i += (size_t) _ALIGN)
 517:d:/MTK/MTK2503/MTK2503/11CW1418SP4_03_CORETEK03AE_11C_V1_GPRS_MMI/Tools/MinGW/include/c++/3.3.1/bits/stl_alloc.h ****                 {
 518:d:/MTK/MTK2503/MTK2503/11CW1418SP4_03_CORETEK03AE_11C_V1_GPRS_MMI/Tools/MinGW/include/c++/3.3.1/bits/stl_alloc.h ****                   __my_free_list = _S_free_list + _S_freelist_index(__i);
 519:d:/MTK/MTK2503/MTK2503/11CW1418SP4_03_CORETEK03AE_11C_V1_GPRS_MMI/Tools/MinGW/include/c++/3.3.1/bits/stl_alloc.h ****                   __p = *__my_free_list;
 520:d:/MTK/MTK2503/MTK2503/11CW1418SP4_03_CORETEK03AE_11C_V1_GPRS_MMI/Tools/MinGW/include/c++/3.3.1/bits/stl_alloc.h ****                   if (__p != 0)
 521:d:/MTK/MTK2503/MTK2503/11CW1418SP4_03_CORETEK03AE_11C_V1_GPRS_MMI/Tools/MinGW/include/c++/3.3.1/bits/stl_alloc.h ****                     {
 522:d:/MTK/MTK2503/MTK2503/11CW1418SP4_03_CORETEK03AE_11C_V1_GPRS_MMI/Tools/MinGW/include/c++/3.3.1/bits/stl_alloc.h ****                       *__my_free_list = __p -> _M_free_list_link;
 523:d:/MTK/MTK2503/MTK2503/11CW1418SP4_03_CORETEK03AE_11C_V1_GPRS_MMI/Tools/MinGW/include/c++/3.3.1/bits/stl_alloc.h ****                       _S_start_free = (char*)__p;
 524:d:/MTK/MTK2503/MTK2503/11CW1418SP4_03_CORETEK03AE_11C_V1_GPRS_MMI/Tools/MinGW/include/c++/3.3.1/bits/stl_alloc.h ****                       _S_end_free = _S_start_free + __i;
 525:d:/MTK/MTK2503/MTK2503/11CW1418SP4_03_CORETEK03AE_11C_V1_GPRS_MMI/Tools/MinGW/include/c++/3.3.1/bits/stl_alloc.h ****                       return _S_chunk_alloc(__size, __nobjs);
 526:d:/MTK/MTK2503/MTK2503/11CW1418SP4_03_CORETEK03AE_11C_V1_GPRS_MMI/Tools/MinGW/include/c++/3.3.1/bits/stl_alloc.h ****                       // Any leftover piece will eventually make it to the
 527:d:/MTK/MTK2503/MTK2503/11CW1418SP4_03_CORETEK03AE_11C_V1_GPRS_MMI/Tools/MinGW/include/c++/3.3.1/bits/stl_alloc.h ****                       // right free list.
 528:d:/MTK/MTK2503/MTK2503/11CW1418SP4_03_CORETEK03AE_11C_V1_GPRS_MMI/Tools/MinGW/include/c++/3.3.1/bits/stl_alloc.h ****                     }
 529:d:/MTK/MTK2503/MTK2503/11CW1418SP4_03_CORETEK03AE_11C_V1_GPRS_MMI/Tools/MinGW/include/c++/3.3.1/bits/stl_alloc.h ****                 }
 530:d:/MTK/MTK2503/MTK2503/11CW1418SP4_03_CORETEK03AE_11C_V1_GPRS_MMI/Tools/MinGW/include/c++/3.3.1/bits/stl_alloc.h ****               _S_end_free = 0;        // In case of exception.
 531:d:/MTK/MTK2503/MTK2503/11CW1418SP4_03_CORETEK03AE_11C_V1_GPRS_MMI/Tools/MinGW/include/c++/3.3.1/bits/stl_alloc.h ****               _S_start_free = (char*)__new_alloc::allocate(__bytes_to_get);
 532:d:/MTK/MTK2503/MTK2503/11CW1418SP4_03_CORETEK03AE_11C_V1_GPRS_MMI/Tools/MinGW/include/c++/3.3.1/bits/stl_alloc.h ****               // This should either throw an exception or remedy the situation.
 533:d:/MTK/MTK2503/MTK2503/11CW1418SP4_03_CORETEK03AE_11C_V1_GPRS_MMI/Tools/MinGW/include/c++/3.3.1/bits/stl_alloc.h ****               // Thus we assume it succeeded.
 534:d:/MTK/MTK2503/MTK2503/11CW1418SP4_03_CORETEK03AE_11C_V1_GPRS_MMI/Tools/MinGW/include/c++/3.3.1/bits/stl_alloc.h ****             }
 535:d:/MTK/MTK2503/MTK2503/11CW1418SP4_03_CORETEK03AE_11C_V1_GPRS_MMI/Tools/MinGW/include/c++/3.3.1/bits/stl_alloc.h ****           _S_heap_size += __bytes_to_get;
 536:d:/MTK/MTK2503/MTK2503/11CW1418SP4_03_CORETEK03AE_11C_V1_GPRS_MMI/Tools/MinGW/include/c++/3.3.1/bits/stl_alloc.h ****           _S_end_free = _S_start_free + __bytes_to_get;
 537:d:/MTK/MTK2503/MTK2503/11CW1418SP4_03_CORETEK03AE_11C_V1_GPRS_MMI/Tools/MinGW/include/c++/3.3.1/bits/stl_alloc.h ****           return _S_chunk_alloc(__size, __nobjs);
 538:d:/MTK/MTK2503/MTK2503/11CW1418SP4_03_CORETEK03AE_11C_V1_GPRS_MMI/Tools/MinGW/include/c++/3.3.1/bits/stl_alloc.h ****         }
 539:d:/MTK/MTK2503/MTK2503/11CW1418SP4_03_CORETEK03AE_11C_V1_GPRS_MMI/Tools/MinGW/include/c++/3.3.1/bits/stl_alloc.h ****     }
 540:d:/MTK/MTK2503/MTK2503/11CW1418SP4_03_CORETEK03AE_11C_V1_GPRS_MMI/Tools/MinGW/include/c++/3.3.1/bits/stl_alloc.h **** 
 541:d:/MTK/MTK2503/MTK2503/11CW1418SP4_03_CORETEK03AE_11C_V1_GPRS_MMI/Tools/MinGW/include/c++/3.3.1/bits/stl_alloc.h **** 
 542:d:/MTK/MTK2503/MTK2503/11CW1418SP4_03_CORETEK03AE_11C_V1_GPRS_MMI/Tools/MinGW/include/c++/3.3.1/bits/stl_alloc.h ****   // Returns an object of size __n, and optionally adds to "size
 543:d:/MTK/MTK2503/MTK2503/11CW1418SP4_03_CORETEK03AE_11C_V1_GPRS_MMI/Tools/MinGW/include/c++/3.3.1/bits/stl_alloc.h ****   // __n"'s free list.  We assume that __n is properly aligned.  We
GAS LISTING d:/MTK/MTK2503/MTK2503/11CW1418SP4_03_CORETEK03AE_11C_V1_GPRS_MMI/plutommi/Customer/ResGenerator/gcctmp/cck7daaa.s 			page 92


 544:d:/MTK/MTK2503/MTK2503/11CW1418SP4_03_CORETEK03AE_11C_V1_GPRS_MMI/Tools/MinGW/include/c++/3.3.1/bits/stl_alloc.h ****   // hold the allocation lock.
 545:d:/MTK/MTK2503/MTK2503/11CW1418SP4_03_CORETEK03AE_11C_V1_GPRS_MMI/Tools/MinGW/include/c++/3.3.1/bits/stl_alloc.h ****   template<bool __threads, int __inst>
 546:d:/MTK/MTK2503/MTK2503/11CW1418SP4_03_CORETEK03AE_11C_V1_GPRS_MMI/Tools/MinGW/include/c++/3.3.1/bits/stl_alloc.h ****     void*
 547:d:/MTK/MTK2503/MTK2503/11CW1418SP4_03_CORETEK03AE_11C_V1_GPRS_MMI/Tools/MinGW/include/c++/3.3.1/bits/stl_alloc.h ****     __default_alloc_template<__threads, __inst>::_S_refill(size_t __n)
 548:d:/MTK/MTK2503/MTK2503/11CW1418SP4_03_CORETEK03AE_11C_V1_GPRS_MMI/Tools/MinGW/include/c++/3.3.1/bits/stl_alloc.h ****     {
 549:d:/MTK/MTK2503/MTK2503/11CW1418SP4_03_CORETEK03AE_11C_V1_GPRS_MMI/Tools/MinGW/include/c++/3.3.1/bits/stl_alloc.h ****       int __nobjs = 20;
 550:d:/MTK/MTK2503/MTK2503/11CW1418SP4_03_CORETEK03AE_11C_V1_GPRS_MMI/Tools/MinGW/include/c++/3.3.1/bits/stl_alloc.h ****       char* __chunk = _S_chunk_alloc(__n, __nobjs);
 551:d:/MTK/MTK2503/MTK2503/11CW1418SP4_03_CORETEK03AE_11C_V1_GPRS_MMI/Tools/MinGW/include/c++/3.3.1/bits/stl_alloc.h ****       _Obj* volatile* __my_free_list;
 552:d:/MTK/MTK2503/MTK2503/11CW1418SP4_03_CORETEK03AE_11C_V1_GPRS_MMI/Tools/MinGW/include/c++/3.3.1/bits/stl_alloc.h ****       _Obj* __result;
 553:d:/MTK/MTK2503/MTK2503/11CW1418SP4_03_CORETEK03AE_11C_V1_GPRS_MMI/Tools/MinGW/include/c++/3.3.1/bits/stl_alloc.h ****       _Obj* __current_obj;
 554:d:/MTK/MTK2503/MTK2503/11CW1418SP4_03_CORETEK03AE_11C_V1_GPRS_MMI/Tools/MinGW/include/c++/3.3.1/bits/stl_alloc.h ****       _Obj* __next_obj;
 555:d:/MTK/MTK2503/MTK2503/11CW1418SP4_03_CORETEK03AE_11C_V1_GPRS_MMI/Tools/MinGW/include/c++/3.3.1/bits/stl_alloc.h ****       int __i;
 556:d:/MTK/MTK2503/MTK2503/11CW1418SP4_03_CORETEK03AE_11C_V1_GPRS_MMI/Tools/MinGW/include/c++/3.3.1/bits/stl_alloc.h **** 
 557:d:/MTK/MTK2503/MTK2503/11CW1418SP4_03_CORETEK03AE_11C_V1_GPRS_MMI/Tools/MinGW/include/c++/3.3.1/bits/stl_alloc.h ****       if (1 == __nobjs)
 558:d:/MTK/MTK2503/MTK2503/11CW1418SP4_03_CORETEK03AE_11C_V1_GPRS_MMI/Tools/MinGW/include/c++/3.3.1/bits/stl_alloc.h ****         return __chunk;
 559:d:/MTK/MTK2503/MTK2503/11CW1418SP4_03_CORETEK03AE_11C_V1_GPRS_MMI/Tools/MinGW/include/c++/3.3.1/bits/stl_alloc.h ****       __my_free_list = _S_free_list + _S_freelist_index(__n);
 560:d:/MTK/MTK2503/MTK2503/11CW1418SP4_03_CORETEK03AE_11C_V1_GPRS_MMI/Tools/MinGW/include/c++/3.3.1/bits/stl_alloc.h **** 
 561:d:/MTK/MTK2503/MTK2503/11CW1418SP4_03_CORETEK03AE_11C_V1_GPRS_MMI/Tools/MinGW/include/c++/3.3.1/bits/stl_alloc.h ****       // Build free list in chunk.
 562:d:/MTK/MTK2503/MTK2503/11CW1418SP4_03_CORETEK03AE_11C_V1_GPRS_MMI/Tools/MinGW/include/c++/3.3.1/bits/stl_alloc.h ****       __result = (_Obj*)(void*)__chunk;
 563:d:/MTK/MTK2503/MTK2503/11CW1418SP4_03_CORETEK03AE_11C_V1_GPRS_MMI/Tools/MinGW/include/c++/3.3.1/bits/stl_alloc.h ****       *__my_free_list = __next_obj = (_Obj*)(void*)(__chunk + __n);
 564:d:/MTK/MTK2503/MTK2503/11CW1418SP4_03_CORETEK03AE_11C_V1_GPRS_MMI/Tools/MinGW/include/c++/3.3.1/bits/stl_alloc.h ****       for (__i = 1; ; __i++)
 565:d:/MTK/MTK2503/MTK2503/11CW1418SP4_03_CORETEK03AE_11C_V1_GPRS_MMI/Tools/MinGW/include/c++/3.3.1/bits/stl_alloc.h ****         {
 566:d:/MTK/MTK2503/MTK2503/11CW1418SP4_03_CORETEK03AE_11C_V1_GPRS_MMI/Tools/MinGW/include/c++/3.3.1/bits/stl_alloc.h **** 	  __current_obj = __next_obj;
 567:d:/MTK/MTK2503/MTK2503/11CW1418SP4_03_CORETEK03AE_11C_V1_GPRS_MMI/Tools/MinGW/include/c++/3.3.1/bits/stl_alloc.h ****           __next_obj = (_Obj*)(void*)((char*)__next_obj + __n);
 568:d:/MTK/MTK2503/MTK2503/11CW1418SP4_03_CORETEK03AE_11C_V1_GPRS_MMI/Tools/MinGW/include/c++/3.3.1/bits/stl_alloc.h **** 	  if (__nobjs - 1 == __i)
 569:d:/MTK/MTK2503/MTK2503/11CW1418SP4_03_CORETEK03AE_11C_V1_GPRS_MMI/Tools/MinGW/include/c++/3.3.1/bits/stl_alloc.h **** 	    {
 570:d:/MTK/MTK2503/MTK2503/11CW1418SP4_03_CORETEK03AE_11C_V1_GPRS_MMI/Tools/MinGW/include/c++/3.3.1/bits/stl_alloc.h **** 	      __current_obj -> _M_free_list_link = 0;
 571:d:/MTK/MTK2503/MTK2503/11CW1418SP4_03_CORETEK03AE_11C_V1_GPRS_MMI/Tools/MinGW/include/c++/3.3.1/bits/stl_alloc.h **** 	      break;
 572:d:/MTK/MTK2503/MTK2503/11CW1418SP4_03_CORETEK03AE_11C_V1_GPRS_MMI/Tools/MinGW/include/c++/3.3.1/bits/stl_alloc.h **** 	    }
 573:d:/MTK/MTK2503/MTK2503/11CW1418SP4_03_CORETEK03AE_11C_V1_GPRS_MMI/Tools/MinGW/include/c++/3.3.1/bits/stl_alloc.h **** 	  else
 574:d:/MTK/MTK2503/MTK2503/11CW1418SP4_03_CORETEK03AE_11C_V1_GPRS_MMI/Tools/MinGW/include/c++/3.3.1/bits/stl_alloc.h **** 	    __current_obj -> _M_free_list_link = __next_obj;
 575:d:/MTK/MTK2503/MTK2503/11CW1418SP4_03_CORETEK03AE_11C_V1_GPRS_MMI/Tools/MinGW/include/c++/3.3.1/bits/stl_alloc.h **** 	}
 576:d:/MTK/MTK2503/MTK2503/11CW1418SP4_03_CORETEK03AE_11C_V1_GPRS_MMI/Tools/MinGW/include/c++/3.3.1/bits/stl_alloc.h ****       return __result;
 577:d:/MTK/MTK2503/MTK2503/11CW1418SP4_03_CORETEK03AE_11C_V1_GPRS_MMI/Tools/MinGW/include/c++/3.3.1/bits/stl_alloc.h ****     }
 578:d:/MTK/MTK2503/MTK2503/11CW1418SP4_03_CORETEK03AE_11C_V1_GPRS_MMI/Tools/MinGW/include/c++/3.3.1/bits/stl_alloc.h **** 
 579:d:/MTK/MTK2503/MTK2503/11CW1418SP4_03_CORETEK03AE_11C_V1_GPRS_MMI/Tools/MinGW/include/c++/3.3.1/bits/stl_alloc.h **** 
 580:d:/MTK/MTK2503/MTK2503/11CW1418SP4_03_CORETEK03AE_11C_V1_GPRS_MMI/Tools/MinGW/include/c++/3.3.1/bits/stl_alloc.h ****   template<bool threads, int inst>
 581:d:/MTK/MTK2503/MTK2503/11CW1418SP4_03_CORETEK03AE_11C_V1_GPRS_MMI/Tools/MinGW/include/c++/3.3.1/bits/stl_alloc.h ****     void*
 582:d:/MTK/MTK2503/MTK2503/11CW1418SP4_03_CORETEK03AE_11C_V1_GPRS_MMI/Tools/MinGW/include/c++/3.3.1/bits/stl_alloc.h ****     __default_alloc_template<threads, inst>::
 583:d:/MTK/MTK2503/MTK2503/11CW1418SP4_03_CORETEK03AE_11C_V1_GPRS_MMI/Tools/MinGW/include/c++/3.3.1/bits/stl_alloc.h ****     reallocate(void* __p, size_t __old_sz, size_t __new_sz)
 584:d:/MTK/MTK2503/MTK2503/11CW1418SP4_03_CORETEK03AE_11C_V1_GPRS_MMI/Tools/MinGW/include/c++/3.3.1/bits/stl_alloc.h ****     {
 585:d:/MTK/MTK2503/MTK2503/11CW1418SP4_03_CORETEK03AE_11C_V1_GPRS_MMI/Tools/MinGW/include/c++/3.3.1/bits/stl_alloc.h ****       void* __result;
 586:d:/MTK/MTK2503/MTK2503/11CW1418SP4_03_CORETEK03AE_11C_V1_GPRS_MMI/Tools/MinGW/include/c++/3.3.1/bits/stl_alloc.h ****       size_t __copy_sz;
 587:d:/MTK/MTK2503/MTK2503/11CW1418SP4_03_CORETEK03AE_11C_V1_GPRS_MMI/Tools/MinGW/include/c++/3.3.1/bits/stl_alloc.h **** 
 588:d:/MTK/MTK2503/MTK2503/11CW1418SP4_03_CORETEK03AE_11C_V1_GPRS_MMI/Tools/MinGW/include/c++/3.3.1/bits/stl_alloc.h ****       if (__old_sz > (size_t) _MAX_BYTES && __new_sz > (size_t) _MAX_BYTES)
 589:d:/MTK/MTK2503/MTK2503/11CW1418SP4_03_CORETEK03AE_11C_V1_GPRS_MMI/Tools/MinGW/include/c++/3.3.1/bits/stl_alloc.h ****         return(realloc(__p, __new_sz));
 590:d:/MTK/MTK2503/MTK2503/11CW1418SP4_03_CORETEK03AE_11C_V1_GPRS_MMI/Tools/MinGW/include/c++/3.3.1/bits/stl_alloc.h ****       if (_S_round_up(__old_sz) == _S_round_up(__new_sz))
 591:d:/MTK/MTK2503/MTK2503/11CW1418SP4_03_CORETEK03AE_11C_V1_GPRS_MMI/Tools/MinGW/include/c++/3.3.1/bits/stl_alloc.h ****         return(__p);
 592:d:/MTK/MTK2503/MTK2503/11CW1418SP4_03_CORETEK03AE_11C_V1_GPRS_MMI/Tools/MinGW/include/c++/3.3.1/bits/stl_alloc.h ****       __result = allocate(__new_sz);
 593:d:/MTK/MTK2503/MTK2503/11CW1418SP4_03_CORETEK03AE_11C_V1_GPRS_MMI/Tools/MinGW/include/c++/3.3.1/bits/stl_alloc.h ****       __copy_sz = __new_sz > __old_sz? __old_sz : __new_sz;
 594:d:/MTK/MTK2503/MTK2503/11CW1418SP4_03_CORETEK03AE_11C_V1_GPRS_MMI/Tools/MinGW/include/c++/3.3.1/bits/stl_alloc.h ****       memcpy(__result, __p, __copy_sz);
 595:d:/MTK/MTK2503/MTK2503/11CW1418SP4_03_CORETEK03AE_11C_V1_GPRS_MMI/Tools/MinGW/include/c++/3.3.1/bits/stl_alloc.h ****       deallocate(__p, __old_sz);
 596:d:/MTK/MTK2503/MTK2503/11CW1418SP4_03_CORETEK03AE_11C_V1_GPRS_MMI/Tools/MinGW/include/c++/3.3.1/bits/stl_alloc.h ****       return __result;
 597:d:/MTK/MTK2503/MTK2503/11CW1418SP4_03_CORETEK03AE_11C_V1_GPRS_MMI/Tools/MinGW/include/c++/3.3.1/bits/stl_alloc.h ****     }
 598:d:/MTK/MTK2503/MTK2503/11CW1418SP4_03_CORETEK03AE_11C_V1_GPRS_MMI/Tools/MinGW/include/c++/3.3.1/bits/stl_alloc.h **** 
 599:d:/MTK/MTK2503/MTK2503/11CW1418SP4_03_CORETEK03AE_11C_V1_GPRS_MMI/Tools/MinGW/include/c++/3.3.1/bits/stl_alloc.h ****   template<bool __threads, int __inst>
 600:d:/MTK/MTK2503/MTK2503/11CW1418SP4_03_CORETEK03AE_11C_V1_GPRS_MMI/Tools/MinGW/include/c++/3.3.1/bits/stl_alloc.h ****     _STL_mutex_lock
GAS LISTING d:/MTK/MTK2503/MTK2503/11CW1418SP4_03_CORETEK03AE_11C_V1_GPRS_MMI/plutommi/Customer/ResGenerator/gcctmp/cck7daaa.s 			page 93


 601:d:/MTK/MTK2503/MTK2503/11CW1418SP4_03_CORETEK03AE_11C_V1_GPRS_MMI/Tools/MinGW/include/c++/3.3.1/bits/stl_alloc.h ****     __default_alloc_template<__threads,__inst>::_S_node_allocator_lock
 602:d:/MTK/MTK2503/MTK2503/11CW1418SP4_03_CORETEK03AE_11C_V1_GPRS_MMI/Tools/MinGW/include/c++/3.3.1/bits/stl_alloc.h ****     __STL_MUTEX_INITIALIZER;
 603:d:/MTK/MTK2503/MTK2503/11CW1418SP4_03_CORETEK03AE_11C_V1_GPRS_MMI/Tools/MinGW/include/c++/3.3.1/bits/stl_alloc.h **** 
 604:d:/MTK/MTK2503/MTK2503/11CW1418SP4_03_CORETEK03AE_11C_V1_GPRS_MMI/Tools/MinGW/include/c++/3.3.1/bits/stl_alloc.h ****   template<bool __threads, int __inst>
 605:d:/MTK/MTK2503/MTK2503/11CW1418SP4_03_CORETEK03AE_11C_V1_GPRS_MMI/Tools/MinGW/include/c++/3.3.1/bits/stl_alloc.h ****     char* __default_alloc_template<__threads,__inst>::_S_start_free = 0;
 606:d:/MTK/MTK2503/MTK2503/11CW1418SP4_03_CORETEK03AE_11C_V1_GPRS_MMI/Tools/MinGW/include/c++/3.3.1/bits/stl_alloc.h **** 
 607:d:/MTK/MTK2503/MTK2503/11CW1418SP4_03_CORETEK03AE_11C_V1_GPRS_MMI/Tools/MinGW/include/c++/3.3.1/bits/stl_alloc.h ****   template<bool __threads, int __inst>
 608:d:/MTK/MTK2503/MTK2503/11CW1418SP4_03_CORETEK03AE_11C_V1_GPRS_MMI/Tools/MinGW/include/c++/3.3.1/bits/stl_alloc.h ****     char* __default_alloc_template<__threads,__inst>::_S_end_free = 0;
 609:d:/MTK/MTK2503/MTK2503/11CW1418SP4_03_CORETEK03AE_11C_V1_GPRS_MMI/Tools/MinGW/include/c++/3.3.1/bits/stl_alloc.h **** 
 610:d:/MTK/MTK2503/MTK2503/11CW1418SP4_03_CORETEK03AE_11C_V1_GPRS_MMI/Tools/MinGW/include/c++/3.3.1/bits/stl_alloc.h ****   template<bool __threads, int __inst>
 611:d:/MTK/MTK2503/MTK2503/11CW1418SP4_03_CORETEK03AE_11C_V1_GPRS_MMI/Tools/MinGW/include/c++/3.3.1/bits/stl_alloc.h ****     size_t __default_alloc_template<__threads,__inst>::_S_heap_size = 0;
 612:d:/MTK/MTK2503/MTK2503/11CW1418SP4_03_CORETEK03AE_11C_V1_GPRS_MMI/Tools/MinGW/include/c++/3.3.1/bits/stl_alloc.h **** 
 613:d:/MTK/MTK2503/MTK2503/11CW1418SP4_03_CORETEK03AE_11C_V1_GPRS_MMI/Tools/MinGW/include/c++/3.3.1/bits/stl_alloc.h ****   template<bool __threads, int __inst>
 614:d:/MTK/MTK2503/MTK2503/11CW1418SP4_03_CORETEK03AE_11C_V1_GPRS_MMI/Tools/MinGW/include/c++/3.3.1/bits/stl_alloc.h ****     typename __default_alloc_template<__threads,__inst>::_Obj* volatile
 615:d:/MTK/MTK2503/MTK2503/11CW1418SP4_03_CORETEK03AE_11C_V1_GPRS_MMI/Tools/MinGW/include/c++/3.3.1/bits/stl_alloc.h ****     __default_alloc_template<__threads,__inst>::_S_free_list[_NFREELISTS];
 616:d:/MTK/MTK2503/MTK2503/11CW1418SP4_03_CORETEK03AE_11C_V1_GPRS_MMI/Tools/MinGW/include/c++/3.3.1/bits/stl_alloc.h **** 
 617:d:/MTK/MTK2503/MTK2503/11CW1418SP4_03_CORETEK03AE_11C_V1_GPRS_MMI/Tools/MinGW/include/c++/3.3.1/bits/stl_alloc.h ****   typedef __default_alloc_template<true,0>    __alloc;
 618:d:/MTK/MTK2503/MTK2503/11CW1418SP4_03_CORETEK03AE_11C_V1_GPRS_MMI/Tools/MinGW/include/c++/3.3.1/bits/stl_alloc.h ****   typedef __default_alloc_template<false,0>   __single_client_alloc;
 619:d:/MTK/MTK2503/MTK2503/11CW1418SP4_03_CORETEK03AE_11C_V1_GPRS_MMI/Tools/MinGW/include/c++/3.3.1/bits/stl_alloc.h **** 
 620:d:/MTK/MTK2503/MTK2503/11CW1418SP4_03_CORETEK03AE_11C_V1_GPRS_MMI/Tools/MinGW/include/c++/3.3.1/bits/stl_alloc.h **** 
 621:d:/MTK/MTK2503/MTK2503/11CW1418SP4_03_CORETEK03AE_11C_V1_GPRS_MMI/Tools/MinGW/include/c++/3.3.1/bits/stl_alloc.h ****   /**
 622:d:/MTK/MTK2503/MTK2503/11CW1418SP4_03_CORETEK03AE_11C_V1_GPRS_MMI/Tools/MinGW/include/c++/3.3.1/bits/stl_alloc.h ****    *  @brief  The "standard" allocator, as per [20.4].
 623:d:/MTK/MTK2503/MTK2503/11CW1418SP4_03_CORETEK03AE_11C_V1_GPRS_MMI/Tools/MinGW/include/c++/3.3.1/bits/stl_alloc.h ****    *
 624:d:/MTK/MTK2503/MTK2503/11CW1418SP4_03_CORETEK03AE_11C_V1_GPRS_MMI/Tools/MinGW/include/c++/3.3.1/bits/stl_alloc.h ****    *  The private _Alloc is "SGI" style.  (See comments at the top
 625:d:/MTK/MTK2503/MTK2503/11CW1418SP4_03_CORETEK03AE_11C_V1_GPRS_MMI/Tools/MinGW/include/c++/3.3.1/bits/stl_alloc.h ****    *  of stl_alloc.h.)
 626:d:/MTK/MTK2503/MTK2503/11CW1418SP4_03_CORETEK03AE_11C_V1_GPRS_MMI/Tools/MinGW/include/c++/3.3.1/bits/stl_alloc.h ****    *
 627:d:/MTK/MTK2503/MTK2503/11CW1418SP4_03_CORETEK03AE_11C_V1_GPRS_MMI/Tools/MinGW/include/c++/3.3.1/bits/stl_alloc.h ****    *  The underlying allocator behaves as follows.
 628:d:/MTK/MTK2503/MTK2503/11CW1418SP4_03_CORETEK03AE_11C_V1_GPRS_MMI/Tools/MinGW/include/c++/3.3.1/bits/stl_alloc.h ****    *    - __default_alloc_template is used via two typedefs
 629:d:/MTK/MTK2503/MTK2503/11CW1418SP4_03_CORETEK03AE_11C_V1_GPRS_MMI/Tools/MinGW/include/c++/3.3.1/bits/stl_alloc.h ****    *    - "__single_client_alloc" typedef does no locking for threads
 630:d:/MTK/MTK2503/MTK2503/11CW1418SP4_03_CORETEK03AE_11C_V1_GPRS_MMI/Tools/MinGW/include/c++/3.3.1/bits/stl_alloc.h ****    *    - "__alloc" typedef is threadsafe via the locks
 631:d:/MTK/MTK2503/MTK2503/11CW1418SP4_03_CORETEK03AE_11C_V1_GPRS_MMI/Tools/MinGW/include/c++/3.3.1/bits/stl_alloc.h ****    *    - __new_alloc is used for memory requests
 632:d:/MTK/MTK2503/MTK2503/11CW1418SP4_03_CORETEK03AE_11C_V1_GPRS_MMI/Tools/MinGW/include/c++/3.3.1/bits/stl_alloc.h ****    *
 633:d:/MTK/MTK2503/MTK2503/11CW1418SP4_03_CORETEK03AE_11C_V1_GPRS_MMI/Tools/MinGW/include/c++/3.3.1/bits/stl_alloc.h ****    *  (See @link Allocators allocators info @endlink for more.)
 634:d:/MTK/MTK2503/MTK2503/11CW1418SP4_03_CORETEK03AE_11C_V1_GPRS_MMI/Tools/MinGW/include/c++/3.3.1/bits/stl_alloc.h ****    */
 635:d:/MTK/MTK2503/MTK2503/11CW1418SP4_03_CORETEK03AE_11C_V1_GPRS_MMI/Tools/MinGW/include/c++/3.3.1/bits/stl_alloc.h ****   template<typename _Tp>
 636:d:/MTK/MTK2503/MTK2503/11CW1418SP4_03_CORETEK03AE_11C_V1_GPRS_MMI/Tools/MinGW/include/c++/3.3.1/bits/stl_alloc.h ****     class allocator
 637:d:/MTK/MTK2503/MTK2503/11CW1418SP4_03_CORETEK03AE_11C_V1_GPRS_MMI/Tools/MinGW/include/c++/3.3.1/bits/stl_alloc.h ****     {
 638:d:/MTK/MTK2503/MTK2503/11CW1418SP4_03_CORETEK03AE_11C_V1_GPRS_MMI/Tools/MinGW/include/c++/3.3.1/bits/stl_alloc.h ****       typedef __alloc _Alloc;          // The underlying allocator.
 639:d:/MTK/MTK2503/MTK2503/11CW1418SP4_03_CORETEK03AE_11C_V1_GPRS_MMI/Tools/MinGW/include/c++/3.3.1/bits/stl_alloc.h ****     public:
 640:d:/MTK/MTK2503/MTK2503/11CW1418SP4_03_CORETEK03AE_11C_V1_GPRS_MMI/Tools/MinGW/include/c++/3.3.1/bits/stl_alloc.h ****       typedef size_t     size_type;
 641:d:/MTK/MTK2503/MTK2503/11CW1418SP4_03_CORETEK03AE_11C_V1_GPRS_MMI/Tools/MinGW/include/c++/3.3.1/bits/stl_alloc.h ****       typedef ptrdiff_t  difference_type;
 642:d:/MTK/MTK2503/MTK2503/11CW1418SP4_03_CORETEK03AE_11C_V1_GPRS_MMI/Tools/MinGW/include/c++/3.3.1/bits/stl_alloc.h ****       typedef _Tp*       pointer;
 643:d:/MTK/MTK2503/MTK2503/11CW1418SP4_03_CORETEK03AE_11C_V1_GPRS_MMI/Tools/MinGW/include/c++/3.3.1/bits/stl_alloc.h ****       typedef const _Tp* const_pointer;
 644:d:/MTK/MTK2503/MTK2503/11CW1418SP4_03_CORETEK03AE_11C_V1_GPRS_MMI/Tools/MinGW/include/c++/3.3.1/bits/stl_alloc.h ****       typedef _Tp&       reference;
 645:d:/MTK/MTK2503/MTK2503/11CW1418SP4_03_CORETEK03AE_11C_V1_GPRS_MMI/Tools/MinGW/include/c++/3.3.1/bits/stl_alloc.h ****       typedef const _Tp& const_reference;
 646:d:/MTK/MTK2503/MTK2503/11CW1418SP4_03_CORETEK03AE_11C_V1_GPRS_MMI/Tools/MinGW/include/c++/3.3.1/bits/stl_alloc.h ****       typedef _Tp        value_type;
 647:d:/MTK/MTK2503/MTK2503/11CW1418SP4_03_CORETEK03AE_11C_V1_GPRS_MMI/Tools/MinGW/include/c++/3.3.1/bits/stl_alloc.h **** 
 648:d:/MTK/MTK2503/MTK2503/11CW1418SP4_03_CORETEK03AE_11C_V1_GPRS_MMI/Tools/MinGW/include/c++/3.3.1/bits/stl_alloc.h ****       template<typename _Tp1>
 649:d:/MTK/MTK2503/MTK2503/11CW1418SP4_03_CORETEK03AE_11C_V1_GPRS_MMI/Tools/MinGW/include/c++/3.3.1/bits/stl_alloc.h ****         struct rebind
 650:d:/MTK/MTK2503/MTK2503/11CW1418SP4_03_CORETEK03AE_11C_V1_GPRS_MMI/Tools/MinGW/include/c++/3.3.1/bits/stl_alloc.h ****         { typedef allocator<_Tp1> other; };
 651:d:/MTK/MTK2503/MTK2503/11CW1418SP4_03_CORETEK03AE_11C_V1_GPRS_MMI/Tools/MinGW/include/c++/3.3.1/bits/stl_alloc.h **** 
 652:d:/MTK/MTK2503/MTK2503/11CW1418SP4_03_CORETEK03AE_11C_V1_GPRS_MMI/Tools/MinGW/include/c++/3.3.1/bits/stl_alloc.h ****       allocator() throw() {}
 5583              	LM229:
 5584              	L162:
 5585              	L161:
 5586 0000 55       		pushl	%ebp
 5587 0001 89E5     		movl	%esp, %ebp
GAS LISTING d:/MTK/MTK2503/MTK2503/11CW1418SP4_03_CORETEK03AE_11C_V1_GPRS_MMI/plutommi/Customer/ResGenerator/gcctmp/cck7daaa.s 			page 94


 5589              	LM230:
 5590 0003 5D       		popl	%ebp
 5591 0004 C3       		ret
 5592              	Lscope33:
 5594 0005 909090   		.section	.text$_ZNSaI16ProcessImageDataED1Ev,"x"
 5595              		.linkonce discard
 5596              		.align 2
 5599              	.globl __ZNSaI16ProcessImageDataED1Ev
 5601              	__ZNSaI16ProcessImageDataED1Ev:
 653:d:/MTK/MTK2503/MTK2503/11CW1418SP4_03_CORETEK03AE_11C_V1_GPRS_MMI/Tools/MinGW/include/c++/3.3.1/bits/stl_alloc.h ****       allocator(const allocator&) throw() {}
 654:d:/MTK/MTK2503/MTK2503/11CW1418SP4_03_CORETEK03AE_11C_V1_GPRS_MMI/Tools/MinGW/include/c++/3.3.1/bits/stl_alloc.h ****       template<typename _Tp1>
 655:d:/MTK/MTK2503/MTK2503/11CW1418SP4_03_CORETEK03AE_11C_V1_GPRS_MMI/Tools/MinGW/include/c++/3.3.1/bits/stl_alloc.h ****         allocator(const allocator<_Tp1>&) throw() {}
 656:d:/MTK/MTK2503/MTK2503/11CW1418SP4_03_CORETEK03AE_11C_V1_GPRS_MMI/Tools/MinGW/include/c++/3.3.1/bits/stl_alloc.h ****       ~allocator() throw() {}
 5603              	LM231:
 5604 0000 55       		pushl	%ebp
 5605 0001 89E5     		movl	%esp, %ebp
 5607              	LM232:
 5608 0003 5D       		popl	%ebp
 5609 0004 C3       		ret
 5610              	L167:
 5611              	L164:
 5612              	Lscope34:
 5614 0005 909090   		.section	.text$_ZNSt4listI16ProcessImageDataSaIS0_EEC1ERKS1_,"x"
 5615              		.linkonce discard
 5616              		.align 2
 5620              	.globl __ZNSt4listI16ProcessImageDataSaIS0_EEC1ERKS1_
 5622              	__ZNSt4listI16ProcessImageDataSaIS0_EEC1ERKS1_:
 5624              	Ltext9:
 5626              	LM233:
 5627 0000 55       		pushl	%ebp
 5628 0001 89E5     		movl	%esp, %ebp
 5629 0003 83EC08   		subl	$8, %esp
 5631              	LM234:
 5632              	LBB52:
 5633 0006 8B450C   		movl	12(%ebp), %eax
 5634 0009 89442404 		movl	%eax, 4(%esp)
 5635 000d 8B4508   		movl	8(%ebp), %eax
 5636 0010 890424   		movl	%eax, (%esp)
 5637 0013 E8000000 		call	__ZNSt10_List_baseI16ProcessImageDataSaIS0_EEC2ERKS1_
 5637      00
 5638 0018 C9       		leave
 5639 0019 C3       		ret
 5640              	L170:
 5641              	L169:
 5642              	LBE52:
 5643              	Lscope35:
 5645 001a 9090     		.section	.text$_ZN13LogBinaryDataD1Ev,"x"
 5646              		.linkonce discard
 5647              		.align 2
 5650              	.globl __ZN13LogBinaryDataD1Ev
 5652              	__ZN13LogBinaryDataD1Ev:
 5654              	Ltext10:
 5656              	LM235:
 5657              	L174:
 5658 0000 55       		pushl	%ebp
 5659 0001 89E5     		movl	%esp, %ebp
 5660 0003 83EC08   		subl	$8, %esp
GAS LISTING d:/MTK/MTK2503/MTK2503/11CW1418SP4_03_CORETEK03AE_11C_V1_GPRS_MMI/plutommi/Customer/ResGenerator/gcctmp/cck7daaa.s 			page 95


 5662              	LM236:
 5663 0006 8B4508   		movl	8(%ebp), %eax
 5664              	LBB53:
 5665 0009 83C004   		addl	$4, %eax
 5666 000c 890424   		movl	%eax, (%esp)
 5667 000f E8000000 		call	__ZNSsD1Ev
 5667      00
 5668 0014 C9       		leave
 5669 0015 C3       		ret
 5670              	L172:
 5671              	LBE53:
 5672              	Lscope36:
 5674 0016 9090     		.section	.text$_ZN13LogBinaryDataC1EtPci,"x"
 5675              		.linkonce discard
 5676              		.align 2
 5682              	.globl __ZN13LogBinaryDataC1EtPci
 5684              	__ZN13LogBinaryDataC1EtPci:
 5686              	LM237:
 5687 0000 55       		pushl	%ebp
 5688 0001 89E5     		movl	%esp, %ebp
 5689 0003 57       		pushl	%edi
 5690 0004 56       		pushl	%esi
 5691 0005 53       		pushl	%ebx
 5692 0006 83EC7C   		subl	$124, %esp
 5693 0009 8B450C   		movl	12(%ebp), %eax
 5694 000c 668945E6 		movw	%ax, -26(%ebp)
 5695 0010 C745B400 		movl	$___gxx_personality_sj0, -76(%ebp)
 5695      000000
 5696 0017 C745B824 		movl	$LLSDA2350, -72(%ebp)
 5696      000000
 5697 001e 8D45BC   		leal	-68(%ebp), %eax
 5698 0021 8D55E8   		leal	-24(%ebp), %edx
 5699 0024 8910     		movl	%edx, (%eax)
 5700 0026 BA760000 		movl	$L184, %edx
 5700      00
 5701 002b 895004   		movl	%edx, 4(%eax)
 5702 002e 896008   		movl	%esp, 8(%eax)
 5703 0031 8D459C   		leal	-100(%ebp), %eax
 5704 0034 890424   		movl	%eax, (%esp)
 5705 0037 E8000000 		call	__Unwind_SjLj_Register
 5705      00
 5707              	LM238:
 5708              	LBB54:
 5709 003c 8B5508   		movl	8(%ebp), %edx
 5710 003f 0FB745E6 		movzwl	-26(%ebp), %eax
 5711 0043 668902   		movw	%ax, (%edx)
 5712 0046 8D45C8   		leal	-56(%ebp), %eax
 5713 0049 890424   		movl	%eax, (%esp)
 5714 004c E8000000 		call	__ZNSaIcEC1Ev
 5714      00
 5715 0051 8D45C8   		leal	-56(%ebp), %eax
 5716 0054 89442408 		movl	%eax, 8(%esp)
 5717 0058 8B4510   		movl	16(%ebp), %eax
 5718 005b 89442404 		movl	%eax, 4(%esp)
 5719 005f 8B4508   		movl	8(%ebp), %eax
 5720 0062 83C004   		addl	$4, %eax
 5721 0065 890424   		movl	%eax, (%esp)
GAS LISTING d:/MTK/MTK2503/MTK2503/11CW1418SP4_03_CORETEK03AE_11C_V1_GPRS_MMI/plutommi/Customer/ResGenerator/gcctmp/cck7daaa.s 			page 96


 5722 0068 C745A001 		movl	$1, -96(%ebp)
 5722      000000
 5723 006f E8000000 		call	__ZNSsC1EPKcRKSaIcE
 5723      00
 5724 0074 EB32     		jmp	L179
 5725              	L184:
 5726 0076 8D6D18   		leal	24(%ebp), %ebp
 5727 0079 8B45A4   		movl	-92(%ebp), %eax
 5728 007c 894594   		movl	%eax, -108(%ebp)
 5729              	L178:
 5730 007f 8B5594   		movl	-108(%ebp), %edx
 5731 0082 895598   		movl	%edx, -104(%ebp)
 5732 0085 8D45C8   		leal	-56(%ebp), %eax
 5733 0088 890424   		movl	%eax, (%esp)
 5734 008b E8000000 		call	__ZNSaIcED1Ev
 5734      00
 5735 0090 8B4598   		movl	-104(%ebp), %eax
 5736 0093 894594   		movl	%eax, -108(%ebp)
 5737              	L180:
 5738 0096 8B5594   		movl	-108(%ebp), %edx
 5739 0099 891424   		movl	%edx, (%esp)
 5740 009c C745A0FF 		movl	$-1, -96(%ebp)
 5740      FFFFFF
 5741 00a3 E8000000 		call	__Unwind_SjLj_Resume
 5741      00
 5742              	L179:
 5743 00a8 8D45C8   		leal	-56(%ebp), %eax
 5744 00ab 890424   		movl	%eax, (%esp)
 5745 00ae E8000000 		call	__ZNSaIcED1Ev
 5745      00
 5746 00b3 8B5508   		movl	8(%ebp), %edx
 5747 00b6 8B4514   		movl	20(%ebp), %eax
 5748 00b9 894208   		movl	%eax, 8(%edx)
 5749              	L182:
 5751              	LM239:
 5752              	L177:
 5753 00bc 8D459C   		leal	-100(%ebp), %eax
 5754 00bf 890424   		movl	%eax, (%esp)
 5755 00c2 E8000000 		call	__Unwind_SjLj_Unregister
 5755      00
 5756 00c7 83C47C   		addl	$124, %esp
 5757 00ca 5B       		popl	%ebx
 5758 00cb 5E       		popl	%esi
 5759 00cc 5F       		popl	%edi
 5760 00cd 5D       		popl	%ebp
 5761 00ce C3       		ret
 5762              	LBE54:
 5763              		.section	.gcc_except_table,""
 5764              	LLSDA2350:
 5765 0024 FF       		.byte	0xff
 5766 0025 FF       		.byte	0xff
 5767 0026 01       		.byte	0x1
 5768 0027 02       		.uleb128 LLSDACSE2350-LLSDACSB2350
 5769              	LLSDACSB2350:
 5770 0028 00       		.uleb128 0x0
 5771 0029 00       		.uleb128 0x0
 5772              	LLSDACSE2350:
GAS LISTING d:/MTK/MTK2503/MTK2503/11CW1418SP4_03_CORETEK03AE_11C_V1_GPRS_MMI/plutommi/Customer/ResGenerator/gcctmp/cck7daaa.s 			page 97


 5773              		.section	.text$_ZN13LogBinaryDataC1EtPci,"x"
 5774              		.linkonce discard
 5776              	Lscope37:
 5778 00cf 90       		.section	.text$_ZNSaI13LogBinaryDataEC1Ev,"x"
 5779              		.linkonce discard
 5780              		.align 2
 5783              	.globl __ZNSaI13LogBinaryDataEC1Ev
 5785              	__ZNSaI13LogBinaryDataEC1Ev:
 5787              	Ltext11:
 5789              	LM240:
 5790              	L186:
 5791              	L185:
 5792 0000 55       		pushl	%ebp
 5793 0001 89E5     		movl	%esp, %ebp
 5795              	LM241:
 5796 0003 5D       		popl	%ebp
 5797 0004 C3       		ret
 5798              	Lscope38:
 5800 0005 909090   		.section	.text$_ZNSaI13LogBinaryDataED1Ev,"x"
 5801              		.linkonce discard
 5802              		.align 2
 5805              	.globl __ZNSaI13LogBinaryDataED1Ev
 5807              	__ZNSaI13LogBinaryDataED1Ev:
 5809              	LM242:
 5810 0000 55       		pushl	%ebp
 5811 0001 89E5     		movl	%esp, %ebp
 5813              	LM243:
 5814 0003 5D       		popl	%ebp
 5815 0004 C3       		ret
 5816              	L191:
 5817              	L188:
 5818              	Lscope39:
 5820 0005 909090   		.section	.text$_ZNSt4listI13LogBinaryDataSaIS0_EEC1ERKS1_,"x"
 5821              		.linkonce discard
 5822              		.align 2
 5826              	.globl __ZNSt4listI13LogBinaryDataSaIS0_EEC1ERKS1_
 5828              	__ZNSt4listI13LogBinaryDataSaIS0_EEC1ERKS1_:
 5830              	Ltext12:
 5832              	LM244:
 5833 0000 55       		pushl	%ebp
 5834 0001 89E5     		movl	%esp, %ebp
 5835 0003 83EC08   		subl	$8, %esp
 5837              	LM245:
 5838              	LBB55:
 5839 0006 8B450C   		movl	12(%ebp), %eax
 5840 0009 89442404 		movl	%eax, 4(%esp)
 5841 000d 8B4508   		movl	8(%ebp), %eax
 5842 0010 890424   		movl	%eax, (%esp)
 5843 0013 E8000000 		call	__ZNSt10_List_baseI13LogBinaryDataSaIS0_EEC2ERKS1_
 5843      00
 5844 0018 C9       		leave
 5845 0019 C3       		ret
 5846              	L194:
 5847              	L193:
 5848              	LBE55:
 5849              	Lscope40:
 5851 001a 9090     		.section	.text$_ZNSt10_List_baseI16ProcessImageDataSaIS0_EEC2ERKS1_,"x"
GAS LISTING d:/MTK/MTK2503/MTK2503/11CW1418SP4_03_CORETEK03AE_11C_V1_GPRS_MMI/plutommi/Customer/ResGenerator/gcctmp/cck7daaa.s 			page 98


 5852              		.linkonce discard
 5853              		.align 2
 5857              	.globl __ZNSt10_List_baseI16ProcessImageDataSaIS0_EEC2ERKS1_
 5859              	__ZNSt10_List_baseI16ProcessImageDataSaIS0_EEC2ERKS1_:
 5861              	LM246:
 5862 0000 55       		pushl	%ebp
 5863 0001 89E5     		movl	%esp, %ebp
 5864 0003 53       		pushl	%ebx
 5865 0004 83EC14   		subl	$20, %esp
 5867              	LM247:
 5868              	LBB56:
 5869 0007 8B450C   		movl	12(%ebp), %eax
 5870 000a 89442404 		movl	%eax, 4(%esp)
 5871 000e 8B4508   		movl	8(%ebp), %eax
 5872 0011 890424   		movl	%eax, (%esp)
 5873 0014 E8000000 		call	__ZNSt16_List_alloc_baseI16ProcessImageDataSaIS0_ELb1EEC2ERKS1_
 5873      00
 5875              	LM248:
 5876 0019 8B5D08   		movl	8(%ebp), %ebx
 5877 001c 8B4508   		movl	8(%ebp), %eax
 5878 001f 890424   		movl	%eax, (%esp)
 5879 0022 E8000000 		call	__ZNSt16_List_alloc_baseI16ProcessImageDataSaIS0_ELb1EE11_M_get_nodeEv
 5879      00
 5880 0027 8903     		movl	%eax, (%ebx)
 5882              	LM249:
 5883 0029 8B4508   		movl	8(%ebp), %eax
 5884 002c 8B10     		movl	(%eax), %edx
 5885 002e 8B4508   		movl	8(%ebp), %eax
 5886 0031 8B00     		movl	(%eax), %eax
 5887 0033 8902     		movl	%eax, (%edx)
 5889              	LM250:
 5890 0035 8B4508   		movl	8(%ebp), %eax
 5891 0038 8B10     		movl	(%eax), %edx
 5892 003a 8B4508   		movl	8(%ebp), %eax
 5893 003d 8B00     		movl	(%eax), %eax
 5894 003f 894204   		movl	%eax, 4(%edx)
 5895 0042 83C414   		addl	$20, %esp
 5896 0045 5B       		popl	%ebx
 5897 0046 5D       		popl	%ebp
 5898 0047 C3       		ret
 5899              	LBE56:
 5900              	Lscope41:
 5902              		.section	.text$_ZNSt16_List_alloc_baseI16ProcessImageDataSaIS0_ELb1EEC2ERKS1_,"x"
 5903              		.linkonce discard
 5904              		.align 2
 5907              	.globl __ZNSt16_List_alloc_baseI16ProcessImageDataSaIS0_ELb1EEC2ERKS1_
 5909              	__ZNSt16_List_alloc_baseI16ProcessImageDataSaIS0_ELb1EEC2ERKS1_:
 5911              	LM251:
 5912 0000 55       		pushl	%ebp
 5913 0001 89E5     		movl	%esp, %ebp
 5915              	LM252:
 5916 0003 5D       		popl	%ebp
 5917 0004 C3       		ret
 5918              	Lscope42:
 5920 0005 909090   		.section	.text$_ZNSt16_List_alloc_baseI16ProcessImageDataSaIS0_ELb1EE11_M_get_nodeEv,"x"
 5921              		.linkonce discard
 5922              		.align 2
GAS LISTING d:/MTK/MTK2503/MTK2503/11CW1418SP4_03_CORETEK03AE_11C_V1_GPRS_MMI/plutommi/Customer/ResGenerator/gcctmp/cck7daaa.s 			page 99


 5925              	.globl __ZNSt16_List_alloc_baseI16ProcessImageDataSaIS0_ELb1EE11_M_get_nodeEv
 5927              	__ZNSt16_List_alloc_baseI16ProcessImageDataSaIS0_ELb1EE11_M_get_nodeEv:
 5929              	LM253:
 5930 0000 55       		pushl	%ebp
 5931 0001 89E5     		movl	%esp, %ebp
 5932 0003 83EC08   		subl	$8, %esp
 5934              	LM254:
 5935              	LBB57:
 5936 0006 C7042401 		movl	$1, (%esp)
 5936      000000
 5937 000d E8000000 		call	__ZNSt14__simple_allocISt10_List_nodeI16ProcessImageDataESt24__default_alloc_templateILb1ELi0
 5937      00
 5938 0012 C9       		leave
 5939 0013 C3       		ret
 5940              	LBE57:
 5941              	Lscope43:
 5943              		.section	.text$_ZNSt14__simple_allocISt10_List_nodeI16ProcessImageDataESt24__default_alloc_templat
 5944              		.linkonce discard
 5945              		.align 2
 5948              	.globl __ZNSt14__simple_allocISt10_List_nodeI16ProcessImageDataESt24__default_alloc_templateILb1ELi
 5950              	__ZNSt14__simple_allocISt10_List_nodeI16ProcessImageDataESt24__default_alloc_templateILb1ELi0EEE8al
 5952              	Ltext13:
 5954              	LM255:
 5955 0000 55       		pushl	%ebp
 5956 0001 89E5     		movl	%esp, %ebp
 5957 0003 83EC08   		subl	$8, %esp
 5959              	LM256:
 5960              	LBB58:
 5961 0006 C745FC00 		movl	$0, -4(%ebp)
 5961      000000
 5963              	LM257:
 5964 000d 837D0800 		cmpl	$0, 8(%ebp)
 5965 0011 741A     		je	L200
 5967              	LM258:
 5968 0013 8B4508   		movl	8(%ebp), %eax
 5969 0016 89C2     		movl	%eax, %edx
 5970 0018 C1E203   		sall	$3, %edx
 5971 001b 01C2     		addl	%eax, %edx
 5972 001d 89D0     		movl	%edx, %eax
 5973 001f C1E006   		sall	$6, %eax
 5974 0022 890424   		movl	%eax, (%esp)
 5975 0025 E8000000 		call	__ZNSt24__default_alloc_templateILb1ELi0EE8allocateEj
 5975      00
 5976 002a 8945FC   		movl	%eax, -4(%ebp)
 5977              	L200:
 5979              	LM259:
 5980 002d 8B45FC   		movl	-4(%ebp), %eax
 5981 0030 C9       		leave
 5982 0031 C3       		ret
 5983              	LBE58:
 5987              	Lscope44:
 5989 0032 9090     		.section	.text$_ZNSt10_List_baseI13LogBinaryDataSaIS0_EEC2ERKS1_,"x"
 5990              		.linkonce discard
 5991              		.align 2
 5995              	.globl __ZNSt10_List_baseI13LogBinaryDataSaIS0_EEC2ERKS1_
 5997              	__ZNSt10_List_baseI13LogBinaryDataSaIS0_EEC2ERKS1_:
 5999              	Ltext14:
GAS LISTING d:/MTK/MTK2503/MTK2503/11CW1418SP4_03_CORETEK03AE_11C_V1_GPRS_MMI/plutommi/Customer/ResGenerator/gcctmp/cck7daaa.s 			page 100


 6001              	LM260:
 6002 0000 55       		pushl	%ebp
 6003 0001 89E5     		movl	%esp, %ebp
 6004 0003 53       		pushl	%ebx
 6005 0004 83EC14   		subl	$20, %esp
 6007              	LM261:
 6008              	LBB59:
 6009 0007 8B450C   		movl	12(%ebp), %eax
 6010 000a 89442404 		movl	%eax, 4(%esp)
 6011 000e 8B4508   		movl	8(%ebp), %eax
 6012 0011 890424   		movl	%eax, (%esp)
 6013 0014 E8000000 		call	__ZNSt16_List_alloc_baseI13LogBinaryDataSaIS0_ELb1EEC2ERKS1_
 6013      00
 6015              	LM262:
 6016 0019 8B5D08   		movl	8(%ebp), %ebx
 6017 001c 8B4508   		movl	8(%ebp), %eax
 6018 001f 890424   		movl	%eax, (%esp)
 6019 0022 E8000000 		call	__ZNSt16_List_alloc_baseI13LogBinaryDataSaIS0_ELb1EE11_M_get_nodeEv
 6019      00
 6020 0027 8903     		movl	%eax, (%ebx)
 6022              	LM263:
 6023 0029 8B4508   		movl	8(%ebp), %eax
 6024 002c 8B10     		movl	(%eax), %edx
 6025 002e 8B4508   		movl	8(%ebp), %eax
 6026 0031 8B00     		movl	(%eax), %eax
 6027 0033 8902     		movl	%eax, (%edx)
 6029              	LM264:
 6030 0035 8B4508   		movl	8(%ebp), %eax
 6031 0038 8B10     		movl	(%eax), %edx
 6032 003a 8B4508   		movl	8(%ebp), %eax
 6033 003d 8B00     		movl	(%eax), %eax
 6034 003f 894204   		movl	%eax, 4(%edx)
 6035 0042 83C414   		addl	$20, %esp
 6036 0045 5B       		popl	%ebx
 6037 0046 5D       		popl	%ebp
 6038 0047 C3       		ret
 6039              	LBE59:
 6040              	Lscope45:
 6042              		.section	.text$_ZNSt16_List_alloc_baseI13LogBinaryDataSaIS0_ELb1EEC2ERKS1_,"x"
 6043              		.linkonce discard
 6044              		.align 2
 6047              	.globl __ZNSt16_List_alloc_baseI13LogBinaryDataSaIS0_ELb1EEC2ERKS1_
 6049              	__ZNSt16_List_alloc_baseI13LogBinaryDataSaIS0_ELb1EEC2ERKS1_:
 6051              	LM265:
 6052 0000 55       		pushl	%ebp
 6053 0001 89E5     		movl	%esp, %ebp
 6055              	LM266:
 6056 0003 5D       		popl	%ebp
 6057 0004 C3       		ret
 6058              	Lscope46:
 6060 0005 909090   		.section	.text$_ZNSt16_List_alloc_baseI13LogBinaryDataSaIS0_ELb1EE11_M_get_nodeEv,"x"
 6061              		.linkonce discard
 6062              		.align 2
 6065              	.globl __ZNSt16_List_alloc_baseI13LogBinaryDataSaIS0_ELb1EE11_M_get_nodeEv
 6067              	__ZNSt16_List_alloc_baseI13LogBinaryDataSaIS0_ELb1EE11_M_get_nodeEv:
 6069              	LM267:
 6070 0000 55       		pushl	%ebp
GAS LISTING d:/MTK/MTK2503/MTK2503/11CW1418SP4_03_CORETEK03AE_11C_V1_GPRS_MMI/plutommi/Customer/ResGenerator/gcctmp/cck7daaa.s 			page 101


 6071 0001 89E5     		movl	%esp, %ebp
 6072 0003 83EC08   		subl	$8, %esp
 6074              	LM268:
 6075              	LBB60:
 6076 0006 C7042401 		movl	$1, (%esp)
 6076      000000
 6077 000d E8000000 		call	__ZNSt14__simple_allocISt10_List_nodeI13LogBinaryDataESt24__default_alloc_templateILb1ELi0EEE
 6077      00
 6078 0012 C9       		leave
 6079 0013 C3       		ret
 6080              	LBE60:
 6081              	Lscope47:
 6083              		.section	.text$_ZNSt14__simple_allocISt10_List_nodeI13LogBinaryDataESt24__default_alloc_templateIL
 6084              		.linkonce discard
 6085              		.align 2
 6088              	.globl __ZNSt14__simple_allocISt10_List_nodeI13LogBinaryDataESt24__default_alloc_templateILb1ELi0EE
 6090              	__ZNSt14__simple_allocISt10_List_nodeI13LogBinaryDataESt24__default_alloc_templateILb1ELi0EEE8alloc
 6092              	Ltext15:
 6094              	LM269:
 6095 0000 55       		pushl	%ebp
 6096 0001 89E5     		movl	%esp, %ebp
 6097 0003 83EC08   		subl	$8, %esp
 6099              	LM270:
 6100              	LBB61:
 6101 0006 C745FC00 		movl	$0, -4(%ebp)
 6101      000000
 6103              	LM271:
 6104 000d 837D0800 		cmpl	$0, 8(%ebp)
 6105 0011 741C     		je	L205
 6107              	LM272:
 6108 0013 8B4508   		movl	8(%ebp), %eax
 6109 0016 89C2     		movl	%eax, %edx
 6110 0018 C1E202   		sall	$2, %edx
 6111 001b 01C2     		addl	%eax, %edx
 6112 001d 8D049500 		leal	0(,%edx,4), %eax
 6112      000000
 6113 0024 890424   		movl	%eax, (%esp)
 6114 0027 E8000000 		call	__ZNSt24__default_alloc_templateILb1ELi0EE8allocateEj
 6114      00
 6115 002c 8945FC   		movl	%eax, -4(%ebp)
 6116              	L205:
 6118              	LM273:
 6119 002f 8B45FC   		movl	-4(%ebp), %eax
 6120 0032 C9       		leave
 6121 0033 C3       		ret
 6122              	LBE61:
 6126              	Lscope48:
 6128              		.section	.text$_ZNSt14_List_iteratorI16ProcessImageDataRS0_PS0_EC1EPSt10_List_nodeIS0_E,"x"
 6129              		.linkonce discard
 6130              		.align 2
 6134              	.globl __ZNSt14_List_iteratorI16ProcessImageDataRS0_PS0_EC1EPSt10_List_nodeIS0_E
 6136              	__ZNSt14_List_iteratorI16ProcessImageDataRS0_PS0_EC1EPSt10_List_nodeIS0_E:
 6138              	Ltext16:
 6140              	LM274:
 6141 0000 55       		pushl	%ebp
 6142 0001 89E5     		movl	%esp, %ebp
 6143 0003 83EC08   		subl	$8, %esp
GAS LISTING d:/MTK/MTK2503/MTK2503/11CW1418SP4_03_CORETEK03AE_11C_V1_GPRS_MMI/plutommi/Customer/ResGenerator/gcctmp/cck7daaa.s 			page 102


 6145              	LM275:
 6146              	LBB62:
 6147 0006 8B450C   		movl	12(%ebp), %eax
 6148 0009 89442404 		movl	%eax, 4(%esp)
 6149 000d 8B4508   		movl	8(%ebp), %eax
 6150 0010 890424   		movl	%eax, (%esp)
 6151 0013 E8000000 		call	__ZNSt19_List_iterator_baseC2EPSt15_List_node_base
 6151      00
 6152 0018 C9       		leave
 6153 0019 C3       		ret
 6154              	LBE62:
 6155              	Lscope49:
 6157 001a 9090     		.section	.text$_ZNSt4listI16ProcessImageDataSaIS0_EE6insertESt14_List_iteratorIS0_RS0_PS0_ERKS0_,"
 6158              		.linkonce discard
 6159              		.align 2
 6164              	.globl __ZNSt4listI16ProcessImageDataSaIS0_EE6insertESt14_List_iteratorIS0_RS0_PS0_ERKS0_
 6166              	__ZNSt4listI16ProcessImageDataSaIS0_EE6insertESt14_List_iteratorIS0_RS0_PS0_ERKS0_:
 6168              	Ltext17:
   1:d:/MTK/MTK2503/MTK2503/11CW1418SP4_03_CORETEK03AE_11C_V1_GPRS_MMI/Tools/MinGW/include/c++/3.3.1/bits/list.tcc **** // List implementation (out of line) -*- C++ -*-
   2:d:/MTK/MTK2503/MTK2503/11CW1418SP4_03_CORETEK03AE_11C_V1_GPRS_MMI/Tools/MinGW/include/c++/3.3.1/bits/list.tcc **** 
   3:d:/MTK/MTK2503/MTK2503/11CW1418SP4_03_CORETEK03AE_11C_V1_GPRS_MMI/Tools/MinGW/include/c++/3.3.1/bits/list.tcc **** // Copyright (C) 2001, 2002 Free Software Foundation, Inc.
   4:d:/MTK/MTK2503/MTK2503/11CW1418SP4_03_CORETEK03AE_11C_V1_GPRS_MMI/Tools/MinGW/include/c++/3.3.1/bits/list.tcc **** //
   5:d:/MTK/MTK2503/MTK2503/11CW1418SP4_03_CORETEK03AE_11C_V1_GPRS_MMI/Tools/MinGW/include/c++/3.3.1/bits/list.tcc **** // This file is part of the GNU ISO C++ Library.  This library is free
   6:d:/MTK/MTK2503/MTK2503/11CW1418SP4_03_CORETEK03AE_11C_V1_GPRS_MMI/Tools/MinGW/include/c++/3.3.1/bits/list.tcc **** // software; you can redistribute it and/or modify it under the
   7:d:/MTK/MTK2503/MTK2503/11CW1418SP4_03_CORETEK03AE_11C_V1_GPRS_MMI/Tools/MinGW/include/c++/3.3.1/bits/list.tcc **** // terms of the GNU General Public License as published by the
   8:d:/MTK/MTK2503/MTK2503/11CW1418SP4_03_CORETEK03AE_11C_V1_GPRS_MMI/Tools/MinGW/include/c++/3.3.1/bits/list.tcc **** // Free Software Foundation; either version 2, or (at your option)
   9:d:/MTK/MTK2503/MTK2503/11CW1418SP4_03_CORETEK03AE_11C_V1_GPRS_MMI/Tools/MinGW/include/c++/3.3.1/bits/list.tcc **** // any later version.
  10:d:/MTK/MTK2503/MTK2503/11CW1418SP4_03_CORETEK03AE_11C_V1_GPRS_MMI/Tools/MinGW/include/c++/3.3.1/bits/list.tcc **** 
  11:d:/MTK/MTK2503/MTK2503/11CW1418SP4_03_CORETEK03AE_11C_V1_GPRS_MMI/Tools/MinGW/include/c++/3.3.1/bits/list.tcc **** // This library is distributed in the hope that it will be useful,
  12:d:/MTK/MTK2503/MTK2503/11CW1418SP4_03_CORETEK03AE_11C_V1_GPRS_MMI/Tools/MinGW/include/c++/3.3.1/bits/list.tcc **** // but WITHOUT ANY WARRANTY; without even the implied warranty of
  13:d:/MTK/MTK2503/MTK2503/11CW1418SP4_03_CORETEK03AE_11C_V1_GPRS_MMI/Tools/MinGW/include/c++/3.3.1/bits/list.tcc **** // MERCHANTABILITY or FITNESS FOR A PARTICULAR PURPOSE.  See the
  14:d:/MTK/MTK2503/MTK2503/11CW1418SP4_03_CORETEK03AE_11C_V1_GPRS_MMI/Tools/MinGW/include/c++/3.3.1/bits/list.tcc **** // GNU General Public License for more details.
  15:d:/MTK/MTK2503/MTK2503/11CW1418SP4_03_CORETEK03AE_11C_V1_GPRS_MMI/Tools/MinGW/include/c++/3.3.1/bits/list.tcc **** 
  16:d:/MTK/MTK2503/MTK2503/11CW1418SP4_03_CORETEK03AE_11C_V1_GPRS_MMI/Tools/MinGW/include/c++/3.3.1/bits/list.tcc **** // You should have received a copy of the GNU General Public License along
  17:d:/MTK/MTK2503/MTK2503/11CW1418SP4_03_CORETEK03AE_11C_V1_GPRS_MMI/Tools/MinGW/include/c++/3.3.1/bits/list.tcc **** // with this library; see the file COPYING.  If not, write to the Free
  18:d:/MTK/MTK2503/MTK2503/11CW1418SP4_03_CORETEK03AE_11C_V1_GPRS_MMI/Tools/MinGW/include/c++/3.3.1/bits/list.tcc **** // Software Foundation, 59 Temple Place - Suite 330, Boston, MA 02111-1307,
  19:d:/MTK/MTK2503/MTK2503/11CW1418SP4_03_CORETEK03AE_11C_V1_GPRS_MMI/Tools/MinGW/include/c++/3.3.1/bits/list.tcc **** // USA.
  20:d:/MTK/MTK2503/MTK2503/11CW1418SP4_03_CORETEK03AE_11C_V1_GPRS_MMI/Tools/MinGW/include/c++/3.3.1/bits/list.tcc **** 
  21:d:/MTK/MTK2503/MTK2503/11CW1418SP4_03_CORETEK03AE_11C_V1_GPRS_MMI/Tools/MinGW/include/c++/3.3.1/bits/list.tcc **** // As a special exception, you may use this file as part of a free software
  22:d:/MTK/MTK2503/MTK2503/11CW1418SP4_03_CORETEK03AE_11C_V1_GPRS_MMI/Tools/MinGW/include/c++/3.3.1/bits/list.tcc **** // library without restriction.  Specifically, if other files instantiate
  23:d:/MTK/MTK2503/MTK2503/11CW1418SP4_03_CORETEK03AE_11C_V1_GPRS_MMI/Tools/MinGW/include/c++/3.3.1/bits/list.tcc **** // templates or use macros or inline functions from this file, or you compile
  24:d:/MTK/MTK2503/MTK2503/11CW1418SP4_03_CORETEK03AE_11C_V1_GPRS_MMI/Tools/MinGW/include/c++/3.3.1/bits/list.tcc **** // this file and link it with other files to produce an executable, this
  25:d:/MTK/MTK2503/MTK2503/11CW1418SP4_03_CORETEK03AE_11C_V1_GPRS_MMI/Tools/MinGW/include/c++/3.3.1/bits/list.tcc **** // file does not by itself cause the resulting executable to be covered by
  26:d:/MTK/MTK2503/MTK2503/11CW1418SP4_03_CORETEK03AE_11C_V1_GPRS_MMI/Tools/MinGW/include/c++/3.3.1/bits/list.tcc **** // the GNU General Public License.  This exception does not however
  27:d:/MTK/MTK2503/MTK2503/11CW1418SP4_03_CORETEK03AE_11C_V1_GPRS_MMI/Tools/MinGW/include/c++/3.3.1/bits/list.tcc **** // invalidate any other reasons why the executable file might be covered by
  28:d:/MTK/MTK2503/MTK2503/11CW1418SP4_03_CORETEK03AE_11C_V1_GPRS_MMI/Tools/MinGW/include/c++/3.3.1/bits/list.tcc **** // the GNU General Public License.
  29:d:/MTK/MTK2503/MTK2503/11CW1418SP4_03_CORETEK03AE_11C_V1_GPRS_MMI/Tools/MinGW/include/c++/3.3.1/bits/list.tcc **** 
  30:d:/MTK/MTK2503/MTK2503/11CW1418SP4_03_CORETEK03AE_11C_V1_GPRS_MMI/Tools/MinGW/include/c++/3.3.1/bits/list.tcc **** /*
  31:d:/MTK/MTK2503/MTK2503/11CW1418SP4_03_CORETEK03AE_11C_V1_GPRS_MMI/Tools/MinGW/include/c++/3.3.1/bits/list.tcc ****  *
  32:d:/MTK/MTK2503/MTK2503/11CW1418SP4_03_CORETEK03AE_11C_V1_GPRS_MMI/Tools/MinGW/include/c++/3.3.1/bits/list.tcc ****  * Copyright (c) 1994
  33:d:/MTK/MTK2503/MTK2503/11CW1418SP4_03_CORETEK03AE_11C_V1_GPRS_MMI/Tools/MinGW/include/c++/3.3.1/bits/list.tcc ****  * Hewlett-Packard Company
  34:d:/MTK/MTK2503/MTK2503/11CW1418SP4_03_CORETEK03AE_11C_V1_GPRS_MMI/Tools/MinGW/include/c++/3.3.1/bits/list.tcc ****  *
  35:d:/MTK/MTK2503/MTK2503/11CW1418SP4_03_CORETEK03AE_11C_V1_GPRS_MMI/Tools/MinGW/include/c++/3.3.1/bits/list.tcc ****  * Permission to use, copy, modify, distribute and sell this software
  36:d:/MTK/MTK2503/MTK2503/11CW1418SP4_03_CORETEK03AE_11C_V1_GPRS_MMI/Tools/MinGW/include/c++/3.3.1/bits/list.tcc ****  * and its documentation for any purpose is hereby granted without fee,
  37:d:/MTK/MTK2503/MTK2503/11CW1418SP4_03_CORETEK03AE_11C_V1_GPRS_MMI/Tools/MinGW/include/c++/3.3.1/bits/list.tcc ****  * provided that the above copyright notice appear in all copies and
  38:d:/MTK/MTK2503/MTK2503/11CW1418SP4_03_CORETEK03AE_11C_V1_GPRS_MMI/Tools/MinGW/include/c++/3.3.1/bits/list.tcc ****  * that both that copyright notice and this permission notice appear
  39:d:/MTK/MTK2503/MTK2503/11CW1418SP4_03_CORETEK03AE_11C_V1_GPRS_MMI/Tools/MinGW/include/c++/3.3.1/bits/list.tcc ****  * in supporting documentation.  Hewlett-Packard Company makes no
GAS LISTING d:/MTK/MTK2503/MTK2503/11CW1418SP4_03_CORETEK03AE_11C_V1_GPRS_MMI/plutommi/Customer/ResGenerator/gcctmp/cck7daaa.s 			page 103


  40:d:/MTK/MTK2503/MTK2503/11CW1418SP4_03_CORETEK03AE_11C_V1_GPRS_MMI/Tools/MinGW/include/c++/3.3.1/bits/list.tcc ****  * representations about the suitability of this software for any
  41:d:/MTK/MTK2503/MTK2503/11CW1418SP4_03_CORETEK03AE_11C_V1_GPRS_MMI/Tools/MinGW/include/c++/3.3.1/bits/list.tcc ****  * purpose.  It is provided "as is" without express or implied warranty.
  42:d:/MTK/MTK2503/MTK2503/11CW1418SP4_03_CORETEK03AE_11C_V1_GPRS_MMI/Tools/MinGW/include/c++/3.3.1/bits/list.tcc ****  *
  43:d:/MTK/MTK2503/MTK2503/11CW1418SP4_03_CORETEK03AE_11C_V1_GPRS_MMI/Tools/MinGW/include/c++/3.3.1/bits/list.tcc ****  *
  44:d:/MTK/MTK2503/MTK2503/11CW1418SP4_03_CORETEK03AE_11C_V1_GPRS_MMI/Tools/MinGW/include/c++/3.3.1/bits/list.tcc ****  * Copyright (c) 1996,1997
  45:d:/MTK/MTK2503/MTK2503/11CW1418SP4_03_CORETEK03AE_11C_V1_GPRS_MMI/Tools/MinGW/include/c++/3.3.1/bits/list.tcc ****  * Silicon Graphics Computer Systems, Inc.
  46:d:/MTK/MTK2503/MTK2503/11CW1418SP4_03_CORETEK03AE_11C_V1_GPRS_MMI/Tools/MinGW/include/c++/3.3.1/bits/list.tcc ****  *
  47:d:/MTK/MTK2503/MTK2503/11CW1418SP4_03_CORETEK03AE_11C_V1_GPRS_MMI/Tools/MinGW/include/c++/3.3.1/bits/list.tcc ****  * Permission to use, copy, modify, distribute and sell this software
  48:d:/MTK/MTK2503/MTK2503/11CW1418SP4_03_CORETEK03AE_11C_V1_GPRS_MMI/Tools/MinGW/include/c++/3.3.1/bits/list.tcc ****  * and its documentation for any purpose is hereby granted without fee,
  49:d:/MTK/MTK2503/MTK2503/11CW1418SP4_03_CORETEK03AE_11C_V1_GPRS_MMI/Tools/MinGW/include/c++/3.3.1/bits/list.tcc ****  * provided that the above copyright notice appear in all copies and
  50:d:/MTK/MTK2503/MTK2503/11CW1418SP4_03_CORETEK03AE_11C_V1_GPRS_MMI/Tools/MinGW/include/c++/3.3.1/bits/list.tcc ****  * that both that copyright notice and this permission notice appear
  51:d:/MTK/MTK2503/MTK2503/11CW1418SP4_03_CORETEK03AE_11C_V1_GPRS_MMI/Tools/MinGW/include/c++/3.3.1/bits/list.tcc ****  * in supporting documentation.  Silicon Graphics makes no
  52:d:/MTK/MTK2503/MTK2503/11CW1418SP4_03_CORETEK03AE_11C_V1_GPRS_MMI/Tools/MinGW/include/c++/3.3.1/bits/list.tcc ****  * representations about the suitability of this software for any
  53:d:/MTK/MTK2503/MTK2503/11CW1418SP4_03_CORETEK03AE_11C_V1_GPRS_MMI/Tools/MinGW/include/c++/3.3.1/bits/list.tcc ****  * purpose.  It is provided "as is" without express or implied warranty.
  54:d:/MTK/MTK2503/MTK2503/11CW1418SP4_03_CORETEK03AE_11C_V1_GPRS_MMI/Tools/MinGW/include/c++/3.3.1/bits/list.tcc ****  */
  55:d:/MTK/MTK2503/MTK2503/11CW1418SP4_03_CORETEK03AE_11C_V1_GPRS_MMI/Tools/MinGW/include/c++/3.3.1/bits/list.tcc **** 
  56:d:/MTK/MTK2503/MTK2503/11CW1418SP4_03_CORETEK03AE_11C_V1_GPRS_MMI/Tools/MinGW/include/c++/3.3.1/bits/list.tcc **** /** @file list.tcc
  57:d:/MTK/MTK2503/MTK2503/11CW1418SP4_03_CORETEK03AE_11C_V1_GPRS_MMI/Tools/MinGW/include/c++/3.3.1/bits/list.tcc ****  *  This is an internal header file, included by other library headers.
  58:d:/MTK/MTK2503/MTK2503/11CW1418SP4_03_CORETEK03AE_11C_V1_GPRS_MMI/Tools/MinGW/include/c++/3.3.1/bits/list.tcc ****  *  You should not attempt to use it directly.
  59:d:/MTK/MTK2503/MTK2503/11CW1418SP4_03_CORETEK03AE_11C_V1_GPRS_MMI/Tools/MinGW/include/c++/3.3.1/bits/list.tcc ****  */
  60:d:/MTK/MTK2503/MTK2503/11CW1418SP4_03_CORETEK03AE_11C_V1_GPRS_MMI/Tools/MinGW/include/c++/3.3.1/bits/list.tcc **** 
  61:d:/MTK/MTK2503/MTK2503/11CW1418SP4_03_CORETEK03AE_11C_V1_GPRS_MMI/Tools/MinGW/include/c++/3.3.1/bits/list.tcc **** #ifndef __GLIBCPP_INTERNAL_LIST_TCC
  62:d:/MTK/MTK2503/MTK2503/11CW1418SP4_03_CORETEK03AE_11C_V1_GPRS_MMI/Tools/MinGW/include/c++/3.3.1/bits/list.tcc **** #define __GLIBCPP_INTERNAL_LIST_TCC
  63:d:/MTK/MTK2503/MTK2503/11CW1418SP4_03_CORETEK03AE_11C_V1_GPRS_MMI/Tools/MinGW/include/c++/3.3.1/bits/list.tcc **** 
  64:d:/MTK/MTK2503/MTK2503/11CW1418SP4_03_CORETEK03AE_11C_V1_GPRS_MMI/Tools/MinGW/include/c++/3.3.1/bits/list.tcc **** namespace std
  65:d:/MTK/MTK2503/MTK2503/11CW1418SP4_03_CORETEK03AE_11C_V1_GPRS_MMI/Tools/MinGW/include/c++/3.3.1/bits/list.tcc **** {
  66:d:/MTK/MTK2503/MTK2503/11CW1418SP4_03_CORETEK03AE_11C_V1_GPRS_MMI/Tools/MinGW/include/c++/3.3.1/bits/list.tcc ****   template<typename _Tp, typename _Alloc>
  67:d:/MTK/MTK2503/MTK2503/11CW1418SP4_03_CORETEK03AE_11C_V1_GPRS_MMI/Tools/MinGW/include/c++/3.3.1/bits/list.tcc ****     void
  68:d:/MTK/MTK2503/MTK2503/11CW1418SP4_03_CORETEK03AE_11C_V1_GPRS_MMI/Tools/MinGW/include/c++/3.3.1/bits/list.tcc ****     _List_base<_Tp,_Alloc>::
  69:d:/MTK/MTK2503/MTK2503/11CW1418SP4_03_CORETEK03AE_11C_V1_GPRS_MMI/Tools/MinGW/include/c++/3.3.1/bits/list.tcc ****     __clear()
  70:d:/MTK/MTK2503/MTK2503/11CW1418SP4_03_CORETEK03AE_11C_V1_GPRS_MMI/Tools/MinGW/include/c++/3.3.1/bits/list.tcc ****     {
  71:d:/MTK/MTK2503/MTK2503/11CW1418SP4_03_CORETEK03AE_11C_V1_GPRS_MMI/Tools/MinGW/include/c++/3.3.1/bits/list.tcc ****       typedef _List_node<_Tp>  _Node;
  72:d:/MTK/MTK2503/MTK2503/11CW1418SP4_03_CORETEK03AE_11C_V1_GPRS_MMI/Tools/MinGW/include/c++/3.3.1/bits/list.tcc ****       _Node* __cur = static_cast<_Node*>(_M_node->_M_next);
  73:d:/MTK/MTK2503/MTK2503/11CW1418SP4_03_CORETEK03AE_11C_V1_GPRS_MMI/Tools/MinGW/include/c++/3.3.1/bits/list.tcc ****       while (__cur != _M_node)
  74:d:/MTK/MTK2503/MTK2503/11CW1418SP4_03_CORETEK03AE_11C_V1_GPRS_MMI/Tools/MinGW/include/c++/3.3.1/bits/list.tcc ****       {
  75:d:/MTK/MTK2503/MTK2503/11CW1418SP4_03_CORETEK03AE_11C_V1_GPRS_MMI/Tools/MinGW/include/c++/3.3.1/bits/list.tcc ****         _Node* __tmp = __cur;
  76:d:/MTK/MTK2503/MTK2503/11CW1418SP4_03_CORETEK03AE_11C_V1_GPRS_MMI/Tools/MinGW/include/c++/3.3.1/bits/list.tcc ****         __cur = static_cast<_Node*>(__cur->_M_next);
  77:d:/MTK/MTK2503/MTK2503/11CW1418SP4_03_CORETEK03AE_11C_V1_GPRS_MMI/Tools/MinGW/include/c++/3.3.1/bits/list.tcc ****         _Destroy(&__tmp->_M_data);
  78:d:/MTK/MTK2503/MTK2503/11CW1418SP4_03_CORETEK03AE_11C_V1_GPRS_MMI/Tools/MinGW/include/c++/3.3.1/bits/list.tcc ****         _M_put_node(__tmp);
  79:d:/MTK/MTK2503/MTK2503/11CW1418SP4_03_CORETEK03AE_11C_V1_GPRS_MMI/Tools/MinGW/include/c++/3.3.1/bits/list.tcc ****       }
  80:d:/MTK/MTK2503/MTK2503/11CW1418SP4_03_CORETEK03AE_11C_V1_GPRS_MMI/Tools/MinGW/include/c++/3.3.1/bits/list.tcc ****       _M_node->_M_next = _M_node;
  81:d:/MTK/MTK2503/MTK2503/11CW1418SP4_03_CORETEK03AE_11C_V1_GPRS_MMI/Tools/MinGW/include/c++/3.3.1/bits/list.tcc ****       _M_node->_M_prev = _M_node;
  82:d:/MTK/MTK2503/MTK2503/11CW1418SP4_03_CORETEK03AE_11C_V1_GPRS_MMI/Tools/MinGW/include/c++/3.3.1/bits/list.tcc ****     }
  83:d:/MTK/MTK2503/MTK2503/11CW1418SP4_03_CORETEK03AE_11C_V1_GPRS_MMI/Tools/MinGW/include/c++/3.3.1/bits/list.tcc ****   
  84:d:/MTK/MTK2503/MTK2503/11CW1418SP4_03_CORETEK03AE_11C_V1_GPRS_MMI/Tools/MinGW/include/c++/3.3.1/bits/list.tcc ****   template<typename _Tp, typename _Alloc>
  85:d:/MTK/MTK2503/MTK2503/11CW1418SP4_03_CORETEK03AE_11C_V1_GPRS_MMI/Tools/MinGW/include/c++/3.3.1/bits/list.tcc ****     typename list<_Tp,_Alloc>::iterator
  86:d:/MTK/MTK2503/MTK2503/11CW1418SP4_03_CORETEK03AE_11C_V1_GPRS_MMI/Tools/MinGW/include/c++/3.3.1/bits/list.tcc ****     list<_Tp,_Alloc>::
  87:d:/MTK/MTK2503/MTK2503/11CW1418SP4_03_CORETEK03AE_11C_V1_GPRS_MMI/Tools/MinGW/include/c++/3.3.1/bits/list.tcc ****     insert(iterator __position, const value_type& __x)
  88:d:/MTK/MTK2503/MTK2503/11CW1418SP4_03_CORETEK03AE_11C_V1_GPRS_MMI/Tools/MinGW/include/c++/3.3.1/bits/list.tcc ****     {
 6170              	LM276:
 6171 0000 55       		pushl	%ebp
 6172 0001 89E5     		movl	%esp, %ebp
 6173 0003 56       		pushl	%esi
 6174 0004 53       		pushl	%ebx
 6175 0005 83EC10   		subl	$16, %esp
 6176 0008 8B7508   		movl	8(%ebp), %esi
 6177 000b 8B5D10   		movl	16(%ebp), %ebx
GAS LISTING d:/MTK/MTK2503/MTK2503/11CW1418SP4_03_CORETEK03AE_11C_V1_GPRS_MMI/plutommi/Customer/ResGenerator/gcctmp/cck7daaa.s 			page 104


  89:d:/MTK/MTK2503/MTK2503/11CW1418SP4_03_CORETEK03AE_11C_V1_GPRS_MMI/Tools/MinGW/include/c++/3.3.1/bits/list.tcc ****       _Node* __tmp = _M_create_node(__x);
 6179              	LM277:
 6180              	LBB63:
 6181 000e 8B4514   		movl	20(%ebp), %eax
 6182 0011 89442404 		movl	%eax, 4(%esp)
 6183 0015 8B450C   		movl	12(%ebp), %eax
 6184 0018 890424   		movl	%eax, (%esp)
 6185 001b E8000000 		call	__ZNSt4listI16ProcessImageDataSaIS0_EE14_M_create_nodeERKS0_
 6185      00
 6186 0020 8945F4   		movl	%eax, -12(%ebp)
  90:d:/MTK/MTK2503/MTK2503/11CW1418SP4_03_CORETEK03AE_11C_V1_GPRS_MMI/Tools/MinGW/include/c++/3.3.1/bits/list.tcc ****       __tmp->_M_next = __position._M_node;
 6188              	LM278:
 6189 0023 8B55F4   		movl	-12(%ebp), %edx
 6190 0026 8B03     		movl	(%ebx), %eax
 6191 0028 8902     		movl	%eax, (%edx)
  91:d:/MTK/MTK2503/MTK2503/11CW1418SP4_03_CORETEK03AE_11C_V1_GPRS_MMI/Tools/MinGW/include/c++/3.3.1/bits/list.tcc ****       __tmp->_M_prev = __position._M_node->_M_prev;
 6193              	LM279:
 6194 002a 8B55F4   		movl	-12(%ebp), %edx
 6195 002d 8B03     		movl	(%ebx), %eax
 6196 002f 8B4004   		movl	4(%eax), %eax
 6197 0032 894204   		movl	%eax, 4(%edx)
  92:d:/MTK/MTK2503/MTK2503/11CW1418SP4_03_CORETEK03AE_11C_V1_GPRS_MMI/Tools/MinGW/include/c++/3.3.1/bits/list.tcc ****       __position._M_node->_M_prev->_M_next = __tmp;
 6199              	LM280:
 6200 0035 8B03     		movl	(%ebx), %eax
 6201 0037 8B5004   		movl	4(%eax), %edx
 6202 003a 8B45F4   		movl	-12(%ebp), %eax
 6203 003d 8902     		movl	%eax, (%edx)
  93:d:/MTK/MTK2503/MTK2503/11CW1418SP4_03_CORETEK03AE_11C_V1_GPRS_MMI/Tools/MinGW/include/c++/3.3.1/bits/list.tcc ****       __position._M_node->_M_prev = __tmp;
 6205              	LM281:
 6206 003f 8B13     		movl	(%ebx), %edx
 6207 0041 8B45F4   		movl	-12(%ebp), %eax
 6208 0044 894204   		movl	%eax, 4(%edx)
  94:d:/MTK/MTK2503/MTK2503/11CW1418SP4_03_CORETEK03AE_11C_V1_GPRS_MMI/Tools/MinGW/include/c++/3.3.1/bits/list.tcc ****       return __tmp;
 6210              	LM282:
 6211 0047 8B45F4   		movl	-12(%ebp), %eax
 6212 004a 89442404 		movl	%eax, 4(%esp)
 6213 004e 893424   		movl	%esi, (%esp)
 6214 0051 E8000000 		call	__ZNSt14_List_iteratorI16ProcessImageDataRS0_PS0_EC1EPSt10_List_nodeIS0_E
 6214      00
 6215              	LBE63:
 6216 0056 89F0     		movl	%esi, %eax
 6217 0058 83C410   		addl	$16, %esp
 6218 005b 5B       		popl	%ebx
 6219 005c 5E       		popl	%esi
 6220 005d 5D       		popl	%ebp
 6221 005e C20400   		ret	$4
 6226              	Lscope50:
 6228 0061 909090   		.section	.text$_ZNSt4listI13LogBinaryDataSaIS0_EE3endEv,"x"
 6229              		.linkonce discard
 6230              		.align 2
 6233              	.globl __ZNSt4listI13LogBinaryDataSaIS0_EE3endEv
 6235              	__ZNSt4listI13LogBinaryDataSaIS0_EE3endEv:
 6237              	Ltext18:
 6239              	LM283:
 6240 0000 55       		pushl	%ebp
 6241 0001 89E5     		movl	%esp, %ebp
 6242 0003 53       		pushl	%ebx
GAS LISTING d:/MTK/MTK2503/MTK2503/11CW1418SP4_03_CORETEK03AE_11C_V1_GPRS_MMI/plutommi/Customer/ResGenerator/gcctmp/cck7daaa.s 			page 105


 6243 0004 83EC14   		subl	$20, %esp
 6244 0007 8B5D08   		movl	8(%ebp), %ebx
 6246              	LM284:
 6247              	LBB64:
 6248 000a 8B450C   		movl	12(%ebp), %eax
 6249 000d 8B00     		movl	(%eax), %eax
 6250 000f 89442404 		movl	%eax, 4(%esp)
 6251 0013 891C24   		movl	%ebx, (%esp)
 6252 0016 E8000000 		call	__ZNSt14_List_iteratorI13LogBinaryDataRS0_PS0_EC1EPSt10_List_nodeIS0_E
 6252      00
 6253              	LBE64:
 6254 001b 89D8     		movl	%ebx, %eax
 6255 001d 83C414   		addl	$20, %esp
 6256 0020 5B       		popl	%ebx
 6257 0021 5D       		popl	%ebp
 6258 0022 C20400   		ret	$4
 6259              	Lscope51:
 6261 0025 909090   		.section	.text$_ZNSt14_List_iteratorI13LogBinaryDataRS0_PS0_EC1EPSt10_List_nodeIS0_E,"x"
 6262              		.linkonce discard
 6263              		.align 2
 6267              	.globl __ZNSt14_List_iteratorI13LogBinaryDataRS0_PS0_EC1EPSt10_List_nodeIS0_E
 6269              	__ZNSt14_List_iteratorI13LogBinaryDataRS0_PS0_EC1EPSt10_List_nodeIS0_E:
 6271              	LM285:
 6272 0000 55       		pushl	%ebp
 6273 0001 89E5     		movl	%esp, %ebp
 6274 0003 83EC08   		subl	$8, %esp
 6276              	LM286:
 6277              	LBB65:
 6278 0006 8B450C   		movl	12(%ebp), %eax
 6279 0009 89442404 		movl	%eax, 4(%esp)
 6280 000d 8B4508   		movl	8(%ebp), %eax
 6281 0010 890424   		movl	%eax, (%esp)
 6282 0013 E8000000 		call	__ZNSt19_List_iterator_baseC2EPSt15_List_node_base
 6282      00
 6283 0018 C9       		leave
 6284 0019 C3       		ret
 6285              	LBE65:
 6286              	Lscope52:
 6288 001a 9090     		.section	.text$_ZNSt4listI13LogBinaryDataSaIS0_EE6insertESt14_List_iteratorIS0_RS0_PS0_ERKS0_,"x"
 6289              		.linkonce discard
 6290              		.align 2
 6295              	.globl __ZNSt4listI13LogBinaryDataSaIS0_EE6insertESt14_List_iteratorIS0_RS0_PS0_ERKS0_
 6297              	__ZNSt4listI13LogBinaryDataSaIS0_EE6insertESt14_List_iteratorIS0_RS0_PS0_ERKS0_:
 6299              	Ltext19:
 6301              	LM287:
 6302 0000 55       		pushl	%ebp
 6303 0001 89E5     		movl	%esp, %ebp
 6304 0003 56       		pushl	%esi
 6305 0004 53       		pushl	%ebx
 6306 0005 83EC10   		subl	$16, %esp
 6307 0008 8B7508   		movl	8(%ebp), %esi
 6308 000b 8B5D10   		movl	16(%ebp), %ebx
 6310              	LM288:
 6311              	LBB66:
 6312 000e 8B4514   		movl	20(%ebp), %eax
 6313 0011 89442404 		movl	%eax, 4(%esp)
 6314 0015 8B450C   		movl	12(%ebp), %eax
GAS LISTING d:/MTK/MTK2503/MTK2503/11CW1418SP4_03_CORETEK03AE_11C_V1_GPRS_MMI/plutommi/Customer/ResGenerator/gcctmp/cck7daaa.s 			page 106


 6315 0018 890424   		movl	%eax, (%esp)
 6316 001b E8000000 		call	__ZNSt4listI13LogBinaryDataSaIS0_EE14_M_create_nodeERKS0_
 6316      00
 6317 0020 8945F4   		movl	%eax, -12(%ebp)
 6319              	LM289:
 6320 0023 8B55F4   		movl	-12(%ebp), %edx
 6321 0026 8B03     		movl	(%ebx), %eax
 6322 0028 8902     		movl	%eax, (%edx)
 6324              	LM290:
 6325 002a 8B55F4   		movl	-12(%ebp), %edx
 6326 002d 8B03     		movl	(%ebx), %eax
 6327 002f 8B4004   		movl	4(%eax), %eax
 6328 0032 894204   		movl	%eax, 4(%edx)
 6330              	LM291:
 6331 0035 8B03     		movl	(%ebx), %eax
 6332 0037 8B5004   		movl	4(%eax), %edx
 6333 003a 8B45F4   		movl	-12(%ebp), %eax
 6334 003d 8902     		movl	%eax, (%edx)
 6336              	LM292:
 6337 003f 8B13     		movl	(%ebx), %edx
 6338 0041 8B45F4   		movl	-12(%ebp), %eax
 6339 0044 894204   		movl	%eax, 4(%edx)
 6341              	LM293:
 6342 0047 8B45F4   		movl	-12(%ebp), %eax
 6343 004a 89442404 		movl	%eax, 4(%esp)
 6344 004e 893424   		movl	%esi, (%esp)
 6345 0051 E8000000 		call	__ZNSt14_List_iteratorI13LogBinaryDataRS0_PS0_EC1EPSt10_List_nodeIS0_E
 6345      00
 6346              	LBE66:
 6347 0056 89F0     		movl	%esi, %eax
 6348 0058 83C410   		addl	$16, %esp
 6349 005b 5B       		popl	%ebx
 6350 005c 5E       		popl	%esi
 6351 005d 5D       		popl	%ebp
 6352 005e C20400   		ret	$4
 6357              	Lscope53:
 6359 0061 909090   		.section	.text$_ZNSt4listI13LogBinaryDataSaIS0_EED1Ev,"x"
 6360              		.linkonce discard
 6361              		.align 2
 6364              	.globl __ZNSt4listI13LogBinaryDataSaIS0_EED1Ev
 6366              	__ZNSt4listI13LogBinaryDataSaIS0_EED1Ev:
 6368              	Ltext20:
 6370              	LM294:
 6371              	L213:
 6372 0000 55       		pushl	%ebp
 6373 0001 89E5     		movl	%esp, %ebp
 6374 0003 83EC08   		subl	$8, %esp
 6376              	LM295:
 6377              	LBB67:
 6378 0006 8B4508   		movl	8(%ebp), %eax
 6379 0009 890424   		movl	%eax, (%esp)
 6380 000c E8000000 		call	__ZNSt10_List_baseI13LogBinaryDataSaIS0_EED2Ev
 6380      00
 6381 0011 C9       		leave
 6382 0012 C3       		ret
 6383              	L211:
 6384              	LBE67:
GAS LISTING d:/MTK/MTK2503/MTK2503/11CW1418SP4_03_CORETEK03AE_11C_V1_GPRS_MMI/plutommi/Customer/ResGenerator/gcctmp/cck7daaa.s 			page 107


 6385              	Lscope54:
 6387 0013 90       		.text
 6388              	LC25:
 6389 190f 424D5000 		.ascii "BMP\0"
 6390              	LC26:
 6391 1913 50424D00 		.ascii "PBM\0"
 6392              	LC27:
 6393 1917 4A504700 		.ascii "JPG\0"
 6394              	LC28:
 6395 191b 47494600 		.ascii "GIF\0"
 6396              	LC29:
 6397 191f 41424D00 		.ascii "ABM\0"
 6398              	LC30:
 6399 1923 41564900 		.ascii "AVI\0"
 6400              	LC31:
 6401 1927 33475000 		.ascii "3GP\0"
 6402              	LC32:
 6403 192b 4D503400 		.ascii "MP4\0"
 6404              	LC33:
 6405 192f 525600   		.ascii "RV\0"
 6406              	LC34:
 6407 1932 524D00   		.ascii "RM\0"
 6408              	LC35:
 6409 1935 524D5642 		.ascii "RMVB\0"
 6409      00
 6410              	LC36:
 6411 193a 504E4700 		.ascii "PNG\0"
 6412              	LC37:
 6413 193e 50504E00 		.ascii "PPN\0"
 6414              	LC38:
 6415 1942 4D334400 		.ascii "M3D\0"
 6416              	LC39:
 6417 1946 434D5000 		.ascii "CMP\0"
 6418              	LC40:
 6419 194a 56495300 		.ascii "VIS\0"
 6420              	LC41:
 6421 194e 53564700 		.ascii "SVG\0"
 6422              	LC42:
 6423 1952 54544600 		.ascii "TTF\0"
 6424              	LC43:
 6425 1956 53544600 		.ascii "STF\0"
 6426              	LC44:
 6427 195a 43434300 		.ascii "CCC\0"
 6428              	LC45:
 6429 195e 4B545800 		.ascii "KTX\0"
 6430 1962 90909090 		.align 32
 6430      90909090 
 6430      90909090 
 6430      90909090 
 6430      90909090 
 6431              	_image_resource_info:
 6432 1980 0F190000 		.long	LC25
 6433 1984 01       		.byte	1
 6434 1985 000000   		.space 3
 6435 1988 13190000 		.long	LC26
 6436 198c 04       		.byte	4
 6437 198d 000000   		.space 3
GAS LISTING d:/MTK/MTK2503/MTK2503/11CW1418SP4_03_CORETEK03AE_11C_V1_GPRS_MMI/plutommi/Customer/ResGenerator/gcctmp/cck7daaa.s 			page 108


 6438 1990 17190000 		.long	LC27
 6439 1994 09       		.byte	9
 6440 1995 000000   		.space 3
 6441 1998 1B190000 		.long	LC28
 6442 199c 03       		.byte	3
 6443 199d 000000   		.space 3
 6444 19a0 1F190000 		.long	LC29
 6445 19a4 28       		.byte	40
 6446 19a5 000000   		.space 3
 6447 19a8 23190000 		.long	LC30
 6448 19ac 0C       		.byte	12
 6449 19ad 000000   		.space 3
 6450 19b0 27190000 		.long	LC31
 6451 19b4 0E       		.byte	14
 6452 19b5 000000   		.space 3
 6453 19b8 2B190000 		.long	LC32
 6454 19bc 10       		.byte	16
 6455 19bd 000000   		.space 3
 6456 19c0 2F190000 		.long	LC33
 6457 19c4 4A       		.byte	74
 6458 19c5 000000   		.space 3
 6459 19c8 32190000 		.long	LC34
 6460 19cc 4C       		.byte	76
 6461 19cd 000000   		.space 3
 6462 19d0 35190000 		.long	LC35
 6463 19d4 4E       		.byte	78
 6464 19d5 000000   		.space 3
 6465 19d8 3A190000 		.long	LC36
 6466 19dc 13       		.byte	19
 6467 19dd 000000   		.space 3
 6468 19e0 3E190000 		.long	LC37
 6469 19e4 48       		.byte	72
 6470 19e5 000000   		.space 3
 6471 19e8 42190000 		.long	LC38
 6472 19ec 19       		.byte	25
 6473 19ed 000000   		.space 3
 6474 19f0 46190000 		.long	LC39
 6475 19f4 1D       		.byte	29
 6476 19f5 000000   		.space 3
 6477 19f8 4A190000 		.long	LC40
 6478 19fc 31       		.byte	49
 6479 19fd 000000   		.space 3
 6480 1a00 4E190000 		.long	LC41
 6481 1a04 1B       		.byte	27
 6482 1a05 000000   		.space 3
 6483 1a08 52190000 		.long	LC42
 6484 1a0c 49       		.byte	73
 6485 1a0d 000000   		.space 3
 6486 1a10 56190000 		.long	LC43
 6487 1a14 49       		.byte	73
 6488 1a15 000000   		.space 3
 6489 1a18 5A190000 		.long	LC44
 6490 1a1c 49       		.byte	73
 6491 1a1d 000000   		.space 3
 6492 1a20 5E190000 		.long	LC45
 6493 1a24 43       		.byte	67
 6494 1a25 000000   		.space 3
GAS LISTING d:/MTK/MTK2503/MTK2503/11CW1418SP4_03_CORETEK03AE_11C_V1_GPRS_MMI/plutommi/Customer/ResGenerator/gcctmp/cck7daaa.s 			page 109


 6495              	.globl __ZNSt15basic_streambufIcSt11char_traitsIcEE13_S_pback_sizeE
 6496              		.section	.rdata$_ZNSt15basic_streambufIcSt11char_traitsIcEE13_S_pback_sizeE,""
 6497              		.linkonce same_size
 6498              		.align 4
 6499              	__ZNSt15basic_streambufIcSt11char_traitsIcEE13_S_pback_sizeE:
 6500 0000 01000000 		.long	1
 6501              		.section	.text$_ZNSt4listI16ProcessImageDataSaIS0_EED1Ev,"x"
 6502              		.linkonce discard
 6503              		.align 2
 6506              	.globl __ZNSt4listI16ProcessImageDataSaIS0_EED1Ev
 6508              	__ZNSt4listI16ProcessImageDataSaIS0_EED1Ev:
 6510              	LM296:
 6511              	L218:
 6512 0000 55       		pushl	%ebp
 6513 0001 89E5     		movl	%esp, %ebp
 6514 0003 83EC08   		subl	$8, %esp
 6516              	LM297:
 6517              	LBB68:
 6518 0006 8B4508   		movl	8(%ebp), %eax
 6519 0009 890424   		movl	%eax, (%esp)
 6520 000c E8000000 		call	__ZNSt10_List_baseI16ProcessImageDataSaIS0_EED2Ev
 6520      00
 6521 0011 C9       		leave
 6522 0012 C3       		ret
 6523              	L216:
 6524              	LBE68:
 6525              	Lscope55:
 6527 0013 90       		.section	.text$_ZNSt19_List_iterator_baseC2EPSt15_List_node_base,"x"
 6528              		.linkonce discard
 6529              		.align 2
 6533              	.globl __ZNSt19_List_iterator_baseC2EPSt15_List_node_base
 6535              	__ZNSt19_List_iterator_baseC2EPSt15_List_node_base:
 6537              	LM298:
 6538 0000 55       		pushl	%ebp
 6539 0001 89E5     		movl	%esp, %ebp
 6541              	LM299:
 6542              	LBB69:
 6543 0003 8B5508   		movl	8(%ebp), %edx
 6544 0006 8B450C   		movl	12(%ebp), %eax
 6545 0009 8902     		movl	%eax, (%edx)
 6546 000b 5D       		popl	%ebp
 6547 000c C3       		ret
 6548              	LBE69:
 6549              	Lscope56:
 6551 000d 909090   		.section	.text$_ZNSt10_List_baseI16ProcessImageDataSaIS0_EED2Ev,"x"
 6552              		.linkonce discard
 6553              		.align 2
 6556              	.globl __ZNSt10_List_baseI16ProcessImageDataSaIS0_EED2Ev
 6558              	__ZNSt10_List_baseI16ProcessImageDataSaIS0_EED2Ev:
 6560              	LM300:
 6561 0000 55       		pushl	%ebp
 6562 0001 89E5     		movl	%esp, %ebp
 6563 0003 83EC08   		subl	$8, %esp
 6565              	LM301:
 6566              	LBB70:
 6567 0006 8B4508   		movl	8(%ebp), %eax
 6568 0009 890424   		movl	%eax, (%esp)
GAS LISTING d:/MTK/MTK2503/MTK2503/11CW1418SP4_03_CORETEK03AE_11C_V1_GPRS_MMI/plutommi/Customer/ResGenerator/gcctmp/cck7daaa.s 			page 110


 6569 000c E8000000 		call	__ZNSt10_List_baseI16ProcessImageDataSaIS0_EE7__clearEv
 6569      00
 6571              	LM302:
 6572 0011 8B4508   		movl	8(%ebp), %eax
 6573 0014 8B00     		movl	(%eax), %eax
 6574 0016 89442404 		movl	%eax, 4(%esp)
 6575 001a 8B4508   		movl	8(%ebp), %eax
 6576 001d 890424   		movl	%eax, (%esp)
 6577 0020 E8000000 		call	__ZNSt16_List_alloc_baseI16ProcessImageDataSaIS0_ELb1EE11_M_put_nodeEPSt10_List_nodeIS0_E
 6577      00
 6578 0025 C9       		leave
 6579 0026 C3       		ret
 6580              	LBE70:
 6581              	Lscope57:
 6583 0027 90       		.section	.text$_ZNSt10_List_baseI13LogBinaryDataSaIS0_EED2Ev,"x"
 6584              		.linkonce discard
 6585              		.align 2
 6588              	.globl __ZNSt10_List_baseI13LogBinaryDataSaIS0_EED2Ev
 6590              	__ZNSt10_List_baseI13LogBinaryDataSaIS0_EED2Ev:
 6592              	LM303:
 6593 0000 55       		pushl	%ebp
 6594 0001 89E5     		movl	%esp, %ebp
 6595 0003 83EC08   		subl	$8, %esp
 6597              	LM304:
 6598              	LBB71:
 6599 0006 8B4508   		movl	8(%ebp), %eax
 6600 0009 890424   		movl	%eax, (%esp)
 6601 000c E8000000 		call	__ZNSt10_List_baseI13LogBinaryDataSaIS0_EE7__clearEv
 6601      00
 6603              	LM305:
 6604 0011 8B4508   		movl	8(%ebp), %eax
 6605 0014 8B00     		movl	(%eax), %eax
 6606 0016 89442404 		movl	%eax, 4(%esp)
 6607 001a 8B4508   		movl	8(%ebp), %eax
 6608 001d 890424   		movl	%eax, (%esp)
 6609 0020 E8000000 		call	__ZNSt16_List_alloc_baseI13LogBinaryDataSaIS0_ELb1EE11_M_put_nodeEPSt10_List_nodeIS0_E
 6609      00
 6610 0025 C9       		leave
 6611 0026 C3       		ret
 6612              	LBE71:
 6613              	Lscope58:
 6615 0027 90       		.section	.text$_ZNSt4listI16ProcessImageDataSaIS0_EE14_M_create_nodeERKS0_,"x"
 6616              		.linkonce discard
 6617              		.align 2
 6621              	.globl __ZNSt4listI16ProcessImageDataSaIS0_EE14_M_create_nodeERKS0_
 6623              	__ZNSt4listI16ProcessImageDataSaIS0_EE14_M_create_nodeERKS0_:
 6625              	LM306:
 6626 0000 55       		pushl	%ebp
 6627 0001 89E5     		movl	%esp, %ebp
 6628 0003 57       		pushl	%edi
 6629 0004 56       		pushl	%esi
 6630 0005 53       		pushl	%ebx
 6631 0006 83EC4C   		subl	$76, %esp
 6632 0009 C745DC00 		movl	$___gxx_personality_sj0, -36(%ebp)
 6632      000000
 6633 0010 C745E02C 		movl	$LLSDA2375, -32(%ebp)
 6633      000000
GAS LISTING d:/MTK/MTK2503/MTK2503/11CW1418SP4_03_CORETEK03AE_11C_V1_GPRS_MMI/plutommi/Customer/ResGenerator/gcctmp/cck7daaa.s 			page 111


 6634 0017 8D45E4   		leal	-28(%ebp), %eax
 6635 001a 8D55F4   		leal	-12(%ebp), %edx
 6636 001d 8910     		movl	%edx, (%eax)
 6637 001f BA910000 		movl	$L236, %edx
 6637      00
 6638 0024 895004   		movl	%edx, 4(%eax)
 6639 0027 896008   		movl	%esp, 8(%eax)
 6640 002a 8D45C4   		leal	-60(%ebp), %eax
 6641 002d 890424   		movl	%eax, (%esp)
 6642 0030 E8000000 		call	__Unwind_SjLj_Register
 6642      00
 6644              	LM307:
 6645              	LBB72:
 6646 0035 8B4508   		movl	8(%ebp), %eax
 6647 0038 890424   		movl	%eax, (%esp)
 6648 003b C745C8FF 		movl	$-1, -56(%ebp)
 6648      FFFFFF
 6649 0042 E8000000 		call	__ZNSt16_List_alloc_baseI16ProcessImageDataSaIS0_ELb1EE11_M_get_nodeEv
 6649      00
 6650 0047 8945F0   		movl	%eax, -16(%ebp)
 6652              	LM308:
 6653 004a 8B450C   		movl	12(%ebp), %eax
 6654 004d 89442404 		movl	%eax, 4(%esp)
 6655 0051 8B45F0   		movl	-16(%ebp), %eax
 6656 0054 83C008   		addl	$8, %eax
 6657 0057 890424   		movl	%eax, (%esp)
 6658 005a C745C802 		movl	$2, -56(%ebp)
 6658      000000
 6659 0061 E8000000 		call	__ZSt10_ConstructI16ProcessImageDataS0_EvPT_RKT0_
 6659      00
 6660 0066 EB64     		jmp	L229
 6662              	LM309:
 6663              	L235:
 6664              	L230:
 6665 0068 8B45BC   		movl	-68(%ebp), %eax
 6666 006b 890424   		movl	%eax, (%esp)
 6667 006e E8000000 		call	___cxa_begin_catch
 6667      00
 6669              	LM310:
 6670 0073 8B45F0   		movl	-16(%ebp), %eax
 6671 0076 89442404 		movl	%eax, 4(%esp)
 6672 007a 8B4508   		movl	8(%ebp), %eax
 6673 007d 890424   		movl	%eax, (%esp)
 6674 0080 C745C801 		movl	$1, -56(%ebp)
 6674      000000
 6675 0087 E8000000 		call	__ZNSt16_List_alloc_baseI16ProcessImageDataSaIS0_ELb1EE11_M_put_nodeEPSt10_List_nodeIS0_E
 6675      00
 6677              	LM311:
 6678 008c E8000000 		call	___cxa_rethrow
 6678      00
 6679              	L236:
 6680 0091 8D6D0C   		leal	12(%ebp), %ebp
 6681 0094 8B45C8   		movl	-56(%ebp), %eax
 6682 0097 8B55CC   		movl	-52(%ebp), %edx
 6683 009a 8955BC   		movl	%edx, -68(%ebp)
 6684 009d 83F801   		cmpl	$1, %eax
 6685 00a0 74C6     		je	L235
GAS LISTING d:/MTK/MTK2503/MTK2503/11CW1418SP4_03_CORETEK03AE_11C_V1_GPRS_MMI/plutommi/Customer/ResGenerator/gcctmp/cck7daaa.s 			page 112


 6686              	L231:
 6687 00a2 8B45BC   		movl	-68(%ebp), %eax
 6688 00a5 8945B8   		movl	%eax, -72(%ebp)
 6689 00a8 C745C800 		movl	$0, -56(%ebp)
 6689      000000
 6690 00af E8000000 		call	___cxa_end_catch
 6690      00
 6691 00b4 8B55B8   		movl	-72(%ebp), %edx
 6692 00b7 8955BC   		movl	%edx, -68(%ebp)
 6693              	L233:
 6694 00ba 8B45BC   		movl	-68(%ebp), %eax
 6695 00bd 890424   		movl	%eax, (%esp)
 6696 00c0 C745C8FF 		movl	$-1, -56(%ebp)
 6696      FFFFFF
 6697 00c7 E8000000 		call	__Unwind_SjLj_Resume
 6697      00
 6698              	L229:
 6700              	LM312:
 6701 00cc 8B45F0   		movl	-16(%ebp), %eax
 6702 00cf 8945C0   		movl	%eax, -64(%ebp)
 6703              	L228:
 6704 00d2 8D45C4   		leal	-60(%ebp), %eax
 6705 00d5 890424   		movl	%eax, (%esp)
 6706 00d8 E8000000 		call	__Unwind_SjLj_Unregister
 6706      00
 6707              	LBE72:
 6708 00dd 8B45C0   		movl	-64(%ebp), %eax
 6709 00e0 83C44C   		addl	$76, %esp
 6710 00e3 5B       		popl	%ebx
 6711 00e4 5E       		popl	%esi
 6712 00e5 5F       		popl	%edi
 6713 00e6 5D       		popl	%ebp
 6714 00e7 C3       		ret
 6715              		.section	.gcc_except_table,""
 6716 002a 0000     		.align 4
 6717              	LLSDA2375:
 6718 002c FF       		.byte	0xff
 6719 002d 00       		.byte	0x0
 6720 002e 0D       		.uleb128 LLSDATT2375-LLSDATTD2375
 6721              	LLSDATTD2375:
 6722 002f 01       		.byte	0x1
 6723 0030 04       		.uleb128 LLSDACSE2375-LLSDACSB2375
 6724              	LLSDACSB2375:
 6725 0031 00       		.uleb128 0x0
 6726 0032 00       		.uleb128 0x0
 6727 0033 01       		.uleb128 0x1
 6728 0034 01       		.uleb128 0x1
 6729              	LLSDACSE2375:
 6730 0035 01       		.byte	0x1
 6731 0036 00       		.byte	0x0
 6732 0037 00       		.align 4
 6733 0038 00000000 		.long	0
 6734              	LLSDATT2375:
 6735              		.section	.text$_ZNSt4listI16ProcessImageDataSaIS0_EE14_M_create_nodeERKS0_,"x"
 6736              		.linkonce discard
 6740              	Lscope59:
 6742              		.section	.text$_ZSt10_ConstructI16ProcessImageDataS0_EvPT_RKT0_,"x"
GAS LISTING d:/MTK/MTK2503/MTK2503/11CW1418SP4_03_CORETEK03AE_11C_V1_GPRS_MMI/plutommi/Customer/ResGenerator/gcctmp/cck7daaa.s 			page 113


 6743              		.linkonce discard
 6744              		.align 2
 6748              	.globl __ZSt10_ConstructI16ProcessImageDataS0_EvPT_RKT0_
 6750              	__ZSt10_ConstructI16ProcessImageDataS0_EvPT_RKT0_:
 6752              	Ltext21:
   1:d:/MTK/MTK2503/MTK2503/11CW1418SP4_03_CORETEK03AE_11C_V1_GPRS_MMI/Tools/MinGW/include/c++/3.3.1/bits/stl_construct.h **** // nonstandard construct and destroy functions -*- C++ -*-
   2:d:/MTK/MTK2503/MTK2503/11CW1418SP4_03_CORETEK03AE_11C_V1_GPRS_MMI/Tools/MinGW/include/c++/3.3.1/bits/stl_construct.h **** 
   3:d:/MTK/MTK2503/MTK2503/11CW1418SP4_03_CORETEK03AE_11C_V1_GPRS_MMI/Tools/MinGW/include/c++/3.3.1/bits/stl_construct.h **** // Copyright (C) 2001, 2002 Free Software Foundation, Inc.
   4:d:/MTK/MTK2503/MTK2503/11CW1418SP4_03_CORETEK03AE_11C_V1_GPRS_MMI/Tools/MinGW/include/c++/3.3.1/bits/stl_construct.h **** //
   5:d:/MTK/MTK2503/MTK2503/11CW1418SP4_03_CORETEK03AE_11C_V1_GPRS_MMI/Tools/MinGW/include/c++/3.3.1/bits/stl_construct.h **** // This file is part of the GNU ISO C++ Library.  This library is free
   6:d:/MTK/MTK2503/MTK2503/11CW1418SP4_03_CORETEK03AE_11C_V1_GPRS_MMI/Tools/MinGW/include/c++/3.3.1/bits/stl_construct.h **** // software; you can redistribute it and/or modify it under the
   7:d:/MTK/MTK2503/MTK2503/11CW1418SP4_03_CORETEK03AE_11C_V1_GPRS_MMI/Tools/MinGW/include/c++/3.3.1/bits/stl_construct.h **** // terms of the GNU General Public License as published by the
   8:d:/MTK/MTK2503/MTK2503/11CW1418SP4_03_CORETEK03AE_11C_V1_GPRS_MMI/Tools/MinGW/include/c++/3.3.1/bits/stl_construct.h **** // Free Software Foundation; either version 2, or (at your option)
   9:d:/MTK/MTK2503/MTK2503/11CW1418SP4_03_CORETEK03AE_11C_V1_GPRS_MMI/Tools/MinGW/include/c++/3.3.1/bits/stl_construct.h **** // any later version.
  10:d:/MTK/MTK2503/MTK2503/11CW1418SP4_03_CORETEK03AE_11C_V1_GPRS_MMI/Tools/MinGW/include/c++/3.3.1/bits/stl_construct.h **** 
  11:d:/MTK/MTK2503/MTK2503/11CW1418SP4_03_CORETEK03AE_11C_V1_GPRS_MMI/Tools/MinGW/include/c++/3.3.1/bits/stl_construct.h **** // This library is distributed in the hope that it will be useful,
  12:d:/MTK/MTK2503/MTK2503/11CW1418SP4_03_CORETEK03AE_11C_V1_GPRS_MMI/Tools/MinGW/include/c++/3.3.1/bits/stl_construct.h **** // but WITHOUT ANY WARRANTY; without even the implied warranty of
  13:d:/MTK/MTK2503/MTK2503/11CW1418SP4_03_CORETEK03AE_11C_V1_GPRS_MMI/Tools/MinGW/include/c++/3.3.1/bits/stl_construct.h **** // MERCHANTABILITY or FITNESS FOR A PARTICULAR PURPOSE.  See the
  14:d:/MTK/MTK2503/MTK2503/11CW1418SP4_03_CORETEK03AE_11C_V1_GPRS_MMI/Tools/MinGW/include/c++/3.3.1/bits/stl_construct.h **** // GNU General Public License for more details.
  15:d:/MTK/MTK2503/MTK2503/11CW1418SP4_03_CORETEK03AE_11C_V1_GPRS_MMI/Tools/MinGW/include/c++/3.3.1/bits/stl_construct.h **** 
  16:d:/MTK/MTK2503/MTK2503/11CW1418SP4_03_CORETEK03AE_11C_V1_GPRS_MMI/Tools/MinGW/include/c++/3.3.1/bits/stl_construct.h **** // You should have received a copy of the GNU General Public License along
  17:d:/MTK/MTK2503/MTK2503/11CW1418SP4_03_CORETEK03AE_11C_V1_GPRS_MMI/Tools/MinGW/include/c++/3.3.1/bits/stl_construct.h **** // with this library; see the file COPYING.  If not, write to the Free
  18:d:/MTK/MTK2503/MTK2503/11CW1418SP4_03_CORETEK03AE_11C_V1_GPRS_MMI/Tools/MinGW/include/c++/3.3.1/bits/stl_construct.h **** // Software Foundation, 59 Temple Place - Suite 330, Boston, MA 02111-1307,
  19:d:/MTK/MTK2503/MTK2503/11CW1418SP4_03_CORETEK03AE_11C_V1_GPRS_MMI/Tools/MinGW/include/c++/3.3.1/bits/stl_construct.h **** // USA.
  20:d:/MTK/MTK2503/MTK2503/11CW1418SP4_03_CORETEK03AE_11C_V1_GPRS_MMI/Tools/MinGW/include/c++/3.3.1/bits/stl_construct.h **** 
  21:d:/MTK/MTK2503/MTK2503/11CW1418SP4_03_CORETEK03AE_11C_V1_GPRS_MMI/Tools/MinGW/include/c++/3.3.1/bits/stl_construct.h **** // As a special exception, you may use this file as part of a free software
  22:d:/MTK/MTK2503/MTK2503/11CW1418SP4_03_CORETEK03AE_11C_V1_GPRS_MMI/Tools/MinGW/include/c++/3.3.1/bits/stl_construct.h **** // library without restriction.  Specifically, if other files instantiate
  23:d:/MTK/MTK2503/MTK2503/11CW1418SP4_03_CORETEK03AE_11C_V1_GPRS_MMI/Tools/MinGW/include/c++/3.3.1/bits/stl_construct.h **** // templates or use macros or inline functions from this file, or you compile
  24:d:/MTK/MTK2503/MTK2503/11CW1418SP4_03_CORETEK03AE_11C_V1_GPRS_MMI/Tools/MinGW/include/c++/3.3.1/bits/stl_construct.h **** // this file and link it with other files to produce an executable, this
  25:d:/MTK/MTK2503/MTK2503/11CW1418SP4_03_CORETEK03AE_11C_V1_GPRS_MMI/Tools/MinGW/include/c++/3.3.1/bits/stl_construct.h **** // file does not by itself cause the resulting executable to be covered by
  26:d:/MTK/MTK2503/MTK2503/11CW1418SP4_03_CORETEK03AE_11C_V1_GPRS_MMI/Tools/MinGW/include/c++/3.3.1/bits/stl_construct.h **** // the GNU General Public License.  This exception does not however
  27:d:/MTK/MTK2503/MTK2503/11CW1418SP4_03_CORETEK03AE_11C_V1_GPRS_MMI/Tools/MinGW/include/c++/3.3.1/bits/stl_construct.h **** // invalidate any other reasons why the executable file might be covered by
  28:d:/MTK/MTK2503/MTK2503/11CW1418SP4_03_CORETEK03AE_11C_V1_GPRS_MMI/Tools/MinGW/include/c++/3.3.1/bits/stl_construct.h **** // the GNU General Public License.
  29:d:/MTK/MTK2503/MTK2503/11CW1418SP4_03_CORETEK03AE_11C_V1_GPRS_MMI/Tools/MinGW/include/c++/3.3.1/bits/stl_construct.h **** 
  30:d:/MTK/MTK2503/MTK2503/11CW1418SP4_03_CORETEK03AE_11C_V1_GPRS_MMI/Tools/MinGW/include/c++/3.3.1/bits/stl_construct.h **** /*
  31:d:/MTK/MTK2503/MTK2503/11CW1418SP4_03_CORETEK03AE_11C_V1_GPRS_MMI/Tools/MinGW/include/c++/3.3.1/bits/stl_construct.h ****  *
  32:d:/MTK/MTK2503/MTK2503/11CW1418SP4_03_CORETEK03AE_11C_V1_GPRS_MMI/Tools/MinGW/include/c++/3.3.1/bits/stl_construct.h ****  * Copyright (c) 1994
  33:d:/MTK/MTK2503/MTK2503/11CW1418SP4_03_CORETEK03AE_11C_V1_GPRS_MMI/Tools/MinGW/include/c++/3.3.1/bits/stl_construct.h ****  * Hewlett-Packard Company
  34:d:/MTK/MTK2503/MTK2503/11CW1418SP4_03_CORETEK03AE_11C_V1_GPRS_MMI/Tools/MinGW/include/c++/3.3.1/bits/stl_construct.h ****  *
  35:d:/MTK/MTK2503/MTK2503/11CW1418SP4_03_CORETEK03AE_11C_V1_GPRS_MMI/Tools/MinGW/include/c++/3.3.1/bits/stl_construct.h ****  * Permission to use, copy, modify, distribute and sell this software
  36:d:/MTK/MTK2503/MTK2503/11CW1418SP4_03_CORETEK03AE_11C_V1_GPRS_MMI/Tools/MinGW/include/c++/3.3.1/bits/stl_construct.h ****  * and its documentation for any purpose is hereby granted without fee,
  37:d:/MTK/MTK2503/MTK2503/11CW1418SP4_03_CORETEK03AE_11C_V1_GPRS_MMI/Tools/MinGW/include/c++/3.3.1/bits/stl_construct.h ****  * provided that the above copyright notice appear in all copies and
  38:d:/MTK/MTK2503/MTK2503/11CW1418SP4_03_CORETEK03AE_11C_V1_GPRS_MMI/Tools/MinGW/include/c++/3.3.1/bits/stl_construct.h ****  * that both that copyright notice and this permission notice appear
  39:d:/MTK/MTK2503/MTK2503/11CW1418SP4_03_CORETEK03AE_11C_V1_GPRS_MMI/Tools/MinGW/include/c++/3.3.1/bits/stl_construct.h ****  * in supporting documentation.  Hewlett-Packard Company makes no
  40:d:/MTK/MTK2503/MTK2503/11CW1418SP4_03_CORETEK03AE_11C_V1_GPRS_MMI/Tools/MinGW/include/c++/3.3.1/bits/stl_construct.h ****  * representations about the suitability of this software for any
  41:d:/MTK/MTK2503/MTK2503/11CW1418SP4_03_CORETEK03AE_11C_V1_GPRS_MMI/Tools/MinGW/include/c++/3.3.1/bits/stl_construct.h ****  * purpose.  It is provided "as is" without express or implied warranty.
  42:d:/MTK/MTK2503/MTK2503/11CW1418SP4_03_CORETEK03AE_11C_V1_GPRS_MMI/Tools/MinGW/include/c++/3.3.1/bits/stl_construct.h ****  *
  43:d:/MTK/MTK2503/MTK2503/11CW1418SP4_03_CORETEK03AE_11C_V1_GPRS_MMI/Tools/MinGW/include/c++/3.3.1/bits/stl_construct.h ****  *
  44:d:/MTK/MTK2503/MTK2503/11CW1418SP4_03_CORETEK03AE_11C_V1_GPRS_MMI/Tools/MinGW/include/c++/3.3.1/bits/stl_construct.h ****  * Copyright (c) 1996,1997
  45:d:/MTK/MTK2503/MTK2503/11CW1418SP4_03_CORETEK03AE_11C_V1_GPRS_MMI/Tools/MinGW/include/c++/3.3.1/bits/stl_construct.h ****  * Silicon Graphics Computer Systems, Inc.
  46:d:/MTK/MTK2503/MTK2503/11CW1418SP4_03_CORETEK03AE_11C_V1_GPRS_MMI/Tools/MinGW/include/c++/3.3.1/bits/stl_construct.h ****  *
  47:d:/MTK/MTK2503/MTK2503/11CW1418SP4_03_CORETEK03AE_11C_V1_GPRS_MMI/Tools/MinGW/include/c++/3.3.1/bits/stl_construct.h ****  * Permission to use, copy, modify, distribute and sell this software
  48:d:/MTK/MTK2503/MTK2503/11CW1418SP4_03_CORETEK03AE_11C_V1_GPRS_MMI/Tools/MinGW/include/c++/3.3.1/bits/stl_construct.h ****  * and its documentation for any purpose is hereby granted without fee,
  49:d:/MTK/MTK2503/MTK2503/11CW1418SP4_03_CORETEK03AE_11C_V1_GPRS_MMI/Tools/MinGW/include/c++/3.3.1/bits/stl_construct.h ****  * provided that the above copyright notice appear in all copies and
  50:d:/MTK/MTK2503/MTK2503/11CW1418SP4_03_CORETEK03AE_11C_V1_GPRS_MMI/Tools/MinGW/include/c++/3.3.1/bits/stl_construct.h ****  * that both that copyright notice and this permission notice appear
  51:d:/MTK/MTK2503/MTK2503/11CW1418SP4_03_CORETEK03AE_11C_V1_GPRS_MMI/Tools/MinGW/include/c++/3.3.1/bits/stl_construct.h ****  * in supporting documentation.  Silicon Graphics makes no
  52:d:/MTK/MTK2503/MTK2503/11CW1418SP4_03_CORETEK03AE_11C_V1_GPRS_MMI/Tools/MinGW/include/c++/3.3.1/bits/stl_construct.h ****  * representations about the suitability of this software for any
GAS LISTING d:/MTK/MTK2503/MTK2503/11CW1418SP4_03_CORETEK03AE_11C_V1_GPRS_MMI/plutommi/Customer/ResGenerator/gcctmp/cck7daaa.s 			page 114


  53:d:/MTK/MTK2503/MTK2503/11CW1418SP4_03_CORETEK03AE_11C_V1_GPRS_MMI/Tools/MinGW/include/c++/3.3.1/bits/stl_construct.h ****  * purpose.  It is provided "as is" without express or implied warranty.
  54:d:/MTK/MTK2503/MTK2503/11CW1418SP4_03_CORETEK03AE_11C_V1_GPRS_MMI/Tools/MinGW/include/c++/3.3.1/bits/stl_construct.h ****  */
  55:d:/MTK/MTK2503/MTK2503/11CW1418SP4_03_CORETEK03AE_11C_V1_GPRS_MMI/Tools/MinGW/include/c++/3.3.1/bits/stl_construct.h **** 
  56:d:/MTK/MTK2503/MTK2503/11CW1418SP4_03_CORETEK03AE_11C_V1_GPRS_MMI/Tools/MinGW/include/c++/3.3.1/bits/stl_construct.h **** /** @file stl_construct.h
  57:d:/MTK/MTK2503/MTK2503/11CW1418SP4_03_CORETEK03AE_11C_V1_GPRS_MMI/Tools/MinGW/include/c++/3.3.1/bits/stl_construct.h ****  *  This is an internal header file, included by other library headers.
  58:d:/MTK/MTK2503/MTK2503/11CW1418SP4_03_CORETEK03AE_11C_V1_GPRS_MMI/Tools/MinGW/include/c++/3.3.1/bits/stl_construct.h ****  *  You should not attempt to use it directly.
  59:d:/MTK/MTK2503/MTK2503/11CW1418SP4_03_CORETEK03AE_11C_V1_GPRS_MMI/Tools/MinGW/include/c++/3.3.1/bits/stl_construct.h ****  */
  60:d:/MTK/MTK2503/MTK2503/11CW1418SP4_03_CORETEK03AE_11C_V1_GPRS_MMI/Tools/MinGW/include/c++/3.3.1/bits/stl_construct.h **** 
  61:d:/MTK/MTK2503/MTK2503/11CW1418SP4_03_CORETEK03AE_11C_V1_GPRS_MMI/Tools/MinGW/include/c++/3.3.1/bits/stl_construct.h **** #ifndef _CPP_BITS_STL_CONSTRUCT_H
  62:d:/MTK/MTK2503/MTK2503/11CW1418SP4_03_CORETEK03AE_11C_V1_GPRS_MMI/Tools/MinGW/include/c++/3.3.1/bits/stl_construct.h **** #define _CPP_BITS_STL_CONSTRUCT_H 1
  63:d:/MTK/MTK2503/MTK2503/11CW1418SP4_03_CORETEK03AE_11C_V1_GPRS_MMI/Tools/MinGW/include/c++/3.3.1/bits/stl_construct.h **** 
  64:d:/MTK/MTK2503/MTK2503/11CW1418SP4_03_CORETEK03AE_11C_V1_GPRS_MMI/Tools/MinGW/include/c++/3.3.1/bits/stl_construct.h **** #include <bits/type_traits.h>
  65:d:/MTK/MTK2503/MTK2503/11CW1418SP4_03_CORETEK03AE_11C_V1_GPRS_MMI/Tools/MinGW/include/c++/3.3.1/bits/stl_construct.h **** #include <new>
  66:d:/MTK/MTK2503/MTK2503/11CW1418SP4_03_CORETEK03AE_11C_V1_GPRS_MMI/Tools/MinGW/include/c++/3.3.1/bits/stl_construct.h **** 
  67:d:/MTK/MTK2503/MTK2503/11CW1418SP4_03_CORETEK03AE_11C_V1_GPRS_MMI/Tools/MinGW/include/c++/3.3.1/bits/stl_construct.h **** namespace std
  68:d:/MTK/MTK2503/MTK2503/11CW1418SP4_03_CORETEK03AE_11C_V1_GPRS_MMI/Tools/MinGW/include/c++/3.3.1/bits/stl_construct.h **** {
  69:d:/MTK/MTK2503/MTK2503/11CW1418SP4_03_CORETEK03AE_11C_V1_GPRS_MMI/Tools/MinGW/include/c++/3.3.1/bits/stl_construct.h ****   /**
  70:d:/MTK/MTK2503/MTK2503/11CW1418SP4_03_CORETEK03AE_11C_V1_GPRS_MMI/Tools/MinGW/include/c++/3.3.1/bits/stl_construct.h ****    * @if maint
  71:d:/MTK/MTK2503/MTK2503/11CW1418SP4_03_CORETEK03AE_11C_V1_GPRS_MMI/Tools/MinGW/include/c++/3.3.1/bits/stl_construct.h ****    * Constructs an object in existing memory by invoking an allocated
  72:d:/MTK/MTK2503/MTK2503/11CW1418SP4_03_CORETEK03AE_11C_V1_GPRS_MMI/Tools/MinGW/include/c++/3.3.1/bits/stl_construct.h ****    * object's constructor with an initializer.
  73:d:/MTK/MTK2503/MTK2503/11CW1418SP4_03_CORETEK03AE_11C_V1_GPRS_MMI/Tools/MinGW/include/c++/3.3.1/bits/stl_construct.h ****    * @endif
  74:d:/MTK/MTK2503/MTK2503/11CW1418SP4_03_CORETEK03AE_11C_V1_GPRS_MMI/Tools/MinGW/include/c++/3.3.1/bits/stl_construct.h ****    */
  75:d:/MTK/MTK2503/MTK2503/11CW1418SP4_03_CORETEK03AE_11C_V1_GPRS_MMI/Tools/MinGW/include/c++/3.3.1/bits/stl_construct.h ****   template <class _T1, class _T2>
  76:d:/MTK/MTK2503/MTK2503/11CW1418SP4_03_CORETEK03AE_11C_V1_GPRS_MMI/Tools/MinGW/include/c++/3.3.1/bits/stl_construct.h ****     inline void
  77:d:/MTK/MTK2503/MTK2503/11CW1418SP4_03_CORETEK03AE_11C_V1_GPRS_MMI/Tools/MinGW/include/c++/3.3.1/bits/stl_construct.h ****     _Construct(_T1* __p, const _T2& __value)
  78:d:/MTK/MTK2503/MTK2503/11CW1418SP4_03_CORETEK03AE_11C_V1_GPRS_MMI/Tools/MinGW/include/c++/3.3.1/bits/stl_construct.h ****     { new (static_cast<void*>(__p)) _T1(__value); }
 6754              	LM313:
 6755 0000 55       		pushl	%ebp
 6756 0001 89E5     		movl	%esp, %ebp
 6757 0003 57       		pushl	%edi
 6758 0004 56       		pushl	%esi
 6759 0005 53       		pushl	%ebx
 6760 0006 83EC5C   		subl	$92, %esp
 6761 0009 C745E000 		movl	$___gxx_personality_sj0, -32(%ebp)
 6761      000000
 6762 0010 C745E43C 		movl	$LLSDA2376, -28(%ebp)
 6762      000000
 6763 0017 8D45E8   		leal	-24(%ebp), %eax
 6764 001a 8D55F4   		leal	-12(%ebp), %edx
 6765 001d 8910     		movl	%edx, (%eax)
 6766 001f BA770000 		movl	$L248, %edx
 6766      00
 6767 0024 895004   		movl	%edx, 4(%eax)
 6768 0027 896008   		movl	%esp, 8(%eax)
 6769 002a 8D45C8   		leal	-56(%ebp), %eax
 6770 002d 890424   		movl	%eax, (%esp)
 6771 0030 E8000000 		call	__Unwind_SjLj_Register
 6771      00
 6773              	LM314:
 6774              	LBB73:
 6775 0035 8B4508   		movl	8(%ebp), %eax
 6776 0038 89442404 		movl	%eax, 4(%esp)
 6777 003c C7042438 		movl	$568, (%esp)
 6777      020000
 6778 0043 E8000000 		call	__ZnwjPv
 6778      00
 6779 0048 8945C4   		movl	%eax, -60(%ebp)
GAS LISTING d:/MTK/MTK2503/MTK2503/11CW1418SP4_03_CORETEK03AE_11C_V1_GPRS_MMI/plutommi/Customer/ResGenerator/gcctmp/cck7daaa.s 			page 115


 6780 004b 837DC400 		cmpl	$0, -60(%ebp)
 6781 004f 746B     		je	L237
 6782 0051 C645C301 		movb	$1, -61(%ebp)
 6783 0055 C745BC01 		movl	$1, -68(%ebp)
 6783      000000
 6784 005c 8B450C   		movl	12(%ebp), %eax
 6785 005f 89442404 		movl	%eax, 4(%esp)
 6786 0063 8B45C4   		movl	-60(%ebp), %eax
 6787 0066 890424   		movl	%eax, (%esp)
 6788 0069 C745CC01 		movl	$1, -52(%ebp)
 6788      000000
 6789 0070 E8000000 		call	__ZN16ProcessImageDataC1ERKS_
 6789      00
 6790 0075 EB45     		jmp	L237
 6791              	L248:
 6792 0077 8D6D0C   		leal	12(%ebp), %ebp
 6793 007a 8B55D0   		movl	-48(%ebp), %edx
 6794 007d 8955B4   		movl	%edx, -76(%ebp)
 6795              	L240:
 6796 0080 8B45B4   		movl	-76(%ebp), %eax
 6797 0083 8945B8   		movl	%eax, -72(%ebp)
 6798 0086 837DBC00 		cmpl	$0, -68(%ebp)
 6799 008a 7418     		je	L243
 6800 008c 807DC300 		cmpb	$0, -61(%ebp)
 6801 0090 7412     		je	L243
 6802 0092 8B4508   		movl	8(%ebp), %eax
 6803 0095 89442404 		movl	%eax, 4(%esp)
 6804 0099 8B55C4   		movl	-60(%ebp), %edx
 6805 009c 891424   		movl	%edx, (%esp)
 6806 009f E8000000 		call	__ZdlPvS_
 6806      00
 6807              	L243:
 6808 00a4 8B45B8   		movl	-72(%ebp), %eax
 6809 00a7 8945B4   		movl	%eax, -76(%ebp)
 6810              	L246:
 6811 00aa 8B55B4   		movl	-76(%ebp), %edx
 6812 00ad 891424   		movl	%edx, (%esp)
 6813 00b0 C745CCFF 		movl	$-1, -52(%ebp)
 6813      FFFFFF
 6814 00b7 E8000000 		call	__Unwind_SjLj_Resume
 6814      00
 6815              	L237:
 6816 00bc 8D45C8   		leal	-56(%ebp), %eax
 6817 00bf 890424   		movl	%eax, (%esp)
 6818 00c2 E8000000 		call	__Unwind_SjLj_Unregister
 6818      00
 6819 00c7 83C45C   		addl	$92, %esp
 6820 00ca 5B       		popl	%ebx
 6821 00cb 5E       		popl	%esi
 6822 00cc 5F       		popl	%edi
 6823 00cd 5D       		popl	%ebp
 6824 00ce C3       		ret
 6825              	LBE73:
 6826              		.section	.gcc_except_table,""
 6827              	LLSDA2376:
 6828 003c FF       		.byte	0xff
 6829 003d FF       		.byte	0xff
GAS LISTING d:/MTK/MTK2503/MTK2503/11CW1418SP4_03_CORETEK03AE_11C_V1_GPRS_MMI/plutommi/Customer/ResGenerator/gcctmp/cck7daaa.s 			page 116


 6830 003e 01       		.byte	0x1
 6831 003f 02       		.uleb128 LLSDACSE2376-LLSDACSB2376
 6832              	LLSDACSB2376:
 6833 0040 00       		.uleb128 0x0
 6834 0041 00       		.uleb128 0x0
 6835              	LLSDACSE2376:
 6836              		.section	.text$_ZSt10_ConstructI16ProcessImageDataS0_EvPT_RKT0_,"x"
 6837              		.linkonce discard
 6838              	Lscope60:
 6840 00cf 90       		.section	.text$_ZNSt16_List_alloc_baseI16ProcessImageDataSaIS0_ELb1EE11_M_put_nodeEPSt10_List_node
 6841              		.linkonce discard
 6842              		.align 2
 6846              	.globl __ZNSt16_List_alloc_baseI16ProcessImageDataSaIS0_ELb1EE11_M_put_nodeEPSt10_List_nodeIS0_E
 6848              	__ZNSt16_List_alloc_baseI16ProcessImageDataSaIS0_ELb1EE11_M_put_nodeEPSt10_List_nodeIS0_E:
 6850              	Ltext22:
 6852              	LM315:
 6853 0000 55       		pushl	%ebp
 6854 0001 89E5     		movl	%esp, %ebp
 6855 0003 83EC08   		subl	$8, %esp
 6857              	LM316:
 6858              	LBB74:
 6859 0006 C7442404 		movl	$1, 4(%esp)
 6859      01000000 
 6860 000e 8B450C   		movl	12(%ebp), %eax
 6861 0011 890424   		movl	%eax, (%esp)
 6862 0014 E8000000 		call	__ZNSt14__simple_allocISt10_List_nodeI16ProcessImageDataESt24__default_alloc_templateILb1ELi0
 6862      00
 6863 0019 C9       		leave
 6864 001a C3       		ret
 6865              	LBE74:
 6866              	Lscope61:
 6868 001b 90       		.section	.text$_ZNSt4listI13LogBinaryDataSaIS0_EE14_M_create_nodeERKS0_,"x"
 6869              		.linkonce discard
 6870              		.align 2
 6874              	.globl __ZNSt4listI13LogBinaryDataSaIS0_EE14_M_create_nodeERKS0_
 6876              	__ZNSt4listI13LogBinaryDataSaIS0_EE14_M_create_nodeERKS0_:
 6878              	LM317:
 6879 0000 55       		pushl	%ebp
 6880 0001 89E5     		movl	%esp, %ebp
 6881 0003 57       		pushl	%edi
 6882 0004 56       		pushl	%esi
 6883 0005 53       		pushl	%ebx
 6884 0006 83EC4C   		subl	$76, %esp
 6885 0009 C745DC00 		movl	$___gxx_personality_sj0, -36(%ebp)
 6885      000000
 6886 0010 C745E044 		movl	$LLSDA2378, -32(%ebp)
 6886      000000
 6887 0017 8D45E4   		leal	-28(%ebp), %eax
 6888 001a 8D55F4   		leal	-12(%ebp), %edx
 6889 001d 8910     		movl	%edx, (%eax)
 6890 001f BA910000 		movl	$L258, %edx
 6890      00
 6891 0024 895004   		movl	%edx, 4(%eax)
 6892 0027 896008   		movl	%esp, 8(%eax)
 6893 002a 8D45C4   		leal	-60(%ebp), %eax
 6894 002d 890424   		movl	%eax, (%esp)
 6895 0030 E8000000 		call	__Unwind_SjLj_Register
GAS LISTING d:/MTK/MTK2503/MTK2503/11CW1418SP4_03_CORETEK03AE_11C_V1_GPRS_MMI/plutommi/Customer/ResGenerator/gcctmp/cck7daaa.s 			page 117


 6895      00
 6897              	LM318:
 6898              	LBB75:
 6899 0035 8B4508   		movl	8(%ebp), %eax
 6900 0038 890424   		movl	%eax, (%esp)
 6901 003b C745C8FF 		movl	$-1, -56(%ebp)
 6901      FFFFFF
 6902 0042 E8000000 		call	__ZNSt16_List_alloc_baseI13LogBinaryDataSaIS0_ELb1EE11_M_get_nodeEv
 6902      00
 6903 0047 8945F0   		movl	%eax, -16(%ebp)
 6905              	LM319:
 6906 004a 8B450C   		movl	12(%ebp), %eax
 6907 004d 89442404 		movl	%eax, 4(%esp)
 6908 0051 8B45F0   		movl	-16(%ebp), %eax
 6909 0054 83C008   		addl	$8, %eax
 6910 0057 890424   		movl	%eax, (%esp)
 6911 005a C745C802 		movl	$2, -56(%ebp)
 6911      000000
 6912 0061 E8000000 		call	__ZSt10_ConstructI13LogBinaryDataS0_EvPT_RKT0_
 6912      00
 6913 0066 EB64     		jmp	L251
 6915              	LM320:
 6916              	L257:
 6917              	L252:
 6918 0068 8B45BC   		movl	-68(%ebp), %eax
 6919 006b 890424   		movl	%eax, (%esp)
 6920 006e E8000000 		call	___cxa_begin_catch
 6920      00
 6922              	LM321:
 6923 0073 8B45F0   		movl	-16(%ebp), %eax
 6924 0076 89442404 		movl	%eax, 4(%esp)
 6925 007a 8B4508   		movl	8(%ebp), %eax
 6926 007d 890424   		movl	%eax, (%esp)
 6927 0080 C745C801 		movl	$1, -56(%ebp)
 6927      000000
 6928 0087 E8000000 		call	__ZNSt16_List_alloc_baseI13LogBinaryDataSaIS0_ELb1EE11_M_put_nodeEPSt10_List_nodeIS0_E
 6928      00
 6930              	LM322:
 6931 008c E8000000 		call	___cxa_rethrow
 6931      00
 6932              	L258:
 6933 0091 8D6D0C   		leal	12(%ebp), %ebp
 6934 0094 8B45C8   		movl	-56(%ebp), %eax
 6935 0097 8B55CC   		movl	-52(%ebp), %edx
 6936 009a 8955BC   		movl	%edx, -68(%ebp)
 6937 009d 83F801   		cmpl	$1, %eax
 6938 00a0 74C6     		je	L257
 6939              	L253:
 6940 00a2 8B45BC   		movl	-68(%ebp), %eax
 6941 00a5 8945B8   		movl	%eax, -72(%ebp)
 6942 00a8 C745C800 		movl	$0, -56(%ebp)
 6942      000000
 6943 00af E8000000 		call	___cxa_end_catch
 6943      00
 6944 00b4 8B55B8   		movl	-72(%ebp), %edx
 6945 00b7 8955BC   		movl	%edx, -68(%ebp)
 6946              	L255:
GAS LISTING d:/MTK/MTK2503/MTK2503/11CW1418SP4_03_CORETEK03AE_11C_V1_GPRS_MMI/plutommi/Customer/ResGenerator/gcctmp/cck7daaa.s 			page 118


 6947 00ba 8B45BC   		movl	-68(%ebp), %eax
 6948 00bd 890424   		movl	%eax, (%esp)
 6949 00c0 C745C8FF 		movl	$-1, -56(%ebp)
 6949      FFFFFF
 6950 00c7 E8000000 		call	__Unwind_SjLj_Resume
 6950      00
 6951              	L251:
 6953              	LM323:
 6954 00cc 8B45F0   		movl	-16(%ebp), %eax
 6955 00cf 8945C0   		movl	%eax, -64(%ebp)
 6956              	L250:
 6957 00d2 8D45C4   		leal	-60(%ebp), %eax
 6958 00d5 890424   		movl	%eax, (%esp)
 6959 00d8 E8000000 		call	__Unwind_SjLj_Unregister
 6959      00
 6960              	LBE75:
 6961 00dd 8B45C0   		movl	-64(%ebp), %eax
 6962 00e0 83C44C   		addl	$76, %esp
 6963 00e3 5B       		popl	%ebx
 6964 00e4 5E       		popl	%esi
 6965 00e5 5F       		popl	%edi
 6966 00e6 5D       		popl	%ebp
 6967 00e7 C3       		ret
 6968              		.section	.gcc_except_table,""
 6969 0042 0000     		.align 4
 6970              	LLSDA2378:
 6971 0044 FF       		.byte	0xff
 6972 0045 00       		.byte	0x0
 6973 0046 0D       		.uleb128 LLSDATT2378-LLSDATTD2378
 6974              	LLSDATTD2378:
 6975 0047 01       		.byte	0x1
 6976 0048 04       		.uleb128 LLSDACSE2378-LLSDACSB2378
 6977              	LLSDACSB2378:
 6978 0049 00       		.uleb128 0x0
 6979 004a 00       		.uleb128 0x0
 6980 004b 01       		.uleb128 0x1
 6981 004c 01       		.uleb128 0x1
 6982              	LLSDACSE2378:
 6983 004d 01       		.byte	0x1
 6984 004e 00       		.byte	0x0
 6985 004f 00       		.align 4
 6986 0050 00000000 		.long	0
 6987              	LLSDATT2378:
 6988              		.section	.text$_ZNSt4listI13LogBinaryDataSaIS0_EE14_M_create_nodeERKS0_,"x"
 6989              		.linkonce discard
 6993              	Lscope62:
 6995              		.section	.text$_ZSt10_ConstructI13LogBinaryDataS0_EvPT_RKT0_,"x"
 6996              		.linkonce discard
 6997              		.align 2
 7001              	.globl __ZSt10_ConstructI13LogBinaryDataS0_EvPT_RKT0_
 7003              	__ZSt10_ConstructI13LogBinaryDataS0_EvPT_RKT0_:
 7005              	Ltext23:
 7007              	LM324:
 7008 0000 55       		pushl	%ebp
 7009 0001 89E5     		movl	%esp, %ebp
 7010 0003 57       		pushl	%edi
 7011 0004 56       		pushl	%esi
GAS LISTING d:/MTK/MTK2503/MTK2503/11CW1418SP4_03_CORETEK03AE_11C_V1_GPRS_MMI/plutommi/Customer/ResGenerator/gcctmp/cck7daaa.s 			page 119


 7012 0005 53       		pushl	%ebx
 7013 0006 83EC5C   		subl	$92, %esp
 7014 0009 C745E000 		movl	$___gxx_personality_sj0, -32(%ebp)
 7014      000000
 7015 0010 C745E454 		movl	$LLSDA2379, -28(%ebp)
 7015      000000
 7016 0017 8D45E8   		leal	-24(%ebp), %eax
 7017 001a 8D55F4   		leal	-12(%ebp), %edx
 7018 001d 8910     		movl	%edx, (%eax)
 7019 001f BA770000 		movl	$L270, %edx
 7019      00
 7020 0024 895004   		movl	%edx, 4(%eax)
 7021 0027 896008   		movl	%esp, 8(%eax)
 7022 002a 8D45C8   		leal	-56(%ebp), %eax
 7023 002d 890424   		movl	%eax, (%esp)
 7024 0030 E8000000 		call	__Unwind_SjLj_Register
 7024      00
 7026              	LM325:
 7027              	LBB76:
 7028 0035 8B4508   		movl	8(%ebp), %eax
 7029 0038 89442404 		movl	%eax, 4(%esp)
 7030 003c C704240C 		movl	$12, (%esp)
 7030      000000
 7031 0043 E8000000 		call	__ZnwjPv
 7031      00
 7032 0048 8945C4   		movl	%eax, -60(%ebp)
 7033 004b 837DC400 		cmpl	$0, -60(%ebp)
 7034 004f 746B     		je	L259
 7035 0051 C645C301 		movb	$1, -61(%ebp)
 7036 0055 C745BC01 		movl	$1, -68(%ebp)
 7036      000000
 7037 005c 8B450C   		movl	12(%ebp), %eax
 7038 005f 89442404 		movl	%eax, 4(%esp)
 7039 0063 8B45C4   		movl	-60(%ebp), %eax
 7040 0066 890424   		movl	%eax, (%esp)
 7041 0069 C745CC01 		movl	$1, -52(%ebp)
 7041      000000
 7042 0070 E8000000 		call	__ZN13LogBinaryDataC1ERKS_
 7042      00
 7043 0075 EB45     		jmp	L259
 7044              	L270:
 7045 0077 8D6D0C   		leal	12(%ebp), %ebp
 7046 007a 8B55D0   		movl	-48(%ebp), %edx
 7047 007d 8955B4   		movl	%edx, -76(%ebp)
 7048              	L262:
 7049 0080 8B45B4   		movl	-76(%ebp), %eax
 7050 0083 8945B8   		movl	%eax, -72(%ebp)
 7051 0086 837DBC00 		cmpl	$0, -68(%ebp)
 7052 008a 7418     		je	L265
 7053 008c 807DC300 		cmpb	$0, -61(%ebp)
 7054 0090 7412     		je	L265
 7055 0092 8B4508   		movl	8(%ebp), %eax
 7056 0095 89442404 		movl	%eax, 4(%esp)
 7057 0099 8B55C4   		movl	-60(%ebp), %edx
 7058 009c 891424   		movl	%edx, (%esp)
 7059 009f E8000000 		call	__ZdlPvS_
 7059      00
GAS LISTING d:/MTK/MTK2503/MTK2503/11CW1418SP4_03_CORETEK03AE_11C_V1_GPRS_MMI/plutommi/Customer/ResGenerator/gcctmp/cck7daaa.s 			page 120


 7060              	L265:
 7061 00a4 8B45B8   		movl	-72(%ebp), %eax
 7062 00a7 8945B4   		movl	%eax, -76(%ebp)
 7063              	L268:
 7064 00aa 8B55B4   		movl	-76(%ebp), %edx
 7065 00ad 891424   		movl	%edx, (%esp)
 7066 00b0 C745CCFF 		movl	$-1, -52(%ebp)
 7066      FFFFFF
 7067 00b7 E8000000 		call	__Unwind_SjLj_Resume
 7067      00
 7068              	L259:
 7069 00bc 8D45C8   		leal	-56(%ebp), %eax
 7070 00bf 890424   		movl	%eax, (%esp)
 7071 00c2 E8000000 		call	__Unwind_SjLj_Unregister
 7071      00
 7072 00c7 83C45C   		addl	$92, %esp
 7073 00ca 5B       		popl	%ebx
 7074 00cb 5E       		popl	%esi
 7075 00cc 5F       		popl	%edi
 7076 00cd 5D       		popl	%ebp
 7077 00ce C3       		ret
 7078              	LBE76:
 7079              		.section	.gcc_except_table,""
 7080              	LLSDA2379:
 7081 0054 FF       		.byte	0xff
 7082 0055 FF       		.byte	0xff
 7083 0056 01       		.byte	0x1
 7084 0057 02       		.uleb128 LLSDACSE2379-LLSDACSB2379
 7085              	LLSDACSB2379:
 7086 0058 00       		.uleb128 0x0
 7087 0059 00       		.uleb128 0x0
 7088              	LLSDACSE2379:
 7089              		.section	.text$_ZSt10_ConstructI13LogBinaryDataS0_EvPT_RKT0_,"x"
 7090              		.linkonce discard
 7091              	Lscope63:
 7093 00cf 90       		.section	.text$_ZNSt16_List_alloc_baseI13LogBinaryDataSaIS0_ELb1EE11_M_put_nodeEPSt10_List_nodeIS0
 7094              		.linkonce discard
 7095              		.align 2
 7099              	.globl __ZNSt16_List_alloc_baseI13LogBinaryDataSaIS0_ELb1EE11_M_put_nodeEPSt10_List_nodeIS0_E
 7101              	__ZNSt16_List_alloc_baseI13LogBinaryDataSaIS0_ELb1EE11_M_put_nodeEPSt10_List_nodeIS0_E:
 7103              	Ltext24:
 7105              	LM326:
 7106 0000 55       		pushl	%ebp
 7107 0001 89E5     		movl	%esp, %ebp
 7108 0003 83EC08   		subl	$8, %esp
 7110              	LM327:
 7111              	LBB77:
 7112 0006 C7442404 		movl	$1, 4(%esp)
 7112      01000000 
 7113 000e 8B450C   		movl	12(%ebp), %eax
 7114 0011 890424   		movl	%eax, (%esp)
 7115 0014 E8000000 		call	__ZNSt14__simple_allocISt10_List_nodeI13LogBinaryDataESt24__default_alloc_templateILb1ELi0EEE
 7115      00
 7116 0019 C9       		leave
 7117 001a C3       		ret
 7118              	LBE77:
 7119              	Lscope64:
GAS LISTING d:/MTK/MTK2503/MTK2503/11CW1418SP4_03_CORETEK03AE_11C_V1_GPRS_MMI/plutommi/Customer/ResGenerator/gcctmp/cck7daaa.s 			page 121


 7121 001b 90       		.section	.text$_ZNSt14__simple_allocISt10_List_nodeI16ProcessImageDataESt24__default_alloc_templat
 7122              		.linkonce discard
 7123              		.align 2
 7127              	.globl __ZNSt14__simple_allocISt10_List_nodeI16ProcessImageDataESt24__default_alloc_templateILb1ELi
 7129              	__ZNSt14__simple_allocISt10_List_nodeI16ProcessImageDataESt24__default_alloc_templateILb1ELi0EEE10d
 7131              	Ltext25:
 7133              	LM328:
 7134 0000 55       		pushl	%ebp
 7135 0001 89E5     		movl	%esp, %ebp
 7136 0003 83EC08   		subl	$8, %esp
 7138              	LM329:
 7139              	LBB78:
 7140 0006 837D0C00 		cmpl	$0, 12(%ebp)
 7141 000a 741C     		je	L272
 7142 000c 8B550C   		movl	12(%ebp), %edx
 7143 000f 89D0     		movl	%edx, %eax
 7144 0011 C1E003   		sall	$3, %eax
 7145 0014 01D0     		addl	%edx, %eax
 7146 0016 C1E006   		sall	$6, %eax
 7147 0019 89442404 		movl	%eax, 4(%esp)
 7148 001d 8B4508   		movl	8(%ebp), %eax
 7149 0020 890424   		movl	%eax, (%esp)
 7150 0023 E8000000 		call	__ZNSt24__default_alloc_templateILb1ELi0EE10deallocateEPvj
 7150      00
 7151              	L272:
 7152 0028 C9       		leave
 7153 0029 C3       		ret
 7154              	LBE78:
 7155              	Lscope65:
 7157 002a 9090     		.section	.text$_ZNSt10_List_baseI16ProcessImageDataSaIS0_EE7__clearEv,"x"
 7158              		.linkonce discard
 7159              		.align 2
 7162              	.globl __ZNSt10_List_baseI16ProcessImageDataSaIS0_EE7__clearEv
 7164              	__ZNSt10_List_baseI16ProcessImageDataSaIS0_EE7__clearEv:
 7166              	Ltext26:
 7168              	LM330:
 7169 0000 55       		pushl	%ebp
 7170 0001 89E5     		movl	%esp, %ebp
 7171 0003 83EC18   		subl	$24, %esp
 7173              	LM331:
 7174              	LBB79:
 7175 0006 8B4508   		movl	8(%ebp), %eax
 7176 0009 8B00     		movl	(%eax), %eax
 7177 000b 8B00     		movl	(%eax), %eax
 7178 000d 8945FC   		movl	%eax, -4(%ebp)
 7180              	LM332:
 7181              	L275:
 7182 0010 8B5508   		movl	8(%ebp), %edx
 7183 0013 8B45FC   		movl	-4(%ebp), %eax
 7184 0016 3B02     		cmpl	(%edx), %eax
 7185 0018 7502     		jne	L277
 7186 001a EB30     		jmp	L276
 7187              	L277:
 7189              	LM333:
 7190              	LBB80:
 7191              	LBB81:
 7192 001c 8B45FC   		movl	-4(%ebp), %eax
GAS LISTING d:/MTK/MTK2503/MTK2503/11CW1418SP4_03_CORETEK03AE_11C_V1_GPRS_MMI/plutommi/Customer/ResGenerator/gcctmp/cck7daaa.s 			page 122


 7193 001f 8945F8   		movl	%eax, -8(%ebp)
 7195              	LM334:
 7196 0022 8B45FC   		movl	-4(%ebp), %eax
 7197 0025 8B00     		movl	(%eax), %eax
 7198 0027 8945FC   		movl	%eax, -4(%ebp)
 7200              	LM335:
 7201 002a 8B45F8   		movl	-8(%ebp), %eax
 7202 002d 83C008   		addl	$8, %eax
 7203 0030 890424   		movl	%eax, (%esp)
 7204 0033 E8000000 		call	__ZSt8_DestroyI16ProcessImageDataEvPT_
 7204      00
 7206              	LM336:
 7207 0038 8B45F8   		movl	-8(%ebp), %eax
 7208 003b 89442404 		movl	%eax, 4(%esp)
 7209 003f 8B4508   		movl	8(%ebp), %eax
 7210 0042 890424   		movl	%eax, (%esp)
 7211 0045 E8000000 		call	__ZNSt16_List_alloc_baseI16ProcessImageDataSaIS0_ELb1EE11_M_put_nodeEPSt10_List_nodeIS0_E
 7211      00
 7212              	LBE81:
 7213              	LBE80:
 7214 004a EBC4     		jmp	L275
 7215              	L276:
 7217              	LM337:
 7218 004c 8B4508   		movl	8(%ebp), %eax
 7219 004f 8B10     		movl	(%eax), %edx
 7220 0051 8B4508   		movl	8(%ebp), %eax
 7221 0054 8B00     		movl	(%eax), %eax
 7222 0056 8902     		movl	%eax, (%edx)
 7224              	LM338:
 7225 0058 8B4508   		movl	8(%ebp), %eax
 7226 005b 8B10     		movl	(%eax), %edx
 7227 005d 8B4508   		movl	8(%ebp), %eax
 7228 0060 8B00     		movl	(%eax), %eax
 7229 0062 894204   		movl	%eax, 4(%edx)
 7230 0065 C9       		leave
 7231 0066 C3       		ret
 7232              	LBE79:
 7239              	Lscope66:
 7241 0067 90       		.section	.text$_ZNSt14__simple_allocISt10_List_nodeI13LogBinaryDataESt24__default_alloc_templateIL
 7242              		.linkonce discard
 7243              		.align 2
 7247              	.globl __ZNSt14__simple_allocISt10_List_nodeI13LogBinaryDataESt24__default_alloc_templateILb1ELi0EE
 7249              	__ZNSt14__simple_allocISt10_List_nodeI13LogBinaryDataESt24__default_alloc_templateILb1ELi0EEE10deal
 7251              	Ltext27:
 7253              	LM339:
 7254 0000 55       		pushl	%ebp
 7255 0001 89E5     		movl	%esp, %ebp
 7256 0003 83EC08   		subl	$8, %esp
 7258              	LM340:
 7259              	LBB82:
 7260 0006 837D0C00 		cmpl	$0, 12(%ebp)
 7261 000a 741C     		je	L278
 7262 000c 8B550C   		movl	12(%ebp), %edx
 7263 000f 89D0     		movl	%edx, %eax
 7264 0011 C1E002   		sall	$2, %eax
 7265 0014 01D0     		addl	%edx, %eax
 7266 0016 C1E002   		sall	$2, %eax
GAS LISTING d:/MTK/MTK2503/MTK2503/11CW1418SP4_03_CORETEK03AE_11C_V1_GPRS_MMI/plutommi/Customer/ResGenerator/gcctmp/cck7daaa.s 			page 123


 7267 0019 89442404 		movl	%eax, 4(%esp)
 7268 001d 8B4508   		movl	8(%ebp), %eax
 7269 0020 890424   		movl	%eax, (%esp)
 7270 0023 E8000000 		call	__ZNSt24__default_alloc_templateILb1ELi0EE10deallocateEPvj
 7270      00
 7271              	L278:
 7272 0028 C9       		leave
 7273 0029 C3       		ret
 7274              	LBE82:
 7275              	Lscope67:
 7277 002a 9090     		.section	.text$_ZNSt10_List_baseI13LogBinaryDataSaIS0_EE7__clearEv,"x"
 7278              		.linkonce discard
 7279              		.align 2
 7282              	.globl __ZNSt10_List_baseI13LogBinaryDataSaIS0_EE7__clearEv
 7284              	__ZNSt10_List_baseI13LogBinaryDataSaIS0_EE7__clearEv:
 7286              	Ltext28:
 7288              	LM341:
 7289 0000 55       		pushl	%ebp
 7290 0001 89E5     		movl	%esp, %ebp
 7291 0003 83EC18   		subl	$24, %esp
 7293              	LM342:
 7294              	LBB83:
 7295 0006 8B4508   		movl	8(%ebp), %eax
 7296 0009 8B00     		movl	(%eax), %eax
 7297 000b 8B00     		movl	(%eax), %eax
 7298 000d 8945FC   		movl	%eax, -4(%ebp)
 7300              	LM343:
 7301              	L281:
 7302 0010 8B5508   		movl	8(%ebp), %edx
 7303 0013 8B45FC   		movl	-4(%ebp), %eax
 7304 0016 3B02     		cmpl	(%edx), %eax
 7305 0018 7502     		jne	L283
 7306 001a EB30     		jmp	L282
 7307              	L283:
 7309              	LM344:
 7310              	LBB84:
 7311              	LBB85:
 7312 001c 8B45FC   		movl	-4(%ebp), %eax
 7313 001f 8945F8   		movl	%eax, -8(%ebp)
 7315              	LM345:
 7316 0022 8B45FC   		movl	-4(%ebp), %eax
 7317 0025 8B00     		movl	(%eax), %eax
 7318 0027 8945FC   		movl	%eax, -4(%ebp)
 7320              	LM346:
 7321 002a 8B45F8   		movl	-8(%ebp), %eax
 7322 002d 83C008   		addl	$8, %eax
 7323 0030 890424   		movl	%eax, (%esp)
 7324 0033 E8000000 		call	__ZSt8_DestroyI13LogBinaryDataEvPT_
 7324      00
 7326              	LM347:
 7327 0038 8B45F8   		movl	-8(%ebp), %eax
 7328 003b 89442404 		movl	%eax, 4(%esp)
 7329 003f 8B4508   		movl	8(%ebp), %eax
 7330 0042 890424   		movl	%eax, (%esp)
 7331 0045 E8000000 		call	__ZNSt16_List_alloc_baseI13LogBinaryDataSaIS0_ELb1EE11_M_put_nodeEPSt10_List_nodeIS0_E
 7331      00
 7332              	LBE85:
GAS LISTING d:/MTK/MTK2503/MTK2503/11CW1418SP4_03_CORETEK03AE_11C_V1_GPRS_MMI/plutommi/Customer/ResGenerator/gcctmp/cck7daaa.s 			page 124


 7333              	LBE84:
 7334 004a EBC4     		jmp	L281
 7335              	L282:
 7337              	LM348:
 7338 004c 8B4508   		movl	8(%ebp), %eax
 7339 004f 8B10     		movl	(%eax), %edx
 7340 0051 8B4508   		movl	8(%ebp), %eax
 7341 0054 8B00     		movl	(%eax), %eax
 7342 0056 8902     		movl	%eax, (%edx)
 7344              	LM349:
 7345 0058 8B4508   		movl	8(%ebp), %eax
 7346 005b 8B10     		movl	(%eax), %edx
 7347 005d 8B4508   		movl	8(%ebp), %eax
 7348 0060 8B00     		movl	(%eax), %eax
 7349 0062 894204   		movl	%eax, 4(%edx)
 7350 0065 C9       		leave
 7351 0066 C3       		ret
 7352              	LBE83:
 7359              	Lscope68:
 7361 0067 90       		.section	.text$_ZnwjPv,"x"
 7362              		.linkonce discard
 7363              		.align 2
 7366              	.globl __ZnwjPv
 7368              	__ZnwjPv:
 7370              	Ltext29:
   1:d:/MTK/MTK2503/MTK2503/11CW1418SP4_03_CORETEK03AE_11C_V1_GPRS_MMI/Tools/MinGW/include/c++/3.3.1/new **** // The -*- C++ -*- dynamic memory management header.
   2:d:/MTK/MTK2503/MTK2503/11CW1418SP4_03_CORETEK03AE_11C_V1_GPRS_MMI/Tools/MinGW/include/c++/3.3.1/new **** 
   3:d:/MTK/MTK2503/MTK2503/11CW1418SP4_03_CORETEK03AE_11C_V1_GPRS_MMI/Tools/MinGW/include/c++/3.3.1/new **** // Copyright (C) 1994, 1996, 1997, 1998, 2000, 2001, 2002
   4:d:/MTK/MTK2503/MTK2503/11CW1418SP4_03_CORETEK03AE_11C_V1_GPRS_MMI/Tools/MinGW/include/c++/3.3.1/new **** // Free Software Foundation
   5:d:/MTK/MTK2503/MTK2503/11CW1418SP4_03_CORETEK03AE_11C_V1_GPRS_MMI/Tools/MinGW/include/c++/3.3.1/new **** 
   6:d:/MTK/MTK2503/MTK2503/11CW1418SP4_03_CORETEK03AE_11C_V1_GPRS_MMI/Tools/MinGW/include/c++/3.3.1/new **** // This file is part of GNU CC.
   7:d:/MTK/MTK2503/MTK2503/11CW1418SP4_03_CORETEK03AE_11C_V1_GPRS_MMI/Tools/MinGW/include/c++/3.3.1/new **** //
   8:d:/MTK/MTK2503/MTK2503/11CW1418SP4_03_CORETEK03AE_11C_V1_GPRS_MMI/Tools/MinGW/include/c++/3.3.1/new **** // GNU CC is free software; you can redistribute it and/or modify
   9:d:/MTK/MTK2503/MTK2503/11CW1418SP4_03_CORETEK03AE_11C_V1_GPRS_MMI/Tools/MinGW/include/c++/3.3.1/new **** // it under the terms of the GNU General Public License as published by
  10:d:/MTK/MTK2503/MTK2503/11CW1418SP4_03_CORETEK03AE_11C_V1_GPRS_MMI/Tools/MinGW/include/c++/3.3.1/new **** // the Free Software Foundation; either version 2, or (at your option)
  11:d:/MTK/MTK2503/MTK2503/11CW1418SP4_03_CORETEK03AE_11C_V1_GPRS_MMI/Tools/MinGW/include/c++/3.3.1/new **** // any later version.
  12:d:/MTK/MTK2503/MTK2503/11CW1418SP4_03_CORETEK03AE_11C_V1_GPRS_MMI/Tools/MinGW/include/c++/3.3.1/new **** // 
  13:d:/MTK/MTK2503/MTK2503/11CW1418SP4_03_CORETEK03AE_11C_V1_GPRS_MMI/Tools/MinGW/include/c++/3.3.1/new **** // GNU CC is distributed in the hope that it will be useful,
  14:d:/MTK/MTK2503/MTK2503/11CW1418SP4_03_CORETEK03AE_11C_V1_GPRS_MMI/Tools/MinGW/include/c++/3.3.1/new **** // but WITHOUT ANY WARRANTY; without even the implied warranty of
  15:d:/MTK/MTK2503/MTK2503/11CW1418SP4_03_CORETEK03AE_11C_V1_GPRS_MMI/Tools/MinGW/include/c++/3.3.1/new **** // MERCHANTABILITY or FITNESS FOR A PARTICULAR PURPOSE.  See the
  16:d:/MTK/MTK2503/MTK2503/11CW1418SP4_03_CORETEK03AE_11C_V1_GPRS_MMI/Tools/MinGW/include/c++/3.3.1/new **** // GNU General Public License for more details.
  17:d:/MTK/MTK2503/MTK2503/11CW1418SP4_03_CORETEK03AE_11C_V1_GPRS_MMI/Tools/MinGW/include/c++/3.3.1/new **** // 
  18:d:/MTK/MTK2503/MTK2503/11CW1418SP4_03_CORETEK03AE_11C_V1_GPRS_MMI/Tools/MinGW/include/c++/3.3.1/new **** // You should have received a copy of the GNU General Public License
  19:d:/MTK/MTK2503/MTK2503/11CW1418SP4_03_CORETEK03AE_11C_V1_GPRS_MMI/Tools/MinGW/include/c++/3.3.1/new **** // along with GNU CC; see the file COPYING.  If not, write to
  20:d:/MTK/MTK2503/MTK2503/11CW1418SP4_03_CORETEK03AE_11C_V1_GPRS_MMI/Tools/MinGW/include/c++/3.3.1/new **** // the Free Software Foundation, 59 Temple Place - Suite 330,
  21:d:/MTK/MTK2503/MTK2503/11CW1418SP4_03_CORETEK03AE_11C_V1_GPRS_MMI/Tools/MinGW/include/c++/3.3.1/new **** // Boston, MA 02111-1307, USA.
  22:d:/MTK/MTK2503/MTK2503/11CW1418SP4_03_CORETEK03AE_11C_V1_GPRS_MMI/Tools/MinGW/include/c++/3.3.1/new **** 
  23:d:/MTK/MTK2503/MTK2503/11CW1418SP4_03_CORETEK03AE_11C_V1_GPRS_MMI/Tools/MinGW/include/c++/3.3.1/new **** // As a special exception, you may use this file as part of a free software
  24:d:/MTK/MTK2503/MTK2503/11CW1418SP4_03_CORETEK03AE_11C_V1_GPRS_MMI/Tools/MinGW/include/c++/3.3.1/new **** // library without restriction.  Specifically, if other files instantiate
  25:d:/MTK/MTK2503/MTK2503/11CW1418SP4_03_CORETEK03AE_11C_V1_GPRS_MMI/Tools/MinGW/include/c++/3.3.1/new **** // templates or use macros or inline functions from this file, or you compile
  26:d:/MTK/MTK2503/MTK2503/11CW1418SP4_03_CORETEK03AE_11C_V1_GPRS_MMI/Tools/MinGW/include/c++/3.3.1/new **** // this file and link it with other files to produce an executable, this
  27:d:/MTK/MTK2503/MTK2503/11CW1418SP4_03_CORETEK03AE_11C_V1_GPRS_MMI/Tools/MinGW/include/c++/3.3.1/new **** // file does not by itself cause the resulting executable to be covered by
  28:d:/MTK/MTK2503/MTK2503/11CW1418SP4_03_CORETEK03AE_11C_V1_GPRS_MMI/Tools/MinGW/include/c++/3.3.1/new **** // the GNU General Public License.  This exception does not however
  29:d:/MTK/MTK2503/MTK2503/11CW1418SP4_03_CORETEK03AE_11C_V1_GPRS_MMI/Tools/MinGW/include/c++/3.3.1/new **** // invalidate any other reasons why the executable file might be covered by
  30:d:/MTK/MTK2503/MTK2503/11CW1418SP4_03_CORETEK03AE_11C_V1_GPRS_MMI/Tools/MinGW/include/c++/3.3.1/new **** // the GNU General Public License.
  31:d:/MTK/MTK2503/MTK2503/11CW1418SP4_03_CORETEK03AE_11C_V1_GPRS_MMI/Tools/MinGW/include/c++/3.3.1/new **** 
  32:d:/MTK/MTK2503/MTK2503/11CW1418SP4_03_CORETEK03AE_11C_V1_GPRS_MMI/Tools/MinGW/include/c++/3.3.1/new **** /** @file new
GAS LISTING d:/MTK/MTK2503/MTK2503/11CW1418SP4_03_CORETEK03AE_11C_V1_GPRS_MMI/plutommi/Customer/ResGenerator/gcctmp/cck7daaa.s 			page 125


  33:d:/MTK/MTK2503/MTK2503/11CW1418SP4_03_CORETEK03AE_11C_V1_GPRS_MMI/Tools/MinGW/include/c++/3.3.1/new ****  *  The header @c new defines several functions to manage dynamic memory and
  34:d:/MTK/MTK2503/MTK2503/11CW1418SP4_03_CORETEK03AE_11C_V1_GPRS_MMI/Tools/MinGW/include/c++/3.3.1/new ****  *  handling memory allocation errors; see
  35:d:/MTK/MTK2503/MTK2503/11CW1418SP4_03_CORETEK03AE_11C_V1_GPRS_MMI/Tools/MinGW/include/c++/3.3.1/new ****  *  http://gcc.gnu.org/onlinedocs/libstdc++/18_support/howto.html#4 for more.
  36:d:/MTK/MTK2503/MTK2503/11CW1418SP4_03_CORETEK03AE_11C_V1_GPRS_MMI/Tools/MinGW/include/c++/3.3.1/new ****  */
  37:d:/MTK/MTK2503/MTK2503/11CW1418SP4_03_CORETEK03AE_11C_V1_GPRS_MMI/Tools/MinGW/include/c++/3.3.1/new **** 
  38:d:/MTK/MTK2503/MTK2503/11CW1418SP4_03_CORETEK03AE_11C_V1_GPRS_MMI/Tools/MinGW/include/c++/3.3.1/new **** #ifndef __NEW__
  39:d:/MTK/MTK2503/MTK2503/11CW1418SP4_03_CORETEK03AE_11C_V1_GPRS_MMI/Tools/MinGW/include/c++/3.3.1/new **** #define __NEW__
  40:d:/MTK/MTK2503/MTK2503/11CW1418SP4_03_CORETEK03AE_11C_V1_GPRS_MMI/Tools/MinGW/include/c++/3.3.1/new **** 
  41:d:/MTK/MTK2503/MTK2503/11CW1418SP4_03_CORETEK03AE_11C_V1_GPRS_MMI/Tools/MinGW/include/c++/3.3.1/new **** #include <cstddef>
  42:d:/MTK/MTK2503/MTK2503/11CW1418SP4_03_CORETEK03AE_11C_V1_GPRS_MMI/Tools/MinGW/include/c++/3.3.1/new **** #include <exception>
  43:d:/MTK/MTK2503/MTK2503/11CW1418SP4_03_CORETEK03AE_11C_V1_GPRS_MMI/Tools/MinGW/include/c++/3.3.1/new **** 
  44:d:/MTK/MTK2503/MTK2503/11CW1418SP4_03_CORETEK03AE_11C_V1_GPRS_MMI/Tools/MinGW/include/c++/3.3.1/new **** extern "C++" {
  45:d:/MTK/MTK2503/MTK2503/11CW1418SP4_03_CORETEK03AE_11C_V1_GPRS_MMI/Tools/MinGW/include/c++/3.3.1/new **** 
  46:d:/MTK/MTK2503/MTK2503/11CW1418SP4_03_CORETEK03AE_11C_V1_GPRS_MMI/Tools/MinGW/include/c++/3.3.1/new **** namespace std 
  47:d:/MTK/MTK2503/MTK2503/11CW1418SP4_03_CORETEK03AE_11C_V1_GPRS_MMI/Tools/MinGW/include/c++/3.3.1/new **** {
  48:d:/MTK/MTK2503/MTK2503/11CW1418SP4_03_CORETEK03AE_11C_V1_GPRS_MMI/Tools/MinGW/include/c++/3.3.1/new ****   /**
  49:d:/MTK/MTK2503/MTK2503/11CW1418SP4_03_CORETEK03AE_11C_V1_GPRS_MMI/Tools/MinGW/include/c++/3.3.1/new ****    *  @brief  Exception possibly thrown by @c new.
  50:d:/MTK/MTK2503/MTK2503/11CW1418SP4_03_CORETEK03AE_11C_V1_GPRS_MMI/Tools/MinGW/include/c++/3.3.1/new ****    *
  51:d:/MTK/MTK2503/MTK2503/11CW1418SP4_03_CORETEK03AE_11C_V1_GPRS_MMI/Tools/MinGW/include/c++/3.3.1/new ****    *  @c bad_alloc (or classes derived from it) is used to report allocation
  52:d:/MTK/MTK2503/MTK2503/11CW1418SP4_03_CORETEK03AE_11C_V1_GPRS_MMI/Tools/MinGW/include/c++/3.3.1/new ****    *  errors from the throwing forms of @c new.  */
  53:d:/MTK/MTK2503/MTK2503/11CW1418SP4_03_CORETEK03AE_11C_V1_GPRS_MMI/Tools/MinGW/include/c++/3.3.1/new ****   class bad_alloc : public exception 
  54:d:/MTK/MTK2503/MTK2503/11CW1418SP4_03_CORETEK03AE_11C_V1_GPRS_MMI/Tools/MinGW/include/c++/3.3.1/new ****   {
  55:d:/MTK/MTK2503/MTK2503/11CW1418SP4_03_CORETEK03AE_11C_V1_GPRS_MMI/Tools/MinGW/include/c++/3.3.1/new ****   public:
  56:d:/MTK/MTK2503/MTK2503/11CW1418SP4_03_CORETEK03AE_11C_V1_GPRS_MMI/Tools/MinGW/include/c++/3.3.1/new ****     bad_alloc() throw() { }
  57:d:/MTK/MTK2503/MTK2503/11CW1418SP4_03_CORETEK03AE_11C_V1_GPRS_MMI/Tools/MinGW/include/c++/3.3.1/new ****     // This declaration is not useless:
  58:d:/MTK/MTK2503/MTK2503/11CW1418SP4_03_CORETEK03AE_11C_V1_GPRS_MMI/Tools/MinGW/include/c++/3.3.1/new ****     // http://gcc.gnu.org/onlinedocs/gcc-3.0.2/gcc_6.html#SEC118
  59:d:/MTK/MTK2503/MTK2503/11CW1418SP4_03_CORETEK03AE_11C_V1_GPRS_MMI/Tools/MinGW/include/c++/3.3.1/new ****     virtual ~bad_alloc() throw();
  60:d:/MTK/MTK2503/MTK2503/11CW1418SP4_03_CORETEK03AE_11C_V1_GPRS_MMI/Tools/MinGW/include/c++/3.3.1/new ****   };
  61:d:/MTK/MTK2503/MTK2503/11CW1418SP4_03_CORETEK03AE_11C_V1_GPRS_MMI/Tools/MinGW/include/c++/3.3.1/new **** 
  62:d:/MTK/MTK2503/MTK2503/11CW1418SP4_03_CORETEK03AE_11C_V1_GPRS_MMI/Tools/MinGW/include/c++/3.3.1/new ****   struct nothrow_t { };
  63:d:/MTK/MTK2503/MTK2503/11CW1418SP4_03_CORETEK03AE_11C_V1_GPRS_MMI/Tools/MinGW/include/c++/3.3.1/new ****   extern const nothrow_t nothrow;
  64:d:/MTK/MTK2503/MTK2503/11CW1418SP4_03_CORETEK03AE_11C_V1_GPRS_MMI/Tools/MinGW/include/c++/3.3.1/new ****   /** If you write your own error handler to be called by @c new, it must
  65:d:/MTK/MTK2503/MTK2503/11CW1418SP4_03_CORETEK03AE_11C_V1_GPRS_MMI/Tools/MinGW/include/c++/3.3.1/new ****    *  be of this type.  */
  66:d:/MTK/MTK2503/MTK2503/11CW1418SP4_03_CORETEK03AE_11C_V1_GPRS_MMI/Tools/MinGW/include/c++/3.3.1/new ****   typedef void (*new_handler)();
  67:d:/MTK/MTK2503/MTK2503/11CW1418SP4_03_CORETEK03AE_11C_V1_GPRS_MMI/Tools/MinGW/include/c++/3.3.1/new ****   /// Takes a replacement handler as the argument, returns the previous handler.
  68:d:/MTK/MTK2503/MTK2503/11CW1418SP4_03_CORETEK03AE_11C_V1_GPRS_MMI/Tools/MinGW/include/c++/3.3.1/new ****   new_handler set_new_handler(new_handler) throw();
  69:d:/MTK/MTK2503/MTK2503/11CW1418SP4_03_CORETEK03AE_11C_V1_GPRS_MMI/Tools/MinGW/include/c++/3.3.1/new **** } // namespace std
  70:d:/MTK/MTK2503/MTK2503/11CW1418SP4_03_CORETEK03AE_11C_V1_GPRS_MMI/Tools/MinGW/include/c++/3.3.1/new **** 
  71:d:/MTK/MTK2503/MTK2503/11CW1418SP4_03_CORETEK03AE_11C_V1_GPRS_MMI/Tools/MinGW/include/c++/3.3.1/new **** //@{
  72:d:/MTK/MTK2503/MTK2503/11CW1418SP4_03_CORETEK03AE_11C_V1_GPRS_MMI/Tools/MinGW/include/c++/3.3.1/new **** /** These are replaceable signatures:
  73:d:/MTK/MTK2503/MTK2503/11CW1418SP4_03_CORETEK03AE_11C_V1_GPRS_MMI/Tools/MinGW/include/c++/3.3.1/new ****  *  - normal single new and delete (no arguments, throw @c bad_alloc on error)
  74:d:/MTK/MTK2503/MTK2503/11CW1418SP4_03_CORETEK03AE_11C_V1_GPRS_MMI/Tools/MinGW/include/c++/3.3.1/new ****  *  - normal array new and delete (same)
  75:d:/MTK/MTK2503/MTK2503/11CW1418SP4_03_CORETEK03AE_11C_V1_GPRS_MMI/Tools/MinGW/include/c++/3.3.1/new ****  *  - @c nothrow single new and delete (take a @c nothrow argument, return
  76:d:/MTK/MTK2503/MTK2503/11CW1418SP4_03_CORETEK03AE_11C_V1_GPRS_MMI/Tools/MinGW/include/c++/3.3.1/new ****  *    @c NULL on error)
  77:d:/MTK/MTK2503/MTK2503/11CW1418SP4_03_CORETEK03AE_11C_V1_GPRS_MMI/Tools/MinGW/include/c++/3.3.1/new ****  *  - @c nothrow array new and delete (same)
  78:d:/MTK/MTK2503/MTK2503/11CW1418SP4_03_CORETEK03AE_11C_V1_GPRS_MMI/Tools/MinGW/include/c++/3.3.1/new ****  *
  79:d:/MTK/MTK2503/MTK2503/11CW1418SP4_03_CORETEK03AE_11C_V1_GPRS_MMI/Tools/MinGW/include/c++/3.3.1/new ****  *  Placement new and delete signatures (take a memory address argument,
  80:d:/MTK/MTK2503/MTK2503/11CW1418SP4_03_CORETEK03AE_11C_V1_GPRS_MMI/Tools/MinGW/include/c++/3.3.1/new ****  *  does nothing) may not be replaced by a user's program.
  81:d:/MTK/MTK2503/MTK2503/11CW1418SP4_03_CORETEK03AE_11C_V1_GPRS_MMI/Tools/MinGW/include/c++/3.3.1/new **** */
  82:d:/MTK/MTK2503/MTK2503/11CW1418SP4_03_CORETEK03AE_11C_V1_GPRS_MMI/Tools/MinGW/include/c++/3.3.1/new **** void* operator new(std::size_t) throw (std::bad_alloc);
  83:d:/MTK/MTK2503/MTK2503/11CW1418SP4_03_CORETEK03AE_11C_V1_GPRS_MMI/Tools/MinGW/include/c++/3.3.1/new **** void* operator new[](std::size_t) throw (std::bad_alloc);
  84:d:/MTK/MTK2503/MTK2503/11CW1418SP4_03_CORETEK03AE_11C_V1_GPRS_MMI/Tools/MinGW/include/c++/3.3.1/new **** void operator delete(void*) throw();
  85:d:/MTK/MTK2503/MTK2503/11CW1418SP4_03_CORETEK03AE_11C_V1_GPRS_MMI/Tools/MinGW/include/c++/3.3.1/new **** void operator delete[](void*) throw();
  86:d:/MTK/MTK2503/MTK2503/11CW1418SP4_03_CORETEK03AE_11C_V1_GPRS_MMI/Tools/MinGW/include/c++/3.3.1/new **** void* operator new(std::size_t, const std::nothrow_t&) throw();
  87:d:/MTK/MTK2503/MTK2503/11CW1418SP4_03_CORETEK03AE_11C_V1_GPRS_MMI/Tools/MinGW/include/c++/3.3.1/new **** void* operator new[](std::size_t, const std::nothrow_t&) throw();
  88:d:/MTK/MTK2503/MTK2503/11CW1418SP4_03_CORETEK03AE_11C_V1_GPRS_MMI/Tools/MinGW/include/c++/3.3.1/new **** void operator delete(void*, const std::nothrow_t&) throw();
  89:d:/MTK/MTK2503/MTK2503/11CW1418SP4_03_CORETEK03AE_11C_V1_GPRS_MMI/Tools/MinGW/include/c++/3.3.1/new **** void operator delete[](void*, const std::nothrow_t&) throw();
GAS LISTING d:/MTK/MTK2503/MTK2503/11CW1418SP4_03_CORETEK03AE_11C_V1_GPRS_MMI/plutommi/Customer/ResGenerator/gcctmp/cck7daaa.s 			page 126


  90:d:/MTK/MTK2503/MTK2503/11CW1418SP4_03_CORETEK03AE_11C_V1_GPRS_MMI/Tools/MinGW/include/c++/3.3.1/new **** 
  91:d:/MTK/MTK2503/MTK2503/11CW1418SP4_03_CORETEK03AE_11C_V1_GPRS_MMI/Tools/MinGW/include/c++/3.3.1/new **** // Default placement versions of operator new.
  92:d:/MTK/MTK2503/MTK2503/11CW1418SP4_03_CORETEK03AE_11C_V1_GPRS_MMI/Tools/MinGW/include/c++/3.3.1/new **** inline void* operator new(std::size_t, void* __p) throw() { return __p; }
 7372              	LM350:
 7373 0000 55       		pushl	%ebp
 7374 0001 89E5     		movl	%esp, %ebp
 7376              	LM351:
 7377              	LBB86:
 7378 0003 8B450C   		movl	12(%ebp), %eax
 7379              	L285:
 7380              	L284:
 7381 0006 5D       		popl	%ebp
 7382 0007 C3       		ret
 7383              	LBE86:
 7384              	Lscope69:
 7386              		.section	.text$_ZdlPvS_,"x"
 7387              		.linkonce discard
 7388              		.align 2
 7390              	.globl __ZdlPvS_
 7392              	__ZdlPvS_:
  93:d:/MTK/MTK2503/MTK2503/11CW1418SP4_03_CORETEK03AE_11C_V1_GPRS_MMI/Tools/MinGW/include/c++/3.3.1/new **** inline void* operator new[](std::size_t, void* __p) throw() { return __p; }
  94:d:/MTK/MTK2503/MTK2503/11CW1418SP4_03_CORETEK03AE_11C_V1_GPRS_MMI/Tools/MinGW/include/c++/3.3.1/new **** 
  95:d:/MTK/MTK2503/MTK2503/11CW1418SP4_03_CORETEK03AE_11C_V1_GPRS_MMI/Tools/MinGW/include/c++/3.3.1/new **** // Default placement versions of operator delete.
  96:d:/MTK/MTK2503/MTK2503/11CW1418SP4_03_CORETEK03AE_11C_V1_GPRS_MMI/Tools/MinGW/include/c++/3.3.1/new **** inline void  operator delete  (void*, void*) throw() { };
 7394              	LM352:
 7395              	L288:
 7396              	L287:
 7397 0000 55       		pushl	%ebp
 7398 0001 89E5     		movl	%esp, %ebp
 7400              	LM353:
 7401 0003 5D       		popl	%ebp
 7402 0004 C3       		ret
 7403              	Lscope70:
 7405 0005 909090   		.section	.text$_ZN16ProcessImageDataC1ERKS_,"x"
 7406              		.linkonce discard
 7407              		.align 2
 7411              	.globl __ZN16ProcessImageDataC1ERKS_
 7413              	__ZN16ProcessImageDataC1ERKS_:
 7415              	Ltext30:
 7417              	LM354:
 7418 0000 55       		pushl	%ebp
 7419 0001 89E5     		movl	%esp, %ebp
 7420 0003 57       		pushl	%edi
 7421 0004 56       		pushl	%esi
 7422 0005 53       		pushl	%ebx
 7423 0006 83EC5C   		subl	$92, %esp
 7424 0009 C745E000 		movl	$___gxx_personality_sj0, -32(%ebp)
 7424      000000
 7425 0010 C745E45A 		movl	$LLSDA2387, -28(%ebp)
 7425      000000
 7426 0017 8D45E8   		leal	-24(%ebp), %eax
 7427 001a 8D55F4   		leal	-12(%ebp), %edx
 7428 001d 8910     		movl	%edx, (%eax)
 7429 001f BA450100 		movl	$L304, %edx
 7429      00
 7430 0024 895004   		movl	%edx, 4(%eax)
 7431 0027 896008   		movl	%esp, 8(%eax)
GAS LISTING d:/MTK/MTK2503/MTK2503/11CW1418SP4_03_CORETEK03AE_11C_V1_GPRS_MMI/plutommi/Customer/ResGenerator/gcctmp/cck7daaa.s 			page 127


 7432 002a 8D45C8   		leal	-56(%ebp), %eax
 7433 002d 890424   		movl	%eax, (%esp)
 7434 0030 E8000000 		call	__Unwind_SjLj_Register
 7434      00
 7436              	LM355:
 7437 0035 8B4508   		movl	8(%ebp), %eax
 7438              	LBB87:
 7439 0038 83C004   		addl	$4, %eax
 7440 003b 890424   		movl	%eax, (%esp)
 7441 003e E8000000 		call	__ZNSsC1Ev
 7441      00
 7442 0043 8B4508   		movl	8(%ebp), %eax
 7443 0046 83C008   		addl	$8, %eax
 7444 0049 890424   		movl	%eax, (%esp)
 7445 004c E8000000 		call	__ZNSsC1Ev
 7445      00
 7446 0051 8B4508   		movl	8(%ebp), %eax
 7447 0054 05300200 		addl	$560, %eax
 7447      00
 7448 0059 890424   		movl	%eax, (%esp)
 7449 005c E8000000 		call	__ZN21_ResgenImageOutStreamC1Ev
 7449      00
 7451              	LM356:
 7452 0061 8B5508   		movl	8(%ebp), %edx
 7453 0064 8B450C   		movl	12(%ebp), %eax
 7454 0067 0FB700   		movzwl	(%eax), %eax
 7455 006a 668902   		movw	%ax, (%edx)
 7457              	LM357:
 7458 006d 8B450C   		movl	12(%ebp), %eax
 7459 0070 83C004   		addl	$4, %eax
 7460 0073 89442404 		movl	%eax, 4(%esp)
 7461 0077 8B4508   		movl	8(%ebp), %eax
 7462 007a 83C004   		addl	$4, %eax
 7463 007d 890424   		movl	%eax, (%esp)
 7464 0080 C745CC01 		movl	$1, -52(%ebp)
 7464      000000
 7465 0087 E8000000 		call	__ZNSsaSERKSs
 7465      00
 7467              	LM358:
 7468 008c 8B450C   		movl	12(%ebp), %eax
 7469 008f 83C008   		addl	$8, %eax
 7470 0092 89442404 		movl	%eax, 4(%esp)
 7471 0096 8B4508   		movl	8(%ebp), %eax
 7472 0099 83C008   		addl	$8, %eax
 7473 009c 890424   		movl	%eax, (%esp)
 7474 009f E8000000 		call	__ZNSsaSERKSs
 7474      00
 7476              	LM359:
 7477 00a4 8B5508   		movl	8(%ebp), %edx
 7478 00a7 8B450C   		movl	12(%ebp), %eax
 7479 00aa 8B400C   		movl	12(%eax), %eax
 7480 00ad 89420C   		movl	%eax, 12(%edx)
 7482              	LM360:
 7483 00b0 8B5508   		movl	8(%ebp), %edx
 7484 00b3 8B450C   		movl	12(%ebp), %eax
 7485 00b6 8B4010   		movl	16(%eax), %eax
 7486 00b9 894210   		movl	%eax, 16(%edx)
GAS LISTING d:/MTK/MTK2503/MTK2503/11CW1418SP4_03_CORETEK03AE_11C_V1_GPRS_MMI/plutommi/Customer/ResGenerator/gcctmp/cck7daaa.s 			page 128


 7488              	LM361:
 7489 00bc 8B4508   		movl	8(%ebp), %eax
 7490 00bf 83C014   		addl	$20, %eax
 7491 00c2 8B550C   		movl	12(%ebp), %edx
 7492 00c5 83C214   		addl	$20, %edx
 7493 00c8 8945C4   		movl	%eax, -60(%ebp)
 7494 00cb 8955C0   		movl	%edx, -64(%ebp)
 7495 00ce C745BC1C 		movl	$540, -68(%ebp)
 7495      020000
 7496 00d5 8B45C4   		movl	-60(%ebp), %eax
 7497 00d8 83E004   		andl	$4, %eax
 7498 00db 85C0     		testl	%eax, %eax
 7499 00dd 7416     		je	L291
 7500 00df 8B75C0   		movl	-64(%ebp), %esi
 7501 00e2 8B06     		movl	(%esi), %eax
 7502 00e4 8B7DC4   		movl	-60(%ebp), %edi
 7503 00e7 8907     		movl	%eax, (%edi)
 7504 00e9 8345C404 		addl	$4, -60(%ebp)
 7505 00ed 8345C004 		addl	$4, -64(%ebp)
 7506 00f1 836DBC04 		subl	$4, -68(%ebp)
 7507              	L291:
 7508 00f5 FC       		cld
 7509 00f6 8B4DBC   		movl	-68(%ebp), %ecx
 7510 00f9 C1E902   		shrl	$2, %ecx
 7511 00fc 8B7DC4   		movl	-60(%ebp), %edi
 7512 00ff 8B75C0   		movl	-64(%ebp), %esi
 7513 0102 F3       		rep
 7514 0103 A5       		movsl
 7516              	LM362:
 7517 0104 8B4D08   		movl	8(%ebp), %ecx
 7518 0107 81C13002 		addl	$560, %ecx
 7518      0000
 7519 010d 8B550C   		movl	12(%ebp), %edx
 7520 0110 81C23002 		addl	$560, %edx
 7520      0000
 7521 0116 8B02     		movl	(%edx), %eax
 7522 0118 8901     		movl	%eax, (%ecx)
 7523 011a 8B4204   		movl	4(%edx), %eax
 7524 011d 894104   		movl	%eax, 4(%ecx)
 7526              	LM363:
 7527 0120 8B5508   		movl	8(%ebp), %edx
 7528 0123 8B4508   		movl	8(%ebp), %eax
 7529 0126 05300200 		addl	$560, %eax
 7529      00
 7530 012b 89821802 		movl	%eax, 536(%edx)
 7530      0000
 7532              	LM364:
 7533 0131 8B5508   		movl	8(%ebp), %edx
 7534 0134 8B450C   		movl	12(%ebp), %eax
 7535 0137 8B802802 		movl	552(%eax), %eax
 7535      0000
 7536 013d 89822802 		movl	%eax, 552(%edx)
 7536      0000
 7537 0143 EB6B     		jmp	L290
 7538              	L304:
 7539 0145 8D6D0C   		leal	12(%ebp), %ebp
 7540 0148 8B45D0   		movl	-48(%ebp), %eax
GAS LISTING d:/MTK/MTK2503/MTK2503/11CW1418SP4_03_CORETEK03AE_11C_V1_GPRS_MMI/plutommi/Customer/ResGenerator/gcctmp/cck7daaa.s 			page 129


 7541 014b 8945B4   		movl	%eax, -76(%ebp)
 7542              	L292:
 7543 014e 8B55B4   		movl	-76(%ebp), %edx
 7544 0151 8955B8   		movl	%edx, -72(%ebp)
 7545 0154 8B4508   		movl	8(%ebp), %eax
 7546 0157 05300200 		addl	$560, %eax
 7546      00
 7547 015c 890424   		movl	%eax, (%esp)
 7548 015f E8000000 		call	__ZN21_ResgenImageOutStreamD1Ev
 7548      00
 7549 0164 8B75B8   		movl	-72(%ebp), %esi
 7550 0167 8975B4   		movl	%esi, -76(%ebp)
 7551              	L294:
 7552              	L296:
 7553 016a 8B7DB4   		movl	-76(%ebp), %edi
 7554 016d 897DB0   		movl	%edi, -80(%ebp)
 7555 0170 8B4508   		movl	8(%ebp), %eax
 7556 0173 83C008   		addl	$8, %eax
 7557 0176 890424   		movl	%eax, (%esp)
 7558 0179 E8000000 		call	__ZNSsD1Ev
 7558      00
 7559 017e 8B45B0   		movl	-80(%ebp), %eax
 7560 0181 8945B4   		movl	%eax, -76(%ebp)
 7561              	L298:
 7562              	L300:
 7563 0184 8B55B4   		movl	-76(%ebp), %edx
 7564 0187 8955AC   		movl	%edx, -84(%ebp)
 7565 018a 8B4508   		movl	8(%ebp), %eax
 7566 018d 83C004   		addl	$4, %eax
 7567 0190 890424   		movl	%eax, (%esp)
 7568 0193 E8000000 		call	__ZNSsD1Ev
 7568      00
 7569 0198 8B75AC   		movl	-84(%ebp), %esi
 7570 019b 8975B4   		movl	%esi, -76(%ebp)
 7571              	L302:
 7572 019e 8B7DB4   		movl	-76(%ebp), %edi
 7573 01a1 893C24   		movl	%edi, (%esp)
 7574 01a4 C745CCFF 		movl	$-1, -52(%ebp)
 7574      FFFFFF
 7575 01ab E8000000 		call	__Unwind_SjLj_Resume
 7575      00
 7577              	LM365:
 7578              	L290:
 7579 01b0 8D45C8   		leal	-56(%ebp), %eax
 7580 01b3 890424   		movl	%eax, (%esp)
 7581 01b6 E8000000 		call	__Unwind_SjLj_Unregister
 7581      00
 7582 01bb 83C45C   		addl	$92, %esp
 7583 01be 5B       		popl	%ebx
 7584 01bf 5E       		popl	%esi
 7585 01c0 5F       		popl	%edi
 7586 01c1 5D       		popl	%ebp
 7587 01c2 C3       		ret
 7588              	LBE87:
 7589              		.section	.gcc_except_table,""
 7590              	LLSDA2387:
 7591 005a FF       		.byte	0xff
GAS LISTING d:/MTK/MTK2503/MTK2503/11CW1418SP4_03_CORETEK03AE_11C_V1_GPRS_MMI/plutommi/Customer/ResGenerator/gcctmp/cck7daaa.s 			page 130


 7592 005b FF       		.byte	0xff
 7593 005c 01       		.byte	0x1
 7594 005d 02       		.uleb128 LLSDACSE2387-LLSDACSB2387
 7595              	LLSDACSB2387:
 7596 005e 00       		.uleb128 0x0
 7597 005f 00       		.uleb128 0x0
 7598              	LLSDACSE2387:
 7599              		.section	.text$_ZN16ProcessImageDataC1ERKS_,"x"
 7600              		.linkonce discard
 7601              	Lscope71:
 7603 01c3 90       		.section	.text$_ZN13LogBinaryDataC1ERKS_,"x"
 7604              		.linkonce discard
 7605              		.align 2
 7609              	.globl __ZN13LogBinaryDataC1ERKS_
 7611              	__ZN13LogBinaryDataC1ERKS_:
 7613              	Ltext31:
 7615              	LM366:
 7616 0000 55       		pushl	%ebp
 7617 0001 89E5     		movl	%esp, %ebp
 7618 0003 83EC08   		subl	$8, %esp
 7620              	LM367:
 7621              	LBB88:
 7622 0006 8B5508   		movl	8(%ebp), %edx
 7623 0009 8B450C   		movl	12(%ebp), %eax
 7624 000c 0FB700   		movzwl	(%eax), %eax
 7625 000f 668902   		movw	%ax, (%edx)
 7626 0012 8B450C   		movl	12(%ebp), %eax
 7627 0015 83C004   		addl	$4, %eax
 7628 0018 89442404 		movl	%eax, 4(%esp)
 7629 001c 8B4508   		movl	8(%ebp), %eax
 7630 001f 83C004   		addl	$4, %eax
 7631 0022 890424   		movl	%eax, (%esp)
 7632 0025 E8000000 		call	__ZNSsC1ERKSs
 7632      00
 7633 002a 8B5508   		movl	8(%ebp), %edx
 7634 002d 8B450C   		movl	12(%ebp), %eax
 7635 0030 8B4008   		movl	8(%eax), %eax
 7636 0033 894208   		movl	%eax, 8(%edx)
 7637 0036 C9       		leave
 7638 0037 C3       		ret
 7639              	L306:
 7640              	L305:
 7641              	LBE88:
 7642              	Lscope72:
 7644              		.section	.text$_ZSt8_DestroyI16ProcessImageDataEvPT_,"x"
 7645              		.linkonce discard
 7646              		.align 2
 7649              	.globl __ZSt8_DestroyI16ProcessImageDataEvPT_
 7651              	__ZSt8_DestroyI16ProcessImageDataEvPT_:
  79:d:/MTK/MTK2503/MTK2503/11CW1418SP4_03_CORETEK03AE_11C_V1_GPRS_MMI/Tools/MinGW/include/c++/3.3.1/bits/stl_construct.h ****   
  80:d:/MTK/MTK2503/MTK2503/11CW1418SP4_03_CORETEK03AE_11C_V1_GPRS_MMI/Tools/MinGW/include/c++/3.3.1/bits/stl_construct.h ****   /**
  81:d:/MTK/MTK2503/MTK2503/11CW1418SP4_03_CORETEK03AE_11C_V1_GPRS_MMI/Tools/MinGW/include/c++/3.3.1/bits/stl_construct.h ****    * @if maint
  82:d:/MTK/MTK2503/MTK2503/11CW1418SP4_03_CORETEK03AE_11C_V1_GPRS_MMI/Tools/MinGW/include/c++/3.3.1/bits/stl_construct.h ****    * Constructs an object in existing memory by invoking an allocated
  83:d:/MTK/MTK2503/MTK2503/11CW1418SP4_03_CORETEK03AE_11C_V1_GPRS_MMI/Tools/MinGW/include/c++/3.3.1/bits/stl_construct.h ****    * object's default constructor (no initializers).
  84:d:/MTK/MTK2503/MTK2503/11CW1418SP4_03_CORETEK03AE_11C_V1_GPRS_MMI/Tools/MinGW/include/c++/3.3.1/bits/stl_construct.h ****    * @endif
  85:d:/MTK/MTK2503/MTK2503/11CW1418SP4_03_CORETEK03AE_11C_V1_GPRS_MMI/Tools/MinGW/include/c++/3.3.1/bits/stl_construct.h ****    */
  86:d:/MTK/MTK2503/MTK2503/11CW1418SP4_03_CORETEK03AE_11C_V1_GPRS_MMI/Tools/MinGW/include/c++/3.3.1/bits/stl_construct.h ****   template <class _T1>
GAS LISTING d:/MTK/MTK2503/MTK2503/11CW1418SP4_03_CORETEK03AE_11C_V1_GPRS_MMI/plutommi/Customer/ResGenerator/gcctmp/cck7daaa.s 			page 131


  87:d:/MTK/MTK2503/MTK2503/11CW1418SP4_03_CORETEK03AE_11C_V1_GPRS_MMI/Tools/MinGW/include/c++/3.3.1/bits/stl_construct.h ****     inline void
  88:d:/MTK/MTK2503/MTK2503/11CW1418SP4_03_CORETEK03AE_11C_V1_GPRS_MMI/Tools/MinGW/include/c++/3.3.1/bits/stl_construct.h ****     _Construct(_T1* __p)
  89:d:/MTK/MTK2503/MTK2503/11CW1418SP4_03_CORETEK03AE_11C_V1_GPRS_MMI/Tools/MinGW/include/c++/3.3.1/bits/stl_construct.h ****     { new (static_cast<void*>(__p)) _T1(); }
  90:d:/MTK/MTK2503/MTK2503/11CW1418SP4_03_CORETEK03AE_11C_V1_GPRS_MMI/Tools/MinGW/include/c++/3.3.1/bits/stl_construct.h **** 
  91:d:/MTK/MTK2503/MTK2503/11CW1418SP4_03_CORETEK03AE_11C_V1_GPRS_MMI/Tools/MinGW/include/c++/3.3.1/bits/stl_construct.h ****   /**
  92:d:/MTK/MTK2503/MTK2503/11CW1418SP4_03_CORETEK03AE_11C_V1_GPRS_MMI/Tools/MinGW/include/c++/3.3.1/bits/stl_construct.h ****    * @if maint
  93:d:/MTK/MTK2503/MTK2503/11CW1418SP4_03_CORETEK03AE_11C_V1_GPRS_MMI/Tools/MinGW/include/c++/3.3.1/bits/stl_construct.h ****    * Destroy a range of objects with nontrivial destructors.  
  94:d:/MTK/MTK2503/MTK2503/11CW1418SP4_03_CORETEK03AE_11C_V1_GPRS_MMI/Tools/MinGW/include/c++/3.3.1/bits/stl_construct.h ****    *
  95:d:/MTK/MTK2503/MTK2503/11CW1418SP4_03_CORETEK03AE_11C_V1_GPRS_MMI/Tools/MinGW/include/c++/3.3.1/bits/stl_construct.h ****    * This is a helper function used only by _Destroy().
  96:d:/MTK/MTK2503/MTK2503/11CW1418SP4_03_CORETEK03AE_11C_V1_GPRS_MMI/Tools/MinGW/include/c++/3.3.1/bits/stl_construct.h ****    * @endif
  97:d:/MTK/MTK2503/MTK2503/11CW1418SP4_03_CORETEK03AE_11C_V1_GPRS_MMI/Tools/MinGW/include/c++/3.3.1/bits/stl_construct.h ****    */
  98:d:/MTK/MTK2503/MTK2503/11CW1418SP4_03_CORETEK03AE_11C_V1_GPRS_MMI/Tools/MinGW/include/c++/3.3.1/bits/stl_construct.h ****   template <class _ForwardIterator>
  99:d:/MTK/MTK2503/MTK2503/11CW1418SP4_03_CORETEK03AE_11C_V1_GPRS_MMI/Tools/MinGW/include/c++/3.3.1/bits/stl_construct.h ****     inline void
 100:d:/MTK/MTK2503/MTK2503/11CW1418SP4_03_CORETEK03AE_11C_V1_GPRS_MMI/Tools/MinGW/include/c++/3.3.1/bits/stl_construct.h ****     __destroy_aux(_ForwardIterator __first, _ForwardIterator __last, __false_type)
 101:d:/MTK/MTK2503/MTK2503/11CW1418SP4_03_CORETEK03AE_11C_V1_GPRS_MMI/Tools/MinGW/include/c++/3.3.1/bits/stl_construct.h ****     { for ( ; __first != __last; ++__first) _Destroy(&*__first); }
 102:d:/MTK/MTK2503/MTK2503/11CW1418SP4_03_CORETEK03AE_11C_V1_GPRS_MMI/Tools/MinGW/include/c++/3.3.1/bits/stl_construct.h **** 
 103:d:/MTK/MTK2503/MTK2503/11CW1418SP4_03_CORETEK03AE_11C_V1_GPRS_MMI/Tools/MinGW/include/c++/3.3.1/bits/stl_construct.h ****   /**
 104:d:/MTK/MTK2503/MTK2503/11CW1418SP4_03_CORETEK03AE_11C_V1_GPRS_MMI/Tools/MinGW/include/c++/3.3.1/bits/stl_construct.h ****    * @if maint
 105:d:/MTK/MTK2503/MTK2503/11CW1418SP4_03_CORETEK03AE_11C_V1_GPRS_MMI/Tools/MinGW/include/c++/3.3.1/bits/stl_construct.h ****    * Destroy a range of objects with trivial destructors.  Since the destructors
 106:d:/MTK/MTK2503/MTK2503/11CW1418SP4_03_CORETEK03AE_11C_V1_GPRS_MMI/Tools/MinGW/include/c++/3.3.1/bits/stl_construct.h ****    * are trivial, there's nothing to do and hopefully this function will be
 107:d:/MTK/MTK2503/MTK2503/11CW1418SP4_03_CORETEK03AE_11C_V1_GPRS_MMI/Tools/MinGW/include/c++/3.3.1/bits/stl_construct.h ****    * entirely optimized away.
 108:d:/MTK/MTK2503/MTK2503/11CW1418SP4_03_CORETEK03AE_11C_V1_GPRS_MMI/Tools/MinGW/include/c++/3.3.1/bits/stl_construct.h ****    *
 109:d:/MTK/MTK2503/MTK2503/11CW1418SP4_03_CORETEK03AE_11C_V1_GPRS_MMI/Tools/MinGW/include/c++/3.3.1/bits/stl_construct.h ****    * This is a helper function used only by _Destroy().
 110:d:/MTK/MTK2503/MTK2503/11CW1418SP4_03_CORETEK03AE_11C_V1_GPRS_MMI/Tools/MinGW/include/c++/3.3.1/bits/stl_construct.h ****    * @endif
 111:d:/MTK/MTK2503/MTK2503/11CW1418SP4_03_CORETEK03AE_11C_V1_GPRS_MMI/Tools/MinGW/include/c++/3.3.1/bits/stl_construct.h ****    */
 112:d:/MTK/MTK2503/MTK2503/11CW1418SP4_03_CORETEK03AE_11C_V1_GPRS_MMI/Tools/MinGW/include/c++/3.3.1/bits/stl_construct.h ****   template <class _ForwardIterator> 
 113:d:/MTK/MTK2503/MTK2503/11CW1418SP4_03_CORETEK03AE_11C_V1_GPRS_MMI/Tools/MinGW/include/c++/3.3.1/bits/stl_construct.h ****     inline void
 114:d:/MTK/MTK2503/MTK2503/11CW1418SP4_03_CORETEK03AE_11C_V1_GPRS_MMI/Tools/MinGW/include/c++/3.3.1/bits/stl_construct.h ****     __destroy_aux(_ForwardIterator, _ForwardIterator, __true_type)
 115:d:/MTK/MTK2503/MTK2503/11CW1418SP4_03_CORETEK03AE_11C_V1_GPRS_MMI/Tools/MinGW/include/c++/3.3.1/bits/stl_construct.h ****     { }
 116:d:/MTK/MTK2503/MTK2503/11CW1418SP4_03_CORETEK03AE_11C_V1_GPRS_MMI/Tools/MinGW/include/c++/3.3.1/bits/stl_construct.h **** 
 117:d:/MTK/MTK2503/MTK2503/11CW1418SP4_03_CORETEK03AE_11C_V1_GPRS_MMI/Tools/MinGW/include/c++/3.3.1/bits/stl_construct.h ****   /**
 118:d:/MTK/MTK2503/MTK2503/11CW1418SP4_03_CORETEK03AE_11C_V1_GPRS_MMI/Tools/MinGW/include/c++/3.3.1/bits/stl_construct.h ****    * @if maint
 119:d:/MTK/MTK2503/MTK2503/11CW1418SP4_03_CORETEK03AE_11C_V1_GPRS_MMI/Tools/MinGW/include/c++/3.3.1/bits/stl_construct.h ****    * Destroy the object pointed to by a pointer type.
 120:d:/MTK/MTK2503/MTK2503/11CW1418SP4_03_CORETEK03AE_11C_V1_GPRS_MMI/Tools/MinGW/include/c++/3.3.1/bits/stl_construct.h ****    * @endif
 121:d:/MTK/MTK2503/MTK2503/11CW1418SP4_03_CORETEK03AE_11C_V1_GPRS_MMI/Tools/MinGW/include/c++/3.3.1/bits/stl_construct.h ****    */
 122:d:/MTK/MTK2503/MTK2503/11CW1418SP4_03_CORETEK03AE_11C_V1_GPRS_MMI/Tools/MinGW/include/c++/3.3.1/bits/stl_construct.h ****   template <class _Tp>
 123:d:/MTK/MTK2503/MTK2503/11CW1418SP4_03_CORETEK03AE_11C_V1_GPRS_MMI/Tools/MinGW/include/c++/3.3.1/bits/stl_construct.h ****     inline void
 124:d:/MTK/MTK2503/MTK2503/11CW1418SP4_03_CORETEK03AE_11C_V1_GPRS_MMI/Tools/MinGW/include/c++/3.3.1/bits/stl_construct.h ****     _Destroy(_Tp* __pointer)
 125:d:/MTK/MTK2503/MTK2503/11CW1418SP4_03_CORETEK03AE_11C_V1_GPRS_MMI/Tools/MinGW/include/c++/3.3.1/bits/stl_construct.h ****     { __pointer->~_Tp(); }
 7653              	LM368:
 7654 0000 55       		pushl	%ebp
 7655 0001 89E5     		movl	%esp, %ebp
 7656 0003 83EC08   		subl	$8, %esp
 7658              	LM369:
 7659              	LBB89:
 7660 0006 8B4508   		movl	8(%ebp), %eax
 7661 0009 890424   		movl	%eax, (%esp)
 7662 000c E8000000 		call	__ZN16ProcessImageDataD1Ev
 7662      00
 7663 0011 C9       		leave
 7664 0012 C3       		ret
 7665              	LBE89:
 7666              	Lscope73:
 7668 0013 90       		.section	.text$_ZSt8_DestroyI13LogBinaryDataEvPT_,"x"
 7669              		.linkonce discard
 7670              		.align 2
 7673              	.globl __ZSt8_DestroyI13LogBinaryDataEvPT_
GAS LISTING d:/MTK/MTK2503/MTK2503/11CW1418SP4_03_CORETEK03AE_11C_V1_GPRS_MMI/plutommi/Customer/ResGenerator/gcctmp/cck7daaa.s 			page 132


 7675              	__ZSt8_DestroyI13LogBinaryDataEvPT_:
 7677              	LM370:
 7678 0000 55       		pushl	%ebp
 7679 0001 89E5     		movl	%esp, %ebp
 7680 0003 83EC08   		subl	$8, %esp
 7682              	LM371:
 7683              	LBB90:
 7684 0006 8B4508   		movl	8(%ebp), %eax
 7685 0009 890424   		movl	%eax, (%esp)
 7686 000c E8000000 		call	__ZN13LogBinaryDataD1Ev
 7686      00
 7687 0011 C9       		leave
 7688 0012 C3       		ret
 7689              	LBE90:
 7690              	Lscope74:
 7692 0013 90       		.text
 7693              		.align 2
 7696              	__GLOBAL__I_initImageProcessData:
 7698              	Ltext32:
 7700              	LM372:
 7701 1a28 55       		pushl	%ebp
 7702 1a29 89E5     		movl	%esp, %ebp
 7703 1a2b 83EC08   		subl	$8, %esp
 7705              	LM373:
 7706 1a2e C7442404 		movl	$65535, 4(%esp)
 7706      FFFF0000 
 7707 1a36 C7042401 		movl	$1, (%esp)
 7707      000000
 7708 1a3d E818FDFF 		call	__Z41__static_initialization_and_destruction_0ii
 7708      FF
 7709 1a42 C9       		leave
 7710 1a43 C3       		ret
 7711              	Lscope75:
 7713              		.section	.ctors,"w"
 7714              		.align 4
 7715 0000 281A0000 		.long	__GLOBAL__I_initImageProcessData
 7716              		.text
 7717              		.align 2
 7720              	__GLOBAL__D_initImageProcessData:
 7722              	LM374:
 7723 1a44 55       		pushl	%ebp
 7724 1a45 89E5     		movl	%esp, %ebp
 7725 1a47 83EC08   		subl	$8, %esp
 7727              	LM375:
 7728 1a4a C7442404 		movl	$65535, 4(%esp)
 7728      FFFF0000 
 7729 1a52 C7042400 		movl	$0, (%esp)
 7729      000000
 7730 1a59 E8FCFCFF 		call	__Z41__static_initialization_and_destruction_0ii
 7730      FF
 7731 1a5e C9       		leave
 7732 1a5f C3       		ret
 7733              	Lscope76:
 7735              		.section	.dtors,"w"
 7736              		.align 4
 7737 0000 441A0000 		.long	__GLOBAL__D_initImageProcessData
 7743              		.text
GAS LISTING d:/MTK/MTK2503/MTK2503/11CW1418SP4_03_CORETEK03AE_11C_V1_GPRS_MMI/plutommi/Customer/ResGenerator/gcctmp/cck7daaa.s 			page 133


 7745              	Letext:
GAS LISTING d:/MTK/MTK2503/MTK2503/11CW1418SP4_03_CORETEK03AE_11C_V1_GPRS_MMI/plutommi/Customer/ResGenerator/gcctmp/cck7daaa.s 			page 134


DEFINED SYMBOLS
                            *ABS*:00000000 WriteProcess.cpp
d:/MTK/MTK2503/MTK2503/11CW1418SP4_03_CORETEK03AE_11C_V1_GPRS_MMI/plutommi/Customer/ResGenerator/gcctmp/cck7daaa.s:2780   .bss:00000000 __ZSt8__ioinit
d:/MTK/MTK2503/MTK2503/11CW1418SP4_03_CORETEK03AE_11C_V1_GPRS_MMI/plutommi/Customer/ResGenerator/gcctmp/cck7daaa.s:2841   .text:0000002c _initImageProcessData
d:/MTK/MTK2503/MTK2503/11CW1418SP4_03_CORETEK03AE_11C_V1_GPRS_MMI/plutommi/Customer/ResGenerator/gcctmp/cck7daaa.s:2928   .text:00000264 _SetNFBImage
d:/MTK/MTK2503/MTK2503/11CW1418SP4_03_CORETEK03AE_11C_V1_GPRS_MMI/plutommi/Customer/ResGenerator/gcctmp/cck7daaa.s:3158   .text:0000054a _SetImage
d:/MTK/MTK2503/MTK2503/11CW1418SP4_03_CORETEK03AE_11C_V1_GPRS_MMI/plutommi/Customer/ResGenerator/gcctmp/cck7daaa.s:3194   .text:0000057c _SetImageWithBufferForceType
d:/MTK/MTK2503/MTK2503/11CW1418SP4_03_CORETEK03AE_11C_V1_GPRS_MMI/plutommi/Customer/ResGenerator/gcctmp/cck7daaa.s:3270   .text:000005ec _SetImageQWithBuffer
d:/MTK/MTK2503/MTK2503/11CW1418SP4_03_CORETEK03AE_11C_V1_GPRS_MMI/plutommi/Customer/ResGenerator/gcctmp/cck7daaa.s:3311   .text:0000062c _SetImageQWithBufferForceType
d:/MTK/MTK2503/MTK2503/11CW1418SP4_03_CORETEK03AE_11C_V1_GPRS_MMI/plutommi/Customer/ResGenerator/gcctmp/cck7daaa.s:3351   .bss:00000010 _g_resgen_png_image_list
d:/MTK/MTK2503/MTK2503/11CW1418SP4_03_CORETEK03AE_11C_V1_GPRS_MMI/plutommi/Customer/ResGenerator/gcctmp/cck7daaa.s:3360   .bss:00000020 _g_log_binary_data_list
d:/MTK/MTK2503/MTK2503/11CW1418SP4_03_CORETEK03AE_11C_V1_GPRS_MMI/plutommi/Customer/ResGenerator/gcctmp/cck7daaa.s:3365   .text:0000066a __Z13stringToUpperSs
d:/MTK/MTK2503/MTK2503/11CW1418SP4_03_CORETEK03AE_11C_V1_GPRS_MMI/plutommi/Customer/ResGenerator/gcctmp/cck7daaa.s:3826   .text:00000b2e __Z28ProcessResgenPngImagesMapIdsR16ProcessImageData
d:/MTK/MTK2503/MTK2503/11CW1418SP4_03_CORETEK03AE_11C_V1_GPRS_MMI/plutommi/Customer/ResGenerator/gcctmp/cck7daaa.s:4344   .text:00001084 __Z18getMaxThreadNumberv
d:/MTK/MTK2503/MTK2503/11CW1418SP4_03_CORETEK03AE_11C_V1_GPRS_MMI/plutommi/Customer/ResGenerator/gcctmp/cck7daaa.s:4404   .text:000010ce _ProcessResgenPngImages
d:/MTK/MTK2503/MTK2503/11CW1418SP4_03_CORETEK03AE_11C_V1_GPRS_MMI/plutommi/Customer/ResGenerator/gcctmp/cck7daaa.s:4426   .text:000010dc _ImageOutStreamInit
d:/MTK/MTK2503/MTK2503/11CW1418SP4_03_CORETEK03AE_11C_V1_GPRS_MMI/plutommi/Customer/ResGenerator/gcctmp/cck7daaa.s:4462   .text:00001108 _ImageOutStreamDeinit
d:/MTK/MTK2503/MTK2503/11CW1418SP4_03_CORETEK03AE_11C_V1_GPRS_MMI/plutommi/Customer/ResGenerator/gcctmp/cck7daaa.s:4499   .text:0000113c _ImageOutStreamPrintf
d:/MTK/MTK2503/MTK2503/11CW1418SP4_03_CORETEK03AE_11C_V1_GPRS_MMI/plutommi/Customer/ResGenerator/gcctmp/cck7daaa.s:4689   .text:000012f8 _LogSetBinaryWithBuffer
d:/MTK/MTK2503/MTK2503/11CW1418SP4_03_CORETEK03AE_11C_V1_GPRS_MMI/plutommi/Customer/ResGenerator/gcctmp/cck7daaa.s:4804   .text:000016dc __Z17ProcessBinaryDatav
d:/MTK/MTK2503/MTK2503/11CW1418SP4_03_CORETEK03AE_11C_V1_GPRS_MMI/plutommi/Customer/ResGenerator/gcctmp/cck7daaa.s:5060   .text:0000175a __Z41__static_initialization_and_destruction_0ii
d:/MTK/MTK2503/MTK2503/11CW1418SP4_03_CORETEK03AE_11C_V1_GPRS_MMI/plutommi/Customer/ResGenerator/gcctmp/cck7daaa.s:6431   .text:00001980 _image_resource_info
d:/MTK/MTK2503/MTK2503/11CW1418SP4_03_CORETEK03AE_11C_V1_GPRS_MMI/plutommi/Customer/ResGenerator/gcctmp/cck7daaa.s:6499   .rdata$_ZNSt15basic_streambufIcSt11char_traitsIcEE13_S_pback_sizeE:00000000 __ZNSt15basic_streambufIcSt11char_traitsIcEE13_S_pback_sizeE
d:/MTK/MTK2503/MTK2503/11CW1418SP4_03_CORETEK03AE_11C_V1_GPRS_MMI/plutommi/Customer/ResGenerator/gcctmp/cck7daaa.s:7696   .text:00001a28 __GLOBAL__I_initImageProcessData
d:/MTK/MTK2503/MTK2503/11CW1418SP4_03_CORETEK03AE_11C_V1_GPRS_MMI/plutommi/Customer/ResGenerator/gcctmp/cck7daaa.s:7720   .text:00001a44 __GLOBAL__D_initImageProcessData
d:/MTK/MTK2503/MTK2503/11CW1418SP4_03_CORETEK03AE_11C_V1_GPRS_MMI/plutommi/Customer/ResGenerator/gcctmp/cck7daaa.s:6508   .text$_ZNSt4listI16ProcessImageDataSaIS0_EED1Ev:00000000 __ZNSt4listI16ProcessImageDataSaIS0_EED1Ev
d:/MTK/MTK2503/MTK2503/11CW1418SP4_03_CORETEK03AE_11C_V1_GPRS_MMI/plutommi/Customer/ResGenerator/gcctmp/cck7daaa.s:6366   .text$_ZNSt4listI13LogBinaryDataSaIS0_EED1Ev:00000000 __ZNSt4listI13LogBinaryDataSaIS0_EED1Ev
d:/MTK/MTK2503/MTK2503/11CW1418SP4_03_CORETEK03AE_11C_V1_GPRS_MMI/plutommi/Customer/ResGenerator/gcctmp/cck7daaa.s:7611   .text$_ZN13LogBinaryDataC1ERKS_:00000000 __ZN13LogBinaryDataC1ERKS_
d:/MTK/MTK2503/MTK2503/11CW1418SP4_03_CORETEK03AE_11C_V1_GPRS_MMI/plutommi/Customer/ResGenerator/gcctmp/cck7daaa.s:7392   .text$_ZdlPvS_:00000000 __ZdlPvS_
d:/MTK/MTK2503/MTK2503/11CW1418SP4_03_CORETEK03AE_11C_V1_GPRS_MMI/plutommi/Customer/ResGenerator/gcctmp/cck7daaa.s:7413   .text$_ZN16ProcessImageDataC1ERKS_:00000000 __ZN16ProcessImageDataC1ERKS_
d:/MTK/MTK2503/MTK2503/11CW1418SP4_03_CORETEK03AE_11C_V1_GPRS_MMI/plutommi/Customer/ResGenerator/gcctmp/cck7daaa.s:7368   .text$_ZnwjPv:00000000 __ZnwjPv
d:/MTK/MTK2503/MTK2503/11CW1418SP4_03_CORETEK03AE_11C_V1_GPRS_MMI/plutommi/Customer/ResGenerator/gcctmp/cck7daaa.s:7249   .text$_ZNSt14__simple_allocISt10_List_nodeI13LogBinaryDataESt24__default_alloc_templateILb1ELi0EEE10deallocateEPS2_j:00000000 __ZNSt14__simple_allocISt10_List_nodeI13LogBinaryDataESt24__default_alloc_templateILb1ELi0EEE10deallocateEPS2_j
d:/MTK/MTK2503/MTK2503/11CW1418SP4_03_CORETEK03AE_11C_V1_GPRS_MMI/plutommi/Customer/ResGenerator/gcctmp/cck7daaa.s:7675   .text$_ZSt8_DestroyI13LogBinaryDataEvPT_:00000000 __ZSt8_DestroyI13LogBinaryDataEvPT_
d:/MTK/MTK2503/MTK2503/11CW1418SP4_03_CORETEK03AE_11C_V1_GPRS_MMI/plutommi/Customer/ResGenerator/gcctmp/cck7daaa.s:7284   .text$_ZNSt10_List_baseI13LogBinaryDataSaIS0_EE7__clearEv:00000000 __ZNSt10_List_baseI13LogBinaryDataSaIS0_EE7__clearEv
d:/MTK/MTK2503/MTK2503/11CW1418SP4_03_CORETEK03AE_11C_V1_GPRS_MMI/plutommi/Customer/ResGenerator/gcctmp/cck7daaa.s:7129   .text$_ZNSt14__simple_allocISt10_List_nodeI16ProcessImageDataESt24__default_alloc_templateILb1ELi0EEE10deallocateEPS2_j:00000000 __ZNSt14__simple_allocISt10_List_nodeI16ProcessImageDataESt24__default_alloc_templateILb1ELi0EEE10deallocateEPS2_j
d:/MTK/MTK2503/MTK2503/11CW1418SP4_03_CORETEK03AE_11C_V1_GPRS_MMI/plutommi/Customer/ResGenerator/gcctmp/cck7daaa.s:7651   .text$_ZSt8_DestroyI16ProcessImageDataEvPT_:00000000 __ZSt8_DestroyI16ProcessImageDataEvPT_
d:/MTK/MTK2503/MTK2503/11CW1418SP4_03_CORETEK03AE_11C_V1_GPRS_MMI/plutommi/Customer/ResGenerator/gcctmp/cck7daaa.s:7164   .text$_ZNSt10_List_baseI16ProcessImageDataSaIS0_EE7__clearEv:00000000 __ZNSt10_List_baseI16ProcessImageDataSaIS0_EE7__clearEv
d:/MTK/MTK2503/MTK2503/11CW1418SP4_03_CORETEK03AE_11C_V1_GPRS_MMI/plutommi/Customer/ResGenerator/gcctmp/cck7daaa.s:7101   .text$_ZNSt16_List_alloc_baseI13LogBinaryDataSaIS0_ELb1EE11_M_put_nodeEPSt10_List_nodeIS0_E:00000000 __ZNSt16_List_alloc_baseI13LogBinaryDataSaIS0_ELb1EE11_M_put_nodeEPSt10_List_nodeIS0_E
d:/MTK/MTK2503/MTK2503/11CW1418SP4_03_CORETEK03AE_11C_V1_GPRS_MMI/plutommi/Customer/ResGenerator/gcctmp/cck7daaa.s:7003   .text$_ZSt10_ConstructI13LogBinaryDataS0_EvPT_RKT0_:00000000 __ZSt10_ConstructI13LogBinaryDataS0_EvPT_RKT0_
d:/MTK/MTK2503/MTK2503/11CW1418SP4_03_CORETEK03AE_11C_V1_GPRS_MMI/plutommi/Customer/ResGenerator/gcctmp/cck7daaa.s:6876   .text$_ZNSt4listI13LogBinaryDataSaIS0_EE14_M_create_nodeERKS0_:00000000 __ZNSt4listI13LogBinaryDataSaIS0_EE14_M_create_nodeERKS0_
d:/MTK/MTK2503/MTK2503/11CW1418SP4_03_CORETEK03AE_11C_V1_GPRS_MMI/plutommi/Customer/ResGenerator/gcctmp/cck7daaa.s:6297   .text$_ZNSt4listI13LogBinaryDataSaIS0_EE6insertESt14_List_iteratorIS0_RS0_PS0_ERKS0_:00000000 __ZNSt4listI13LogBinaryDataSaIS0_EE6insertESt14_List_iteratorIS0_RS0_PS0_ERKS0_
d:/MTK/MTK2503/MTK2503/11CW1418SP4_03_CORETEK03AE_11C_V1_GPRS_MMI/plutommi/Customer/ResGenerator/gcctmp/cck7daaa.s:6269   .text$_ZNSt14_List_iteratorI13LogBinaryDataRS0_PS0_EC1EPSt10_List_nodeIS0_E:00000000 __ZNSt14_List_iteratorI13LogBinaryDataRS0_PS0_EC1EPSt10_List_nodeIS0_E
d:/MTK/MTK2503/MTK2503/11CW1418SP4_03_CORETEK03AE_11C_V1_GPRS_MMI/plutommi/Customer/ResGenerator/gcctmp/cck7daaa.s:6235   .text$_ZNSt4listI13LogBinaryDataSaIS0_EE3endEv:00000000 __ZNSt4listI13LogBinaryDataSaIS0_EE3endEv
d:/MTK/MTK2503/MTK2503/11CW1418SP4_03_CORETEK03AE_11C_V1_GPRS_MMI/plutommi/Customer/ResGenerator/gcctmp/cck7daaa.s:6848   .text$_ZNSt16_List_alloc_baseI16ProcessImageDataSaIS0_ELb1EE11_M_put_nodeEPSt10_List_nodeIS0_E:00000000 __ZNSt16_List_alloc_baseI16ProcessImageDataSaIS0_ELb1EE11_M_put_nodeEPSt10_List_nodeIS0_E
d:/MTK/MTK2503/MTK2503/11CW1418SP4_03_CORETEK03AE_11C_V1_GPRS_MMI/plutommi/Customer/ResGenerator/gcctmp/cck7daaa.s:6750   .text$_ZSt10_ConstructI16ProcessImageDataS0_EvPT_RKT0_:00000000 __ZSt10_ConstructI16ProcessImageDataS0_EvPT_RKT0_
d:/MTK/MTK2503/MTK2503/11CW1418SP4_03_CORETEK03AE_11C_V1_GPRS_MMI/plutommi/Customer/ResGenerator/gcctmp/cck7daaa.s:6623   .text$_ZNSt4listI16ProcessImageDataSaIS0_EE14_M_create_nodeERKS0_:00000000 __ZNSt4listI16ProcessImageDataSaIS0_EE14_M_create_nodeERKS0_
d:/MTK/MTK2503/MTK2503/11CW1418SP4_03_CORETEK03AE_11C_V1_GPRS_MMI/plutommi/Customer/ResGenerator/gcctmp/cck7daaa.s:6166   .text$_ZNSt4listI16ProcessImageDataSaIS0_EE6insertESt14_List_iteratorIS0_RS0_PS0_ERKS0_:00000000 __ZNSt4listI16ProcessImageDataSaIS0_EE6insertESt14_List_iteratorIS0_RS0_PS0_ERKS0_
d:/MTK/MTK2503/MTK2503/11CW1418SP4_03_CORETEK03AE_11C_V1_GPRS_MMI/plutommi/Customer/ResGenerator/gcctmp/cck7daaa.s:5230   .text$_ZNSt19_List_iterator_base7_M_incrEv:00000000 __ZNSt19_List_iterator_base7_M_incrEv
d:/MTK/MTK2503/MTK2503/11CW1418SP4_03_CORETEK03AE_11C_V1_GPRS_MMI/plutommi/Customer/ResGenerator/gcctmp/cck7daaa.s:6535   .text$_ZNSt19_List_iterator_baseC2EPSt15_List_node_base:00000000 __ZNSt19_List_iterator_baseC2EPSt15_List_node_base
d:/MTK/MTK2503/MTK2503/11CW1418SP4_03_CORETEK03AE_11C_V1_GPRS_MMI/plutommi/Customer/ResGenerator/gcctmp/cck7daaa.s:6136   .text$_ZNSt14_List_iteratorI16ProcessImageDataRS0_PS0_EC1EPSt10_List_nodeIS0_E:00000000 __ZNSt14_List_iteratorI16ProcessImageDataRS0_PS0_EC1EPSt10_List_nodeIS0_E
d:/MTK/MTK2503/MTK2503/11CW1418SP4_03_CORETEK03AE_11C_V1_GPRS_MMI/plutommi/Customer/ResGenerator/gcctmp/cck7daaa.s:6590   .text$_ZNSt10_List_baseI13LogBinaryDataSaIS0_EED2Ev:00000000 __ZNSt10_List_baseI13LogBinaryDataSaIS0_EED2Ev
d:/MTK/MTK2503/MTK2503/11CW1418SP4_03_CORETEK03AE_11C_V1_GPRS_MMI/plutommi/Customer/ResGenerator/gcctmp/cck7daaa.s:6090   .text$_ZNSt14__simple_allocISt10_List_nodeI13LogBinaryDataESt24__default_alloc_templateILb1ELi0EEE8allocateEj:00000000 __ZNSt14__simple_allocISt10_List_nodeI13LogBinaryDataESt24__default_alloc_templateILb1ELi0EEE8allocateEj
d:/MTK/MTK2503/MTK2503/11CW1418SP4_03_CORETEK03AE_11C_V1_GPRS_MMI/plutommi/Customer/ResGenerator/gcctmp/cck7daaa.s:6067   .text$_ZNSt16_List_alloc_baseI13LogBinaryDataSaIS0_ELb1EE11_M_get_nodeEv:00000000 __ZNSt16_List_alloc_baseI13LogBinaryDataSaIS0_ELb1EE11_M_get_nodeEv
d:/MTK/MTK2503/MTK2503/11CW1418SP4_03_CORETEK03AE_11C_V1_GPRS_MMI/plutommi/Customer/ResGenerator/gcctmp/cck7daaa.s:6049   .text$_ZNSt16_List_alloc_baseI13LogBinaryDataSaIS0_ELb1EEC2ERKS1_:00000000 __ZNSt16_List_alloc_baseI13LogBinaryDataSaIS0_ELb1EEC2ERKS1_
d:/MTK/MTK2503/MTK2503/11CW1418SP4_03_CORETEK03AE_11C_V1_GPRS_MMI/plutommi/Customer/ResGenerator/gcctmp/cck7daaa.s:5997   .text$_ZNSt10_List_baseI13LogBinaryDataSaIS0_EEC2ERKS1_:00000000 __ZNSt10_List_baseI13LogBinaryDataSaIS0_EEC2ERKS1_
d:/MTK/MTK2503/MTK2503/11CW1418SP4_03_CORETEK03AE_11C_V1_GPRS_MMI/plutommi/Customer/ResGenerator/gcctmp/cck7daaa.s:6558   .text$_ZNSt10_List_baseI16ProcessImageDataSaIS0_EED2Ev:00000000 __ZNSt10_List_baseI16ProcessImageDataSaIS0_EED2Ev
d:/MTK/MTK2503/MTK2503/11CW1418SP4_03_CORETEK03AE_11C_V1_GPRS_MMI/plutommi/Customer/ResGenerator/gcctmp/cck7daaa.s:5950   .text$_ZNSt14__simple_allocISt10_List_nodeI16ProcessImageDataESt24__default_alloc_templateILb1ELi0EEE8allocateEj:00000000 __ZNSt14__simple_allocISt10_List_nodeI16ProcessImageDataESt24__default_alloc_templateILb1ELi0EEE8allocateEj
GAS LISTING d:/MTK/MTK2503/MTK2503/11CW1418SP4_03_CORETEK03AE_11C_V1_GPRS_MMI/plutommi/Customer/ResGenerator/gcctmp/cck7daaa.s 			page 135


d:/MTK/MTK2503/MTK2503/11CW1418SP4_03_CORETEK03AE_11C_V1_GPRS_MMI/plutommi/Customer/ResGenerator/gcctmp/cck7daaa.s:5927   .text$_ZNSt16_List_alloc_baseI16ProcessImageDataSaIS0_ELb1EE11_M_get_nodeEv:00000000 __ZNSt16_List_alloc_baseI16ProcessImageDataSaIS0_ELb1EE11_M_get_nodeEv
d:/MTK/MTK2503/MTK2503/11CW1418SP4_03_CORETEK03AE_11C_V1_GPRS_MMI/plutommi/Customer/ResGenerator/gcctmp/cck7daaa.s:5909   .text$_ZNSt16_List_alloc_baseI16ProcessImageDataSaIS0_ELb1EEC2ERKS1_:00000000 __ZNSt16_List_alloc_baseI16ProcessImageDataSaIS0_ELb1EEC2ERKS1_
d:/MTK/MTK2503/MTK2503/11CW1418SP4_03_CORETEK03AE_11C_V1_GPRS_MMI/plutommi/Customer/ResGenerator/gcctmp/cck7daaa.s:5859   .text$_ZNSt10_List_baseI16ProcessImageDataSaIS0_EEC2ERKS1_:00000000 __ZNSt10_List_baseI16ProcessImageDataSaIS0_EEC2ERKS1_
d:/MTK/MTK2503/MTK2503/11CW1418SP4_03_CORETEK03AE_11C_V1_GPRS_MMI/plutommi/Customer/ResGenerator/gcctmp/cck7daaa.s:5020   .text$_ZNSt4listI13LogBinaryDataSaIS0_EE9push_backERKS0_:00000000 __ZNSt4listI13LogBinaryDataSaIS0_EE9push_backERKS0_
d:/MTK/MTK2503/MTK2503/11CW1418SP4_03_CORETEK03AE_11C_V1_GPRS_MMI/plutommi/Customer/ResGenerator/gcctmp/cck7daaa.s:5652   .text$_ZN13LogBinaryDataD1Ev:00000000 __ZN13LogBinaryDataD1Ev
d:/MTK/MTK2503/MTK2503/11CW1418SP4_03_CORETEK03AE_11C_V1_GPRS_MMI/plutommi/Customer/ResGenerator/gcctmp/cck7daaa.s:5684   .text$_ZN13LogBinaryDataC1EtPci:00000000 __ZN13LogBinaryDataC1EtPci
d:/MTK/MTK2503/MTK2503/11CW1418SP4_03_CORETEK03AE_11C_V1_GPRS_MMI/plutommi/Customer/ResGenerator/gcctmp/cck7daaa.s:4553   .text:0000119c _ImageOutStreamAppend
d:/MTK/MTK2503/MTK2503/11CW1418SP4_03_CORETEK03AE_11C_V1_GPRS_MMI/plutommi/Customer/ResGenerator/gcctmp/cck7daaa.s:4979   .text$_ZNSt4listI16ProcessImageDataSaIS0_EE9push_backERKS0_:00000000 __ZNSt4listI16ProcessImageDataSaIS0_EE9push_backERKS0_
d:/MTK/MTK2503/MTK2503/11CW1418SP4_03_CORETEK03AE_11C_V1_GPRS_MMI/plutommi/Customer/ResGenerator/gcctmp/cck7daaa.s:4955   .text$_ZNKSt14_List_iteratorI16ProcessImageDataRS0_PS0_EdeEv:00000000 __ZNKSt14_List_iteratorI16ProcessImageDataRS0_PS0_EdeEv
d:/MTK/MTK2503/MTK2503/11CW1418SP4_03_CORETEK03AE_11C_V1_GPRS_MMI/plutommi/Customer/ResGenerator/gcctmp/cck7daaa.s:4928   .text$_ZNSt14_List_iteratorI16ProcessImageDataRS0_PS0_EppEv:00000000 __ZNSt14_List_iteratorI16ProcessImageDataRS0_PS0_EppEv
d:/MTK/MTK2503/MTK2503/11CW1418SP4_03_CORETEK03AE_11C_V1_GPRS_MMI/plutommi/Customer/ResGenerator/gcctmp/cck7daaa.s:5258   .text$_ZNKSt19_List_iterator_baseneERKS_:00000000 __ZNKSt19_List_iterator_baseneERKS_
d:/MTK/MTK2503/MTK2503/11CW1418SP4_03_CORETEK03AE_11C_V1_GPRS_MMI/plutommi/Customer/ResGenerator/gcctmp/cck7daaa.s:4897   .text$_ZNSt4listI16ProcessImageDataSaIS0_EE3endEv:00000000 __ZNSt4listI16ProcessImageDataSaIS0_EE3endEv
d:/MTK/MTK2503/MTK2503/11CW1418SP4_03_CORETEK03AE_11C_V1_GPRS_MMI/plutommi/Customer/ResGenerator/gcctmp/cck7daaa.s:4863   .text$_ZNSt4listI16ProcessImageDataSaIS0_EE5beginEv:00000000 __ZNSt4listI16ProcessImageDataSaIS0_EE5beginEv
d:/MTK/MTK2503/MTK2503/11CW1418SP4_03_CORETEK03AE_11C_V1_GPRS_MMI/plutommi/Customer/ResGenerator/gcctmp/cck7daaa.s:5339   .text$_ZN16ProcessImageDataD1Ev:00000000 __ZN16ProcessImageDataD1Ev
d:/MTK/MTK2503/MTK2503/11CW1418SP4_03_CORETEK03AE_11C_V1_GPRS_MMI/plutommi/Customer/ResGenerator/gcctmp/cck7daaa.s:5382   .text$_ZN16ProcessImageDataC1EtPcS0_iii:00000000 __ZN16ProcessImageDataC1EtPcS0_iii
d:/MTK/MTK2503/MTK2503/11CW1418SP4_03_CORETEK03AE_11C_V1_GPRS_MMI/plutommi/Customer/ResGenerator/gcctmp/cck7daaa.s:5828   .text$_ZNSt4listI13LogBinaryDataSaIS0_EEC1ERKS1_:00000000 __ZNSt4listI13LogBinaryDataSaIS0_EEC1ERKS1_
d:/MTK/MTK2503/MTK2503/11CW1418SP4_03_CORETEK03AE_11C_V1_GPRS_MMI/plutommi/Customer/ResGenerator/gcctmp/cck7daaa.s:5807   .text$_ZNSaI13LogBinaryDataED1Ev:00000000 __ZNSaI13LogBinaryDataED1Ev
d:/MTK/MTK2503/MTK2503/11CW1418SP4_03_CORETEK03AE_11C_V1_GPRS_MMI/plutommi/Customer/ResGenerator/gcctmp/cck7daaa.s:5785   .text$_ZNSaI13LogBinaryDataEC1Ev:00000000 __ZNSaI13LogBinaryDataEC1Ev
d:/MTK/MTK2503/MTK2503/11CW1418SP4_03_CORETEK03AE_11C_V1_GPRS_MMI/plutommi/Customer/ResGenerator/gcctmp/cck7daaa.s:5622   .text$_ZNSt4listI16ProcessImageDataSaIS0_EEC1ERKS1_:00000000 __ZNSt4listI16ProcessImageDataSaIS0_EEC1ERKS1_
d:/MTK/MTK2503/MTK2503/11CW1418SP4_03_CORETEK03AE_11C_V1_GPRS_MMI/plutommi/Customer/ResGenerator/gcctmp/cck7daaa.s:5601   .text$_ZNSaI16ProcessImageDataED1Ev:00000000 __ZNSaI16ProcessImageDataED1Ev
d:/MTK/MTK2503/MTK2503/11CW1418SP4_03_CORETEK03AE_11C_V1_GPRS_MMI/plutommi/Customer/ResGenerator/gcctmp/cck7daaa.s:5579   .text$_ZNSaI16ProcessImageDataEC1Ev:00000000 __ZNSaI16ProcessImageDataEC1Ev
d:/MTK/MTK2503/MTK2503/11CW1418SP4_03_CORETEK03AE_11C_V1_GPRS_MMI/plutommi/Customer/ResGenerator/gcctmp/cck7daaa.s:3494   .text:0000074c __Z21SetImageQWithBufferExtPcS_iii
d:/MTK/MTK2503/MTK2503/11CW1418SP4_03_CORETEK03AE_11C_V1_GPRS_MMI/plutommi/Customer/ResGenerator/gcctmp/cck7daaa.s:3446   .text:000006e8 __Z20SetImageWithBufferExtPcS_ii
d:/MTK/MTK2503/MTK2503/11CW1418SP4_03_CORETEK03AE_11C_V1_GPRS_MMI/plutommi/Customer/ResGenerator/gcctmp/cck7daaa.s:3232   .text:000005b4 _SetImageWithBuffer
d:/MTK/MTK2503/MTK2503/11CW1418SP4_03_CORETEK03AE_11C_V1_GPRS_MMI/plutommi/Customer/ResGenerator/gcctmp/cck7daaa.s:4624   .text:00001276 _ImageOutStreamOutputFile
d:/MTK/MTK2503/MTK2503/11CW1418SP4_03_CORETEK03AE_11C_V1_GPRS_MMI/plutommi/Customer/ResGenerator/gcctmp/cck7daaa.s:5312   .text$_ZN21_ResgenImageOutStreamD1Ev:00000000 __ZN21_ResgenImageOutStreamD1Ev
d:/MTK/MTK2503/MTK2503/11CW1418SP4_03_CORETEK03AE_11C_V1_GPRS_MMI/plutommi/Customer/ResGenerator/gcctmp/cck7daaa.s:5284   .text$_ZN21_ResgenImageOutStreamC1Ev:00000000 __ZN21_ResgenImageOutStreamC1Ev

UNDEFINED SYMBOLS
__ZN13ImageResParam14QUALITY_MEDIUME
__Unwind_SjLj_Resume
___gxx_personality_sj0
__Unwind_SjLj_Register
__Unwind_SjLj_Unregister
__imp___iob
_Sleep@4
_ImageIdMapEXT
_ImageNameListEXT
_CurrMaxImageNumEXT
_ImageIdMap
_ImageNameList
_CurrMaxImageNum
_image_idx
_OutputImgIDFile
_RepeatIDListFile
_CurrMaxImageIdEXT
_CurrMaxImageId
_g_resimg_count
_g_resimg_table
_fpImageResourceUsage
_g_mmi_resource_base_table
_fpImageResourceUsageExt
_GetSystemInfo@4
__ZNSt8ios_base4InitD1Ev
__ZNSt24__default_alloc_templateILb1ELi0EE10deallocateEPvj
___cxa_rethrow
__ZNSt24__default_alloc_templateILb1ELi0EE8allocateEj
GAS LISTING d:/MTK/MTK2503/MTK2503/11CW1418SP4_03_CORETEK03AE_11C_V1_GPRS_MMI/plutommi/Customer/ResGenerator/gcctmp/cck7daaa.s 			page 136


_reslog_adaptor_fatal_error_pending_log
_execute_ext_command
_fwrite
_memcpy
_realloc
_vsprintf
_resconfig_adaptor_get_max_thread_numebr
_GetOffsetFromResourceBase
_ExtractExtension
_strcmp
__ZNKSs5c_strEv
_strlen
_fprintf
__ZNSsC1ERKSs
_toupper
__ZNSsixEj
__ZNKSs6lengthEv
__ZNSsaSERKSs
__ZNSsC1Ev
__ZNSsD1Ev
__ZNSsC1EPKcRKSaIcE
__ZNSaIcED1Ev
__ZNSaIcEC1Ev
_fclose
_fopen
_SetNFBImageImp
_fflush
_reslog_adaptor_log
_strcpy
__assert
__ZNSt8ios_base4InitC1Ev
___cxa_end_catch
___cxa_begin_catch
__ZdlPv
__Znwj
